GAS LISTING /tmp/ccfCPxVa.s 			page 1


   1              		.file	"_KernelScheduler.cpp"
   2              		.option pic
   3              		.option norelax
   4              		.text
   5              	.Ltext0:
   6              		.align	2
   7              		.globl	_ZN9Scheduler3getEv
   9              	_ZN9Scheduler3getEv:
  10              	.LFB16:
  11              		.file 1 "src/_KernelScheduler.cpp"
   1:src/_KernelScheduler.cpp **** //
   2:src/_KernelScheduler.cpp **** // Created by os on 8/12/22.
   3:src/_KernelScheduler.cpp **** //
   4:src/_KernelScheduler.cpp **** 
   5:src/_KernelScheduler.cpp **** #include "../h/_KernelScheduler.h"
   6:src/_KernelScheduler.cpp **** #include "../h/syscall_c.h"
   7:src/_KernelScheduler.cpp **** #include "../test/printing.hpp"
   8:src/_KernelScheduler.cpp **** 
   9:src/_KernelScheduler.cpp **** Scheduler::struktura* Scheduler::head = nullptr;
  10:src/_KernelScheduler.cpp **** Scheduler::struktura* Scheduler::headuspavane = nullptr;
  11:src/_KernelScheduler.cpp **** 
  12:src/_KernelScheduler.cpp **** Nit *Scheduler::get() {
  12              		.loc 1 12 23
  13              		.cfi_startproc
  14 0000 130101FE 		addi	sp,sp,-32
  15              		.cfi_def_cfa_offset 32
  16 0004 233C1100 		sd	ra,24(sp)
  17 0008 23388100 		sd	s0,16(sp)
  18 000c 23349100 		sd	s1,8(sp)
  19              		.cfi_offset 1, -8
  20              		.cfi_offset 8, -16
  21              		.cfi_offset 9, -24
  22 0010 13040102 		addi	s0,sp,32
  23              		.cfi_def_cfa 8, 0
  13:src/_KernelScheduler.cpp ****     if(head==nullptr) {return nullptr;}
  24              		.loc 1 13 5
  25              		.loc 1 13 12 is_stmt 0
  26 0014 17050000 		ld	a0,.LANCHOR0
  26      03350500 
  27              		.loc 1 13 5
  28 001c 630E0504 		beqz	a0,.L4
  14:src/_KernelScheduler.cpp **** 
  15:src/_KernelScheduler.cpp ****     struktura *temp = head;
  29              		.loc 1 15 5 is_stmt 1
  30              	.LVL0:
  16:src/_KernelScheduler.cpp ****     Nit *t = head->t;
  31              		.loc 1 16 5
  32              		.loc 1 16 10 is_stmt 0
  33 0020 83340500 		ld	s1,0(a0)
  34              	.LVL1:
  17:src/_KernelScheduler.cpp **** 
  18:src/_KernelScheduler.cpp ****     head->next->prev=head->prev;
  35              		.loc 1 18 5 is_stmt 1
  36              		.loc 1 18 11 is_stmt 0
  37 0024 83370501 		ld	a5,16(a0)
  38              		.loc 1 18 28
  39 0028 03378501 		ld	a4,24(a0)
GAS LISTING /tmp/ccfCPxVa.s 			page 2


  40              		.loc 1 18 21
  41 002c 23BCE700 		sd	a4,24(a5)
  19:src/_KernelScheduler.cpp ****     head->prev->next=head->next;
  42              		.loc 1 19 5 is_stmt 1
  43              		.loc 1 19 11 is_stmt 0
  44 0030 83378501 		ld	a5,24(a0)
  45              		.loc 1 19 28
  46 0034 03370501 		ld	a4,16(a0)
  47              		.loc 1 19 21
  48 0038 23B8E700 		sd	a4,16(a5)
  20:src/_KernelScheduler.cpp **** 
  21:src/_KernelScheduler.cpp ****     head=temp->next;
  49              		.loc 1 21 5 is_stmt 1
  50              		.loc 1 21 16 is_stmt 0
  51 003c 83370501 		ld	a5,16(a0)
  52              		.loc 1 21 9
  53 0040 17070000 		sd	a5,.LANCHOR0,a4
  53      2330F700 
  22:src/_KernelScheduler.cpp ****     if(head==temp) head=nullptr;
  54              		.loc 1 22 5 is_stmt 1
  55 0048 6302F502 		beq	a0,a5,.L6
  56              	.L3:
  23:src/_KernelScheduler.cpp **** 
  24:src/_KernelScheduler.cpp ****     Memorija::oslobadjanje(temp);
  57              		.loc 1 24 5
  58              		.loc 1 24 27 is_stmt 0
  59 004c 97000000 		call	_ZN8Memorija12oslobadjanjeEPv@plt
  59      E7800000 
  60              	.LVL2:
  25:src/_KernelScheduler.cpp ****     return t;
  61              		.loc 1 25 5 is_stmt 1
  62              	.L1:
  26:src/_KernelScheduler.cpp **** }
  63              		.loc 1 26 1 is_stmt 0
  64 0054 13850400 		mv	a0,s1
  65 0058 83308101 		ld	ra,24(sp)
  66              		.cfi_remember_state
  67              		.cfi_restore 1
  68 005c 03340101 		ld	s0,16(sp)
  69              		.cfi_restore 8
  70              		.cfi_def_cfa 2, 32
  71 0060 83348100 		ld	s1,8(sp)
  72              		.cfi_restore 9
  73 0064 13010102 		addi	sp,sp,32
  74              		.cfi_def_cfa_offset 0
  75 0068 67800000 		jr	ra
  76              	.LVL3:
  77              	.L6:
  78              		.cfi_restore_state
  22:src/_KernelScheduler.cpp **** 
  79              		.loc 1 22 20 is_stmt 1 discriminator 1
  22:src/_KernelScheduler.cpp **** 
  80              		.loc 1 22 24 is_stmt 0 discriminator 1
  81 006c 97070000 		sd	zero,.LANCHOR0,a5
  81      23B00700 
  82 0074 6FF09FFD 		j	.L3
  83              	.LVL4:
GAS LISTING /tmp/ccfCPxVa.s 			page 3


  84              	.L4:
  13:src/_KernelScheduler.cpp **** 
  85              		.loc 1 13 31
  86 0078 93040500 		mv	s1,a0
  87 007c 6FF09FFD 		j	.L1
  88              		.cfi_endproc
  89              	.LFE16:
  91              		.align	2
  92              		.globl	_ZN9Scheduler3putEP3Nit
  94              	_ZN9Scheduler3putEP3Nit:
  95              	.LFB17:
  27:src/_KernelScheduler.cpp **** 
  28:src/_KernelScheduler.cpp **** int Scheduler::put(Nit* t) {
  96              		.loc 1 28 28 is_stmt 1
  97              		.cfi_startproc
  98              	.LVL5:
  99 0080 130101FE 		addi	sp,sp,-32
 100              		.cfi_def_cfa_offset 32
 101 0084 233C1100 		sd	ra,24(sp)
 102 0088 23388100 		sd	s0,16(sp)
 103 008c 23349100 		sd	s1,8(sp)
 104              		.cfi_offset 1, -8
 105              		.cfi_offset 8, -16
 106              		.cfi_offset 9, -24
 107 0090 13040102 		addi	s0,sp,32
 108              		.cfi_def_cfa 8, 0
 109 0094 93040500 		mv	s1,a0
  29:src/_KernelScheduler.cpp ****     struktura* novo = (struktura*)Memorija::alokacija(sizeof(struktura));
 110              		.loc 1 29 5
 111              		.loc 1 29 54 is_stmt 0
 112 0098 13050002 		li	a0,32
 113              	.LVL6:
 114 009c 97000000 		call	_ZN8Memorija9alokacijaEm@plt
 114      E7800000 
 115              	.LVL7:
  30:src/_KernelScheduler.cpp **** 
  31:src/_KernelScheduler.cpp ****     if(novo == nullptr) return -1;
 116              		.loc 1 31 5 is_stmt 1
 117 00a4 630C0504 		beqz	a0,.L10
  32:src/_KernelScheduler.cpp ****     novo->t=t;
 118              		.loc 1 32 5
 119              		.loc 1 32 12 is_stmt 0
 120 00a8 23309500 		sd	s1,0(a0)
  33:src/_KernelScheduler.cpp **** 
  34:src/_KernelScheduler.cpp ****     if(head==nullptr){
 121              		.loc 1 34 5 is_stmt 1
 122              		.loc 1 34 12 is_stmt 0
 123 00ac 97070000 		ld	a5,.LANCHOR0
 123      83B70700 
 124              		.loc 1 34 5
 125 00b4 63880702 		beqz	a5,.L12
  35:src/_KernelScheduler.cpp ****         head = novo;
  36:src/_KernelScheduler.cpp ****         head->next=head;
  37:src/_KernelScheduler.cpp ****         head->prev=head;
  38:src/_KernelScheduler.cpp ****         return 0;
  39:src/_KernelScheduler.cpp ****     }
  40:src/_KernelScheduler.cpp **** 
GAS LISTING /tmp/ccfCPxVa.s 			page 4


  41:src/_KernelScheduler.cpp ****     struktura* temp = head->prev;
 126              		.loc 1 41 5 is_stmt 1
 127              		.loc 1 41 16 is_stmt 0
 128 00b8 03B78701 		ld	a4,24(a5)
 129              	.LVL8:
  42:src/_KernelScheduler.cpp ****     temp->next=novo;
 130              		.loc 1 42 5 is_stmt 1
 131              		.loc 1 42 15 is_stmt 0
 132 00bc 2338A700 		sd	a0,16(a4)
  43:src/_KernelScheduler.cpp ****     novo->prev=temp;
 133              		.loc 1 43 5 is_stmt 1
 134              		.loc 1 43 15 is_stmt 0
 135 00c0 233CE500 		sd	a4,24(a0)
  44:src/_KernelScheduler.cpp ****     novo->next=head;
 136              		.loc 1 44 5 is_stmt 1
 137              		.loc 1 44 15 is_stmt 0
 138 00c4 2338F500 		sd	a5,16(a0)
  45:src/_KernelScheduler.cpp ****     head->prev=novo;
 139              		.loc 1 45 5 is_stmt 1
 140              		.loc 1 45 15 is_stmt 0
 141 00c8 23BCA700 		sd	a0,24(a5)
  46:src/_KernelScheduler.cpp ****     return 0;
 142              		.loc 1 46 5 is_stmt 1
 143              		.loc 1 46 12 is_stmt 0
 144 00cc 13050000 		li	a0,0
 145              	.LVL9:
 146              	.L8:
  47:src/_KernelScheduler.cpp **** }
 147              		.loc 1 47 1
 148 00d0 83308101 		ld	ra,24(sp)
 149              		.cfi_remember_state
 150              		.cfi_restore 1
 151 00d4 03340101 		ld	s0,16(sp)
 152              		.cfi_restore 8
 153              		.cfi_def_cfa 2, 32
 154 00d8 83348100 		ld	s1,8(sp)
 155              		.cfi_restore 9
 156              	.LVL10:
 157 00dc 13010102 		addi	sp,sp,32
 158              		.cfi_def_cfa_offset 0
 159 00e0 67800000 		jr	ra
 160              	.LVL11:
 161              	.L12:
 162              		.cfi_restore_state
  35:src/_KernelScheduler.cpp ****         head->next=head;
 163              		.loc 1 35 9 is_stmt 1
  35:src/_KernelScheduler.cpp ****         head->next=head;
 164              		.loc 1 35 14 is_stmt 0
 165 00e4 97070000 		sd	a0,.LANCHOR0,a5
 165      23B0A700 
  36:src/_KernelScheduler.cpp ****         head->prev=head;
 166              		.loc 1 36 9 is_stmt 1
  36:src/_KernelScheduler.cpp ****         head->prev=head;
 167              		.loc 1 36 19 is_stmt 0
 168 00ec 2338A500 		sd	a0,16(a0)
  37:src/_KernelScheduler.cpp ****         return 0;
 169              		.loc 1 37 9 is_stmt 1
GAS LISTING /tmp/ccfCPxVa.s 			page 5


  37:src/_KernelScheduler.cpp ****         return 0;
 170              		.loc 1 37 19 is_stmt 0
 171 00f0 233CA500 		sd	a0,24(a0)
  38:src/_KernelScheduler.cpp ****     }
 172              		.loc 1 38 9 is_stmt 1
  38:src/_KernelScheduler.cpp ****     }
 173              		.loc 1 38 16 is_stmt 0
 174 00f4 13050000 		li	a0,0
 175              	.LVL12:
 176 00f8 6FF09FFD 		j	.L8
 177              	.LVL13:
 178              	.L10:
  31:src/_KernelScheduler.cpp ****     novo->t=t;
 179              		.loc 1 31 33
 180 00fc 1305F0FF 		li	a0,-1
 181              	.LVL14:
 182 0100 6FF01FFD 		j	.L8
 183              		.cfi_endproc
 184              	.LFE17:
 186              		.align	2
 187              		.globl	_ZN9Scheduler13dekremntacijaEi
 189              	_ZN9Scheduler13dekremntacijaEi:
 190              	.LFB18:
  48:src/_KernelScheduler.cpp **** 
  49:src/_KernelScheduler.cpp **** void Scheduler::dekremntacija(int x) {
 191              		.loc 1 49 38 is_stmt 1
 192              		.cfi_startproc
 193              	.LVL15:
 194 0104 130101FE 		addi	sp,sp,-32
 195              		.cfi_def_cfa_offset 32
 196 0108 233C1100 		sd	ra,24(sp)
 197 010c 23388100 		sd	s0,16(sp)
 198 0110 23349100 		sd	s1,8(sp)
 199              		.cfi_offset 1, -8
 200              		.cfi_offset 8, -16
 201              		.cfi_offset 9, -24
 202 0114 13040102 		addi	s0,sp,32
 203              		.cfi_def_cfa 8, 0
  50:src/_KernelScheduler.cpp ****     if(headuspavane==nullptr) return;
 204              		.loc 1 50 5
 205              		.loc 1 50 20 is_stmt 0
 206 0118 97040000 		ld	s1,.LANCHOR0+8
 206      83B40400 
 207              		.loc 1 50 5
 208 0120 638C0400 		beqz	s1,.L13
  51:src/_KernelScheduler.cpp **** 
  52:src/_KernelScheduler.cpp ****     headuspavane->vreme-=x;
 209              		.loc 1 52 5 is_stmt 1
 210              		.loc 1 52 24 is_stmt 0
 211 0124 83A78400 		lw	a5,8(s1)
 212 0128 3B85A740 		subw	a0,a5,a0
 213              	.LVL16:
 214 012c 9B070500 		sext.w	a5,a0
 215 0130 23A4A400 		sw	a0,8(s1)
  53:src/_KernelScheduler.cpp ****     if(headuspavane->vreme<=0){
 216              		.loc 1 53 5 is_stmt 1
 217              	.LBB2:
GAS LISTING /tmp/ccfCPxVa.s 			page 6


 218 0134 635CF000 		blez	a5,.L18
 219              	.L13:
 220              	.LBE2:
  54:src/_KernelScheduler.cpp **** 
  55:src/_KernelScheduler.cpp ****         Scheduler::struktura *temp=headuspavane;
  56:src/_KernelScheduler.cpp ****         if(headuspavane->next==headuspavane) headuspavane=nullptr;
  57:src/_KernelScheduler.cpp ****         else {
  58:src/_KernelScheduler.cpp ****             Scheduler::struktura *pomoc = headuspavane->next;
  59:src/_KernelScheduler.cpp ****             headuspavane->prev->next = headuspavane->next;
  60:src/_KernelScheduler.cpp ****             headuspavane->next->prev = headuspavane->prev;
  61:src/_KernelScheduler.cpp ****             headuspavane = pomoc;
  62:src/_KernelScheduler.cpp ****         }
  63:src/_KernelScheduler.cpp **** 
  64:src/_KernelScheduler.cpp ****         temp->t->finished=false;
  65:src/_KernelScheduler.cpp ****         Scheduler::put(temp->t);
  66:src/_KernelScheduler.cpp ****         Memorija::oslobadjanje(temp);
  67:src/_KernelScheduler.cpp ****     }
  68:src/_KernelScheduler.cpp **** 
  69:src/_KernelScheduler.cpp **** }
 221              		.loc 1 69 1 is_stmt 0
 222 0138 83308101 		ld	ra,24(sp)
 223              		.cfi_remember_state
 224              		.cfi_restore 1
 225 013c 03340101 		ld	s0,16(sp)
 226              		.cfi_restore 8
 227              		.cfi_def_cfa 2, 32
 228 0140 83348100 		ld	s1,8(sp)
 229              		.cfi_restore 9
 230 0144 13010102 		addi	sp,sp,32
 231              		.cfi_def_cfa_offset 0
 232 0148 67800000 		jr	ra
 233              	.L18:
 234              		.cfi_restore_state
 235              	.LBB8:
 236              	.LBB3:
  55:src/_KernelScheduler.cpp ****         if(headuspavane->next==headuspavane) headuspavane=nullptr;
 237              		.loc 1 55 9 is_stmt 1
 238              	.LVL17:
  56:src/_KernelScheduler.cpp ****         else {
 239              		.loc 1 56 9
 240              	.LBB4:
  56:src/_KernelScheduler.cpp ****         else {
 241              		.loc 1 56 26 is_stmt 0
 242 014c 83B70401 		ld	a5,16(s1)
  56:src/_KernelScheduler.cpp ****         else {
 243              		.loc 1 56 9
 244 0150 6382F404 		beq	s1,a5,.L19
 245              	.LBB5:
  58:src/_KernelScheduler.cpp ****             headuspavane->prev->next = headuspavane->next;
 246              		.loc 1 58 13 is_stmt 1
 247              	.LVL18:
  59:src/_KernelScheduler.cpp ****             headuspavane->next->prev = headuspavane->prev;
 248              		.loc 1 59 13
  59:src/_KernelScheduler.cpp ****             headuspavane->next->prev = headuspavane->prev;
 249              		.loc 1 59 27 is_stmt 0
 250 0154 03B78401 		ld	a4,24(s1)
  59:src/_KernelScheduler.cpp ****             headuspavane->next->prev = headuspavane->prev;
GAS LISTING /tmp/ccfCPxVa.s 			page 7


 251              		.loc 1 59 38
 252 0158 2338F700 		sd	a5,16(a4)
  60:src/_KernelScheduler.cpp ****             headuspavane = pomoc;
 253              		.loc 1 60 13 is_stmt 1
  60:src/_KernelScheduler.cpp ****             headuspavane = pomoc;
 254              		.loc 1 60 27 is_stmt 0
 255 015c 03B70401 		ld	a4,16(s1)
  60:src/_KernelScheduler.cpp ****             headuspavane = pomoc;
 256              		.loc 1 60 54
 257 0160 83B68401 		ld	a3,24(s1)
  60:src/_KernelScheduler.cpp ****             headuspavane = pomoc;
 258              		.loc 1 60 38
 259 0164 233CD700 		sd	a3,24(a4)
  61:src/_KernelScheduler.cpp ****         }
 260              		.loc 1 61 13 is_stmt 1
  61:src/_KernelScheduler.cpp ****         }
 261              		.loc 1 61 26 is_stmt 0
 262 0168 17070000 		sd	a5,.LANCHOR0+8,a4
 262      2330F700 
 263              	.LVL19:
 264              	.L16:
 265              	.LBE5:
 266              	.LBE4:
  64:src/_KernelScheduler.cpp ****         Scheduler::put(temp->t);
 267              		.loc 1 64 9 is_stmt 1
  64:src/_KernelScheduler.cpp ****         Scheduler::put(temp->t);
 268              		.loc 1 64 15 is_stmt 0
 269 0170 83B70400 		ld	a5,0(s1)
  64:src/_KernelScheduler.cpp ****         Scheduler::put(temp->t);
 270              		.loc 1 64 26
 271 0174 23820700 		sb	zero,4(a5)
  65:src/_KernelScheduler.cpp ****         Memorija::oslobadjanje(temp);
 272              		.loc 1 65 9 is_stmt 1
  65:src/_KernelScheduler.cpp ****         Memorija::oslobadjanje(temp);
 273              		.loc 1 65 23 is_stmt 0
 274 0178 03B50400 		ld	a0,0(s1)
 275 017c 97000000 		call	_ZN9Scheduler3putEP3Nit
 275      E7800000 
 276              	.LVL20:
  66:src/_KernelScheduler.cpp ****     }
 277              		.loc 1 66 9 is_stmt 1
  66:src/_KernelScheduler.cpp ****     }
 278              		.loc 1 66 31 is_stmt 0
 279 0184 13850400 		mv	a0,s1
 280 0188 97000000 		call	_ZN8Memorija12oslobadjanjeEPv@plt
 280      E7800000 
 281              	.LVL21:
 282              	.LBE3:
 283 0190 6FF09FFA 		j	.L13
 284              	.L19:
 285              	.LBB7:
 286              	.LBB6:
  56:src/_KernelScheduler.cpp ****         else {
 287              		.loc 1 56 46 is_stmt 1 discriminator 1
  56:src/_KernelScheduler.cpp ****         else {
 288              		.loc 1 56 58 is_stmt 0 discriminator 1
 289 0194 97070000 		sd	zero,.LANCHOR0+8,a5
GAS LISTING /tmp/ccfCPxVa.s 			page 8


 289      23B00700 
 290 019c 6FF05FFD 		j	.L16
 291              	.LBE6:
 292              	.LBE7:
 293              	.LBE8:
 294              		.cfi_endproc
 295              	.LFE18:
 297              		.align	2
 298              		.globl	_ZN9Scheduler11threadsleepEi
 300              	_ZN9Scheduler11threadsleepEi:
 301              	.LFB19:
  70:src/_KernelScheduler.cpp **** 
  71:src/_KernelScheduler.cpp **** void Scheduler::threadsleep(int vreme) {
 302              		.loc 1 71 40 is_stmt 1
 303              		.cfi_startproc
 304              	.LVL22:
  72:src/_KernelScheduler.cpp ****     if(vreme==0) return;
 305              		.loc 1 72 5
 306 01a0 63020512 		beqz	a0,.L32
  71:src/_KernelScheduler.cpp ****     if(vreme==0) return;
 307              		.loc 1 71 40 is_stmt 0
 308 01a4 130101FE 		addi	sp,sp,-32
 309              		.cfi_def_cfa_offset 32
 310 01a8 233C1100 		sd	ra,24(sp)
 311 01ac 23388100 		sd	s0,16(sp)
 312 01b0 23349100 		sd	s1,8(sp)
 313              		.cfi_offset 1, -8
 314              		.cfi_offset 8, -16
 315              		.cfi_offset 9, -24
 316 01b4 13040102 		addi	s0,sp,32
 317              		.cfi_def_cfa 8, 0
 318 01b8 93040500 		mv	s1,a0
  73:src/_KernelScheduler.cpp ****     if(vreme%DEFAULT_TIME_SLICE) vreme+=DEFAULT_TIME_SLICE-vreme%DEFAULT_TIME_SLICE;
 319              		.loc 1 73 5 is_stmt 1
 320 01bc 93771500 		andi	a5,a0,1
 321 01c0 63860700 		beqz	a5,.L22
 322              		.loc 1 73 34 discriminator 1
 323              		.loc 1 73 39 is_stmt 0 discriminator 1
 324 01c4 9374E5FF 		andi	s1,a0,-2
 325 01c8 9B842400 		addiw	s1,s1,2
 326              	.LVL23:
 327              	.L22:
  74:src/_KernelScheduler.cpp **** 
  75:src/_KernelScheduler.cpp ****     struktura* novo = (struktura*)Memorija::alokacija(sizeof(struktura));
 328              		.loc 1 75 5 is_stmt 1
 329              		.loc 1 75 54 is_stmt 0
 330 01cc 13050002 		li	a0,32
 331 01d0 97000000 		call	_ZN8Memorija9alokacijaEm@plt
 331      E7800000 
 332              	.LVL24:
  76:src/_KernelScheduler.cpp **** 
  77:src/_KernelScheduler.cpp ****     if(novo == nullptr) return;
 333              		.loc 1 77 5 is_stmt 1
 334 01d8 630C050C 		beqz	a0,.L20
  78:src/_KernelScheduler.cpp ****     novo->t=Nit::running;
 335              		.loc 1 78 5
 336              		.loc 1 78 12 is_stmt 0
GAS LISTING /tmp/ccfCPxVa.s 			page 9


 337 01dc 97070000 		la	a5,_ZN3Nit7runningE
 337      83B70700 
 338 01e4 83B50700 		ld	a1,0(a5)
 339 01e8 2330B500 		sd	a1,0(a0)
  79:src/_KernelScheduler.cpp ****     novo->vreme=vreme;
 340              		.loc 1 79 5 is_stmt 1
 341              		.loc 1 79 16 is_stmt 0
 342 01ec 23249500 		sw	s1,8(a0)
  80:src/_KernelScheduler.cpp **** 
  81:src/_KernelScheduler.cpp ****     if(headuspavane==nullptr){
 343              		.loc 1 81 5 is_stmt 1
 344              	.LBB9:
 345              		.loc 1 81 20 is_stmt 0
 346 01f0 97070000 		ld	a5,.LANCHOR0+8
 346      83B70700 
 347              		.loc 1 81 5
 348 01f8 63880700 		beqz	a5,.L35
 349              	.LBB10:
  82:src/_KernelScheduler.cpp ****         headuspavane = novo;
  83:src/_KernelScheduler.cpp ****         headuspavane->next=headuspavane;
  84:src/_KernelScheduler.cpp ****         headuspavane->prev=headuspavane;
  85:src/_KernelScheduler.cpp ****     }
  86:src/_KernelScheduler.cpp **** 
  87:src/_KernelScheduler.cpp ****     else {
  88:src/_KernelScheduler.cpp ****         bool flag=true;
  89:src/_KernelScheduler.cpp ****         bool flag1=false;
 350              		.loc 1 89 14
 351 01fc 13060000 		li	a2,0
  88:src/_KernelScheduler.cpp ****         bool flag1=false;
 352              		.loc 1 88 14
 353 0200 13071000 		li	a4,1
 354 0204 6F008003 		j	.L23
 355              	.L35:
 356              	.LBE10:
  82:src/_KernelScheduler.cpp ****         headuspavane = novo;
 357              		.loc 1 82 9 is_stmt 1
  82:src/_KernelScheduler.cpp ****         headuspavane = novo;
 358              		.loc 1 82 22 is_stmt 0
 359 0208 97070000 		sd	a0,.LANCHOR0+8,a5
 359      23B0A700 
  83:src/_KernelScheduler.cpp ****         headuspavane->prev=headuspavane;
 360              		.loc 1 83 9 is_stmt 1
  83:src/_KernelScheduler.cpp ****         headuspavane->prev=headuspavane;
 361              		.loc 1 83 27 is_stmt 0
 362 0210 2338A500 		sd	a0,16(a0)
  84:src/_KernelScheduler.cpp ****     }
 363              		.loc 1 84 9 is_stmt 1
  84:src/_KernelScheduler.cpp ****     }
 364              		.loc 1 84 27 is_stmt 0
 365 0214 233CA500 		sd	a0,24(a0)
 366 0218 6F008008 		j	.L24
 367              	.LVL25:
 368              	.L36:
 369              	.LBB14:
 370              	.LBB11:
  90:src/_KernelScheduler.cpp ****         for(struktura *temp = headuspavane; flag || temp!=headuspavane;temp=temp->next){
  91:src/_KernelScheduler.cpp ****             flag=false;
GAS LISTING /tmp/ccfCPxVa.s 			page 10


  92:src/_KernelScheduler.cpp ****             if(temp->vreme > novo->vreme){
  93:src/_KernelScheduler.cpp ****                 temp->vreme-=novo->vreme;
  94:src/_KernelScheduler.cpp **** 
  95:src/_KernelScheduler.cpp ****                 novo->next=temp;
  96:src/_KernelScheduler.cpp ****                 novo->prev=temp->prev;
  97:src/_KernelScheduler.cpp ****                 temp->prev->next=novo;
  98:src/_KernelScheduler.cpp ****                 temp->prev=novo;
  99:src/_KernelScheduler.cpp **** 
 100:src/_KernelScheduler.cpp ****                 if(temp==headuspavane) headuspavane=novo;
 371              		.loc 1 100 40 is_stmt 1 discriminator 1
 372              		.loc 1 100 52 is_stmt 0 discriminator 1
 373 021c 17070000 		sd	a0,.LANCHOR0+8,a4
 373      2330A700 
 101:src/_KernelScheduler.cpp ****                 flag1=true;
 374              		.loc 1 101 22 discriminator 1
 375 0224 13061000 		li	a2,1
 376              	.LVL26:
 377 0228 6F00C000 		j	.L28
 378              	.LVL27:
 379              	.L27:
 102:src/_KernelScheduler.cpp ****             }
 103:src/_KernelScheduler.cpp ****             else{
 104:src/_KernelScheduler.cpp ****                 novo->vreme-=temp->vreme;
 380              		.loc 1 104 17 is_stmt 1
 381              		.loc 1 104 28 is_stmt 0
 382 022c 3B07D740 		subw	a4,a4,a3
 383 0230 2324E500 		sw	a4,8(a0)
 384              	.LVL28:
 385              	.L28:
  90:src/_KernelScheduler.cpp ****             flag=false;
 386              		.loc 1 90 9 is_stmt 1 discriminator 3
  90:src/_KernelScheduler.cpp ****             flag=false;
 387              		.loc 1 90 76 is_stmt 0 discriminator 3
 388 0234 83B70701 		ld	a5,16(a5)
 389              	.LVL29:
  91:src/_KernelScheduler.cpp ****             if(temp->vreme > novo->vreme){
 390              		.loc 1 91 17 discriminator 3
 391 0238 13070000 		li	a4,0
 392              	.LVL30:
 393              	.L23:
  90:src/_KernelScheduler.cpp ****             flag=false;
 394              		.loc 1 90 50 is_stmt 1 discriminator 1
 395 023c 63180700 		bnez	a4,.L25
  90:src/_KernelScheduler.cpp ****             flag=false;
 396              		.loc 1 90 57 is_stmt 0 discriminator 2
 397 0240 17070000 		ld	a4,.LANCHOR0+8
 397      03370700 
 398              	.LVL31:
  90:src/_KernelScheduler.cpp ****             flag=false;
 399              		.loc 1 90 50 discriminator 2
 400 0248 6300F704 		beq	a4,a5,.L26
 401              	.L25:
  91:src/_KernelScheduler.cpp ****             if(temp->vreme > novo->vreme){
 402              		.loc 1 91 13 is_stmt 1
 403              	.LVL32:
  92:src/_KernelScheduler.cpp ****                 temp->vreme-=novo->vreme;
 404              		.loc 1 92 13
GAS LISTING /tmp/ccfCPxVa.s 			page 11


  92:src/_KernelScheduler.cpp ****                 temp->vreme-=novo->vreme;
 405              		.loc 1 92 22 is_stmt 0
 406 024c 83A68700 		lw	a3,8(a5)
  92:src/_KernelScheduler.cpp ****                 temp->vreme-=novo->vreme;
 407              		.loc 1 92 36
 408 0250 03278500 		lw	a4,8(a0)
  92:src/_KernelScheduler.cpp ****                 temp->vreme-=novo->vreme;
 409              		.loc 1 92 13
 410 0254 E35CD7FC 		ble	a3,a4,.L27
  93:src/_KernelScheduler.cpp **** 
 411              		.loc 1 93 17 is_stmt 1
  93:src/_KernelScheduler.cpp **** 
 412              		.loc 1 93 28 is_stmt 0
 413 0258 3B87E640 		subw	a4,a3,a4
 414 025c 23A4E700 		sw	a4,8(a5)
  95:src/_KernelScheduler.cpp ****                 novo->prev=temp->prev;
 415              		.loc 1 95 17 is_stmt 1
  95:src/_KernelScheduler.cpp ****                 novo->prev=temp->prev;
 416              		.loc 1 95 27 is_stmt 0
 417 0260 2338F500 		sd	a5,16(a0)
  96:src/_KernelScheduler.cpp ****                 temp->prev->next=novo;
 418              		.loc 1 96 17 is_stmt 1
  96:src/_KernelScheduler.cpp ****                 temp->prev->next=novo;
 419              		.loc 1 96 34 is_stmt 0
 420 0264 03B78701 		ld	a4,24(a5)
  96:src/_KernelScheduler.cpp ****                 temp->prev->next=novo;
 421              		.loc 1 96 27
 422 0268 233CE500 		sd	a4,24(a0)
  97:src/_KernelScheduler.cpp ****                 temp->prev=novo;
 423              		.loc 1 97 17 is_stmt 1
  97:src/_KernelScheduler.cpp ****                 temp->prev=novo;
 424              		.loc 1 97 33 is_stmt 0
 425 026c 2338A700 		sd	a0,16(a4)
  98:src/_KernelScheduler.cpp **** 
 426              		.loc 1 98 17 is_stmt 1
  98:src/_KernelScheduler.cpp **** 
 427              		.loc 1 98 27 is_stmt 0
 428 0270 23BCA700 		sd	a0,24(a5)
 100:src/_KernelScheduler.cpp ****                 flag1=true;
 429              		.loc 1 100 17 is_stmt 1
 100:src/_KernelScheduler.cpp ****                 flag1=true;
 430              		.loc 1 100 24 is_stmt 0
 431 0274 17070000 		ld	a4,.LANCHOR0+8
 431      03370700 
 100:src/_KernelScheduler.cpp ****                 flag1=true;
 432              		.loc 1 100 17
 433 027c E300F7FA 		beq	a4,a5,.L36
 101:src/_KernelScheduler.cpp ****             }
 434              		.loc 1 101 22
 435 0280 13061000 		li	a2,1
 436              	.LVL33:
 437 0284 6FF01FFB 		j	.L28
 438              	.LVL34:
 439              	.L26:
 440              	.LBE11:
 105:src/_KernelScheduler.cpp ****             }
 106:src/_KernelScheduler.cpp ****         }
GAS LISTING /tmp/ccfCPxVa.s 			page 12


 107:src/_KernelScheduler.cpp ****         if(!flag1) {
 441              		.loc 1 107 9 is_stmt 1
 442              	.LBB12:
 443 0288 631C0600 		bnez	a2,.L24
 444              	.LBB13:
 108:src/_KernelScheduler.cpp ****             struktura *temp = headuspavane->prev;
 445              		.loc 1 108 13
 446              		.loc 1 108 24 is_stmt 0
 447 028c 83378701 		ld	a5,24(a4)
 448              	.LVL35:
 109:src/_KernelScheduler.cpp ****             temp->next = novo;
 449              		.loc 1 109 13 is_stmt 1
 450              		.loc 1 109 24 is_stmt 0
 451 0290 23B8A700 		sd	a0,16(a5)
 110:src/_KernelScheduler.cpp ****             novo->prev = temp;
 452              		.loc 1 110 13 is_stmt 1
 453              		.loc 1 110 24 is_stmt 0
 454 0294 233CF500 		sd	a5,24(a0)
 111:src/_KernelScheduler.cpp ****             novo->next = headuspavane;
 455              		.loc 1 111 13 is_stmt 1
 456              		.loc 1 111 24 is_stmt 0
 457 0298 2338E500 		sd	a4,16(a0)
 112:src/_KernelScheduler.cpp ****             headuspavane->prev = novo;
 458              		.loc 1 112 13 is_stmt 1
 459              		.loc 1 112 32 is_stmt 0
 460 029c 233CA700 		sd	a0,24(a4)
 461              	.LVL36:
 462              	.L24:
 463              	.LBE13:
 464              	.LBE12:
 465              	.LBE14:
 466              	.LBE9:
 113:src/_KernelScheduler.cpp ****         }
 114:src/_KernelScheduler.cpp ****     }
 115:src/_KernelScheduler.cpp **** 
 116:src/_KernelScheduler.cpp ****     Nit::running->finished=true;
 467              		.loc 1 116 5 is_stmt 1
 468              		.loc 1 116 27 is_stmt 0
 469 02a0 93071000 		li	a5,1
 470 02a4 2382F500 		sb	a5,4(a1)
 117:src/_KernelScheduler.cpp ****     thread_dispatch();
 471              		.loc 1 117 5 is_stmt 1
 472              		.loc 1 117 20 is_stmt 0
 473 02a8 97000000 		call	_Z15thread_dispatchv@plt
 473      E7800000 
 474              	.LVL37:
 475              	.L20:
 118:src/_KernelScheduler.cpp **** }
 476              		.loc 1 118 1
 477 02b0 83308101 		ld	ra,24(sp)
 478              		.cfi_restore 1
 479 02b4 03340101 		ld	s0,16(sp)
 480              		.cfi_restore 8
 481              		.cfi_def_cfa 2, 32
 482 02b8 83348100 		ld	s1,8(sp)
 483              		.cfi_restore 9
 484              	.LVL38:
GAS LISTING /tmp/ccfCPxVa.s 			page 13


 485 02bc 13010102 		addi	sp,sp,32
 486              		.cfi_def_cfa_offset 0
 487 02c0 67800000 		jr	ra
 488              	.LVL39:
 489              	.L32:
 490 02c4 67800000 		ret
 491              		.cfi_endproc
 492              	.LFE19:
 494              		.section	.rodata.str1.8,"aMS",@progbits,1
 495              		.align	3
 496              	.LC0:
 497 0000 52756E6E 		.string	"Running thread "
 497      696E6720 
 497      74687265 
 497      61642000 
 498              		.align	3
 499              	.LC1:
 500 0010 4E6F2065 		.string	"No elements\n"
 500      6C656D65 
 500      6E74730A 
 500      00
 501 001d 000000   		.align	3
 502              	.LC2:
 503 0020 54687265 		.string	"Threads that sleep:\n"
 503      61647320 
 503      74686174 
 503      20736C65 
 503      65703A0A 
 504 0035 000000   		.align	3
 505              	.LC3:
 506 0038 74696D65 		.string	"time: "
 506      3A2000
 507 003f 00       		.align	3
 508              	.LC4:
 509 0040 0A00     		.string	"\n"
 510              		.text
 511              		.align	2
 512              		.globl	_ZN9Scheduler5printEv
 514              	_ZN9Scheduler5printEv:
 515              	.LFB20:
 119:src/_KernelScheduler.cpp **** 
 120:src/_KernelScheduler.cpp **** void Scheduler::print() {
 516              		.loc 1 120 25 is_stmt 1
 517              		.cfi_startproc
 518 02c8 130101FE 		addi	sp,sp,-32
 519              		.cfi_def_cfa_offset 32
 520 02cc 233C1100 		sd	ra,24(sp)
 521 02d0 23388100 		sd	s0,16(sp)
 522 02d4 23349100 		sd	s1,8(sp)
 523              		.cfi_offset 1, -8
 524              		.cfi_offset 8, -16
 525              		.cfi_offset 9, -24
 526 02d8 13040102 		addi	s0,sp,32
 527              		.cfi_def_cfa 8, 0
 121:src/_KernelScheduler.cpp ****     printString("Running thread ");
 528              		.loc 1 121 5
 529              		.loc 1 121 16 is_stmt 0
GAS LISTING /tmp/ccfCPxVa.s 			page 14


 530 02dc 17050000 		lla	a0,.LC0
 530      13050500 
 531 02e4 97000000 		call	_Z11printStringPKc@plt
 531      E7800000 
 532              	.LVL40:
 122:src/_KernelScheduler.cpp ****     Nit::running->print();
 533              		.loc 1 122 5 is_stmt 1
 534              		.loc 1 122 24 is_stmt 0
 535 02ec 97070000 		la	a5,_ZN3Nit7runningE
 535      83B70700 
 536 02f4 03B50700 		ld	a0,0(a5)
 537 02f8 97000000 		call	_ZN3Nit5printEv@plt
 537      E7800000 
 538              	.LVL41:
 123:src/_KernelScheduler.cpp **** 
 124:src/_KernelScheduler.cpp ****     if(!head) {
 539              		.loc 1 124 5 is_stmt 1
 540              	.LBB15:
 541              		.loc 1 124 8 is_stmt 0
 542 0300 97040000 		ld	s1,.LANCHOR0
 542      83B40400 
 543              		.loc 1 124 5
 544 0308 63860400 		beqz	s1,.L46
 545              	.LBB16:
 125:src/_KernelScheduler.cpp ****         printString("No elements\n");
 126:src/_KernelScheduler.cpp ****     }
 127:src/_KernelScheduler.cpp ****     else {
 128:src/_KernelScheduler.cpp ****         bool f=true;
 546              		.loc 1 128 14
 547 030c 93071000 		li	a5,1
 548 0310 6F00C002 		j	.L38
 549              	.L46:
 550              	.LBE16:
 125:src/_KernelScheduler.cpp ****         printString("No elements\n");
 551              		.loc 1 125 9 is_stmt 1
 125:src/_KernelScheduler.cpp ****         printString("No elements\n");
 552              		.loc 1 125 20 is_stmt 0
 553 0314 17050000 		lla	a0,.LC1
 553      13050500 
 554 031c 97000000 		call	_Z11printStringPKc@plt
 554      E7800000 
 555              	.LVL42:
 556 0324 6F008002 		j	.L39
 557              	.LVL43:
 558              	.L40:
 559              	.LBB18:
 560              	.LBB17:
 129:src/_KernelScheduler.cpp ****         for (struktura *temp = head; f||temp!=head; temp = temp->next) {
 130:src/_KernelScheduler.cpp ****             f=false;
 561              		.loc 1 130 13 is_stmt 1 discriminator 4
 131:src/_KernelScheduler.cpp ****             temp->t->print();
 562              		.loc 1 131 13 discriminator 4
 563              		.loc 1 131 27 is_stmt 0 discriminator 4
 564 0328 03B50400 		ld	a0,0(s1)
 565 032c 97000000 		call	_ZN3Nit5printEv@plt
 565      E7800000 
 566              	.LVL44:
GAS LISTING /tmp/ccfCPxVa.s 			page 15


 129:src/_KernelScheduler.cpp ****         for (struktura *temp = head; f||temp!=head; temp = temp->next) {
 567              		.loc 1 129 9 is_stmt 1 discriminator 4
 129:src/_KernelScheduler.cpp ****         for (struktura *temp = head; f||temp!=head; temp = temp->next) {
 568              		.loc 1 129 58 is_stmt 0 discriminator 4
 569 0334 83B40401 		ld	s1,16(s1)
 570              	.LVL45:
 130:src/_KernelScheduler.cpp ****             temp->t->print();
 571              		.loc 1 130 14 discriminator 4
 572 0338 93070000 		li	a5,0
 573              	.LVL46:
 574              	.L38:
 129:src/_KernelScheduler.cpp ****         for (struktura *temp = head; f||temp!=head; temp = temp->next) {
 575              		.loc 1 129 39 is_stmt 1 discriminator 5
 576 033c E39607FE 		bnez	a5,.L40
 129:src/_KernelScheduler.cpp ****         for (struktura *temp = head; f||temp!=head; temp = temp->next) {
 577              		.loc 1 129 45 is_stmt 0 discriminator 2
 578 0340 97070000 		ld	a5,.LANCHOR0
 578      83B70700 
 579              	.LVL47:
 129:src/_KernelScheduler.cpp ****         for (struktura *temp = head; f||temp!=head; temp = temp->next) {
 580              		.loc 1 129 39 discriminator 2
 581 0348 E39097FE 		bne	a5,s1,.L40
 582              	.LVL48:
 583              	.L39:
 584              	.LBE17:
 585              	.LBE18:
 586              	.LBE15:
 132:src/_KernelScheduler.cpp ****         }
 133:src/_KernelScheduler.cpp ****     }
 134:src/_KernelScheduler.cpp ****     printString("Threads that sleep:\n");
 587              		.loc 1 134 5 is_stmt 1
 588              		.loc 1 134 16 is_stmt 0
 589 034c 17050000 		lla	a0,.LC2
 589      13050500 
 590 0354 97000000 		call	_Z11printStringPKc@plt
 590      E7800000 
 591              	.LVL49:
 135:src/_KernelScheduler.cpp **** 
 136:src/_KernelScheduler.cpp ****     if(!headuspavane) {
 592              		.loc 1 136 5 is_stmt 1
 593              	.LBB19:
 594              		.loc 1 136 8 is_stmt 0
 595 035c 97040000 		ld	s1,.LANCHOR0+8
 595      83B40400 
 596              		.loc 1 136 5
 597 0364 638E0404 		beqz	s1,.L47
 598              	.L41:
 599              	.LVL50:
 600              	.LBB20:
 601              	.LBB21:
 137:src/_KernelScheduler.cpp ****         printString("No elements\n");
 138:src/_KernelScheduler.cpp ****     }
 139:src/_KernelScheduler.cpp ****     else {
 140:src/_KernelScheduler.cpp ****         for (struktura *temp = headuspavane; temp->next != headuspavane; temp = temp->next) {
 602              		.loc 1 140 57 is_stmt 1 discriminator 3
 603              		.loc 1 140 52 is_stmt 0 discriminator 3
 604 0368 03B70401 		ld	a4,16(s1)
GAS LISTING /tmp/ccfCPxVa.s 			page 16


 605              		.loc 1 140 57 discriminator 3
 606 036c 97070000 		ld	a5,.LANCHOR0+8
 606      83B70700 
 607 0374 6300F706 		beq	a4,a5,.L43
 141:src/_KernelScheduler.cpp ****             temp->t->print();
 608              		.loc 1 141 13 is_stmt 1 discriminator 2
 609              		.loc 1 141 27 is_stmt 0 discriminator 2
 610 0378 03B50400 		ld	a0,0(s1)
 611 037c 97000000 		call	_ZN3Nit5printEv@plt
 611      E7800000 
 612              	.LVL51:
 142:src/_KernelScheduler.cpp ****             printString("time: ");
 613              		.loc 1 142 13 is_stmt 1 discriminator 2
 614              		.loc 1 142 24 is_stmt 0 discriminator 2
 615 0384 17050000 		lla	a0,.LC3
 615      13050500 
 616 038c 97000000 		call	_Z11printStringPKc@plt
 616      E7800000 
 617              	.LVL52:
 143:src/_KernelScheduler.cpp ****             printInt(temp->vreme);
 618              		.loc 1 143 13 is_stmt 1 discriminator 2
 619              		.loc 1 143 21 is_stmt 0 discriminator 2
 620 0394 13060000 		li	a2,0
 621 0398 9305A000 		li	a1,10
 622 039c 03A58400 		lw	a0,8(s1)
 623 03a0 97000000 		call	_Z8printIntiii@plt
 623      E7800000 
 624              	.LVL53:
 144:src/_KernelScheduler.cpp ****             printString("\n");
 625              		.loc 1 144 13 is_stmt 1 discriminator 2
 626              		.loc 1 144 24 is_stmt 0 discriminator 2
 627 03a8 17050000 		lla	a0,.LC4
 627      13050500 
 628 03b0 97000000 		call	_Z11printStringPKc@plt
 628      E7800000 
 629              	.LVL54:
 140:src/_KernelScheduler.cpp ****             temp->t->print();
 630              		.loc 1 140 9 is_stmt 1 discriminator 2
 140:src/_KernelScheduler.cpp ****             temp->t->print();
 631              		.loc 1 140 79 is_stmt 0 discriminator 2
 632 03b8 83B40401 		ld	s1,16(s1)
 633              	.LVL55:
 140:src/_KernelScheduler.cpp ****             temp->t->print();
 634              		.loc 1 140 9 discriminator 2
 635 03bc 6FF0DFFA 		j	.L41
 636              	.LVL56:
 637              	.L47:
 638              	.LBE21:
 639              	.LBE20:
 137:src/_KernelScheduler.cpp ****     }
 640              		.loc 1 137 9 is_stmt 1
 137:src/_KernelScheduler.cpp ****     }
 641              		.loc 1 137 20 is_stmt 0
 642 03c0 17050000 		lla	a0,.LC1
 642      13050500 
 643 03c8 97000000 		call	_Z11printStringPKc@plt
 643      E7800000 
GAS LISTING /tmp/ccfCPxVa.s 			page 17


 644              	.LVL57:
 645 03d0 6F004005 		j	.L37
 646              	.LVL58:
 647              	.L43:
 648              	.LBB22:
 145:src/_KernelScheduler.cpp ****         }
 146:src/_KernelScheduler.cpp ****         headuspavane->prev->t->print();
 649              		.loc 1 146 9 is_stmt 1
 650              		.loc 1 146 23 is_stmt 0
 651 03d4 83B78701 		ld	a5,24(a5)
 652              		.loc 1 146 37
 653 03d8 03B50700 		ld	a0,0(a5)
 654 03dc 97000000 		call	_ZN3Nit5printEv@plt
 654      E7800000 
 655              	.LVL59:
 147:src/_KernelScheduler.cpp ****         printString("time: ");
 656              		.loc 1 147 9 is_stmt 1
 657              		.loc 1 147 20 is_stmt 0
 658 03e4 17050000 		lla	a0,.LC3
 658      13050500 
 659 03ec 97000000 		call	_Z11printStringPKc@plt
 659      E7800000 
 660              	.LVL60:
 148:src/_KernelScheduler.cpp ****         printInt(headuspavane->prev->vreme);
 661              		.loc 1 148 9 is_stmt 1
 662              		.loc 1 148 32 is_stmt 0
 663 03f4 97070000 		ld	a5,.LANCHOR0+8
 663      83B70700 
 664 03fc 83B78701 		ld	a5,24(a5)
 665              		.loc 1 148 17
 666 0400 13060000 		li	a2,0
 667 0404 9305A000 		li	a1,10
 668 0408 03A58700 		lw	a0,8(a5)
 669 040c 97000000 		call	_Z8printIntiii@plt
 669      E7800000 
 670              	.LVL61:
 149:src/_KernelScheduler.cpp ****         printString("\n");
 671              		.loc 1 149 9 is_stmt 1
 672              		.loc 1 149 20 is_stmt 0
 673 0414 17050000 		lla	a0,.LC4
 673      13050500 
 674 041c 97000000 		call	_Z11printStringPKc@plt
 674      E7800000 
 675              	.LVL62:
 676              	.LBE22:
 677              	.LBE19:
 150:src/_KernelScheduler.cpp ****     }
 151:src/_KernelScheduler.cpp ****     return;
 678              		.loc 1 151 5 is_stmt 1
 679              	.L37:
 152:src/_KernelScheduler.cpp **** }...
 680              		.loc 1 152 1 is_stmt 0
 681 0424 83308101 		ld	ra,24(sp)
 682              		.cfi_restore 1
 683 0428 03340101 		ld	s0,16(sp)
 684              		.cfi_restore 8
 685              		.cfi_def_cfa 2, 32
GAS LISTING /tmp/ccfCPxVa.s 			page 18


 686 042c 83348100 		ld	s1,8(sp)
 687              		.cfi_restore 9
 688 0430 13010102 		addi	sp,sp,32
 689              		.cfi_def_cfa_offset 0
 690 0434 67800000 		jr	ra
 691              		.cfi_endproc
 692              	.LFE20:
 694              		.globl	_ZN9Scheduler12headuspavaneE
 695              		.globl	_ZN9Scheduler4headE
 696              		.bss
 697              		.align	3
 698              		.set	.LANCHOR0,. + 0
 701              	_ZN9Scheduler4headE:
 702 0000 00000000 		.zero	8
 702      00000000 
 705              	_ZN9Scheduler12headuspavaneE:
 706 0008 00000000 		.zero	8
 706      00000000 
 707              		.text
 708              	.Letext0:
 709              		.file 2 "src/../h/../h/../lib/hw.h"
 710              		.file 3 "src/../h/../h/../h/_KernelMemory.h"
 711              		.file 4 "src/../h/../h/_KernelThreadControlBlock.h"
 712              		.file 5 "src/../h/../h/../h/list.h"
 713              		.file 6 "src/../h/_KernelScheduler.h"
 714              		.file 7 "src/../h/syscall_c.h"
 715              		.file 8 "src/../test/printing.hpp"
 716              		.file 9 "<built-in>"
GAS LISTING /tmp/ccfCPxVa.s 			page 19

