GAS LISTING /tmp/ccVIj88V.s 			page 1


   1              		.file	"_KernelConsole.cpp"
   2              		.option pic
   3              		.option norelax
   4              		.text
   5              	.Ltext0:
   6              		.align	2
   7              		.globl	_ZN7Konzola7putulazEi
   9              	_ZN7Konzola7putulazEi:
  10              	.LFB23:
  11              		.file 1 "src/_KernelConsole.cpp"
   1:src/_KernelConsole.cpp **** //
   2:src/_KernelConsole.cpp **** // Created by os on 9/14/22.
   3:src/_KernelConsole.cpp **** //
   4:src/_KernelConsole.cpp **** 
   5:src/_KernelConsole.cpp **** #include "../h/_KernelConsole.h"
   6:src/_KernelConsole.cpp **** 
   7:src/_KernelConsole.cpp **** Bafer* Konzola::baferizlaz = nullptr;
   8:src/_KernelConsole.cpp **** Bafer* Konzola::baferulaz = nullptr;
   9:src/_KernelConsole.cpp **** 
  10:src/_KernelConsole.cpp **** int Konzola::kapacitet=1024;
  11:src/_KernelConsole.cpp **** 
  12:src/_KernelConsole.cpp **** void Konzola::putulaz(int val) {
  12              		.loc 1 12 32
  13              		.cfi_startproc
  14              	.LVL0:
  15 0000 130101F9 		addi	sp,sp,-112
  16              		.cfi_def_cfa_offset 112
  17 0004 23341106 		sd	ra,104(sp)
  18 0008 23308106 		sd	s0,96(sp)
  19 000c 233C9104 		sd	s1,88(sp)
  20 0010 23382105 		sd	s2,80(sp)
  21 0014 23343105 		sd	s3,72(sp)
  22              		.cfi_offset 1, -8
  23              		.cfi_offset 8, -16
  24              		.cfi_offset 9, -24
  25              		.cfi_offset 18, -32
  26              		.cfi_offset 19, -40
  27 0018 13040107 		addi	s0,sp,112
  28              		.cfi_def_cfa 8, 0
  29 001c 93040500 		mv	s1,a0
  13:src/_KernelConsole.cpp ****     if(baferulaz==nullptr) {
  30              		.loc 1 13 5
  31              		.loc 1 13 17 is_stmt 0
  32 0020 97070000 		ld	a5,.LANCHOR0
  32      83B70700 
  33              		.loc 1 13 5
  34 0028 638A0702 		beqz	a5,.L4
  35              	.LVL1:
  36              	.L2:
  14:src/_KernelConsole.cpp ****         baferulaz=(Bafer*) Memorija::alokacija(kapacitet*sizeof(Bafer));
  15:src/_KernelConsole.cpp ****         *baferulaz=Bafer(kapacitet);
  16:src/_KernelConsole.cpp ****     }
  17:src/_KernelConsole.cpp ****     baferulaz->put(val);
  37              		.loc 1 17 5 is_stmt 1
  38              		.loc 1 17 19 is_stmt 0
  39 002c 93850400 		mv	a1,s1
  40 0030 17050000 		ld	a0,.LANCHOR0
GAS LISTING /tmp/ccVIj88V.s 			page 2


  40      03350500 
  41 0038 97000000 		call	_ZN5Bafer3putEi@plt
  41      E7800000 
  42              	.LVL2:
  18:src/_KernelConsole.cpp **** }
  43              		.loc 1 18 1
  44 0040 83308106 		ld	ra,104(sp)
  45              		.cfi_remember_state
  46              		.cfi_restore 1
  47 0044 03340106 		ld	s0,96(sp)
  48              		.cfi_restore 8
  49              		.cfi_def_cfa 2, 112
  50 0048 83348105 		ld	s1,88(sp)
  51              		.cfi_restore 9
  52 004c 03390105 		ld	s2,80(sp)
  53              		.cfi_restore 18
  54 0050 83398104 		ld	s3,72(sp)
  55              		.cfi_restore 19
  56 0054 13010107 		addi	sp,sp,112
  57              		.cfi_def_cfa_offset 0
  58 0058 67800000 		jr	ra
  59              	.LVL3:
  60              	.L4:
  61              		.cfi_restore_state
  14:src/_KernelConsole.cpp ****         baferulaz=(Bafer*) Memorija::alokacija(kapacitet*sizeof(Bafer));
  62              		.loc 1 14 9 is_stmt 1
  14:src/_KernelConsole.cpp ****         baferulaz=(Bafer*) Memorija::alokacija(kapacitet*sizeof(Bafer));
  63              		.loc 1 14 48 is_stmt 0
  64 005c 97090000 		lla	s3,.LANCHOR1
  64      93890900 
  65 0064 83A70900 		lw	a5,0(s3)
  14:src/_KernelConsole.cpp ****         baferulaz=(Bafer*) Memorija::alokacija(kapacitet*sizeof(Bafer));
  66              		.loc 1 14 47
  67 0068 13953700 		slli	a0,a5,3
  68              	.LVL4:
  69 006c 3305F540 		sub	a0,a0,a5
  70 0070 13153500 		slli	a0,a0,3
  71 0074 97000000 		call	_ZN8Memorija9alokacijaEm@plt
  71      E7800000 
  72              	.LVL5:
  14:src/_KernelConsole.cpp ****         baferulaz=(Bafer*) Memorija::alokacija(kapacitet*sizeof(Bafer));
  73              		.loc 1 14 18
  74 007c 17090000 		lla	s2,.LANCHOR0
  74      13090900 
  75 0084 2330A900 		sd	a0,0(s2)
  15:src/_KernelConsole.cpp ****     }
  76              		.loc 1 15 9 is_stmt 1
  15:src/_KernelConsole.cpp ****     }
  77              		.loc 1 15 20 is_stmt 0
  78 0088 83A50900 		lw	a1,0(s3)
  79 008c 130584F9 		addi	a0,s0,-104
  80 0090 97000000 		call	_ZN5BaferC1Ei@plt
  80      E7800000 
  81              	.LVL6:
  15:src/_KernelConsole.cpp ****     }
  82              		.loc 1 15 19
  83 0098 83370900 		ld	a5,0(s2)
GAS LISTING /tmp/ccVIj88V.s 			page 3


  84 009c 033804FA 		ld	a6,-96(s0)
  85 00a0 033584FA 		ld	a0,-88(s0)
  86 00a4 833504FB 		ld	a1,-80(s0)
  87 00a8 033684FB 		ld	a2,-72(s0)
  88 00ac 833604FC 		ld	a3,-64(s0)
  89 00b0 033784FC 		ld	a4,-56(s0)
  90 00b4 833884F9 		ld	a7,-104(s0)
  91 00b8 23B01701 		sd	a7,0(a5)
  92 00bc 23B40701 		sd	a6,8(a5)
  93 00c0 23B8A700 		sd	a0,16(a5)
  94 00c4 23BCB700 		sd	a1,24(a5)
  95 00c8 23B0C702 		sd	a2,32(a5)
  96 00cc 23B4D702 		sd	a3,40(a5)
  97 00d0 23B8E702 		sd	a4,48(a5)
  98 00d4 6FF09FF5 		j	.L2
  99              		.cfi_endproc
 100              	.LFE23:
 102              		.align	2
 103              		.globl	_ZN7Konzola7getulazEv
 105              	_ZN7Konzola7getulazEv:
 106              	.LFB24:
  19:src/_KernelConsole.cpp **** 
  20:src/_KernelConsole.cpp **** int Konzola::getulaz() {
 107              		.loc 1 20 24 is_stmt 1
 108              		.cfi_startproc
 109 00d8 130101FA 		addi	sp,sp,-96
 110              		.cfi_def_cfa_offset 96
 111 00dc 233C1104 		sd	ra,88(sp)
 112 00e0 23388104 		sd	s0,80(sp)
 113 00e4 23349104 		sd	s1,72(sp)
 114 00e8 23302105 		sd	s2,64(sp)
 115              		.cfi_offset 1, -8
 116              		.cfi_offset 8, -16
 117              		.cfi_offset 9, -24
 118              		.cfi_offset 18, -32
 119 00ec 13040106 		addi	s0,sp,96
 120              		.cfi_def_cfa 8, 0
  21:src/_KernelConsole.cpp ****     if(baferulaz==nullptr) {
 121              		.loc 1 21 5
 122              		.loc 1 21 17 is_stmt 0
 123 00f0 97070000 		ld	a5,.LANCHOR0
 123      83B70700 
 124              		.loc 1 21 5
 125 00f8 63860702 		beqz	a5,.L8
 126              	.L6:
  22:src/_KernelConsole.cpp ****         baferulaz=(Bafer*) Memorija::alokacija(kapacitet*sizeof(Bafer));
  23:src/_KernelConsole.cpp ****         *baferulaz=Bafer(kapacitet);
  24:src/_KernelConsole.cpp ****     }
  25:src/_KernelConsole.cpp ****     return baferulaz->get();
 127              		.loc 1 25 5 is_stmt 1
 128              		.loc 1 25 26 is_stmt 0
 129 00fc 17050000 		ld	a0,.LANCHOR0
 129      03350500 
 130 0104 97000000 		call	_ZN5Bafer3getEv@plt
 130      E7800000 
 131              	.LVL7:
  26:src/_KernelConsole.cpp **** }
GAS LISTING /tmp/ccVIj88V.s 			page 4


 132              		.loc 1 26 1
 133 010c 83308105 		ld	ra,88(sp)
 134              		.cfi_remember_state
 135              		.cfi_restore 1
 136 0110 03340105 		ld	s0,80(sp)
 137              		.cfi_restore 8
 138              		.cfi_def_cfa 2, 96
 139 0114 83348104 		ld	s1,72(sp)
 140              		.cfi_restore 9
 141 0118 03390104 		ld	s2,64(sp)
 142              		.cfi_restore 18
 143 011c 13010106 		addi	sp,sp,96
 144              		.cfi_def_cfa_offset 0
 145 0120 67800000 		jr	ra
 146              	.L8:
 147              		.cfi_restore_state
  22:src/_KernelConsole.cpp ****         baferulaz=(Bafer*) Memorija::alokacija(kapacitet*sizeof(Bafer));
 148              		.loc 1 22 9 is_stmt 1
  22:src/_KernelConsole.cpp ****         baferulaz=(Bafer*) Memorija::alokacija(kapacitet*sizeof(Bafer));
 149              		.loc 1 22 48 is_stmt 0
 150 0124 17090000 		lla	s2,.LANCHOR1
 150      13090900 
 151 012c 83270900 		lw	a5,0(s2)
  22:src/_KernelConsole.cpp ****         baferulaz=(Bafer*) Memorija::alokacija(kapacitet*sizeof(Bafer));
 152              		.loc 1 22 47
 153 0130 13953700 		slli	a0,a5,3
 154 0134 3305F540 		sub	a0,a0,a5
 155 0138 13153500 		slli	a0,a0,3
 156 013c 97000000 		call	_ZN8Memorija9alokacijaEm@plt
 156      E7800000 
 157              	.LVL8:
  22:src/_KernelConsole.cpp ****         baferulaz=(Bafer*) Memorija::alokacija(kapacitet*sizeof(Bafer));
 158              		.loc 1 22 18
 159 0144 97040000 		lla	s1,.LANCHOR0
 159      93840400 
 160 014c 23B0A400 		sd	a0,0(s1)
  23:src/_KernelConsole.cpp ****     }
 161              		.loc 1 23 9 is_stmt 1
  23:src/_KernelConsole.cpp ****     }
 162              		.loc 1 23 20 is_stmt 0
 163 0150 83250900 		lw	a1,0(s2)
 164 0154 130584FA 		addi	a0,s0,-88
 165 0158 97000000 		call	_ZN5BaferC1Ei@plt
 165      E7800000 
 166              	.LVL9:
  23:src/_KernelConsole.cpp ****     }
 167              		.loc 1 23 19
 168 0160 83B70400 		ld	a5,0(s1)
 169 0164 033804FB 		ld	a6,-80(s0)
 170 0168 033584FB 		ld	a0,-72(s0)
 171 016c 833504FC 		ld	a1,-64(s0)
 172 0170 033684FC 		ld	a2,-56(s0)
 173 0174 833604FD 		ld	a3,-48(s0)
 174 0178 033784FD 		ld	a4,-40(s0)
 175 017c 833884FA 		ld	a7,-88(s0)
 176 0180 23B01701 		sd	a7,0(a5)
 177 0184 23B40701 		sd	a6,8(a5)
GAS LISTING /tmp/ccVIj88V.s 			page 5


 178 0188 23B8A700 		sd	a0,16(a5)
 179 018c 23BCB700 		sd	a1,24(a5)
 180 0190 23B0C702 		sd	a2,32(a5)
 181 0194 23B4D702 		sd	a3,40(a5)
 182 0198 23B8E702 		sd	a4,48(a5)
 183 019c 6FF01FF6 		j	.L6
 184              		.cfi_endproc
 185              	.LFE24:
 187              		.align	2
 188              		.globl	_ZN7Konzola8putizlazEi
 190              	_ZN7Konzola8putizlazEi:
 191              	.LFB25:
  27:src/_KernelConsole.cpp **** 
  28:src/_KernelConsole.cpp **** void Konzola::putizlaz(int val) {
 192              		.loc 1 28 33 is_stmt 1
 193              		.cfi_startproc
 194              	.LVL10:
 195 01a0 130101F9 		addi	sp,sp,-112
 196              		.cfi_def_cfa_offset 112
 197 01a4 23341106 		sd	ra,104(sp)
 198 01a8 23308106 		sd	s0,96(sp)
 199 01ac 233C9104 		sd	s1,88(sp)
 200 01b0 23382105 		sd	s2,80(sp)
 201 01b4 23343105 		sd	s3,72(sp)
 202              		.cfi_offset 1, -8
 203              		.cfi_offset 8, -16
 204              		.cfi_offset 9, -24
 205              		.cfi_offset 18, -32
 206              		.cfi_offset 19, -40
 207 01b8 13040107 		addi	s0,sp,112
 208              		.cfi_def_cfa 8, 0
 209 01bc 93040500 		mv	s1,a0
  29:src/_KernelConsole.cpp ****     if(baferizlaz==nullptr) {
 210              		.loc 1 29 5
 211              		.loc 1 29 18 is_stmt 0
 212 01c0 97070000 		ld	a5,.LANCHOR0+8
 212      83B70700 
 213              		.loc 1 29 5
 214 01c8 638A0702 		beqz	a5,.L12
 215              	.LVL11:
 216              	.L10:
  30:src/_KernelConsole.cpp ****         baferizlaz=(Bafer*) Memorija::alokacija(kapacitet*sizeof(Bafer));
  31:src/_KernelConsole.cpp ****         *baferizlaz=Bafer(kapacitet);
  32:src/_KernelConsole.cpp ****     }
  33:src/_KernelConsole.cpp ****     baferizlaz->put(val);
 217              		.loc 1 33 5 is_stmt 1
 218              		.loc 1 33 20 is_stmt 0
 219 01cc 93850400 		mv	a1,s1
 220 01d0 17050000 		ld	a0,.LANCHOR0+8
 220      03350500 
 221 01d8 97000000 		call	_ZN5Bafer3putEi@plt
 221      E7800000 
 222              	.LVL12:
  34:src/_KernelConsole.cpp **** }
 223              		.loc 1 34 1
 224 01e0 83308106 		ld	ra,104(sp)
 225              		.cfi_remember_state
GAS LISTING /tmp/ccVIj88V.s 			page 6


 226              		.cfi_restore 1
 227 01e4 03340106 		ld	s0,96(sp)
 228              		.cfi_restore 8
 229              		.cfi_def_cfa 2, 112
 230 01e8 83348105 		ld	s1,88(sp)
 231              		.cfi_restore 9
 232 01ec 03390105 		ld	s2,80(sp)
 233              		.cfi_restore 18
 234 01f0 83398104 		ld	s3,72(sp)
 235              		.cfi_restore 19
 236 01f4 13010107 		addi	sp,sp,112
 237              		.cfi_def_cfa_offset 0
 238 01f8 67800000 		jr	ra
 239              	.LVL13:
 240              	.L12:
 241              		.cfi_restore_state
  30:src/_KernelConsole.cpp ****         baferizlaz=(Bafer*) Memorija::alokacija(kapacitet*sizeof(Bafer));
 242              		.loc 1 30 9 is_stmt 1
  30:src/_KernelConsole.cpp ****         baferizlaz=(Bafer*) Memorija::alokacija(kapacitet*sizeof(Bafer));
 243              		.loc 1 30 49 is_stmt 0
 244 01fc 97090000 		lla	s3,.LANCHOR1
 244      93890900 
 245 0204 83A70900 		lw	a5,0(s3)
  30:src/_KernelConsole.cpp ****         baferizlaz=(Bafer*) Memorija::alokacija(kapacitet*sizeof(Bafer));
 246              		.loc 1 30 48
 247 0208 13953700 		slli	a0,a5,3
 248              	.LVL14:
 249 020c 3305F540 		sub	a0,a0,a5
 250 0210 13153500 		slli	a0,a0,3
 251 0214 97000000 		call	_ZN8Memorija9alokacijaEm@plt
 251      E7800000 
 252              	.LVL15:
  30:src/_KernelConsole.cpp ****         baferizlaz=(Bafer*) Memorija::alokacija(kapacitet*sizeof(Bafer));
 253              		.loc 1 30 19
 254 021c 17090000 		lla	s2,.LANCHOR0
 254      13090900 
 255 0224 2334A900 		sd	a0,8(s2)
  31:src/_KernelConsole.cpp ****     }
 256              		.loc 1 31 9 is_stmt 1
  31:src/_KernelConsole.cpp ****     }
 257              		.loc 1 31 21 is_stmt 0
 258 0228 83A50900 		lw	a1,0(s3)
 259 022c 130584F9 		addi	a0,s0,-104
 260 0230 97000000 		call	_ZN5BaferC1Ei@plt
 260      E7800000 
 261              	.LVL16:
  31:src/_KernelConsole.cpp ****     }
 262              		.loc 1 31 20
 263 0238 83378900 		ld	a5,8(s2)
 264 023c 033804FA 		ld	a6,-96(s0)
 265 0240 033584FA 		ld	a0,-88(s0)
 266 0244 833504FB 		ld	a1,-80(s0)
 267 0248 033684FB 		ld	a2,-72(s0)
 268 024c 833604FC 		ld	a3,-64(s0)
 269 0250 033784FC 		ld	a4,-56(s0)
 270 0254 833884F9 		ld	a7,-104(s0)
 271 0258 23B01701 		sd	a7,0(a5)
GAS LISTING /tmp/ccVIj88V.s 			page 7


 272 025c 23B40701 		sd	a6,8(a5)
 273 0260 23B8A700 		sd	a0,16(a5)
 274 0264 23BCB700 		sd	a1,24(a5)
 275 0268 23B0C702 		sd	a2,32(a5)
 276 026c 23B4D702 		sd	a3,40(a5)
 277 0270 23B8E702 		sd	a4,48(a5)
 278 0274 6FF09FF5 		j	.L10
 279              		.cfi_endproc
 280              	.LFE25:
 282              		.align	2
 283              		.globl	_ZN7Konzola8getizlazEv
 285              	_ZN7Konzola8getizlazEv:
 286              	.LFB26:
  35:src/_KernelConsole.cpp **** 
  36:src/_KernelConsole.cpp **** int Konzola::getizlaz() {
 287              		.loc 1 36 25 is_stmt 1
 288              		.cfi_startproc
 289 0278 130101FA 		addi	sp,sp,-96
 290              		.cfi_def_cfa_offset 96
 291 027c 233C1104 		sd	ra,88(sp)
 292 0280 23388104 		sd	s0,80(sp)
 293 0284 23349104 		sd	s1,72(sp)
 294 0288 23302105 		sd	s2,64(sp)
 295              		.cfi_offset 1, -8
 296              		.cfi_offset 8, -16
 297              		.cfi_offset 9, -24
 298              		.cfi_offset 18, -32
 299 028c 13040106 		addi	s0,sp,96
 300              		.cfi_def_cfa 8, 0
  37:src/_KernelConsole.cpp ****     if(baferizlaz==nullptr) {
 301              		.loc 1 37 5
 302              		.loc 1 37 18 is_stmt 0
 303 0290 97070000 		ld	a5,.LANCHOR0+8
 303      83B70700 
 304              		.loc 1 37 5
 305 0298 63860702 		beqz	a5,.L16
 306              	.L14:
  38:src/_KernelConsole.cpp ****         baferizlaz=(Bafer*) Memorija::alokacija(kapacitet*sizeof(Bafer));
  39:src/_KernelConsole.cpp ****         *baferizlaz=Bafer(kapacitet);
  40:src/_KernelConsole.cpp ****     }
  41:src/_KernelConsole.cpp ****     return baferizlaz->get();
 307              		.loc 1 41 5 is_stmt 1
 308              		.loc 1 41 27 is_stmt 0
 309 029c 17050000 		ld	a0,.LANCHOR0+8
 309      03350500 
 310 02a4 97000000 		call	_ZN5Bafer3getEv@plt
 310      E7800000 
 311              	.LVL17:
  42:src/_KernelConsole.cpp **** }
 312              		.loc 1 42 1
 313 02ac 83308105 		ld	ra,88(sp)
 314              		.cfi_remember_state
 315              		.cfi_restore 1
 316 02b0 03340105 		ld	s0,80(sp)
 317              		.cfi_restore 8
 318              		.cfi_def_cfa 2, 96
 319 02b4 83348104 		ld	s1,72(sp)
GAS LISTING /tmp/ccVIj88V.s 			page 8


 320              		.cfi_restore 9
 321 02b8 03390104 		ld	s2,64(sp)
 322              		.cfi_restore 18
 323 02bc 13010106 		addi	sp,sp,96
 324              		.cfi_def_cfa_offset 0
 325 02c0 67800000 		jr	ra
 326              	.L16:
 327              		.cfi_restore_state
  38:src/_KernelConsole.cpp ****         baferizlaz=(Bafer*) Memorija::alokacija(kapacitet*sizeof(Bafer));
 328              		.loc 1 38 9 is_stmt 1
  38:src/_KernelConsole.cpp ****         baferizlaz=(Bafer*) Memorija::alokacija(kapacitet*sizeof(Bafer));
 329              		.loc 1 38 49 is_stmt 0
 330 02c4 17090000 		lla	s2,.LANCHOR1
 330      13090900 
 331 02cc 83270900 		lw	a5,0(s2)
  38:src/_KernelConsole.cpp ****         baferizlaz=(Bafer*) Memorija::alokacija(kapacitet*sizeof(Bafer));
 332              		.loc 1 38 48
 333 02d0 13953700 		slli	a0,a5,3
 334 02d4 3305F540 		sub	a0,a0,a5
 335 02d8 13153500 		slli	a0,a0,3
 336 02dc 97000000 		call	_ZN8Memorija9alokacijaEm@plt
 336      E7800000 
 337              	.LVL18:
  38:src/_KernelConsole.cpp ****         baferizlaz=(Bafer*) Memorija::alokacija(kapacitet*sizeof(Bafer));
 338              		.loc 1 38 19
 339 02e4 97040000 		lla	s1,.LANCHOR0
 339      93840400 
 340 02ec 23B4A400 		sd	a0,8(s1)
  39:src/_KernelConsole.cpp ****     }
 341              		.loc 1 39 9 is_stmt 1
  39:src/_KernelConsole.cpp ****     }
 342              		.loc 1 39 21 is_stmt 0
 343 02f0 83250900 		lw	a1,0(s2)
 344 02f4 130584FA 		addi	a0,s0,-88
 345 02f8 97000000 		call	_ZN5BaferC1Ei@plt
 345      E7800000 
 346              	.LVL19:
  39:src/_KernelConsole.cpp ****     }
 347              		.loc 1 39 20
 348 0300 83B78400 		ld	a5,8(s1)
 349 0304 033804FB 		ld	a6,-80(s0)
 350 0308 033584FB 		ld	a0,-72(s0)
 351 030c 833504FC 		ld	a1,-64(s0)
 352 0310 033684FC 		ld	a2,-56(s0)
 353 0314 833604FD 		ld	a3,-48(s0)
 354 0318 033784FD 		ld	a4,-40(s0)
 355 031c 833884FA 		ld	a7,-88(s0)
 356 0320 23B01701 		sd	a7,0(a5)
 357 0324 23B40701 		sd	a6,8(a5)
 358 0328 23B8A700 		sd	a0,16(a5)
 359 032c 23BCB700 		sd	a1,24(a5)
 360 0330 23B0C702 		sd	a2,32(a5)
 361 0334 23B4D702 		sd	a3,40(a5)
 362 0338 23B8E702 		sd	a4,48(a5)
 363 033c 6FF01FF6 		j	.L14
 364              		.cfi_endproc
 365              	.LFE26:
GAS LISTING /tmp/ccVIj88V.s 			page 9


 367              		.align	2
 368              		.globl	_ZN7Konzola8getcntbiEv
 370              	_ZN7Konzola8getcntbiEv:
 371              	.LFB27:
  43:src/_KernelConsole.cpp **** 
  44:src/_KernelConsole.cpp **** int Konzola::getcntbi() {
 372              		.loc 1 44 25 is_stmt 1
 373              		.cfi_startproc
 374 0340 130101FF 		addi	sp,sp,-16
 375              		.cfi_def_cfa_offset 16
 376 0344 23341100 		sd	ra,8(sp)
 377 0348 23308100 		sd	s0,0(sp)
 378              		.cfi_offset 1, -8
 379              		.cfi_offset 8, -16
 380 034c 13040101 		addi	s0,sp,16
 381              		.cfi_def_cfa 8, 0
  45:src/_KernelConsole.cpp ****     return baferizlaz->getCnt();
 382              		.loc 1 45 5
 383              		.loc 1 45 30 is_stmt 0
 384 0350 17050000 		ld	a0,.LANCHOR0+8
 384      03350500 
 385 0358 97000000 		call	_ZN5Bafer6getCntEv@plt
 385      E7800000 
 386              	.LVL20:
  46:src/_KernelConsole.cpp **** }
 387              		.loc 1 46 1
 388 0360 83308100 		ld	ra,8(sp)
 389              		.cfi_restore 1
 390 0364 03340100 		ld	s0,0(sp)
 391              		.cfi_restore 8
 392              		.cfi_def_cfa 2, 16
 393 0368 13010101 		addi	sp,sp,16
 394              		.cfi_def_cfa_offset 0
 395 036c 67800000 		jr	ra
 396              		.cfi_endproc
 397              	.LFE27:
 399              		.align	2
 400              		.globl	_ZN7Konzola8getcntbuEv
 402              	_ZN7Konzola8getcntbuEv:
 403              	.LFB28:
  47:src/_KernelConsole.cpp **** 
  48:src/_KernelConsole.cpp **** int Konzola::getcntbu() {
 404              		.loc 1 48 25 is_stmt 1
 405              		.cfi_startproc
 406 0370 130101FF 		addi	sp,sp,-16
 407              		.cfi_def_cfa_offset 16
 408 0374 23341100 		sd	ra,8(sp)
 409 0378 23308100 		sd	s0,0(sp)
 410              		.cfi_offset 1, -8
 411              		.cfi_offset 8, -16
 412 037c 13040101 		addi	s0,sp,16
 413              		.cfi_def_cfa 8, 0
  49:src/_KernelConsole.cpp ****     return baferulaz->getCnt();
 414              		.loc 1 49 5
 415              		.loc 1 49 29 is_stmt 0
 416 0380 17050000 		ld	a0,.LANCHOR0
 416      03350500 
GAS LISTING /tmp/ccVIj88V.s 			page 10


 417 0388 97000000 		call	_ZN5Bafer6getCntEv@plt
 417      E7800000 
 418              	.LVL21:
  50:src/_KernelConsole.cpp **** }
 419              		.loc 1 50 1
 420 0390 83308100 		ld	ra,8(sp)
 421              		.cfi_restore 1
 422 0394 03340100 		ld	s0,0(sp)
 423              		.cfi_restore 8
 424              		.cfi_def_cfa 2, 16
 425 0398 13010101 		addi	sp,sp,16
 426              		.cfi_def_cfa_offset 0
 427 039c 67800000 		jr	ra
 428              		.cfi_endproc
 429              	.LFE28:
 431              		.globl	_ZN7Konzola9kapacitetE
 432              		.globl	_ZN7Konzola9baferulazE
 433              		.globl	_ZN7Konzola10baferizlazE
 434              		.data
 435              		.align	2
 436              		.set	.LANCHOR1,. + 0
 439              	_ZN7Konzola9kapacitetE:
 440 0000 00040000 		.word	1024
 441              		.bss
 442              		.align	3
 443              		.set	.LANCHOR0,. + 0
 446              	_ZN7Konzola9baferulazE:
 447 0000 00000000 		.zero	8
 447      00000000 
 450              	_ZN7Konzola10baferizlazE:
 451 0008 00000000 		.zero	8
 451      00000000 
 452              		.text
 453              	.Letext0:
 454              		.file 2 "src/../h/../lib/hw.h"
 455              		.file 3 "src/../h/../h/_KernelMemory.h"
 456              		.file 4 "src/../h/_KernelThreadControlBlock.h"
 457              		.file 5 "src/../h/../h/list.h"
 458              		.file 6 "src/../h/_KernelSemaphore.h"
 459              		.file 7 "src/../h/_KernelBuffer.h"
 460              		.file 8 "src/../h/_KernelConsole.h"
 461              		.file 9 "<built-in>"
GAS LISTING /tmp/ccVIj88V.s 			page 11


DEFINED SYMBOLS
                            *ABS*:0000000000000000 _KernelConsole.cpp
     /tmp/ccVIj88V.s:9      .text:0000000000000000 _ZN7Konzola7putulazEi
     /tmp/ccVIj88V.s:13     .text:0000000000000000 .L0 
     /tmp/ccVIj88V.s:15     .text:0000000000000000 .L0 
     /tmp/ccVIj88V.s:16     .text:0000000000000004 .L0 
     /tmp/ccVIj88V.s:22     .text:0000000000000018 .L0 
     /tmp/ccVIj88V.s:23     .text:0000000000000018 .L0 
     /tmp/ccVIj88V.s:24     .text:0000000000000018 .L0 
     /tmp/ccVIj88V.s:25     .text:0000000000000018 .L0 
     /tmp/ccVIj88V.s:26     .text:0000000000000018 .L0 
     /tmp/ccVIj88V.s:28     .text:000000000000001c .L0 
     /tmp/ccVIj88V.s:31     .text:0000000000000020 .L0 
     /tmp/ccVIj88V.s:32     .text:0000000000000020 .L0 
     /tmp/ccVIj88V.s:34     .text:0000000000000028 .L0 
     /tmp/ccVIj88V.s:38     .text:000000000000002c .L0 
     /tmp/ccVIj88V.s:39     .text:000000000000002c .L0 
     /tmp/ccVIj88V.s:44     .text:0000000000000040 .L0 
     /tmp/ccVIj88V.s:45     .text:0000000000000044 .L0 
     /tmp/ccVIj88V.s:46     .text:0000000000000044 .L0 
     /tmp/ccVIj88V.s:48     .text:0000000000000048 .L0 
     /tmp/ccVIj88V.s:49     .text:0000000000000048 .L0 
     /tmp/ccVIj88V.s:51     .text:000000000000004c .L0 
     /tmp/ccVIj88V.s:53     .text:0000000000000050 .L0 
     /tmp/ccVIj88V.s:55     .text:0000000000000054 .L0 
     /tmp/ccVIj88V.s:57     .text:0000000000000058 .L0 
     /tmp/ccVIj88V.s:61     .text:000000000000005c .L0 
     /tmp/ccVIj88V.s:63     .text:000000000000005c .L0 
     /tmp/ccVIj88V.s:64     .text:000000000000005c .L0 
     /tmp/ccVIj88V.s:67     .text:0000000000000068 .L0 
     /tmp/ccVIj88V.s:74     .text:000000000000007c .L0 
     /tmp/ccVIj88V.s:77     .text:0000000000000088 .L0 
     /tmp/ccVIj88V.s:78     .text:0000000000000088 .L0 
     /tmp/ccVIj88V.s:83     .text:0000000000000098 .L0 
     /tmp/ccVIj88V.s:99     .text:00000000000000d8 .L0 
     /tmp/ccVIj88V.s:105    .text:00000000000000d8 _ZN7Konzola7getulazEv
     /tmp/ccVIj88V.s:108    .text:00000000000000d8 .L0 
     /tmp/ccVIj88V.s:109    .text:00000000000000d8 .L0 
     /tmp/ccVIj88V.s:110    .text:00000000000000dc .L0 
     /tmp/ccVIj88V.s:115    .text:00000000000000ec .L0 
     /tmp/ccVIj88V.s:116    .text:00000000000000ec .L0 
     /tmp/ccVIj88V.s:117    .text:00000000000000ec .L0 
     /tmp/ccVIj88V.s:118    .text:00000000000000ec .L0 
     /tmp/ccVIj88V.s:120    .text:00000000000000f0 .L0 
     /tmp/ccVIj88V.s:122    .text:00000000000000f0 .L0 
     /tmp/ccVIj88V.s:123    .text:00000000000000f0 .L0 
     /tmp/ccVIj88V.s:125    .text:00000000000000f8 .L0 
     /tmp/ccVIj88V.s:128    .text:00000000000000fc .L0 
     /tmp/ccVIj88V.s:129    .text:00000000000000fc .L0 
     /tmp/ccVIj88V.s:133    .text:000000000000010c .L0 
     /tmp/ccVIj88V.s:134    .text:0000000000000110 .L0 
     /tmp/ccVIj88V.s:135    .text:0000000000000110 .L0 
     /tmp/ccVIj88V.s:137    .text:0000000000000114 .L0 
     /tmp/ccVIj88V.s:138    .text:0000000000000114 .L0 
     /tmp/ccVIj88V.s:140    .text:0000000000000118 .L0 
     /tmp/ccVIj88V.s:142    .text:000000000000011c .L0 
     /tmp/ccVIj88V.s:144    .text:0000000000000120 .L0 
GAS LISTING /tmp/ccVIj88V.s 			page 12


     /tmp/ccVIj88V.s:147    .text:0000000000000124 .L0 
     /tmp/ccVIj88V.s:149    .text:0000000000000124 .L0 
     /tmp/ccVIj88V.s:150    .text:0000000000000124 .L0 
     /tmp/ccVIj88V.s:153    .text:0000000000000130 .L0 
     /tmp/ccVIj88V.s:159    .text:0000000000000144 .L0 
     /tmp/ccVIj88V.s:162    .text:0000000000000150 .L0 
     /tmp/ccVIj88V.s:163    .text:0000000000000150 .L0 
     /tmp/ccVIj88V.s:168    .text:0000000000000160 .L0 
     /tmp/ccVIj88V.s:184    .text:00000000000001a0 .L0 
     /tmp/ccVIj88V.s:190    .text:00000000000001a0 _ZN7Konzola8putizlazEi
     /tmp/ccVIj88V.s:193    .text:00000000000001a0 .L0 
     /tmp/ccVIj88V.s:195    .text:00000000000001a0 .L0 
     /tmp/ccVIj88V.s:196    .text:00000000000001a4 .L0 
     /tmp/ccVIj88V.s:202    .text:00000000000001b8 .L0 
     /tmp/ccVIj88V.s:203    .text:00000000000001b8 .L0 
     /tmp/ccVIj88V.s:204    .text:00000000000001b8 .L0 
     /tmp/ccVIj88V.s:205    .text:00000000000001b8 .L0 
     /tmp/ccVIj88V.s:206    .text:00000000000001b8 .L0 
     /tmp/ccVIj88V.s:208    .text:00000000000001bc .L0 
     /tmp/ccVIj88V.s:211    .text:00000000000001c0 .L0 
     /tmp/ccVIj88V.s:212    .text:00000000000001c0 .L0 
     /tmp/ccVIj88V.s:214    .text:00000000000001c8 .L0 
     /tmp/ccVIj88V.s:218    .text:00000000000001cc .L0 
     /tmp/ccVIj88V.s:219    .text:00000000000001cc .L0 
     /tmp/ccVIj88V.s:224    .text:00000000000001e0 .L0 
     /tmp/ccVIj88V.s:225    .text:00000000000001e4 .L0 
     /tmp/ccVIj88V.s:226    .text:00000000000001e4 .L0 
     /tmp/ccVIj88V.s:228    .text:00000000000001e8 .L0 
     /tmp/ccVIj88V.s:229    .text:00000000000001e8 .L0 
     /tmp/ccVIj88V.s:231    .text:00000000000001ec .L0 
     /tmp/ccVIj88V.s:233    .text:00000000000001f0 .L0 
     /tmp/ccVIj88V.s:235    .text:00000000000001f4 .L0 
     /tmp/ccVIj88V.s:237    .text:00000000000001f8 .L0 
     /tmp/ccVIj88V.s:241    .text:00000000000001fc .L0 
     /tmp/ccVIj88V.s:243    .text:00000000000001fc .L0 
     /tmp/ccVIj88V.s:244    .text:00000000000001fc .L0 
     /tmp/ccVIj88V.s:247    .text:0000000000000208 .L0 
     /tmp/ccVIj88V.s:254    .text:000000000000021c .L0 
     /tmp/ccVIj88V.s:257    .text:0000000000000228 .L0 
     /tmp/ccVIj88V.s:258    .text:0000000000000228 .L0 
     /tmp/ccVIj88V.s:263    .text:0000000000000238 .L0 
     /tmp/ccVIj88V.s:279    .text:0000000000000278 .L0 
     /tmp/ccVIj88V.s:285    .text:0000000000000278 _ZN7Konzola8getizlazEv
     /tmp/ccVIj88V.s:288    .text:0000000000000278 .L0 
     /tmp/ccVIj88V.s:289    .text:0000000000000278 .L0 
     /tmp/ccVIj88V.s:290    .text:000000000000027c .L0 
     /tmp/ccVIj88V.s:295    .text:000000000000028c .L0 
     /tmp/ccVIj88V.s:296    .text:000000000000028c .L0 
     /tmp/ccVIj88V.s:297    .text:000000000000028c .L0 
     /tmp/ccVIj88V.s:298    .text:000000000000028c .L0 
     /tmp/ccVIj88V.s:300    .text:0000000000000290 .L0 
     /tmp/ccVIj88V.s:302    .text:0000000000000290 .L0 
     /tmp/ccVIj88V.s:303    .text:0000000000000290 .L0 
     /tmp/ccVIj88V.s:305    .text:0000000000000298 .L0 
     /tmp/ccVIj88V.s:308    .text:000000000000029c .L0 
     /tmp/ccVIj88V.s:309    .text:000000000000029c .L0 
     /tmp/ccVIj88V.s:313    .text:00000000000002ac .L0 
GAS LISTING /tmp/ccVIj88V.s 			page 13


     /tmp/ccVIj88V.s:314    .text:00000000000002b0 .L0 
     /tmp/ccVIj88V.s:315    .text:00000000000002b0 .L0 
     /tmp/ccVIj88V.s:317    .text:00000000000002b4 .L0 
     /tmp/ccVIj88V.s:318    .text:00000000000002b4 .L0 
     /tmp/ccVIj88V.s:320    .text:00000000000002b8 .L0 
     /tmp/ccVIj88V.s:322    .text:00000000000002bc .L0 
     /tmp/ccVIj88V.s:324    .text:00000000000002c0 .L0 
     /tmp/ccVIj88V.s:327    .text:00000000000002c4 .L0 
     /tmp/ccVIj88V.s:329    .text:00000000000002c4 .L0 
     /tmp/ccVIj88V.s:330    .text:00000000000002c4 .L0 
     /tmp/ccVIj88V.s:333    .text:00000000000002d0 .L0 
     /tmp/ccVIj88V.s:339    .text:00000000000002e4 .L0 
     /tmp/ccVIj88V.s:342    .text:00000000000002f0 .L0 
     /tmp/ccVIj88V.s:343    .text:00000000000002f0 .L0 
     /tmp/ccVIj88V.s:348    .text:0000000000000300 .L0 
     /tmp/ccVIj88V.s:364    .text:0000000000000340 .L0 
     /tmp/ccVIj88V.s:370    .text:0000000000000340 _ZN7Konzola8getcntbiEv
     /tmp/ccVIj88V.s:373    .text:0000000000000340 .L0 
     /tmp/ccVIj88V.s:374    .text:0000000000000340 .L0 
     /tmp/ccVIj88V.s:375    .text:0000000000000344 .L0 
     /tmp/ccVIj88V.s:378    .text:000000000000034c .L0 
     /tmp/ccVIj88V.s:379    .text:000000000000034c .L0 
     /tmp/ccVIj88V.s:381    .text:0000000000000350 .L0 
     /tmp/ccVIj88V.s:383    .text:0000000000000350 .L0 
     /tmp/ccVIj88V.s:384    .text:0000000000000350 .L0 
     /tmp/ccVIj88V.s:388    .text:0000000000000360 .L0 
     /tmp/ccVIj88V.s:389    .text:0000000000000364 .L0 
     /tmp/ccVIj88V.s:391    .text:0000000000000368 .L0 
     /tmp/ccVIj88V.s:392    .text:0000000000000368 .L0 
     /tmp/ccVIj88V.s:394    .text:000000000000036c .L0 
     /tmp/ccVIj88V.s:396    .text:0000000000000370 .L0 
     /tmp/ccVIj88V.s:402    .text:0000000000000370 _ZN7Konzola8getcntbuEv
     /tmp/ccVIj88V.s:405    .text:0000000000000370 .L0 
     /tmp/ccVIj88V.s:406    .text:0000000000000370 .L0 
     /tmp/ccVIj88V.s:407    .text:0000000000000374 .L0 
     /tmp/ccVIj88V.s:410    .text:000000000000037c .L0 
     /tmp/ccVIj88V.s:411    .text:000000000000037c .L0 
     /tmp/ccVIj88V.s:413    .text:0000000000000380 .L0 
     /tmp/ccVIj88V.s:415    .text:0000000000000380 .L0 
     /tmp/ccVIj88V.s:416    .text:0000000000000380 .L0 
     /tmp/ccVIj88V.s:420    .text:0000000000000390 .L0 
     /tmp/ccVIj88V.s:421    .text:0000000000000394 .L0 
     /tmp/ccVIj88V.s:423    .text:0000000000000398 .L0 
     /tmp/ccVIj88V.s:424    .text:0000000000000398 .L0 
     /tmp/ccVIj88V.s:426    .text:000000000000039c .L0 
     /tmp/ccVIj88V.s:428    .text:00000000000003a0 .L0 
     /tmp/ccVIj88V.s:439    .data:0000000000000000 _ZN7Konzola9kapacitetE
     /tmp/ccVIj88V.s:446    .bss:0000000000000000 _ZN7Konzola9baferulazE
     /tmp/ccVIj88V.s:450    .bss:0000000000000008 _ZN7Konzola10baferizlazE
     /tmp/ccVIj88V.s:436    .data:0000000000000000 .LANCHOR1
     /tmp/ccVIj88V.s:443    .bss:0000000000000000 .LANCHOR0
     /tmp/ccVIj88V.s:462    .text:00000000000003a0 .L0 
     /tmp/ccVIj88V.s:32     .text:0000000000000020 .L0 
     /tmp/ccVIj88V.s:40     .text:0000000000000030 .L0 
     /tmp/ccVIj88V.s:64     .text:000000000000005c .L0 
     /tmp/ccVIj88V.s:74     .text:000000000000007c .L0 
     /tmp/ccVIj88V.s:123    .text:00000000000000f0 .L0 
GAS LISTING /tmp/ccVIj88V.s 			page 14


     /tmp/ccVIj88V.s:129    .text:00000000000000fc .L0 
     /tmp/ccVIj88V.s:150    .text:0000000000000124 .L0 
     /tmp/ccVIj88V.s:159    .text:0000000000000144 .L0 
     /tmp/ccVIj88V.s:212    .text:00000000000001c0 .L0 
     /tmp/ccVIj88V.s:220    .text:00000000000001d0 .L0 
     /tmp/ccVIj88V.s:244    .text:00000000000001fc .L0 
     /tmp/ccVIj88V.s:254    .text:000000000000021c .L0 
     /tmp/ccVIj88V.s:303    .text:0000000000000290 .L0 
     /tmp/ccVIj88V.s:309    .text:000000000000029c .L0 
     /tmp/ccVIj88V.s:330    .text:00000000000002c4 .L0 
     /tmp/ccVIj88V.s:339    .text:00000000000002e4 .L0 
     /tmp/ccVIj88V.s:384    .text:0000000000000350 .L0 
     /tmp/ccVIj88V.s:416    .text:0000000000000380 .L0 
     /tmp/ccVIj88V.s:60     .text:000000000000005c .L4
     /tmp/ccVIj88V.s:36     .text:000000000000002c .L2
     /tmp/ccVIj88V.s:146    .text:0000000000000124 .L8
     /tmp/ccVIj88V.s:126    .text:00000000000000fc .L6
     /tmp/ccVIj88V.s:240    .text:00000000000001fc .L12
     /tmp/ccVIj88V.s:216    .text:00000000000001cc .L10
     /tmp/ccVIj88V.s:326    .text:00000000000002c4 .L16
     /tmp/ccVIj88V.s:306    .text:000000000000029c .L14
     /tmp/ccVIj88V.s:1700   .debug_abbrev:0000000000000000 .Ldebug_abbrev0
     /tmp/ccVIj88V.s:2847   .debug_str:0000000000000620 .LASF119
     /tmp/ccVIj88V.s:2855   .debug_str:0000000000000704 .LASF120
     /tmp/ccVIj88V.s:2663   .debug_str:00000000000000cc .LASF121
     /tmp/ccVIj88V.s:5      .text:0000000000000000 .Ltext0
     /tmp/ccVIj88V.s:453    .text:00000000000003a0 .Letext0
     /tmp/ccVIj88V.s:2633   .debug_line:0000000000000000 .Ldebug_line0
     /tmp/ccVIj88V.s:2785   .debug_str:000000000000046c .LASF0
     /tmp/ccVIj88V.s:2801   .debug_str:00000000000004e4 .LASF1
     /tmp/ccVIj88V.s:2763   .debug_str:00000000000003c8 .LASF2
     /tmp/ccVIj88V.s:2733   .debug_str:00000000000002f7 .LASF4
     /tmp/ccVIj88V.s:2829   .debug_str:000000000000059a .LASF3
     /tmp/ccVIj88V.s:2659   .debug_str:00000000000000b5 .LASF5
     /tmp/ccVIj88V.s:2803   .debug_str:00000000000004f7 .LASF6
     /tmp/ccVIj88V.s:2783   .debug_str:0000000000000459 .LASF7
     /tmp/ccVIj88V.s:2861   .debug_str:000000000000072f .LASF8
     /tmp/ccVIj88V.s:2719   .debug_str:0000000000000292 .LASF9
     /tmp/ccVIj88V.s:2813   .debug_str:000000000000053e .LASF10
     /tmp/ccVIj88V.s:2853   .debug_str:00000000000006f5 .LASF11
     /tmp/ccVIj88V.s:2745   .debug_str:0000000000000335 .LASF12
     /tmp/ccVIj88V.s:2643   .debug_str:000000000000003f .LASF13
     /tmp/ccVIj88V.s:2673   .debug_str:000000000000013e .LASF14
     /tmp/ccVIj88V.s:2825   .debug_str:000000000000057d .LASF15
     /tmp/ccVIj88V.s:2681   .debug_str:000000000000016e .LASF16
     /tmp/ccVIj88V.s:2677   .debug_str:000000000000015b .LASF24
     /tmp/ccVIj88V.s:2775   .debug_str:000000000000041c .LASF78
     /tmp/ccVIj88V.s:2889   .debug_str:00000000000007db .LASF17
     /tmp/ccVIj88V.s:2877   .debug_str:00000000000007a2 .LASF18
     /tmp/ccVIj88V.s:2839   .debug_str:00000000000005ed .LASF19
     /tmp/ccVIj88V.s:2691   .debug_str:00000000000001d9 .LASF20
     /tmp/ccVIj88V.s:2641   .debug_str:0000000000000021 .LASF22
     /tmp/ccVIj88V.s:2873   .debug_str:000000000000078b .LASF21
     /tmp/ccVIj88V.s:2793   .debug_str:00000000000004a1 .LASF23
     /tmp/ccVIj88V.s:2777   .debug_str:0000000000000426 .LASF41
     /tmp/ccVIj88V.s:2865   .debug_str:0000000000000747 .LASF43
     /tmp/ccVIj88V.s:2787   .debug_str:0000000000000479 .LASF53
GAS LISTING /tmp/ccVIj88V.s 			page 15


     /tmp/ccVIj88V.s:2685   .debug_str:000000000000019e .LASF55
     /tmp/ccVIj88V.s:2689   .debug_str:00000000000001d4 .LASF27
     /tmp/ccVIj88V.s:2709   .debug_str:000000000000024b .LASF25
     /tmp/ccVIj88V.s:2701   .debug_str:0000000000000224 .LASF26
     /tmp/ccVIj88V.s:2827   .debug_str:0000000000000593 .LASF28
     /tmp/ccVIj88V.s:2737   .debug_str:0000000000000307 .LASF29
     /tmp/ccVIj88V.s:2699   .debug_str:000000000000021d .LASF30
     /tmp/ccVIj88V.s:2875   .debug_str:0000000000000795 .LASF31
     /tmp/ccVIj88V.s:2845   .debug_str:0000000000000614 .LASF32
     /tmp/ccVIj88V.s:2713   .debug_str:0000000000000269 .LASF33
     /tmp/ccVIj88V.s:2725   .debug_str:00000000000002c2 .LASF34
     /tmp/ccVIj88V.s:2835   .debug_str:00000000000005ca .LASF35
     /tmp/ccVIj88V.s:2729   .debug_str:00000000000002e5 .LASF37
     /tmp/ccVIj88V.s:2837   .debug_str:00000000000005da .LASF36
     /tmp/ccVIj88V.s:2887   .debug_str:00000000000007ce .LASF38
     /tmp/ccVIj88V.s:2883   .debug_str:00000000000007b2 .LASF39
     /tmp/ccVIj88V.s:2761   .debug_str:00000000000003a9 .LASF40
     /tmp/ccVIj88V.s:2739   .debug_str:0000000000000310 .LASF122
     /tmp/ccVIj88V.s:2789   .debug_str:0000000000000488 .LASF42
     /tmp/ccVIj88V.s:2759   .debug_str:0000000000000396 .LASF44
     /tmp/ccVIj88V.s:2831   .debug_str:00000000000005ac .LASF45
     /tmp/ccVIj88V.s:2703   .debug_str:000000000000022c .LASF46
     /tmp/ccVIj88V.s:2657   .debug_str:00000000000000a5 .LASF47
     /tmp/ccVIj88V.s:2869   .debug_str:0000000000000770 .LASF48
     /tmp/ccVIj88V.s:2811   .debug_str:0000000000000535 .LASF49
     /tmp/ccVIj88V.s:2881   .debug_str:00000000000007ad .LASF50
     /tmp/ccVIj88V.s:2705   .debug_str:000000000000023b .LASF51
     /tmp/ccVIj88V.s:2819   .debug_str:000000000000055e .LASF52
     /tmp/ccVIj88V.s:2867   .debug_str:000000000000075c .LASF123
     /tmp/ccVIj88V.s:2765   .debug_str:00000000000003d6 .LASF54
     /tmp/ccVIj88V.s:2871   .debug_str:000000000000077b .LASF56
     /tmp/ccVIj88V.s:2841   .debug_str:00000000000005f2 .LASF57
     /tmp/ccVIj88V.s:2821   .debug_str:0000000000000565 .LASF58
     /tmp/ccVIj88V.s:2857   .debug_str:000000000000071b .LASF59
     /tmp/ccVIj88V.s:2751   .debug_str:0000000000000365 .LASF124
     /tmp/ccVIj88V.s:2757   .debug_str:0000000000000391 .LASF60
     /tmp/ccVIj88V.s:2731   .debug_str:00000000000002f2 .LASF61
     /tmp/ccVIj88V.s:2639   .debug_str:000000000000000e .LASF62
     /tmp/ccVIj88V.s:2741   .debug_str:0000000000000315 .LASF68
     /tmp/ccVIj88V.s:2773   .debug_str:0000000000000412 .LASF125
     /tmp/ccVIj88V.s:2649   .debug_str:0000000000000068 .LASF126
     /tmp/ccVIj88V.s:2749   .debug_str:000000000000035c .LASF63
     /tmp/ccVIj88V.s:2755   .debug_str:0000000000000374 .LASF64
     /tmp/ccVIj88V.s:2717   .debug_str:000000000000028a .LASF65
     /tmp/ccVIj88V.s:2671   .debug_str:0000000000000122 .LASF66
     /tmp/ccVIj88V.s:2849   .debug_str:00000000000006e4 .LASF67
     /tmp/ccVIj88V.s:2667   .debug_str:00000000000000fa .LASF69
     /tmp/ccVIj88V.s:2669   .debug_str:0000000000000118 .LASF70
     /tmp/ccVIj88V.s:2843   .debug_str:00000000000005f9 .LASF71
     /tmp/ccVIj88V.s:2795   .debug_str:00000000000004ba .LASF72
     /tmp/ccVIj88V.s:2771   .debug_str:00000000000003f5 .LASF73
     /tmp/ccVIj88V.s:2743   .debug_str:000000000000032c .LASF74
     /tmp/ccVIj88V.s:2683   .debug_str:0000000000000184 .LASF75
     /tmp/ccVIj88V.s:2851   .debug_str:00000000000006f0 .LASF76
     /tmp/ccVIj88V.s:2635   .debug_str:0000000000000000 .LASF77
     /tmp/ccVIj88V.s:2791   .debug_str:0000000000000491 .LASF79
     /tmp/ccVIj88V.s:2661   .debug_str:00000000000000bc .LASF80
GAS LISTING /tmp/ccVIj88V.s 			page 16


     /tmp/ccVIj88V.s:2675   .debug_str:000000000000014a .LASF81
     /tmp/ccVIj88V.s:2715   .debug_str:0000000000000279 .LASF82
     /tmp/ccVIj88V.s:2647   .debug_str:0000000000000058 .LASF83
     /tmp/ccVIj88V.s:2891   .debug_str:00000000000007e0 .LASF84
     /tmp/ccVIj88V.s:2695   .debug_str:00000000000001fb .LASF85
     /tmp/ccVIj88V.s:2807   .debug_str:0000000000000520 .LASF86
     /tmp/ccVIj88V.s:2693   .debug_str:00000000000001e6 .LASF87
     /tmp/ccVIj88V.s:2637   .debug_str:0000000000000008 .LASF88
     /tmp/ccVIj88V.s:2655   .debug_str:0000000000000091 .LASF89
     /tmp/ccVIj88V.s:2721   .debug_str:00000000000002a0 .LASF90
     /tmp/ccVIj88V.s:2879   .debug_str:00000000000007a7 .LASF91
     /tmp/ccVIj88V.s:2823   .debug_str:0000000000000576 .LASF92
     /tmp/ccVIj88V.s:2697   .debug_str:000000000000020e .LASF93
     /tmp/ccVIj88V.s:2723   .debug_str:00000000000002b4 .LASF94
     /tmp/ccVIj88V.s:2753   .debug_str:000000000000036a .LASF95
     /tmp/ccVIj88V.s:2859   .debug_str:0000000000000725 .LASF96
     /tmp/ccVIj88V.s:2809   .debug_str:0000000000000527 .LASF97
     /tmp/ccVIj88V.s:2769   .debug_str:00000000000003e5 .LASF127
     /tmp/ccVIj88V.s:2885   .debug_str:00000000000007be .LASF128
     /tmp/ccVIj88V.s:2653   .debug_str:000000000000008a .LASF98
     /tmp/ccVIj88V.s:2665   .debug_str:00000000000000e7 .LASF99
     /tmp/ccVIj88V.s:2863   .debug_str:000000000000073f .LASF100
     /tmp/ccVIj88V.s:2651   .debug_str:000000000000007f .LASF101
     /tmp/ccVIj88V.s:2707   .debug_str:0000000000000241 .LASF102
     /tmp/ccVIj88V.s:2679   .debug_str:0000000000000164 .LASF103
     /tmp/ccVIj88V.s:2645   .debug_str:000000000000004f .LASF104
     /tmp/ccVIj88V.s:2747   .debug_str:0000000000000345 .LASF106
     /tmp/ccVIj88V.s:2767   .debug_str:00000000000003dc .LASF105
     /tmp/ccVIj88V.s:2711   .debug_str:0000000000000252 .LASF107
     /tmp/ccVIj88V.s:2817   .debug_str:0000000000000556 .LASF108
     /tmp/ccVIj88V.s:2779   .debug_str:000000000000042c .LASF109
     /tmp/ccVIj88V.s:2797   .debug_str:00000000000004c5 .LASF110
     /tmp/ccVIj88V.s:2805   .debug_str:000000000000050a .LASF111
     /tmp/ccVIj88V.s:2815   .debug_str:000000000000054d .LASF112
     /tmp/ccVIj88V.s:2687   .debug_str:00000000000001bd .LASF113
     /tmp/ccVIj88V.s:2735   .debug_str:00000000000002fe .LASF114
     /tmp/ccVIj88V.s:2799   .debug_str:00000000000004cd .LASF115
     /tmp/ccVIj88V.s:2833   .debug_str:00000000000005b1 .LASF116
     /tmp/ccVIj88V.s:2727   .debug_str:00000000000002ce .LASF117
     /tmp/ccVIj88V.s:2781   .debug_str:0000000000000442 .LASF118
     /tmp/ccVIj88V.s:403    .text:0000000000000370 .LFB28
     /tmp/ccVIj88V.s:429    .text:00000000000003a0 .LFE28
     /tmp/ccVIj88V.s:418    .text:0000000000000390 .LVL21
     /tmp/ccVIj88V.s:371    .text:0000000000000340 .LFB27
     /tmp/ccVIj88V.s:397    .text:0000000000000370 .LFE27
     /tmp/ccVIj88V.s:386    .text:0000000000000360 .LVL20
     /tmp/ccVIj88V.s:286    .text:0000000000000278 .LFB26
     /tmp/ccVIj88V.s:365    .text:0000000000000340 .LFE26
     /tmp/ccVIj88V.s:311    .text:00000000000002ac .LVL17
     /tmp/ccVIj88V.s:337    .text:00000000000002e4 .LVL18
     /tmp/ccVIj88V.s:346    .text:0000000000000300 .LVL19
     /tmp/ccVIj88V.s:191    .text:00000000000001a0 .LFB25
     /tmp/ccVIj88V.s:280    .text:0000000000000278 .LFE25
     /tmp/ccVIj88V.s:2570   .debug_loc:0000000000000000 .LLST1
     /tmp/ccVIj88V.s:222    .text:00000000000001e0 .LVL12
     /tmp/ccVIj88V.s:252    .text:000000000000021c .LVL15
     /tmp/ccVIj88V.s:261    .text:0000000000000238 .LVL16
GAS LISTING /tmp/ccVIj88V.s 			page 17


     /tmp/ccVIj88V.s:106    .text:00000000000000d8 .LFB24
     /tmp/ccVIj88V.s:185    .text:00000000000001a0 .LFE24
     /tmp/ccVIj88V.s:131    .text:000000000000010c .LVL7
     /tmp/ccVIj88V.s:157    .text:0000000000000144 .LVL8
     /tmp/ccVIj88V.s:166    .text:0000000000000160 .LVL9
     /tmp/ccVIj88V.s:10     .text:0000000000000000 .LFB23
     /tmp/ccVIj88V.s:100    .text:00000000000000d8 .LFE23
     /tmp/ccVIj88V.s:2595   .debug_loc:0000000000000062 .LLST0
     /tmp/ccVIj88V.s:42     .text:0000000000000040 .LVL2
     /tmp/ccVIj88V.s:72     .text:000000000000007c .LVL5
     /tmp/ccVIj88V.s:81     .text:0000000000000098 .LVL6
     /tmp/ccVIj88V.s:194    .text:00000000000001a0 .LVL10
     /tmp/ccVIj88V.s:215    .text:00000000000001cc .LVL11
     /tmp/ccVIj88V.s:239    .text:00000000000001fc .LVL13
     /tmp/ccVIj88V.s:248    .text:000000000000020c .LVL14
     /tmp/ccVIj88V.s:14     .text:0000000000000000 .LVL0
     /tmp/ccVIj88V.s:35     .text:000000000000002c .LVL1
     /tmp/ccVIj88V.s:59     .text:000000000000005c .LVL3
     /tmp/ccVIj88V.s:68     .text:000000000000006c .LVL4
     /tmp/ccVIj88V.s:463    .debug_info:0000000000000000 .Ldebug_info0

UNDEFINED SYMBOLS
_ZN5Bafer3putEi
_ZN8Memorija9alokacijaEm
_ZN5BaferC1Ei
_ZN5Bafer3getEv
_ZN5Bafer6getCntEv
