GAS LISTING /tmp/ccvUpCDZ.s 			page 1


   1              		.file	"_KernelThreadControlBlock.cpp"
   2              		.option pic
   3              		.option norelax
   4              		.text
   5              	.Ltext0:
   6              		.section	.rodata.str1.8,"aMS",@progbits,1
   7              		.align	3
   8              	.LC0:
   9 0000 49443A20 		.string	"ID: "
   9      00
  10              		.text
  11              		.align	2
  12              		.globl	_ZN3Nit5printEv
  14              	_ZN3Nit5printEv:
  15              	.LFB16:
  16              		.file 1 "src/_KernelThreadControlBlock.cpp"
   1:src/_KernelThreadControlBlock.cpp **** //
   2:src/_KernelThreadControlBlock.cpp **** // Created by os on 8/12/22.
   3:src/_KernelThreadControlBlock.cpp **** //
   4:src/_KernelThreadControlBlock.cpp **** 
   5:src/_KernelThreadControlBlock.cpp **** #include "../h/_KernelThreadControlBlock.h"
   6:src/_KernelThreadControlBlock.cpp **** #include "../h/syscall_c.h"
   7:src/_KernelThreadControlBlock.cpp **** #include "../h/_KernelScheduler.h"
   8:src/_KernelThreadControlBlock.cpp **** #include "../test/printing.hpp"
   9:src/_KernelThreadControlBlock.cpp **** 
  10:src/_KernelThreadControlBlock.cpp **** int Nit::IDD=0;
  11:src/_KernelThreadControlBlock.cpp **** int Nit::tajmer=0;
  12:src/_KernelThreadControlBlock.cpp **** 
  13:src/_KernelThreadControlBlock.cpp **** Nit* Nit::running=nullptr;
  14:src/_KernelThreadControlBlock.cpp **** 
  15:src/_KernelThreadControlBlock.cpp **** extern "C" void push();
  16:src/_KernelThreadControlBlock.cpp **** 
  17:src/_KernelThreadControlBlock.cpp **** extern "C" void pop();
  18:src/_KernelThreadControlBlock.cpp **** 
  19:src/_KernelThreadControlBlock.cpp **** extern "C" void contextSwitch(Nit::struktura*, Nit::struktura*);
  20:src/_KernelThreadControlBlock.cpp **** 
  21:src/_KernelThreadControlBlock.cpp **** void Nit::print() {
  17              		.loc 1 21 19
  18              		.cfi_startproc
  19              	.LVL0:
  20 0000 130101FE 		addi	sp,sp,-32
  21              		.cfi_def_cfa_offset 32
  22 0004 233C1100 		sd	ra,24(sp)
  23 0008 23388100 		sd	s0,16(sp)
  24 000c 23349100 		sd	s1,8(sp)
  25              		.cfi_offset 1, -8
  26              		.cfi_offset 8, -16
  27              		.cfi_offset 9, -24
  28 0010 13040102 		addi	s0,sp,32
  29              		.cfi_def_cfa 8, 0
  30 0014 93040500 		mv	s1,a0
  22:src/_KernelThreadControlBlock.cpp ****     printString("ID: ");
  31              		.loc 1 22 5
  32              		.loc 1 22 16 is_stmt 0
  33 0018 17050000 		lla	a0,.LC0
  33      13050500 
  34              	.LVL1:
GAS LISTING /tmp/ccvUpCDZ.s 			page 2


  35 0020 97000000 		call	_Z11printStringPKc@plt
  35      E7800000 
  36              	.LVL2:
  23:src/_KernelThreadControlBlock.cpp ****     printInt(ID);
  37              		.loc 1 23 5 is_stmt 1
  38              		.loc 1 23 13 is_stmt 0
  39 0028 13060000 		li	a2,0
  40 002c 9305A000 		li	a1,10
  41 0030 03A58400 		lw	a0,8(s1)
  42 0034 97000000 		call	_Z8printIntiii@plt
  42      E7800000 
  43              	.LVL3:
  24:src/_KernelThreadControlBlock.cpp **** }
  44              		.loc 1 24 1
  45 003c 83308101 		ld	ra,24(sp)
  46              		.cfi_restore 1
  47 0040 03340101 		ld	s0,16(sp)
  48              		.cfi_restore 8
  49              		.cfi_def_cfa 2, 32
  50 0044 83348100 		ld	s1,8(sp)
  51              		.cfi_restore 9
  52              	.LVL4:
  53 0048 13010102 		addi	sp,sp,32
  54              		.cfi_def_cfa_offset 0
  55 004c 67800000 		jr	ra
  56              		.cfi_endproc
  57              	.LFE16:
  59              		.align	2
  60              		.globl	_ZN3Nit11konstruktorEPFvPvES0_
  62              	_ZN3Nit11konstruktorEPFvPvES0_:
  63              	.LFB17:
  25:src/_KernelThreadControlBlock.cpp **** 
  26:src/_KernelThreadControlBlock.cpp **** Nit* Nit::konstruktor(body funkcija, void *arg) {
  64              		.loc 1 26 49 is_stmt 1
  65              		.cfi_startproc
  66              		.cfi_personality 0x9b,DW.ref.__gxx_personality_v0
  67              		.cfi_lsda 0x1b,.LLSDA17
  68              	.LVL5:
  69 0050 130101FD 		addi	sp,sp,-48
  70              		.cfi_def_cfa_offset 48
  71 0054 23341102 		sd	ra,40(sp)
  72 0058 23308102 		sd	s0,32(sp)
  73 005c 233C9100 		sd	s1,24(sp)
  74 0060 23382101 		sd	s2,16(sp)
  75 0064 23343101 		sd	s3,8(sp)
  76              		.cfi_offset 1, -8
  77              		.cfi_offset 8, -16
  78              		.cfi_offset 9, -24
  79              		.cfi_offset 18, -32
  80              		.cfi_offset 19, -40
  81 0068 13040103 		addi	s0,sp,48
  82              		.cfi_def_cfa 8, 0
  83 006c 93090500 		mv	s3,a0
  84 0070 13890500 		mv	s2,a1
  27:src/_KernelThreadControlBlock.cpp ****     Nit* t = new Nit(funkcija, arg);
  85              		.loc 1 27 5
  86              	.LVL6:
GAS LISTING /tmp/ccvUpCDZ.s 			page 3


  87              	.LBB33:
  88              	.LBB34:
  89              		.file 2 "src/../h/_KernelThreadControlBlock.h"
   1:src/../h/_KernelThreadControlBlock.h **** //
   2:src/../h/_KernelThreadControlBlock.h **** // Created by os on 8/12/22.
   3:src/../h/_KernelThreadControlBlock.h **** //
   4:src/../h/_KernelThreadControlBlock.h **** 
   5:src/../h/_KernelThreadControlBlock.h **** #ifndef PROJECT_BASE_V1_1_THREAD_H
   6:src/../h/_KernelThreadControlBlock.h **** #define PROJECT_BASE_V1_1_THREAD_H
   7:src/../h/_KernelThreadControlBlock.h **** 
   8:src/../h/_KernelThreadControlBlock.h **** #include "../lib/hw.h"
   9:src/../h/_KernelThreadControlBlock.h **** #include "../h/_KernelMemory.h"
  10:src/../h/_KernelThreadControlBlock.h **** #include "../h/list.h"
  11:src/../h/_KernelThreadControlBlock.h **** 
  12:src/../h/_KernelThreadControlBlock.h **** class Nit {
  13:src/../h/_KernelThreadControlBlock.h **** public:
  14:src/../h/_KernelThreadControlBlock.h ****     struct struktura{
  15:src/../h/_KernelThreadControlBlock.h ****         uint64 pc;
  16:src/../h/_KernelThreadControlBlock.h ****         uint64 sp;
  17:src/../h/_KernelThreadControlBlock.h ****     };
  18:src/../h/_KernelThreadControlBlock.h **** 
  19:src/../h/_KernelThreadControlBlock.h ****     using body = void(*)(void*);
  20:src/../h/_KernelThreadControlBlock.h **** 
  21:src/../h/_KernelThreadControlBlock.h ****     static int tajmer;
  22:src/../h/_KernelThreadControlBlock.h ****     static Nit* running;
  23:src/../h/_KernelThreadControlBlock.h ****     int prekid=0;
  24:src/../h/_KernelThreadControlBlock.h ****     bool finished=false;
  25:src/../h/_KernelThreadControlBlock.h ****     bool killed=false;
  26:src/../h/_KernelThreadControlBlock.h **** 
  27:src/../h/_KernelThreadControlBlock.h ****     static void *operator new(uint64 n){return Memorija::alokacija(n);}
  90              		.loc 2 27 41
  91              		.loc 2 27 67 is_stmt 0
  92 0074 13050005 		li	a0,80
  93              	.LVL7:
  94              	.LEHB0:
  95 0078 97000000 		call	_ZN8Memorija9alokacijaEm@plt
  95      E7800000 
  96              	.LVL8:
  97              	.LEHE0:
  98 0080 93040500 		mv	s1,a0
  99              	.LVL9:
 100              	.LBE34:
 101              	.LBE33:
 102              	.LBB35:
 103              	.LBB36:
  28:src/../h/_KernelThreadControlBlock.h ****     static void *operator new[](uint64 n){return Memorija::alokacija(n);}
  29:src/../h/_KernelThreadControlBlock.h ****     static void operator delete(void* p){Memorija::oslobadjanje(p);}
  30:src/../h/_KernelThreadControlBlock.h ****     static void operator delete[](void* p){Memorija::oslobadjanje(p);}
  31:src/../h/_KernelThreadControlBlock.h **** 
  32:src/../h/_KernelThreadControlBlock.h ****     static Nit* konstruktor(body,void*);
  33:src/../h/_KernelThreadControlBlock.h ****     static void dispatch();
  34:src/../h/_KernelThreadControlBlock.h ****     void join();
  35:src/../h/_KernelThreadControlBlock.h ****     void print();
  36:src/../h/_KernelThreadControlBlock.h **** 
  37:src/../h/_KernelThreadControlBlock.h **** private:
  38:src/../h/_KernelThreadControlBlock.h ****     static int IDD;
  39:src/../h/_KernelThreadControlBlock.h ****     int ID=IDD++;
GAS LISTING /tmp/ccvUpCDZ.s 			page 4


  40:src/../h/_KernelThreadControlBlock.h **** 
  41:src/../h/_KernelThreadControlBlock.h ****     struktura struktura1;
  42:src/../h/_KernelThreadControlBlock.h ****     body funkcija;
  43:src/../h/_KernelThreadControlBlock.h ****     void* arg;
  44:src/../h/_KernelThreadControlBlock.h ****     uint64 *stek;
  45:src/../h/_KernelThreadControlBlock.h ****     uint64 vreme;
  46:src/../h/_KernelThreadControlBlock.h ****     List <Nit> onHold;
  47:src/../h/_KernelThreadControlBlock.h **** 
  48:src/../h/_KernelThreadControlBlock.h ****     Nit(body funkcija1, void* arg){
 104              		.loc 2 48 35
 105 0084 23200500 		sw	zero,0(a0)
 106 0088 23020500 		sb	zero,4(a0)
 107 008c A3020500 		sb	zero,5(a0)
 108 0090 17070000 		lla	a4,.LANCHOR0
 108      13070700 
 109 0098 83270700 		lw	a5,0(a4)
 110 009c 9B861700 		addiw	a3,a5,1
 111 00a0 2320D700 		sw	a3,0(a4)
 112 00a4 2324F500 		sw	a5,8(a0)
 113              	.LVL10:
 114              	.LBB37:
 115              	.LBB38:
 116              		.file 3 "src/../h/../h/list.h"
   1:src/../h/../h/list.h **** //
   2:src/../h/../h/list.h **** // Created by os on 2/17/23.
   3:src/../h/../h/list.h **** //
   4:src/../h/../h/list.h **** 
   5:src/../h/../h/list.h **** #ifndef PROJEKAT2_LIST_H
   6:src/../h/../h/list.h **** #define PROJEKAT2_LIST_H
   7:src/../h/../h/list.h **** 
   8:src/../h/../h/list.h **** template<typename T>
   9:src/../h/../h/list.h **** class List
  10:src/../h/../h/list.h **** {
  11:src/../h/../h/list.h **** private:
  12:src/../h/../h/list.h ****     struct Elem
  13:src/../h/../h/list.h ****     {
  14:src/../h/../h/list.h ****         T *data;
  15:src/../h/../h/list.h ****         Elem *next;
  16:src/../h/../h/list.h **** 
  17:src/../h/../h/list.h ****         Elem(T *data, Elem *next) : data(data), next(next) {}
  18:src/../h/../h/list.h ****     };
  19:src/../h/../h/list.h **** 
  20:src/../h/../h/list.h ****     Elem *head, *tail;
  21:src/../h/../h/list.h **** 
  22:src/../h/../h/list.h **** public:
  23:src/../h/../h/list.h ****     List() : head(0), tail(0) {}
 117              		.loc 3 23 29
 118 00a8 23300504 		sd	zero,64(a0)
 119 00ac 23340504 		sd	zero,72(a0)
 120              	.LVL11:
 121              	.LBE38:
 122              	.LBE37:
  49:src/../h/_KernelThreadControlBlock.h ****         funkcija=funkcija1;
 123              		.loc 2 49 9 is_stmt 1
 124              		.loc 2 49 17 is_stmt 0
 125 00b0 23303503 		sd	s3,32(a0)
  50:src/../h/_KernelThreadControlBlock.h ****         finished=false;
GAS LISTING /tmp/ccvUpCDZ.s 			page 5


 126              		.loc 2 50 9 is_stmt 1
  51:src/../h/_KernelThreadControlBlock.h ****         this->arg=arg;
 127              		.loc 2 51 9
 128              		.loc 2 51 18 is_stmt 0
 129 00b4 23342503 		sd	s2,40(a0)
  52:src/../h/_KernelThreadControlBlock.h ****         struktura1.pc=(uint64)&omotac;
 130              		.loc 2 52 9 is_stmt 1
 131              		.loc 2 52 22 is_stmt 0
 132 00b8 97070000 		lla	a5,_ZN3Nit6omotacEv
 132      93870700 
 133 00c0 2338F500 		sd	a5,16(a0)
  53:src/../h/_KernelThreadControlBlock.h ****         if(funkcija1!=nullptr) stek = (uint64*)Memorija::alokacija(DEFAULT_STACK_SIZE* sizeof(uint6
 134              		.loc 2 53 9 is_stmt 1
 135 00c4 638A0900 		beqz	s3,.L4
 136              		.loc 2 53 32
 137              		.loc 2 53 67 is_stmt 0
 138 00c8 37850000 		li	a0,32768
 139              	.LEHB1:
 140 00cc 97000000 		call	_ZN8Memorija9alokacijaEm@plt
 140      E7800000 
 141              	.LVL12:
 142              	.LEHE1:
 143              		.loc 2 53 37
 144 00d4 23B8A402 		sd	a0,48(s1)
 145              	.L4:
  54:src/../h/_KernelThreadControlBlock.h ****         if(funkcija1!=nullptr) struktura1.sp=(uint64)&stek[DEFAULT_STACK_SIZE];
 146              		.loc 2 54 9 is_stmt 1
 147 00d8 638A0900 		beqz	s3,.L5
 148              		.loc 2 54 32
 149              		.loc 2 54 55 is_stmt 0
 150 00dc 83B70403 		ld	a5,48(s1)
 151              		.loc 2 54 54
 152 00e0 37870000 		li	a4,32768
 153 00e4 B387E700 		add	a5,a5,a4
 154              		.loc 2 54 45
 155 00e8 23BCF400 		sd	a5,24(s1)
 156              	.L5:
  55:src/../h/_KernelThreadControlBlock.h ****         if(funkcija1!=nullptr) vreme = DEFAULT_TIME_SLICE;
 157              		.loc 2 55 9 is_stmt 1
 158 00ec 63860900 		beqz	s3,.L6
 159              		.loc 2 55 32
 160              		.loc 2 55 38 is_stmt 0
 161 00f0 93072000 		li	a5,2
 162 00f4 23BCF402 		sd	a5,56(s1)
 163              	.L6:
 164              	.LVL13:
 165              	.LBE36:
 166              	.LBE35:
  28:src/_KernelThreadControlBlock.cpp ****     if(Nit::running==nullptr) {Nit::running=t;}
 167              		.loc 1 28 5 is_stmt 1
 168              		.loc 1 28 20 is_stmt 0
 169 00f8 97070000 		ld	a5,.LANCHOR0+8
 169      83B70700 
 170              		.loc 1 28 5
 171 0100 63880702 		beqz	a5,.L12
 172              	.L7:
  29:src/_KernelThreadControlBlock.cpp ****     Scheduler::put(t);
GAS LISTING /tmp/ccvUpCDZ.s 			page 6


 173              		.loc 1 29 5 is_stmt 1
 174              		.loc 1 29 19 is_stmt 0
 175 0104 13850400 		mv	a0,s1
 176              	.LEHB2:
 177 0108 97000000 		call	_ZN9Scheduler3putEP3Nit@plt
 177      E7800000 
 178              	.LVL14:
 179              	.LEHE2:
  30:src/_KernelThreadControlBlock.cpp ****     return t;
 180              		.loc 1 30 5 is_stmt 1
  31:src/_KernelThreadControlBlock.cpp **** }
 181              		.loc 1 31 1 is_stmt 0
 182 0110 13850400 		mv	a0,s1
 183 0114 83308102 		ld	ra,40(sp)
 184              		.cfi_remember_state
 185              		.cfi_restore 1
 186 0118 03340102 		ld	s0,32(sp)
 187              		.cfi_restore 8
 188              		.cfi_def_cfa 2, 48
 189 011c 83348101 		ld	s1,24(sp)
 190              		.cfi_restore 9
 191              	.LVL15:
 192 0120 03390101 		ld	s2,16(sp)
 193              		.cfi_restore 18
 194              	.LVL16:
 195 0124 83398100 		ld	s3,8(sp)
 196              		.cfi_restore 19
 197              	.LVL17:
 198 0128 13010103 		addi	sp,sp,48
 199              		.cfi_def_cfa_offset 0
 200 012c 67800000 		jr	ra
 201              	.LVL18:
 202              	.L12:
 203              		.cfi_restore_state
  28:src/_KernelThreadControlBlock.cpp ****     Scheduler::put(t);
 204              		.loc 1 28 32 is_stmt 1 discriminator 1
  28:src/_KernelThreadControlBlock.cpp ****     Scheduler::put(t);
 205              		.loc 1 28 44 is_stmt 0 discriminator 1
 206 0130 97070000 		sd	s1,.LANCHOR0+8,a5
 206      23B09700 
 207 0138 6FF0DFFC 		j	.L7
 208              	.LVL19:
 209              	.L9:
 210 013c 13090500 		mv	s2,a0
 211              	.LVL20:
 212              	.LBB39:
 213              	.LBB40:
  29:src/../h/_KernelThreadControlBlock.h ****     static void operator delete[](void* p){Memorija::oslobadjanje(p);}
 214              		.loc 2 29 42 is_stmt 1
  29:src/../h/_KernelThreadControlBlock.h ****     static void operator delete[](void* p){Memorija::oslobadjanje(p);}
 215              		.loc 2 29 64 is_stmt 0
 216 0140 13850400 		mv	a0,s1
 217 0144 97000000 		call	_ZN8Memorija12oslobadjanjeEPv@plt
 217      E7800000 
 218              	.LVL21:
 219 014c 13050900 		mv	a0,s2
 220              	.LEHB3:
GAS LISTING /tmp/ccvUpCDZ.s 			page 7


 221 0150 97000000 		call	_Unwind_Resume@plt
 221      E7800000 
 222              	.LVL22:
 223              	.LEHE3:
 224              	.LBE40:
 225              	.LBE39:
 226              		.cfi_endproc
 227              	.LFE17:
 228              		.globl	__gxx_personality_v0
 229              		.section	.gcc_except_table,"a",@progbits
 230              	.LLSDA17:
 231 0000 FF       		.byte	0xff
 232 0001 FF       		.byte	0xff
 233 0002 03       		.byte	0x3
 234 0003 34       		.byte	0x34
 235 0004 00000000 		.4byte	.LEHB0-.LFB17
 236 0008 00000000 		.4byte	.LEHE0-.LEHB0
 237 000c 00000000 		.4byte	0
 238 0010 00       		.byte	0
 239 0011 00000000 		.4byte	.LEHB1-.LFB17
 240 0015 00000000 		.4byte	.LEHE1-.LEHB1
 241 0019 00000000 		.4byte	.L9-.LFB17
 242 001d 00       		.byte	0
 243 001e 00000000 		.4byte	.LEHB2-.LFB17
 244 0022 00000000 		.4byte	.LEHE2-.LEHB2
 245 0026 00000000 		.4byte	0
 246 002a 00       		.byte	0
 247 002b 00000000 		.4byte	.LEHB3-.LFB17
 248 002f 00000000 		.4byte	.LEHE3-.LEHB3
 249 0033 00000000 		.4byte	0
 250 0037 00       		.byte	0
 251              		.text
 253              		.align	2
 254              		.globl	_ZN3Nit8dispatchEv
 256              	_ZN3Nit8dispatchEv:
 257              	.LFB18:
  32:src/_KernelThreadControlBlock.cpp **** 
  33:src/_KernelThreadControlBlock.cpp **** void Nit::dispatch() {
 258              		.loc 1 33 22 is_stmt 1
 259              		.cfi_startproc
 260 0158 130101FE 		addi	sp,sp,-32
 261              		.cfi_def_cfa_offset 32
 262 015c 233C1100 		sd	ra,24(sp)
 263 0160 23388100 		sd	s0,16(sp)
 264 0164 23349100 		sd	s1,8(sp)
 265              		.cfi_offset 1, -8
 266              		.cfi_offset 8, -16
 267              		.cfi_offset 9, -24
 268 0168 13040102 		addi	s0,sp,32
 269              		.cfi_def_cfa 8, 0
  34:src/_KernelThreadControlBlock.cpp **** 
  35:src/_KernelThreadControlBlock.cpp ****     Nit* old = Nit::running;
 270              		.loc 1 35 5
 271              		.loc 1 35 10 is_stmt 0
 272 016c 97040000 		ld	s1,.LANCHOR0+8
 272      83B40400 
 273              	.LVL23:
GAS LISTING /tmp/ccvUpCDZ.s 			page 8


  36:src/_KernelThreadControlBlock.cpp ****     if(!old->finished  && !old->killed) Scheduler::put(old);
 274              		.loc 1 36 5 is_stmt 1
 275              		.loc 1 36 14 is_stmt 0
 276 0174 83C74400 		lbu	a5,4(s1)
 277              		.loc 1 36 5
 278 0178 63960700 		bnez	a5,.L14
 279              		.loc 1 36 33 discriminator 1
 280 017c 83C75400 		lbu	a5,5(s1)
 281              		.loc 1 36 24 discriminator 1
 282 0180 638C0702 		beqz	a5,.L16
 283              	.L14:
  37:src/_KernelThreadControlBlock.cpp ****     running = Scheduler::get();
 284              		.loc 1 37 5 is_stmt 1
 285              		.loc 1 37 29 is_stmt 0
 286 0184 97000000 		call	_ZN9Scheduler3getEv@plt
 286      E7800000 
 287              	.LVL24:
 288              		.loc 1 37 13
 289 018c 97070000 		sd	a0,.LANCHOR0+8,a5
 289      23B0A700 
  38:src/_KernelThreadControlBlock.cpp **** 
  39:src/_KernelThreadControlBlock.cpp ****     contextSwitch(&old->struktura1,&running->struktura1);
 290              		.loc 1 39 5 is_stmt 1
 291              		.loc 1 39 18 is_stmt 0
 292 0194 93050501 		addi	a1,a0,16
 293 0198 13850401 		addi	a0,s1,16
 294 019c 97000000 		call	contextSwitch@plt
 294      E7800000 
 295              	.LVL25:
  40:src/_KernelThreadControlBlock.cpp **** }
 296              		.loc 1 40 1
 297 01a4 83308101 		ld	ra,24(sp)
 298              		.cfi_remember_state
 299              		.cfi_restore 1
 300 01a8 03340101 		ld	s0,16(sp)
 301              		.cfi_restore 8
 302              		.cfi_def_cfa 2, 32
 303 01ac 83348100 		ld	s1,8(sp)
 304              		.cfi_restore 9
 305              	.LVL26:
 306 01b0 13010102 		addi	sp,sp,32
 307              		.cfi_def_cfa_offset 0
 308 01b4 67800000 		jr	ra
 309              	.LVL27:
 310              	.L16:
 311              		.cfi_restore_state
  36:src/_KernelThreadControlBlock.cpp ****     running = Scheduler::get();
 312              		.loc 1 36 41 is_stmt 1 discriminator 2
  36:src/_KernelThreadControlBlock.cpp ****     running = Scheduler::get();
 313              		.loc 1 36 55 is_stmt 0 discriminator 2
 314 01b8 13850400 		mv	a0,s1
 315 01bc 97000000 		call	_ZN9Scheduler3putEP3Nit@plt
 315      E7800000 
 316              	.LVL28:
 317 01c4 6FF01FFC 		j	.L14
 318              		.cfi_endproc
 319              	.LFE18:
GAS LISTING /tmp/ccvUpCDZ.s 			page 9


 321              		.align	2
 322              		.globl	_ZN3Nit5pomocEv
 324              	_ZN3Nit5pomocEv:
 325              	.LFB19:
  41:src/_KernelThreadControlBlock.cpp **** 
  42:src/_KernelThreadControlBlock.cpp **** void Nit::pomoc() {
 326              		.loc 1 42 19 is_stmt 1
 327              		.cfi_startproc
 328 01c8 130101FE 		addi	sp,sp,-32
 329              		.cfi_def_cfa_offset 32
 330 01cc 233C8100 		sd	s0,24(sp)
 331              		.cfi_offset 8, -8
 332 01d0 13040102 		addi	s0,sp,32
 333              		.cfi_def_cfa 8, 0
  43:src/_KernelThreadControlBlock.cpp ****     uint64 volatile sstatus;
 334              		.loc 1 43 5
  44:src/_KernelThreadControlBlock.cpp ****     __asm__ volatile("csrr %0, sstatus" : "=r" (sstatus));
 335              		.loc 1 44 5
 336              		.loc 1 44 58 is_stmt 0
 337              	#APP
 338              	# 44 "src/_KernelThreadControlBlock.cpp" 1
  45              	    sstatus&=~256;
 339              		csrr a5, sstatus
 340              	# 0 "" 2
 341              	#NO_APP
 342 01d8 2334F4FE 		sd	a5,-24(s0)
 343              		.loc 1 45 5 is_stmt 1
 344              		.loc 1 45 12 is_stmt 0
 345 01dc 833784FE 		ld	a5,-24(s0)
 346 01e0 93F7F7EF 		andi	a5,a5,-257
 347 01e4 2334F4FE 		sd	a5,-24(s0)
  46:src/_KernelThreadControlBlock.cpp ****     __asm__ volatile("csrw sstatus, %0"::"r" (sstatus));
 348              		.loc 1 46 5 is_stmt 1
 349              		.loc 1 46 47 is_stmt 0
 350 01e8 833784FE 		ld	a5,-24(s0)
 351              		.loc 1 46 56
 352              	#APP
 353              	# 46 "src/_KernelThreadControlBlock.cpp" 1
  47              	
  48:src/_KernelThreadControlBlock.cpp ****     __asm__ volatile("csrw sepc, ra");
 354              		csrw sstatus, a5
 355              	# 0 "" 2
 356              		.loc 1 48 5 is_stmt 1
 357              		.loc 1 48 38 is_stmt 0
 358              	# 48 "src/_KernelThreadControlBlock.cpp" 1
  49              	    __asm__ volatile("sret");
 359              		csrw sepc, ra
 360              	# 0 "" 2
 361              		.loc 1 49 5 is_stmt 1
 362              		.loc 1 49 29 is_stmt 0
 363              	# 49 "src/_KernelThreadControlBlock.cpp" 1
  50              	}
 364              		sret
 365              	# 0 "" 2
 366              		.loc 1 50 1
 367              	#NO_APP
 368 01f8 03348101 		ld	s0,24(sp)
GAS LISTING /tmp/ccvUpCDZ.s 			page 10


 369              		.cfi_restore 8
 370              		.cfi_def_cfa 2, 32
 371 01fc 13010102 		addi	sp,sp,32
 372              		.cfi_def_cfa_offset 0
 373 0200 67800000 		jr	ra
 374              		.cfi_endproc
 375              	.LFE19:
 377              		.align	2
 378              		.globl	_ZN3Nit6omotacEv
 380              	_ZN3Nit6omotacEv:
 381              	.LFB20:
  51:src/_KernelThreadControlBlock.cpp **** 
  52:src/_KernelThreadControlBlock.cpp **** void Nit::omotac() {
 382              		.loc 1 52 20 is_stmt 1
 383              		.cfi_startproc
 384 0204 130101FE 		addi	sp,sp,-32
 385              		.cfi_def_cfa_offset 32
 386 0208 233C1100 		sd	ra,24(sp)
 387 020c 23388100 		sd	s0,16(sp)
 388 0210 23349100 		sd	s1,8(sp)
 389              		.cfi_offset 1, -8
 390              		.cfi_offset 8, -16
 391              		.cfi_offset 9, -24
 392 0214 13040102 		addi	s0,sp,32
 393              		.cfi_def_cfa 8, 0
  53:src/_KernelThreadControlBlock.cpp ****     Nit::pomoc();
 394              		.loc 1 53 5
 395              		.loc 1 53 15 is_stmt 0
 396 0218 97000000 		call	_ZN3Nit5pomocEv
 396      E7800000 
 397              	.LVL29:
  54:src/_KernelThreadControlBlock.cpp ****     running->funkcija(Nit::running->arg);
 398              		.loc 1 54 5 is_stmt 1
 399              		.loc 1 54 14 is_stmt 0
 400 0220 97040000 		lla	s1,.LANCHOR0
 400      93840400 
 401 0228 83B78400 		ld	a5,8(s1)
 402 022c 03B70702 		ld	a4,32(a5)
 403              		.loc 1 54 22
 404 0230 03B58702 		ld	a0,40(a5)
 405 0234 E7000700 		jalr	a4
 406              	.LVL30:
  55:src/_KernelThreadControlBlock.cpp ****     running->finished=true;
 407              		.loc 1 55 5 is_stmt 1
 408              		.loc 1 55 14 is_stmt 0
 409 0238 83B78400 		ld	a5,8(s1)
 410              		.loc 1 55 22
 411 023c 13071000 		li	a4,1
 412 0240 2382E700 		sb	a4,4(a5)
 413 0244 6F004002 		j	.L22
 414              	.LVL31:
 415              	.L24:
 416              	.LBB41:
 417              	.LBB42:
 418              	.LBB43:
  24:src/../h/../h/list.h **** 
  25:src/../h/../h/list.h ****     List(const List<T> &) = delete;
GAS LISTING /tmp/ccvUpCDZ.s 			page 11


  26:src/../h/../h/list.h **** 
  27:src/../h/../h/list.h ****     List<T> &operator=(const List<T> &) = delete;
  28:src/../h/../h/list.h **** 
  29:src/../h/../h/list.h ****     void addFirst(T *data)
  30:src/../h/../h/list.h ****     {
  31:src/../h/../h/list.h ****         Elem *elem = new Elem(data, head);
  32:src/../h/../h/list.h ****         head = elem;
  33:src/../h/../h/list.h ****         if (!tail) { tail = head; }
  34:src/../h/../h/list.h ****     }
  35:src/../h/../h/list.h **** 
  36:src/../h/../h/list.h ****     void addLast(T *data)
  37:src/../h/../h/list.h ****     {
  38:src/../h/../h/list.h ****         Elem *elem = new Elem(data, 0);
  39:src/../h/../h/list.h ****         if (tail)
  40:src/../h/../h/list.h ****         {
  41:src/../h/../h/list.h ****             tail->next = elem;
  42:src/../h/../h/list.h ****             tail = elem;
  43:src/../h/../h/list.h ****         } else
  44:src/../h/../h/list.h ****         {
  45:src/../h/../h/list.h ****             head = tail = elem;
  46:src/../h/../h/list.h ****         }
  47:src/../h/../h/list.h ****     }
  48:src/../h/../h/list.h **** 
  49:src/../h/../h/list.h ****     T *removeFirst()
  50:src/../h/../h/list.h ****     {
  51:src/../h/../h/list.h ****         if (!head) { return 0; }
  52:src/../h/../h/list.h **** 
  53:src/../h/../h/list.h ****         Elem *elem = head;
  54:src/../h/../h/list.h ****         head = head->next;
  55:src/../h/../h/list.h ****         if (!head) { tail = 0; }
 419              		.loc 3 55 22
 420 0248 23B40704 		sd	zero,72(a5)
 421              	.L21:
  56:src/../h/../h/list.h **** 
  57:src/../h/../h/list.h ****         T *ret = elem->data;
 422              		.loc 3 57 12
 423 024c 83340500 		ld	s1,0(a0)
 424              	.LVL32:
  58:src/../h/../h/list.h ****         delete elem;
 425              		.loc 3 58 9
 426 0250 97000000 		call	_ZdlPv@plt
 426      E7800000 
 427              	.LVL33:
 428              	.LBE43:
 429              	.LBE42:
  56:src/_KernelThreadControlBlock.cpp ****     while(Nit::running->onHold.peekFirst()!= nullptr){
  57:src/_KernelThreadControlBlock.cpp ****         Nit* temp = Nit::running->onHold.removeFirst();
  58:src/_KernelThreadControlBlock.cpp ****         temp->finished=false;
 430              		.loc 1 58 9 is_stmt 1
 431              		.loc 1 58 23 is_stmt 0
 432 0258 23820400 		sb	zero,4(s1)
  59:src/_KernelThreadControlBlock.cpp ****         Scheduler::put(temp);
 433              		.loc 1 59 9 is_stmt 1
 434              		.loc 1 59 23 is_stmt 0
 435 025c 13850400 		mv	a0,s1
 436 0260 97000000 		call	_ZN9Scheduler3putEP3Nit@plt
 436      E7800000 
GAS LISTING /tmp/ccvUpCDZ.s 			page 12


 437              	.LVL34:
 438              	.L22:
 439              	.LBE41:
  56:src/_KernelThreadControlBlock.cpp ****     while(Nit::running->onHold.peekFirst()!= nullptr){
 440              		.loc 1 56 5 is_stmt 1
  56:src/_KernelThreadControlBlock.cpp ****     while(Nit::running->onHold.peekFirst()!= nullptr){
 441              		.loc 1 56 43
  56:src/_KernelThreadControlBlock.cpp ****     while(Nit::running->onHold.peekFirst()!= nullptr){
 442              		.loc 1 56 25 is_stmt 0
 443 0268 97070000 		ld	a5,.LANCHOR0+8
 443      83B70700 
 444              	.LVL35:
 445              	.LBB46:
 446              	.LBB47:
  59:src/../h/../h/list.h ****         return ret;
  60:src/../h/../h/list.h ****     }
  61:src/../h/../h/list.h **** 
  62:src/../h/../h/list.h ****     T *peekFirst()
  63:src/../h/../h/list.h ****     {
  64:src/../h/../h/list.h ****         if (!head) { return 0; }
 447              		.loc 3 64 14
 448 0270 03B50704 		ld	a0,64(a5)
 449              		.loc 3 64 9
 450 0274 630E0500 		beqz	a0,.L20
  65:src/../h/../h/list.h ****         return head->data;
 451              		.loc 3 65 22
 452 0278 03370500 		ld	a4,0(a0)
 453              	.LVL36:
 454              	.LBE47:
 455              	.LBE46:
  56:src/_KernelThreadControlBlock.cpp ****         Nit* temp = Nit::running->onHold.removeFirst();
 456              		.loc 1 56 43
 457 027c 630A0700 		beqz	a4,.L20
 458              	.LBB48:
  57:src/_KernelThreadControlBlock.cpp ****         temp->finished=false;
 459              		.loc 1 57 9 is_stmt 1
 460              	.LVL37:
 461              	.LBB45:
 462              	.LBB44:
  54:src/../h/../h/list.h ****         if (!head) { tail = 0; }
 463              		.loc 3 54 22 is_stmt 0
 464 0280 03378500 		ld	a4,8(a0)
  54:src/../h/../h/list.h ****         if (!head) { tail = 0; }
 465              		.loc 3 54 9
 466 0284 23B0E704 		sd	a4,64(a5)
  55:src/../h/../h/list.h **** 
 467              		.loc 3 55 9
 468 0288 E31207FC 		bnez	a4,.L21
 469 028c 6FF0DFFB 		j	.L24
 470              	.LVL38:
 471              	.L20:
 472              	.LBE44:
 473              	.LBE45:
 474              	.LBE48:
  60:src/_KernelThreadControlBlock.cpp ****     }
  61:src/_KernelThreadControlBlock.cpp ****     thread_dispatch();
 475              		.loc 1 61 5 is_stmt 1
GAS LISTING /tmp/ccvUpCDZ.s 			page 13


 476              		.loc 1 61 20 is_stmt 0
 477 0290 97000000 		call	_Z15thread_dispatchv@plt
 477      E7800000 
 478              	.LVL39:
  62:src/_KernelThreadControlBlock.cpp **** }
 479              		.loc 1 62 1
 480 0298 83308101 		ld	ra,24(sp)
 481              		.cfi_restore 1
 482 029c 03340101 		ld	s0,16(sp)
 483              		.cfi_restore 8
 484              		.cfi_def_cfa 2, 32
 485 02a0 83348100 		ld	s1,8(sp)
 486              		.cfi_restore 9
 487 02a4 13010102 		addi	sp,sp,32
 488              		.cfi_def_cfa_offset 0
 489 02a8 67800000 		jr	ra
 490              		.cfi_endproc
 491              	.LFE20:
 493              		.align	2
 494              		.globl	_ZN3Nit4joinEv
 496              	_ZN3Nit4joinEv:
 497              	.LFB21:
  63:src/_KernelThreadControlBlock.cpp **** 
  64:src/_KernelThreadControlBlock.cpp **** void Nit::join() {
 498              		.loc 1 64 18 is_stmt 1
 499              		.cfi_startproc
 500              	.LVL40:
 501 02ac 130101FE 		addi	sp,sp,-32
 502              		.cfi_def_cfa_offset 32
 503 02b0 233C1100 		sd	ra,24(sp)
 504 02b4 23388100 		sd	s0,16(sp)
 505 02b8 23349100 		sd	s1,8(sp)
 506 02bc 23302101 		sd	s2,0(sp)
 507              		.cfi_offset 1, -8
 508              		.cfi_offset 8, -16
 509              		.cfi_offset 9, -24
 510              		.cfi_offset 18, -32
 511 02c0 13040102 		addi	s0,sp,32
 512              		.cfi_def_cfa 8, 0
 513 02c4 93040500 		mv	s1,a0
  65:src/_KernelThreadControlBlock.cpp ****     Nit* thread1 = this;
 514              		.loc 1 65 5
 515              	.LVL41:
  66:src/_KernelThreadControlBlock.cpp ****     Nit* thread2 = Nit::running;
 516              		.loc 1 66 5
 517              		.loc 1 66 10 is_stmt 0
 518 02c8 17090000 		ld	s2,.LANCHOR0+8
 518      03390900 
 519              	.LVL42:
  67:src/_KernelThreadControlBlock.cpp **** 
  68:src/_KernelThreadControlBlock.cpp ****     thread1->onHold.addLast(thread2);
 520              		.loc 1 68 5 is_stmt 1
 521              	.LBB49:
 522              	.LBB50:
  38:src/../h/../h/list.h ****         if (tail)
 523              		.loc 3 38 22 is_stmt 0
 524 02d0 13050001 		li	a0,16
GAS LISTING /tmp/ccvUpCDZ.s 			page 14


 525              	.LVL43:
 526 02d4 97000000 		call	_Znwm@plt
 526      E7800000 
 527              	.LVL44:
 528              	.LBB51:
 529              	.LBB52:
  17:src/../h/../h/list.h ****     };
 530              		.loc 3 17 58
 531 02dc 23302501 		sd	s2,0(a0)
 532 02e0 23340500 		sd	zero,8(a0)
 533              	.LVL45:
 534              	.LBE52:
 535              	.LBE51:
  39:src/../h/../h/list.h ****         {
 536              		.loc 3 39 13
 537 02e4 83B78404 		ld	a5,72(s1)
  39:src/../h/../h/list.h ****         {
 538              		.loc 3 39 9
 539 02e8 638A0702 		beqz	a5,.L26
  41:src/../h/../h/list.h ****             tail = elem;
 540              		.loc 3 41 13
 541 02ec 23B4A700 		sd	a0,8(a5)
  42:src/../h/../h/list.h ****         } else
 542              		.loc 3 42 13
 543 02f0 23B4A404 		sd	a0,72(s1)
 544              	.L27:
 545              	.LVL46:
 546              	.LBE50:
 547              	.LBE49:
  69:src/_KernelThreadControlBlock.cpp ****     thread2->finished=true;
 548              		.loc 1 69 5 is_stmt 1
 549              		.loc 1 69 22 is_stmt 0
 550 02f4 93071000 		li	a5,1
 551 02f8 2302F900 		sb	a5,4(s2)
  70:src/_KernelThreadControlBlock.cpp **** 
  71:src/_KernelThreadControlBlock.cpp ****     Nit::dispatch();
 552              		.loc 1 71 5 is_stmt 1
 553              		.loc 1 71 18 is_stmt 0
 554 02fc 97000000 		call	_ZN3Nit8dispatchEv
 554      E7800000 
 555              	.LVL47:
  72:src/_KernelThreadControlBlock.cpp **** }
 556              		.loc 1 72 1
 557 0304 83308101 		ld	ra,24(sp)
 558              		.cfi_remember_state
 559              		.cfi_restore 1
 560 0308 03340101 		ld	s0,16(sp)
 561              		.cfi_restore 8
 562              		.cfi_def_cfa 2, 32
 563 030c 83348100 		ld	s1,8(sp)
 564              		.cfi_restore 9
 565              	.LVL48:
 566 0310 03390100 		ld	s2,0(sp)
 567              		.cfi_restore 18
 568              	.LVL49:
 569 0314 13010102 		addi	sp,sp,32
 570              		.cfi_def_cfa_offset 0
GAS LISTING /tmp/ccvUpCDZ.s 			page 15


 571 0318 67800000 		jr	ra
 572              	.LVL50:
 573              	.L26:
 574              		.cfi_restore_state
 575              	.LBB54:
 576              	.LBB53:
  45:src/../h/../h/list.h ****         }
 577              		.loc 3 45 13
 578 031c 23B4A404 		sd	a0,72(s1)
 579 0320 23B0A404 		sd	a0,64(s1)
 580 0324 6FF01FFD 		j	.L27
 581              	.LBE53:
 582              	.LBE54:
 583              		.cfi_endproc
 584              	.LFE21:
 586              		.globl	_ZN3Nit7runningE
 587              		.globl	_ZN3Nit6tajmerE
 588              		.globl	_ZN3Nit3IDDE
 589              		.bss
 590              		.align	3
 591              		.set	.LANCHOR0,. + 0
 594              	_ZN3Nit3IDDE:
 595 0000 00000000 		.zero	4
 596 0004 00000000 		.zero	4
 599              	_ZN3Nit7runningE:
 600 0008 00000000 		.zero	8
 600      00000000 
 603              	_ZN3Nit6tajmerE:
 604 0010 00000000 		.zero	4
 605              		.text
 606              	.Letext0:
 607              		.file 4 "src/../h/../lib/hw.h"
 608              		.file 5 "src/../h/../h/_KernelMemory.h"
 609              		.file 6 "src/../h/_KernelScheduler.h"
 610              		.file 7 "src/../h/syscall_c.h"
 611              		.file 8 "src/../test/printing.hpp"
 612              		.file 9 "<built-in>"
 3853              		.align	3
 3856              	DW.ref.__gxx_personality_v0:
 3857 0000 00000000 		.dword	__gxx_personality_v0
 3857      00000000 
 3858              		.ident	"GCC: (Ubuntu 9.4.0-1ubuntu1~20.04) 9.4.0"
 3859              		.section	.note.GNU-stack,"",@progbits
GAS LISTING /tmp/ccvUpCDZ.s 			page 16

