GAS LISTING /tmp/ccwqmQ6x.s 			page 1


   1              		.file	"main.cpp"
   2              		.option pic
   3              		.option norelax
   4              		.text
   5              	.Ltext0:
   6              		.align	2
   7              		.globl	_Z9userMain1Pv
   9              	_Z9userMain1Pv:
  10              	.LFB25:
  11              		.file 1 "src/main.cpp"
   1:src/main.cpp  **** //
   2:src/main.cpp  **** // Created by os on 8/11/22.
   3:src/main.cpp  **** //
   4:src/main.cpp  **** 
   5:src/main.cpp  **** #include "../h/syscall_cpp.h"
   6:src/main.cpp  **** #include "../h/_KernelMemory.h"
   7:src/main.cpp  **** #include "../h/_KernelScheduler.h"
   8:src/main.cpp  **** #include "../h/_KernelThreadControlBlock.h"
   9:src/main.cpp  **** #include "../h/_KernelSemaphore.h"
  10:src/main.cpp  **** #include "../h/_KernelConsole.h"
  11:src/main.cpp  **** #include "../lib/hw.h"
  12:src/main.cpp  **** 
  13:src/main.cpp  **** extern "C" void supervisorTrap();
  14:src/main.cpp  **** extern "C++" void userMain();
  15:src/main.cpp  **** 
  16:src/main.cpp  **** bool flag=true;
  17:src/main.cpp  **** bool flagConsole=true;
  18:src/main.cpp  **** 
  19:src/main.cpp  **** void userMain1(void* a){
  12              		.loc 1 19 24
  13              		.cfi_startproc
  14              	.LVL0:
  15 0000 130101FF 		addi	sp,sp,-16
  16              		.cfi_def_cfa_offset 16
  17 0004 23341100 		sd	ra,8(sp)
  18 0008 23308100 		sd	s0,0(sp)
  19              		.cfi_offset 1, -8
  20              		.cfi_offset 8, -16
  21 000c 13040101 		addi	s0,sp,16
  22              		.cfi_def_cfa 8, 0
  20:src/main.cpp  ****     userMain();
  23              		.loc 1 20 5
  24              		.loc 1 20 13 is_stmt 0
  25 0010 97000000 		call	_Z8userMainv@plt
  25      E7800000 
  26              	.LVL1:
  21:src/main.cpp  ****     flag=false;
  27              		.loc 1 21 5 is_stmt 1
  28              		.loc 1 21 9 is_stmt 0
  29 0018 97070000 		sb	zero,.LANCHOR0,a5
  29      23800700 
  22:src/main.cpp  **** }
  30              		.loc 1 22 1
  31 0020 83308100 		ld	ra,8(sp)
  32              		.cfi_restore 1
  33 0024 03340100 		ld	s0,0(sp)
  34              		.cfi_restore 8
GAS LISTING /tmp/ccwqmQ6x.s 			page 2


  35              		.cfi_def_cfa 2, 16
  36 0028 13010101 		addi	sp,sp,16
  37              		.cfi_def_cfa_offset 0
  38 002c 67800000 		jr	ra
  39              		.cfi_endproc
  40              	.LFE25:
  42              		.align	2
  43              		.globl	_Z12konzolaispisPv
  45              	_Z12konzolaispisPv:
  46              	.LFB26:
  23:src/main.cpp  **** void konzolaispis(void* a){
  47              		.loc 1 23 27 is_stmt 1
  48              		.cfi_startproc
  49              	.LVL2:
  50 0030 130101FF 		addi	sp,sp,-16
  51              		.cfi_def_cfa_offset 16
  52 0034 23341100 		sd	ra,8(sp)
  53 0038 23308100 		sd	s0,0(sp)
  54              		.cfi_offset 1, -8
  55              		.cfi_offset 8, -16
  56 003c 13040101 		addi	s0,sp,16
  57              		.cfi_def_cfa 8, 0
  24:src/main.cpp  ****     promenarezima();
  58              		.loc 1 24 5
  59              		.loc 1 24 18 is_stmt 0
  60 0040 97000000 		call	_Z13promenarezimav@plt
  60      E7800000 
  61              	.LVL3:
  62              	.L4:
  25:src/main.cpp  ****     while(1){
  63              		.loc 1 25 5 is_stmt 1
  64              	.LBB2:
  26:src/main.cpp  ****         while(*((uint8*)CONSOLE_STATUS) & CONSOLE_TX_STATUS_BIT){
  65              		.loc 1 26 9
  66              		.loc 1 26 43
  67              		.loc 1 26 15 is_stmt 0
  68 0048 97070000 		la	a5,CONSOLE_STATUS
  68      83B70700 
  69 0050 83B70700 		ld	a5,0(a5)
  70 0054 83C70700 		lbu	a5,0(a5)
  71              		.loc 1 26 43
  72 0058 93F70702 		andi	a5,a5,32
  73 005c E38607FE 		beqz	a5,.L4
  74              	.LBB3:
  27:src/main.cpp  ****             char c = Konzola::getizlaz();
  75              		.loc 1 27 13 is_stmt 1
  76              		.loc 1 27 39 is_stmt 0
  77 0060 97000000 		call	_ZN7Konzola8getizlazEv@plt
  77      E7800000 
  78              	.LVL4:
  79              		.loc 1 27 40
  80 0068 1375F50F 		andi	a0,a0,0xff
  81              	.LVL5:
  28:src/main.cpp  ****             if(c) *(char*)CONSOLE_TX_DATA = c;
  82              		.loc 1 28 13 is_stmt 1
  83 006c 630A0500 		beqz	a0,.L5
  84              		.loc 1 28 19 discriminator 1
GAS LISTING /tmp/ccwqmQ6x.s 			page 3


  85 0070 97070000 		la	a5,CONSOLE_TX_DATA
  85      83B70700 
  86 0078 83B70700 		ld	a5,0(a5)
  87              		.loc 1 28 43 is_stmt 0 discriminator 1
  88 007c 2380A700 		sb	a0,0(a5)
  89              	.L5:
  29:src/main.cpp  ****             if(!flag) flagConsole=false;
  90              		.loc 1 29 13 is_stmt 1
  91              		.loc 1 29 16 is_stmt 0
  92 0080 97070000 		lbu	a5,.LANCHOR0
  92      83C70700 
  93              		.loc 1 29 13
  94 0088 E39007FC 		bnez	a5,.L4
  95              		.loc 1 29 23 is_stmt 1 discriminator 1
  96              		.loc 1 29 34 is_stmt 0 discriminator 1
  97 008c 97070000 		sb	zero,.LANCHOR0+1,a5
  97      23800700 
  98 0094 6FF05FFB 		j	.L4
  99              	.LBE3:
 100              	.LBE2:
 101              		.cfi_endproc
 102              	.LFE26:
 104              		.align	2
 105              		.globl	main
 107              	main:
 108              	.LFB27:
  30:src/main.cpp  ****         }
  31:src/main.cpp  ****     }
  32:src/main.cpp  **** }
  33:src/main.cpp  **** 
  34:src/main.cpp  **** void main(){
 109              		.loc 1 34 12 is_stmt 1
 110              		.cfi_startproc
 111 0098 130101F7 		addi	sp,sp,-144
 112              		.cfi_def_cfa_offset 144
 113 009c 23341108 		sd	ra,136(sp)
 114 00a0 23308108 		sd	s0,128(sp)
 115 00a4 233C9106 		sd	s1,120(sp)
 116 00a8 23382107 		sd	s2,112(sp)
 117 00ac 23343107 		sd	s3,104(sp)
 118              		.cfi_offset 1, -8
 119              		.cfi_offset 8, -16
 120              		.cfi_offset 9, -24
 121              		.cfi_offset 18, -32
 122              		.cfi_offset 19, -40
 123 00b0 13040109 		addi	s0,sp,144
 124              		.cfi_def_cfa 8, 0
  35:src/main.cpp  ****     __asm__ volatile("csrw stvec, %0" : : "r" (&supervisorTrap));
 125              		.loc 1 35 5
 126              		.loc 1 35 65 is_stmt 0
 127 00b4 97070000 		la	a5,supervisorTrap
 127      83B70700 
 128              	#APP
 129              	# 35 "src/main.cpp" 1
  36              	
  37:src/main.cpp  ****     Konzola::baferulaz=(Bafer*) Memorija::alokacija(Konzola::kapacitet*sizeof(Bafer));
 130              		csrw stvec, a5
GAS LISTING /tmp/ccwqmQ6x.s 			page 4


 131              	# 0 "" 2
 132              		.loc 1 37 5 is_stmt 1
 133              		.loc 1 37 62 is_stmt 0
 134              	#NO_APP
 135 00c0 17090000 		la	s2,_ZN7Konzola9kapacitetE
 135      03390900 
 136 00c8 83270900 		lw	a5,0(s2)
 137              		.loc 1 37 52
 138 00cc 13953700 		slli	a0,a5,3
 139 00d0 3305F540 		sub	a0,a0,a5
 140 00d4 13153500 		slli	a0,a0,3
 141 00d8 97000000 		call	_ZN8Memorija9alokacijaEm@plt
 141      E7800000 
 142              	.LVL6:
 143              		.loc 1 37 23
 144 00e0 97090000 		la	s3,_ZN7Konzola9baferulazE
 144      83B90900 
 145 00e8 23B0A900 		sd	a0,0(s3)
  38:src/main.cpp  ****     *Konzola::baferulaz=Bafer(Konzola::kapacitet);
 146              		.loc 1 38 5 is_stmt 1
 147              		.loc 1 38 25 is_stmt 0
 148 00ec 83250900 		lw	a1,0(s2)
 149 00f0 930484F7 		addi	s1,s0,-136
 150 00f4 13850400 		mv	a0,s1
 151 00f8 97000000 		call	_ZN5BaferC1Ei@plt
 151      E7800000 
 152              	.LVL7:
 153              		.loc 1 38 24
 154 0100 83B70900 		ld	a5,0(s3)
 155 0104 033804F8 		ld	a6,-128(s0)
 156 0108 033584F8 		ld	a0,-120(s0)
 157 010c 833504F9 		ld	a1,-112(s0)
 158 0110 033684F9 		ld	a2,-104(s0)
 159 0114 833604FA 		ld	a3,-96(s0)
 160 0118 033784FA 		ld	a4,-88(s0)
 161 011c 833884F7 		ld	a7,-136(s0)
 162 0120 23B01701 		sd	a7,0(a5)
 163 0124 23B40701 		sd	a6,8(a5)
 164 0128 23B8A700 		sd	a0,16(a5)
 165 012c 23BCB700 		sd	a1,24(a5)
 166 0130 23B0C702 		sd	a2,32(a5)
 167 0134 23B4D702 		sd	a3,40(a5)
 168 0138 23B8E702 		sd	a4,48(a5)
  39:src/main.cpp  **** 
  40:src/main.cpp  ****     Konzola::baferizlaz=(Bafer*) Memorija::alokacija(Konzola::kapacitet*sizeof(Bafer));
 169              		.loc 1 40 5 is_stmt 1
 170              		.loc 1 40 63 is_stmt 0
 171 013c 83270900 		lw	a5,0(s2)
 172              		.loc 1 40 53
 173 0140 13953700 		slli	a0,a5,3
 174 0144 3305F540 		sub	a0,a0,a5
 175 0148 13153500 		slli	a0,a0,3
 176 014c 97000000 		call	_ZN8Memorija9alokacijaEm@plt
 176      E7800000 
 177              	.LVL8:
 178              		.loc 1 40 24
 179 0154 97090000 		la	s3,_ZN7Konzola10baferizlazE
GAS LISTING /tmp/ccwqmQ6x.s 			page 5


 179      83B90900 
 180 015c 23B0A900 		sd	a0,0(s3)
  41:src/main.cpp  ****     *Konzola::baferizlaz=Bafer(Konzola::kapacitet);
 181              		.loc 1 41 5 is_stmt 1
 182              		.loc 1 41 26 is_stmt 0
 183 0160 83250900 		lw	a1,0(s2)
 184 0164 13850400 		mv	a0,s1
 185 0168 97000000 		call	_ZN5BaferC1Ei@plt
 185      E7800000 
 186              	.LVL9:
 187              		.loc 1 41 25
 188 0170 83B70900 		ld	a5,0(s3)
 189 0174 033804F8 		ld	a6,-128(s0)
 190 0178 033584F8 		ld	a0,-120(s0)
 191 017c 833504F9 		ld	a1,-112(s0)
 192 0180 033684F9 		ld	a2,-104(s0)
 193 0184 833604FA 		ld	a3,-96(s0)
 194 0188 033784FA 		ld	a4,-88(s0)
 195 018c 833884F7 		ld	a7,-136(s0)
 196 0190 23B01701 		sd	a7,0(a5)
 197 0194 23B40701 		sd	a6,8(a5)
 198 0198 23B8A700 		sd	a0,16(a5)
 199 019c 23BCB700 		sd	a1,24(a5)
 200 01a0 23B0C702 		sd	a2,32(a5)
 201 01a4 23B4D702 		sd	a3,40(a5)
 202 01a8 23B8E702 		sd	a4,48(a5)
  42:src/main.cpp  **** 
  43:src/main.cpp  ****     Nit *t1;
 203              		.loc 1 43 5 is_stmt 1
  44:src/main.cpp  ****     thread_create(&t1,nullptr,nullptr);
 204              		.loc 1 44 5
 205              		.loc 1 44 18 is_stmt 0
 206 01ac 13060000 		li	a2,0
 207 01b0 93050000 		li	a1,0
 208 01b4 130584FC 		addi	a0,s0,-56
 209 01b8 97000000 		call	_Z13thread_createPP3NitPFvPvES2_@plt
 209      E7800000 
 210              	.LVL10:
  45:src/main.cpp  ****     Nit *t2;
 211              		.loc 1 45 5 is_stmt 1
  46:src/main.cpp  ****     thread_create(&t2,&userMain1,nullptr);
 212              		.loc 1 46 5
 213              		.loc 1 46 18 is_stmt 0
 214 01c0 13060000 		li	a2,0
 215 01c4 97050000 		lla	a1,_Z9userMain1Pv
 215      93850500 
 216 01cc 130504FC 		addi	a0,s0,-64
 217 01d0 97000000 		call	_Z13thread_createPP3NitPFvPvES2_@plt
 217      E7800000 
 218              	.LVL11:
  47:src/main.cpp  ****     Nit *t3;
 219              		.loc 1 47 5 is_stmt 1
  48:src/main.cpp  ****     thread_create(&t3,&konzolaispis,nullptr);
 220              		.loc 1 48 5
 221              		.loc 1 48 18 is_stmt 0
 222 01d8 13060000 		li	a2,0
 223 01dc 97050000 		lla	a1,_Z12konzolaispisPv
GAS LISTING /tmp/ccwqmQ6x.s 			page 6


 223      93850500 
 224 01e4 130584FB 		addi	a0,s0,-72
 225 01e8 97000000 		call	_Z13thread_createPP3NitPFvPvES2_@plt
 225      E7800000 
 226              	.LVL12:
  49:src/main.cpp  **** 
  50:src/main.cpp  ****     uint64 volatile sstatus;
 227              		.loc 1 50 5 is_stmt 1
  51:src/main.cpp  ****     __asm__ volatile("csrr %0, sstatus" : "=r" (sstatus));
 228              		.loc 1 51 5
 229              		.loc 1 51 58 is_stmt 0
 230              	#APP
 231              	# 51 "src/main.cpp" 1
  52              	    sstatus|=2;
 232              		csrr a5, sstatus
 233              	# 0 "" 2
 234              	#NO_APP
 235 01f4 2338F4FA 		sd	a5,-80(s0)
 236              		.loc 1 52 5 is_stmt 1
 237              		.loc 1 52 12 is_stmt 0
 238 01f8 833704FB 		ld	a5,-80(s0)
 239 01fc 93E72700 		ori	a5,a5,2
 240 0200 2338F4FA 		sd	a5,-80(s0)
  53:src/main.cpp  ****     __asm__ volatile("csrw sstatus, %0"::"r" (sstatus));
 241              		.loc 1 53 5 is_stmt 1
 242              		.loc 1 53 47 is_stmt 0
 243 0204 833704FB 		ld	a5,-80(s0)
 244              		.loc 1 53 56
 245              	#APP
 246              	# 53 "src/main.cpp" 1
  54              	
 247              		csrw sstatus, a5
 248              	# 0 "" 2
 249              	#NO_APP
 250              	.L11:
  55:src/main.cpp  ****     while(flagConsole){
 251              		.loc 1 55 5 is_stmt 1
 252              		.loc 1 55 5
 253 020c 97070000 		lbu	a5,.LANCHOR0+1
 253      83C70700 
 254 0214 63880700 		beqz	a5,.L10
  56:src/main.cpp  ****         thread_dispatch();
 255              		.loc 1 56 9
 256              		.loc 1 56 24 is_stmt 0
 257 0218 97000000 		call	_Z15thread_dispatchv@plt
 257      E7800000 
 258              	.LVL13:
 259 0220 6FF0DFFE 		j	.L11
 260              	.L10:
  57:src/main.cpp  ****     }
  58:src/main.cpp  **** 
  59:src/main.cpp  ****     sstatus=0;
 261              		.loc 1 59 5 is_stmt 1
 262              		.loc 1 59 12 is_stmt 0
 263 0224 233804FA 		sd	zero,-80(s0)
  60:src/main.cpp  ****     __asm__ volatile("csrw sstatus, %0"::"r" (sstatus));
 264              		.loc 1 60 5 is_stmt 1
GAS LISTING /tmp/ccwqmQ6x.s 			page 7


 265              		.loc 1 60 47 is_stmt 0
 266 0228 833704FB 		ld	a5,-80(s0)
 267              		.loc 1 60 56
 268              	#APP
 269              	# 60 "src/main.cpp" 1
  61              	}
 270              		csrw sstatus, a5
 271              	# 0 "" 2
 272              		.loc 1 61 1
 273              	#NO_APP
 274 0230 83308108 		ld	ra,136(sp)
 275              		.cfi_restore 1
 276 0234 03340108 		ld	s0,128(sp)
 277              		.cfi_restore 8
 278              		.cfi_def_cfa 2, 144
 279 0238 83348107 		ld	s1,120(sp)
 280              		.cfi_restore 9
 281 023c 03390107 		ld	s2,112(sp)
 282              		.cfi_restore 18
 283 0240 83398106 		ld	s3,104(sp)
 284              		.cfi_restore 19
 285 0244 13010109 		addi	sp,sp,144
 286              		.cfi_def_cfa_offset 0
 287 0248 67800000 		jr	ra
 288              		.cfi_endproc
 289              	.LFE27:
 291              		.globl	flagConsole
 292              		.globl	flag
 293              		.data
 294              		.set	.LANCHOR0,. + 0
 297              	flag:
 298 0000 01       		.byte	1
 301              	flagConsole:
 302 0001 01       		.byte	1
 303              		.text
 304              	.Letext0:
 305              		.file 2 "src/../h/../lib/hw.h"
 306              		.file 3 "src/../h/../h/_KernelThreadControlBlock.h"
 307              		.file 4 "src/../h/_KernelSemaphore.h"
 308              		.file 5 "src/../h/_KernelMemory.h"
 309              		.file 6 "src/../h/../h/../h/list.h"
 310              		.file 7 "src/../h/_KernelBuffer.h"
 311              		.file 8 "src/../h/_KernelConsole.h"
 312              		.file 9 "src/../h/syscall_c.h"
 313              		.file 10 "<built-in>"
GAS LISTING /tmp/ccwqmQ6x.s 			page 8

