GAS LISTING /tmp/ccfzpqLg.s 			page 1


   1              		.file	"syscall_cpp.cpp"
   2              		.option pic
   3              		.option norelax
   4              		.text
   5              	.Ltext0:
   6              		.section	.text._ZN6Thread3runEv,"axG",@progbits,_ZN6Thread3runEv,comdat
   7              		.align	2
   8              		.weak	_ZN6Thread3runEv
  10              	_ZN6Thread3runEv:
  11              	.LFB0:
  12              		.file 1 "src/../h/syscall_cpp.h"
   1:src/../h/syscall_cpp.h **** 
   2:src/../h/syscall_cpp.h **** #ifndef _syscall_cpp
   3:src/../h/syscall_cpp.h **** #define _syscall_cpp
   4:src/../h/syscall_cpp.h **** 
   5:src/../h/syscall_cpp.h **** #include "syscall_c.h"
   6:src/../h/syscall_cpp.h **** 
   7:src/../h/syscall_cpp.h **** void* operator new (size_t);
   8:src/../h/syscall_cpp.h **** void operator delete (void*);
   9:src/../h/syscall_cpp.h **** class Semaphore;
  10:src/../h/syscall_cpp.h **** 
  11:src/../h/syscall_cpp.h **** class Thread {
  12:src/../h/syscall_cpp.h **** public:
  13:src/../h/syscall_cpp.h ****     Thread (void (*body)(void*), void* arg);
  14:src/../h/syscall_cpp.h ****     virtual ~Thread ();
  15:src/../h/syscall_cpp.h ****     int start ();
  16:src/../h/syscall_cpp.h ****     void join();
  17:src/../h/syscall_cpp.h ****     static void dispatch ();
  18:src/../h/syscall_cpp.h ****     static int sleep (time_t);
  19:src/../h/syscall_cpp.h **** protected:
  20:src/../h/syscall_cpp.h ****     Thread ();
  21:src/../h/syscall_cpp.h ****     virtual void run () {}
  13              		.loc 1 21 18
  14              		.cfi_startproc
  15              	.LVL0:
  16 0000 130101FF 		addi	sp,sp,-16
  17              		.cfi_def_cfa_offset 16
  18 0004 23348100 		sd	s0,8(sp)
  19              		.cfi_offset 8, -8
  20 0008 13040101 		addi	s0,sp,16
  21              		.cfi_def_cfa 8, 0
  22              		.loc 1 21 26 is_stmt 0
  23 000c 03348100 		ld	s0,8(sp)
  24              		.cfi_restore 8
  25              		.cfi_def_cfa 2, 16
  26 0010 13010101 		addi	sp,sp,16
  27              		.cfi_def_cfa_offset 0
  28 0014 67800000 		jr	ra
  29              		.cfi_endproc
  30              	.LFE0:
  32              		.section	.text._ZN14PeriodicThread18periodicActivationEv,"axG",@progbits,_ZN14PeriodicThread18peri
  33              		.align	2
  34              		.weak	_ZN14PeriodicThread18periodicActivationEv
  36              	_ZN14PeriodicThread18periodicActivationEv:
  37              	.LFB1:
  22:src/../h/syscall_cpp.h **** private:
  23:src/../h/syscall_cpp.h ****     static void omotac(void*);
GAS LISTING /tmp/ccfzpqLg.s 			page 2


  24:src/../h/syscall_cpp.h ****     void (*body)(void*);
  25:src/../h/syscall_cpp.h ****     void* arg;
  26:src/../h/syscall_cpp.h ****     thread_t myHandle;
  27:src/../h/syscall_cpp.h **** };
  28:src/../h/syscall_cpp.h **** 
  29:src/../h/syscall_cpp.h **** class Semaphore {
  30:src/../h/syscall_cpp.h **** public:
  31:src/../h/syscall_cpp.h ****     Semaphore (unsigned init = 1);
  32:src/../h/syscall_cpp.h ****     virtual ~Semaphore ();
  33:src/../h/syscall_cpp.h ****     int wait ();
  34:src/../h/syscall_cpp.h ****     int signal ();
  35:src/../h/syscall_cpp.h **** private:
  36:src/../h/syscall_cpp.h ****     sem_t myHandle;
  37:src/../h/syscall_cpp.h **** };
  38:src/../h/syscall_cpp.h **** 
  39:src/../h/syscall_cpp.h **** class PeriodicThread : public Thread {
  40:src/../h/syscall_cpp.h **** protected:
  41:src/../h/syscall_cpp.h ****     virtual void periodicActivation () {}
  38              		.loc 1 41 18 is_stmt 1
  39              		.cfi_startproc
  40              	.LVL1:
  41 0000 130101FF 		addi	sp,sp,-16
  42              		.cfi_def_cfa_offset 16
  43 0004 23348100 		sd	s0,8(sp)
  44              		.cfi_offset 8, -8
  45 0008 13040101 		addi	s0,sp,16
  46              		.cfi_def_cfa 8, 0
  47              		.loc 1 41 41 is_stmt 0
  48 000c 03348100 		ld	s0,8(sp)
  49              		.cfi_restore 8
  50              		.cfi_def_cfa 2, 16
  51 0010 13010101 		addi	sp,sp,16
  52              		.cfi_def_cfa_offset 0
  53 0014 67800000 		jr	ra
  54              		.cfi_endproc
  55              	.LFE1:
  57              		.text
  58              		.align	2
  60              	_ZN12_GLOBAL__N_17wrapperEPv:
  61              	.LFB14:
  62              		.file 2 "src/syscall_cpp.cpp"
   1:src/syscall_cpp.cpp **** #include "../h/syscall_cpp.h"
   2:src/syscall_cpp.cpp **** 
   3:src/syscall_cpp.cpp **** void* operator new(size_t h){
   4:src/syscall_cpp.cpp ****     return mem_alloc(h);
   5:src/syscall_cpp.cpp **** }
   6:src/syscall_cpp.cpp **** 
   7:src/syscall_cpp.cpp **** void operator delete(void* x){
   8:src/syscall_cpp.cpp ****     mem_free(x);
   9:src/syscall_cpp.cpp **** }
  10:src/syscall_cpp.cpp **** 
  11:src/syscall_cpp.cpp **** Thread::Thread(void (*body)(void *), void *arg) {
  12:src/syscall_cpp.cpp ****     this->body = body;
  13:src/syscall_cpp.cpp ****     this->arg = arg;
  14:src/syscall_cpp.cpp **** }
  15:src/syscall_cpp.cpp **** 
  16:src/syscall_cpp.cpp **** Thread::Thread() {
GAS LISTING /tmp/ccfzpqLg.s 			page 3


  17:src/syscall_cpp.cpp ****     this->body = omotac;
  18:src/syscall_cpp.cpp ****     this->arg = this;
  19:src/syscall_cpp.cpp **** }
  20:src/syscall_cpp.cpp **** 
  21:src/syscall_cpp.cpp **** Thread::~Thread() {
  22:src/syscall_cpp.cpp ****     mem_free(myHandle);
  23:src/syscall_cpp.cpp **** }
  24:src/syscall_cpp.cpp **** 
  25:src/syscall_cpp.cpp **** namespace {
  26:src/syscall_cpp.cpp **** typedef struct struktura {
  27:src/syscall_cpp.cpp ****     void (*body)(void *);
  28:src/syscall_cpp.cpp ****     void *arg;
  29:src/syscall_cpp.cpp **** } struktura;
  30:src/syscall_cpp.cpp **** 
  31:src/syscall_cpp.cpp **** void wrapper(void *a) {
  63              		.loc 2 31 23 is_stmt 1
  64              		.cfi_startproc
  65              	.LVL2:
  66 0000 130101FF 		addi	sp,sp,-16
  67              		.cfi_def_cfa_offset 16
  68 0004 23341100 		sd	ra,8(sp)
  69 0008 23308100 		sd	s0,0(sp)
  70              		.cfi_offset 1, -8
  71              		.cfi_offset 8, -16
  72 000c 13040101 		addi	s0,sp,16
  73              		.cfi_def_cfa 8, 0
  32:src/syscall_cpp.cpp ****     auto b = static_cast<struktura *>(a);
  74              		.loc 2 32 5
  75              	.LVL3:
  33:src/syscall_cpp.cpp ****     b->body(b->arg);
  76              		.loc 2 33 5
  77              		.loc 2 33 8 is_stmt 0
  78 0010 83370500 		ld	a5,0(a0)
  79              		.loc 2 33 12
  80 0014 03358500 		ld	a0,8(a0)
  81              	.LVL4:
  82 0018 E7800700 		jalr	a5
  83              	.LVL5:
  34:src/syscall_cpp.cpp **** }
  84              		.loc 2 34 1
  85 001c 83308100 		ld	ra,8(sp)
  86              		.cfi_restore 1
  87 0020 03340100 		ld	s0,0(sp)
  88              		.cfi_restore 8
  89              		.cfi_def_cfa 2, 16
  90 0024 13010101 		addi	sp,sp,16
  91              		.cfi_def_cfa_offset 0
  92 0028 67800000 		jr	ra
  93              		.cfi_endproc
  94              	.LFE14:
  96              		.align	2
  97              		.globl	_ZN6Thread6omotacEPv
  99              	_ZN6Thread6omotacEPv:
 100              	.LFB19:
  35:src/syscall_cpp.cpp **** }
  36:src/syscall_cpp.cpp **** 
  37:src/syscall_cpp.cpp **** int Thread::start() {
GAS LISTING /tmp/ccfzpqLg.s 			page 4


  38:src/syscall_cpp.cpp ****     struktura *s = new struktura;
  39:src/syscall_cpp.cpp ****     s->arg=arg;
  40:src/syscall_cpp.cpp ****     s->body=body;
  41:src/syscall_cpp.cpp ****     return thread_create(&myHandle,&wrapper,s);
  42:src/syscall_cpp.cpp **** }
  43:src/syscall_cpp.cpp **** 
  44:src/syscall_cpp.cpp **** void Thread::join() {
  45:src/syscall_cpp.cpp ****     thread_join(myHandle);
  46:src/syscall_cpp.cpp **** }
  47:src/syscall_cpp.cpp **** 
  48:src/syscall_cpp.cpp **** void Thread::dispatch() {
  49:src/syscall_cpp.cpp ****     thread_dispatch();
  50:src/syscall_cpp.cpp **** }
  51:src/syscall_cpp.cpp **** 
  52:src/syscall_cpp.cpp **** int Thread::sleep(time_t t) {
  53:src/syscall_cpp.cpp ****     return time_sleep(t);
  54:src/syscall_cpp.cpp **** }
  55:src/syscall_cpp.cpp **** 
  56:src/syscall_cpp.cpp **** void Thread::omotac(void* arg) {
 101              		.loc 2 56 32 is_stmt 1
 102              		.cfi_startproc
 103              	.LVL6:
 104 002c 130101FF 		addi	sp,sp,-16
 105              		.cfi_def_cfa_offset 16
 106 0030 23341100 		sd	ra,8(sp)
 107 0034 23308100 		sd	s0,0(sp)
 108              		.cfi_offset 1, -8
 109              		.cfi_offset 8, -16
 110 0038 13040101 		addi	s0,sp,16
 111              		.cfi_def_cfa 8, 0
  57:src/syscall_cpp.cpp ****     Thread*t = (Thread*)arg;
 112              		.loc 2 57 5
 113              	.LVL7:
  58:src/syscall_cpp.cpp ****     t->run();
 114              		.loc 2 58 5
 115              		.loc 2 58 12 is_stmt 0
 116 003c 83370500 		ld	a5,0(a0)
 117 0040 83B70701 		ld	a5,16(a5)
 118              		.loc 2 58 11
 119 0044 E7800700 		jalr	a5
 120              	.LVL8:
  59:src/syscall_cpp.cpp **** }
 121              		.loc 2 59 1
 122 0048 83308100 		ld	ra,8(sp)
 123              		.cfi_restore 1
 124 004c 03340100 		ld	s0,0(sp)
 125              		.cfi_restore 8
 126              		.cfi_def_cfa 2, 16
 127 0050 13010101 		addi	sp,sp,16
 128              		.cfi_def_cfa_offset 0
 129 0054 67800000 		jr	ra
 130              		.cfi_endproc
 131              	.LFE19:
 133              		.align	2
 134              		.globl	_ZN6ThreadD2Ev
 136              	_ZN6ThreadD2Ev:
 137              	.LFB11:
GAS LISTING /tmp/ccfzpqLg.s 			page 5


  21:src/syscall_cpp.cpp ****     mem_free(myHandle);
 138              		.loc 2 21 1 is_stmt 1
 139              		.cfi_startproc
 140              		.cfi_personality 0x9b,DW.ref.__gxx_personality_v0
 141              		.cfi_lsda 0x1b,.LLSDA11
 142              	.LVL9:
 143 0058 130101FF 		addi	sp,sp,-16
 144              		.cfi_def_cfa_offset 16
 145 005c 23341100 		sd	ra,8(sp)
 146 0060 23308100 		sd	s0,0(sp)
 147              		.cfi_offset 1, -8
 148              		.cfi_offset 8, -16
 149 0064 13040101 		addi	s0,sp,16
 150              		.cfi_def_cfa 8, 0
 151              	.LBB5:
  21:src/syscall_cpp.cpp ****     mem_free(myHandle);
 152              		.loc 2 21 17 is_stmt 0
 153 0068 97070000 		lla	a5,_ZTV6Thread+16
 153      93870700 
 154 0070 2330F500 		sd	a5,0(a0)
  22:src/syscall_cpp.cpp **** }
 155              		.loc 2 22 5 is_stmt 1
  22:src/syscall_cpp.cpp **** }
 156              		.loc 2 22 13 is_stmt 0
 157 0074 03358501 		ld	a0,24(a0)
 158              	.LVL10:
 159 0078 97000000 		call	_Z8mem_freePv@plt
 159      E7800000 
 160              	.LVL11:
 161              	.LBE5:
  23:src/syscall_cpp.cpp **** 
 162              		.loc 2 23 1
 163 0080 83308100 		ld	ra,8(sp)
 164              		.cfi_restore 1
 165 0084 03340100 		ld	s0,0(sp)
 166              		.cfi_restore 8
 167              		.cfi_def_cfa 2, 16
 168 0088 13010101 		addi	sp,sp,16
 169              		.cfi_def_cfa_offset 0
 170 008c 67800000 		jr	ra
 171              		.cfi_endproc
 172              	.LFE11:
 173              		.globl	__gxx_personality_v0
 174              		.section	.gcc_except_table,"a",@progbits
 175              	.LLSDA11:
 176 0000 FF       		.byte	0xff
 177 0001 FF       		.byte	0xff
 178 0002 03       		.byte	0x3
 179 0003 00       		.byte	0
 180              		.text
 182              		.globl	_ZN6ThreadD1Ev
 183              		.set	_ZN6ThreadD1Ev,_ZN6ThreadD2Ev
 184              		.section	.text._ZN14PeriodicThreadD2Ev,"axG",@progbits,_ZN14PeriodicThreadD5Ev,comdat
 185              		.align	2
 186              		.weak	_ZN14PeriodicThreadD2Ev
 188              	_ZN14PeriodicThreadD2Ev:
 189              	.LFB37:
GAS LISTING /tmp/ccfzpqLg.s 			page 6


  39:src/../h/syscall_cpp.h **** protected:
 190              		.loc 1 39 7 is_stmt 1
 191              		.cfi_startproc
 192              	.LVL12:
 193 0000 130101FF 		addi	sp,sp,-16
 194              		.cfi_def_cfa_offset 16
 195 0004 23341100 		sd	ra,8(sp)
 196 0008 23308100 		sd	s0,0(sp)
 197              		.cfi_offset 1, -8
 198              		.cfi_offset 8, -16
 199 000c 13040101 		addi	s0,sp,16
 200              		.cfi_def_cfa 8, 0
 201              	.LBB6:
  39:src/../h/syscall_cpp.h **** protected:
 202              		.loc 1 39 7 is_stmt 0
 203 0010 97070000 		lla	a5,_ZTV14PeriodicThread+16
 203      93870700 
 204 0018 2330F500 		sd	a5,0(a0)
 205 001c 97000000 		call	_ZN6ThreadD2Ev
 205      E7800000 
 206              	.LVL13:
 207              	.LBE6:
 208 0024 83308100 		ld	ra,8(sp)
 209              		.cfi_restore 1
 210 0028 03340100 		ld	s0,0(sp)
 211              		.cfi_restore 8
 212              		.cfi_def_cfa 2, 16
 213 002c 13010101 		addi	sp,sp,16
 214              		.cfi_def_cfa_offset 0
 215 0030 67800000 		jr	ra
 216              		.cfi_endproc
 217              	.LFE37:
 219              		.weak	_ZN14PeriodicThreadD1Ev
 220              		.set	_ZN14PeriodicThreadD1Ev,_ZN14PeriodicThreadD2Ev
 221              		.text
 222              		.align	2
 223              		.globl	_ZN14PeriodicThread3runEv
 225              	_ZN14PeriodicThread3runEv:
 226              	.LFB32:
  60:src/syscall_cpp.cpp **** 
  61:src/syscall_cpp.cpp **** Semaphore::Semaphore(unsigned int init) {
  62:src/syscall_cpp.cpp ****     sem_open(&myHandle,init);
  63:src/syscall_cpp.cpp **** }
  64:src/syscall_cpp.cpp **** 
  65:src/syscall_cpp.cpp **** Semaphore::~Semaphore() {
  66:src/syscall_cpp.cpp ****     sem_close(myHandle);
  67:src/syscall_cpp.cpp **** }
  68:src/syscall_cpp.cpp **** 
  69:src/syscall_cpp.cpp **** int Semaphore::wait() {
  70:src/syscall_cpp.cpp ****     return sem_wait(myHandle);
  71:src/syscall_cpp.cpp **** }
  72:src/syscall_cpp.cpp **** 
  73:src/syscall_cpp.cpp **** int Semaphore::signal() {
  74:src/syscall_cpp.cpp ****     return sem_signal(myHandle);
  75:src/syscall_cpp.cpp **** }
  76:src/syscall_cpp.cpp **** 
  77:src/syscall_cpp.cpp **** PeriodicThread::PeriodicThread(time_t period): Thread() {
GAS LISTING /tmp/ccfzpqLg.s 			page 7


  78:src/syscall_cpp.cpp ****     this->period=period;
  79:src/syscall_cpp.cpp **** }
  80:src/syscall_cpp.cpp **** 
  81:src/syscall_cpp.cpp **** void PeriodicThread::run() {
 227              		.loc 2 81 28 is_stmt 1
 228              		.cfi_startproc
 229              	.LVL14:
 230 0090 130101FE 		addi	sp,sp,-32
 231              		.cfi_def_cfa_offset 32
 232 0094 233C1100 		sd	ra,24(sp)
 233 0098 23388100 		sd	s0,16(sp)
 234 009c 23349100 		sd	s1,8(sp)
 235              		.cfi_offset 1, -8
 236              		.cfi_offset 8, -16
 237              		.cfi_offset 9, -24
 238 00a0 13040102 		addi	s0,sp,32
 239              		.cfi_def_cfa 8, 0
 240 00a4 93040500 		mv	s1,a0
 241              	.LVL15:
 242              	.L15:
  82:src/syscall_cpp.cpp ****     while(flag){
 243              		.loc 2 82 5
 244              		.loc 2 82 11
 245 00a8 83C70402 		lbu	a5,32(s1)
 246 00ac 63820702 		beqz	a5,.L13
  83:src/syscall_cpp.cpp ****         periodicActivation();
 247              		.loc 2 83 9
 248              		.loc 2 83 28 is_stmt 0
 249 00b0 83B70400 		ld	a5,0(s1)
 250 00b4 83B78701 		ld	a5,24(a5)
 251              		.loc 2 83 27
 252 00b8 13850400 		mv	a0,s1
 253 00bc E7800700 		jalr	a5
 254              	.LVL16:
  84:src/syscall_cpp.cpp ****         time_sleep(period);
 255              		.loc 2 84 9 is_stmt 1
 256              		.loc 2 84 19 is_stmt 0
 257 00c0 03B58402 		ld	a0,40(s1)
 258 00c4 97000000 		call	_Z10time_sleepm@plt
 258      E7800000 
 259              	.LVL17:
  82:src/syscall_cpp.cpp ****     while(flag){
 260              		.loc 2 82 5
 261 00cc 6FF0DFFD 		j	.L15
 262              	.L13:
  85:src/syscall_cpp.cpp ****     }
  86:src/syscall_cpp.cpp **** }
 263              		.loc 2 86 1
 264 00d0 83308101 		ld	ra,24(sp)
 265              		.cfi_restore 1
 266 00d4 03340101 		ld	s0,16(sp)
 267              		.cfi_restore 8
 268              		.cfi_def_cfa 2, 32
 269 00d8 83348100 		ld	s1,8(sp)
 270              		.cfi_restore 9
 271              	.LVL18:
 272 00dc 13010102 		addi	sp,sp,32
GAS LISTING /tmp/ccfzpqLg.s 			page 8


 273              		.cfi_def_cfa_offset 0
 274 00e0 67800000 		jr	ra
 275              		.cfi_endproc
 276              	.LFE32:
 278              		.align	2
 279              		.globl	_ZN9SemaphoreD2Ev
 281              	_ZN9SemaphoreD2Ev:
 282              	.LFB24:
  65:src/syscall_cpp.cpp ****     sem_close(myHandle);
 283              		.loc 2 65 1 is_stmt 1
 284              		.cfi_startproc
 285              		.cfi_personality 0x9b,DW.ref.__gxx_personality_v0
 286              		.cfi_lsda 0x1b,.LLSDA24
 287              	.LVL19:
 288 00e4 130101FF 		addi	sp,sp,-16
 289              		.cfi_def_cfa_offset 16
 290 00e8 23341100 		sd	ra,8(sp)
 291 00ec 23308100 		sd	s0,0(sp)
 292              		.cfi_offset 1, -8
 293              		.cfi_offset 8, -16
 294 00f0 13040101 		addi	s0,sp,16
 295              		.cfi_def_cfa 8, 0
 296              	.LBB7:
  65:src/syscall_cpp.cpp ****     sem_close(myHandle);
 297              		.loc 2 65 23 is_stmt 0
 298 00f4 97070000 		lla	a5,_ZTV9Semaphore+16
 298      93870700 
 299 00fc 2330F500 		sd	a5,0(a0)
  66:src/syscall_cpp.cpp **** }
 300              		.loc 2 66 5 is_stmt 1
  66:src/syscall_cpp.cpp **** }
 301              		.loc 2 66 14 is_stmt 0
 302 0100 03358500 		ld	a0,8(a0)
 303              	.LVL20:
 304 0104 97000000 		call	_Z9sem_closeP7Semafor@plt
 304      E7800000 
 305              	.LVL21:
 306              	.LBE7:
  67:src/syscall_cpp.cpp **** 
 307              		.loc 2 67 1
 308 010c 83308100 		ld	ra,8(sp)
 309              		.cfi_restore 1
 310 0110 03340100 		ld	s0,0(sp)
 311              		.cfi_restore 8
 312              		.cfi_def_cfa 2, 16
 313 0114 13010101 		addi	sp,sp,16
 314              		.cfi_def_cfa_offset 0
 315 0118 67800000 		jr	ra
 316              		.cfi_endproc
 317              	.LFE24:
 318              		.section	.gcc_except_table
 319              	.LLSDA24:
 320 0004 FF       		.byte	0xff
 321 0005 FF       		.byte	0xff
 322 0006 03       		.byte	0x3
 323 0007 00       		.byte	0
 324              		.text
GAS LISTING /tmp/ccfzpqLg.s 			page 9


 326              		.globl	_ZN9SemaphoreD1Ev
 327              		.set	_ZN9SemaphoreD1Ev,_ZN9SemaphoreD2Ev
 328              		.align	2
 329              		.globl	_Znwm
 331              	_Znwm:
 332              	.LFB2:
   3:src/syscall_cpp.cpp **** void operator delete(void* x){
 333              		.loc 2 3 29 is_stmt 1
 334              		.cfi_startproc
 335              	.LVL22:
 336 011c 130101FF 		addi	sp,sp,-16
 337              		.cfi_def_cfa_offset 16
 338 0120 23341100 		sd	ra,8(sp)
 339 0124 23308100 		sd	s0,0(sp)
 340              		.cfi_offset 1, -8
 341              		.cfi_offset 8, -16
 342 0128 13040101 		addi	s0,sp,16
 343              		.cfi_def_cfa 8, 0
   4:src/syscall_cpp.cpp **** }
 344              		.loc 2 4 5
   4:src/syscall_cpp.cpp **** }
 345              		.loc 2 4 21 is_stmt 0
 346 012c 97000000 		call	_Z9mem_allocm@plt
 346      E7800000 
 347              	.LVL23:
   5:src/syscall_cpp.cpp **** 
 348              		.loc 2 5 1
 349 0134 83308100 		ld	ra,8(sp)
 350              		.cfi_restore 1
 351 0138 03340100 		ld	s0,0(sp)
 352              		.cfi_restore 8
 353              		.cfi_def_cfa 2, 16
 354 013c 13010101 		addi	sp,sp,16
 355              		.cfi_def_cfa_offset 0
 356 0140 67800000 		jr	ra
 357              		.cfi_endproc
 358              	.LFE2:
 360              		.align	2
 361              		.globl	_ZdlPv
 363              	_ZdlPv:
 364              	.LFB3:
   7:src/syscall_cpp.cpp ****     mem_free(x);
 365              		.loc 2 7 30 is_stmt 1
 366              		.cfi_startproc
 367              	.LVL24:
 368 0144 130101FF 		addi	sp,sp,-16
 369              		.cfi_def_cfa_offset 16
 370 0148 23341100 		sd	ra,8(sp)
 371 014c 23308100 		sd	s0,0(sp)
 372              		.cfi_offset 1, -8
 373              		.cfi_offset 8, -16
 374 0150 13040101 		addi	s0,sp,16
 375              		.cfi_def_cfa 8, 0
   8:src/syscall_cpp.cpp **** }
 376              		.loc 2 8 5
   8:src/syscall_cpp.cpp **** }
 377              		.loc 2 8 13 is_stmt 0
GAS LISTING /tmp/ccfzpqLg.s 			page 10


 378 0154 97000000 		call	_Z8mem_freePv@plt
 378      E7800000 
 379              	.LVL25:
   9:src/syscall_cpp.cpp **** 
 380              		.loc 2 9 1
 381 015c 83308100 		ld	ra,8(sp)
 382              		.cfi_restore 1
 383 0160 03340100 		ld	s0,0(sp)
 384              		.cfi_restore 8
 385              		.cfi_def_cfa 2, 16
 386 0164 13010101 		addi	sp,sp,16
 387              		.cfi_def_cfa_offset 0
 388 0168 67800000 		jr	ra
 389              		.cfi_endproc
 390              	.LFE3:
 392              		.align	2
 393              		.globl	_ZN6ThreadD0Ev
 395              	_ZN6ThreadD0Ev:
 396              	.LFB13:
  21:src/syscall_cpp.cpp ****     mem_free(myHandle);
 397              		.loc 2 21 1 is_stmt 1
 398              		.cfi_startproc
 399              	.LVL26:
 400 016c 130101FE 		addi	sp,sp,-32
 401              		.cfi_def_cfa_offset 32
 402 0170 233C1100 		sd	ra,24(sp)
 403 0174 23388100 		sd	s0,16(sp)
 404 0178 23349100 		sd	s1,8(sp)
 405              		.cfi_offset 1, -8
 406              		.cfi_offset 8, -16
 407              		.cfi_offset 9, -24
 408 017c 13040102 		addi	s0,sp,32
 409              		.cfi_def_cfa 8, 0
 410 0180 93040500 		mv	s1,a0
  23:src/syscall_cpp.cpp **** 
 411              		.loc 2 23 1 is_stmt 0
 412 0184 97000000 		call	_ZN6ThreadD1Ev
 412      E7800000 
 413              	.LVL27:
 414 018c 13850400 		mv	a0,s1
 415 0190 97000000 		call	_ZdlPv
 415      E7800000 
 416              	.LVL28:
 417 0198 83308101 		ld	ra,24(sp)
 418              		.cfi_restore 1
 419 019c 03340101 		ld	s0,16(sp)
 420              		.cfi_restore 8
 421              		.cfi_def_cfa 2, 32
 422 01a0 83348100 		ld	s1,8(sp)
 423              		.cfi_restore 9
 424              	.LVL29:
 425 01a4 13010102 		addi	sp,sp,32
 426              		.cfi_def_cfa_offset 0
 427 01a8 67800000 		jr	ra
 428              		.cfi_endproc
 429              	.LFE13:
 431              		.align	2
GAS LISTING /tmp/ccfzpqLg.s 			page 11


 432              		.globl	_ZN9SemaphoreD0Ev
 434              	_ZN9SemaphoreD0Ev:
 435              	.LFB26:
  65:src/syscall_cpp.cpp ****     sem_close(myHandle);
 436              		.loc 2 65 1 is_stmt 1
 437              		.cfi_startproc
 438              	.LVL30:
 439 01ac 130101FE 		addi	sp,sp,-32
 440              		.cfi_def_cfa_offset 32
 441 01b0 233C1100 		sd	ra,24(sp)
 442 01b4 23388100 		sd	s0,16(sp)
 443 01b8 23349100 		sd	s1,8(sp)
 444              		.cfi_offset 1, -8
 445              		.cfi_offset 8, -16
 446              		.cfi_offset 9, -24
 447 01bc 13040102 		addi	s0,sp,32
 448              		.cfi_def_cfa 8, 0
 449 01c0 93040500 		mv	s1,a0
  67:src/syscall_cpp.cpp **** 
 450              		.loc 2 67 1 is_stmt 0
 451 01c4 97000000 		call	_ZN9SemaphoreD1Ev
 451      E7800000 
 452              	.LVL31:
 453 01cc 13850400 		mv	a0,s1
 454 01d0 97000000 		call	_ZdlPv
 454      E7800000 
 455              	.LVL32:
 456 01d8 83308101 		ld	ra,24(sp)
 457              		.cfi_restore 1
 458 01dc 03340101 		ld	s0,16(sp)
 459              		.cfi_restore 8
 460              		.cfi_def_cfa 2, 32
 461 01e0 83348100 		ld	s1,8(sp)
 462              		.cfi_restore 9
 463              	.LVL33:
 464 01e4 13010102 		addi	sp,sp,32
 465              		.cfi_def_cfa_offset 0
 466 01e8 67800000 		jr	ra
 467              		.cfi_endproc
 468              	.LFE26:
 470              		.section	.text._ZN14PeriodicThreadD0Ev,"axG",@progbits,_ZN14PeriodicThreadD5Ev,comdat
 471              		.align	2
 472              		.weak	_ZN14PeriodicThreadD0Ev
 474              	_ZN14PeriodicThreadD0Ev:
 475              	.LFB39:
  39:src/../h/syscall_cpp.h **** protected:
 476              		.loc 1 39 7 is_stmt 1
 477              		.cfi_startproc
 478              	.LVL34:
 479 0000 130101FE 		addi	sp,sp,-32
 480              		.cfi_def_cfa_offset 32
 481 0004 233C1100 		sd	ra,24(sp)
 482 0008 23388100 		sd	s0,16(sp)
 483 000c 23349100 		sd	s1,8(sp)
 484              		.cfi_offset 1, -8
 485              		.cfi_offset 8, -16
 486              		.cfi_offset 9, -24
GAS LISTING /tmp/ccfzpqLg.s 			page 12


 487 0010 13040102 		addi	s0,sp,32
 488              		.cfi_def_cfa 8, 0
 489 0014 93040500 		mv	s1,a0
 490              	.LVL35:
 491              	.LBB8:
 492              	.LBB9:
  39:src/../h/syscall_cpp.h **** protected:
 493              		.loc 1 39 7 is_stmt 0
 494 0018 97070000 		lla	a5,_ZTV14PeriodicThread+16
 494      93870700 
 495 0020 2330F500 		sd	a5,0(a0)
 496 0024 97000000 		call	_ZN6ThreadD2Ev
 496      E7800000 
 497              	.LVL36:
 498              	.LBE9:
 499              	.LBE8:
 500 002c 13850400 		mv	a0,s1
 501 0030 97000000 		call	_ZdlPv
 501      E7800000 
 502              	.LVL37:
 503 0038 83308101 		ld	ra,24(sp)
 504              		.cfi_restore 1
 505 003c 03340101 		ld	s0,16(sp)
 506              		.cfi_restore 8
 507              		.cfi_def_cfa 2, 32
 508 0040 83348100 		ld	s1,8(sp)
 509              		.cfi_restore 9
 510              	.LVL38:
 511 0044 13010102 		addi	sp,sp,32
 512              		.cfi_def_cfa_offset 0
 513 0048 67800000 		jr	ra
 514              		.cfi_endproc
 515              	.LFE39:
 517              		.text
 518              		.align	2
 519              		.globl	_ZN6ThreadC2EPFvPvES0_
 521              	_ZN6ThreadC2EPFvPvES0_:
 522              	.LFB5:
  11:src/syscall_cpp.cpp ****     this->body = body;
 523              		.loc 2 11 1 is_stmt 1
 524              		.cfi_startproc
 525              	.LVL39:
 526 01ec 130101FF 		addi	sp,sp,-16
 527              		.cfi_def_cfa_offset 16
 528 01f0 23348100 		sd	s0,8(sp)
 529              		.cfi_offset 8, -8
 530 01f4 13040101 		addi	s0,sp,16
 531              		.cfi_def_cfa 8, 0
 532              	.LBB10:
  11:src/syscall_cpp.cpp ****     this->body = body;
 533              		.loc 2 11 47 is_stmt 0
 534 01f8 97070000 		lla	a5,_ZTV6Thread+16
 534      93870700 
 535 0200 2330F500 		sd	a5,0(a0)
  12:src/syscall_cpp.cpp ****     this->arg = arg;
 536              		.loc 2 12 5 is_stmt 1
  12:src/syscall_cpp.cpp ****     this->arg = arg;
GAS LISTING /tmp/ccfzpqLg.s 			page 13


 537              		.loc 2 12 16 is_stmt 0
 538 0204 2334B500 		sd	a1,8(a0)
  13:src/syscall_cpp.cpp **** }
 539              		.loc 2 13 5 is_stmt 1
  13:src/syscall_cpp.cpp **** }
 540              		.loc 2 13 15 is_stmt 0
 541 0208 2338C500 		sd	a2,16(a0)
 542              	.LBE10:
  14:src/syscall_cpp.cpp **** 
 543              		.loc 2 14 1
 544 020c 03348100 		ld	s0,8(sp)
 545              		.cfi_restore 8
 546              		.cfi_def_cfa 2, 16
 547 0210 13010101 		addi	sp,sp,16
 548              		.cfi_def_cfa_offset 0
 549 0214 67800000 		jr	ra
 550              		.cfi_endproc
 551              	.LFE5:
 553              		.globl	_ZN6ThreadC1EPFvPvES0_
 554              		.set	_ZN6ThreadC1EPFvPvES0_,_ZN6ThreadC2EPFvPvES0_
 555              		.align	2
 556              		.globl	_ZN6ThreadC2Ev
 558              	_ZN6ThreadC2Ev:
 559              	.LFB8:
  16:src/syscall_cpp.cpp ****     this->body = omotac;
 560              		.loc 2 16 1 is_stmt 1
 561              		.cfi_startproc
 562              	.LVL40:
 563 0218 130101FF 		addi	sp,sp,-16
 564              		.cfi_def_cfa_offset 16
 565 021c 23348100 		sd	s0,8(sp)
 566              		.cfi_offset 8, -8
 567 0220 13040101 		addi	s0,sp,16
 568              		.cfi_def_cfa 8, 0
 569              	.LBB11:
  16:src/syscall_cpp.cpp ****     this->body = omotac;
 570              		.loc 2 16 16 is_stmt 0
 571 0224 97070000 		lla	a5,_ZTV6Thread+16
 571      93870700 
 572 022c 2330F500 		sd	a5,0(a0)
  17:src/syscall_cpp.cpp ****     this->arg = this;
 573              		.loc 2 17 5 is_stmt 1
  17:src/syscall_cpp.cpp ****     this->arg = this;
 574              		.loc 2 17 16 is_stmt 0
 575 0230 97070000 		lla	a5,_ZN6Thread6omotacEPv
 575      93870700 
 576 0238 2334F500 		sd	a5,8(a0)
  18:src/syscall_cpp.cpp **** }
 577              		.loc 2 18 5 is_stmt 1
  18:src/syscall_cpp.cpp **** }
 578              		.loc 2 18 15 is_stmt 0
 579 023c 2338A500 		sd	a0,16(a0)
 580              	.LBE11:
  19:src/syscall_cpp.cpp **** 
 581              		.loc 2 19 1
 582 0240 03348100 		ld	s0,8(sp)
 583              		.cfi_restore 8
GAS LISTING /tmp/ccfzpqLg.s 			page 14


 584              		.cfi_def_cfa 2, 16
 585 0244 13010101 		addi	sp,sp,16
 586              		.cfi_def_cfa_offset 0
 587 0248 67800000 		jr	ra
 588              		.cfi_endproc
 589              	.LFE8:
 591              		.globl	_ZN6ThreadC1Ev
 592              		.set	_ZN6ThreadC1Ev,_ZN6ThreadC2Ev
 593              		.align	2
 594              		.globl	_ZN6Thread5startEv
 596              	_ZN6Thread5startEv:
 597              	.LFB15:
  37:src/syscall_cpp.cpp ****     struktura *s = new struktura;
 598              		.loc 2 37 21 is_stmt 1
 599              		.cfi_startproc
 600              	.LVL41:
 601 024c 130101FE 		addi	sp,sp,-32
 602              		.cfi_def_cfa_offset 32
 603 0250 233C1100 		sd	ra,24(sp)
 604 0254 23388100 		sd	s0,16(sp)
 605 0258 23349100 		sd	s1,8(sp)
 606              		.cfi_offset 1, -8
 607              		.cfi_offset 8, -16
 608              		.cfi_offset 9, -24
 609 025c 13040102 		addi	s0,sp,32
 610              		.cfi_def_cfa 8, 0
 611 0260 93040500 		mv	s1,a0
  38:src/syscall_cpp.cpp ****     s->arg=arg;
 612              		.loc 2 38 5
  38:src/syscall_cpp.cpp ****     s->arg=arg;
 613              		.loc 2 38 24 is_stmt 0
 614 0264 13050001 		li	a0,16
 615              	.LVL42:
 616 0268 97000000 		call	_Znwm
 616      E7800000 
 617              	.LVL43:
 618 0270 13060500 		mv	a2,a0
 619              	.LVL44:
  39:src/syscall_cpp.cpp ****     s->body=body;
 620              		.loc 2 39 5 is_stmt 1
  39:src/syscall_cpp.cpp ****     s->body=body;
 621              		.loc 2 39 12 is_stmt 0
 622 0274 83B70401 		ld	a5,16(s1)
  39:src/syscall_cpp.cpp ****     s->body=body;
 623              		.loc 2 39 11
 624 0278 2334F500 		sd	a5,8(a0)
  40:src/syscall_cpp.cpp ****     return thread_create(&myHandle,&wrapper,s);
 625              		.loc 2 40 5 is_stmt 1
  40:src/syscall_cpp.cpp ****     return thread_create(&myHandle,&wrapper,s);
 626              		.loc 2 40 13 is_stmt 0
 627 027c 83B78400 		ld	a5,8(s1)
  40:src/syscall_cpp.cpp ****     return thread_create(&myHandle,&wrapper,s);
 628              		.loc 2 40 12
 629 0280 2330F500 		sd	a5,0(a0)
  41:src/syscall_cpp.cpp **** }
 630              		.loc 2 41 5 is_stmt 1
  41:src/syscall_cpp.cpp **** }
GAS LISTING /tmp/ccfzpqLg.s 			page 15


 631              		.loc 2 41 25 is_stmt 0
 632 0284 97050000 		lla	a1,_ZN12_GLOBAL__N_17wrapperEPv
 632      93850500 
 633 028c 13858401 		addi	a0,s1,24
 634              	.LVL45:
 635 0290 97000000 		call	_Z13thread_createPP3NitPFvPvES2_@plt
 635      E7800000 
 636              	.LVL46:
  42:src/syscall_cpp.cpp **** 
 637              		.loc 2 42 1
 638 0298 83308101 		ld	ra,24(sp)
 639              		.cfi_restore 1
 640 029c 03340101 		ld	s0,16(sp)
 641              		.cfi_restore 8
 642              		.cfi_def_cfa 2, 32
 643 02a0 83348100 		ld	s1,8(sp)
 644              		.cfi_restore 9
 645              	.LVL47:
 646 02a4 13010102 		addi	sp,sp,32
 647              		.cfi_def_cfa_offset 0
 648 02a8 67800000 		jr	ra
 649              		.cfi_endproc
 650              	.LFE15:
 652              		.align	2
 653              		.globl	_ZN6Thread4joinEv
 655              	_ZN6Thread4joinEv:
 656              	.LFB16:
  44:src/syscall_cpp.cpp ****     thread_join(myHandle);
 657              		.loc 2 44 21 is_stmt 1
 658              		.cfi_startproc
 659              	.LVL48:
 660 02ac 130101FF 		addi	sp,sp,-16
 661              		.cfi_def_cfa_offset 16
 662 02b0 23341100 		sd	ra,8(sp)
 663 02b4 23308100 		sd	s0,0(sp)
 664              		.cfi_offset 1, -8
 665              		.cfi_offset 8, -16
 666 02b8 13040101 		addi	s0,sp,16
 667              		.cfi_def_cfa 8, 0
  45:src/syscall_cpp.cpp **** }
 668              		.loc 2 45 5
  45:src/syscall_cpp.cpp **** }
 669              		.loc 2 45 16 is_stmt 0
 670 02bc 03358501 		ld	a0,24(a0)
 671              	.LVL49:
 672 02c0 97000000 		call	_Z11thread_joinP3Nit@plt
 672      E7800000 
 673              	.LVL50:
  46:src/syscall_cpp.cpp **** 
 674              		.loc 2 46 1
 675 02c8 83308100 		ld	ra,8(sp)
 676              		.cfi_restore 1
 677 02cc 03340100 		ld	s0,0(sp)
 678              		.cfi_restore 8
 679              		.cfi_def_cfa 2, 16
 680 02d0 13010101 		addi	sp,sp,16
 681              		.cfi_def_cfa_offset 0
GAS LISTING /tmp/ccfzpqLg.s 			page 16


 682 02d4 67800000 		jr	ra
 683              		.cfi_endproc
 684              	.LFE16:
 686              		.align	2
 687              		.globl	_ZN6Thread8dispatchEv
 689              	_ZN6Thread8dispatchEv:
 690              	.LFB17:
  48:src/syscall_cpp.cpp ****     thread_dispatch();
 691              		.loc 2 48 25 is_stmt 1
 692              		.cfi_startproc
 693 02d8 130101FF 		addi	sp,sp,-16
 694              		.cfi_def_cfa_offset 16
 695 02dc 23341100 		sd	ra,8(sp)
 696 02e0 23308100 		sd	s0,0(sp)
 697              		.cfi_offset 1, -8
 698              		.cfi_offset 8, -16
 699 02e4 13040101 		addi	s0,sp,16
 700              		.cfi_def_cfa 8, 0
  49:src/syscall_cpp.cpp **** }
 701              		.loc 2 49 5
  49:src/syscall_cpp.cpp **** }
 702              		.loc 2 49 20 is_stmt 0
 703 02e8 97000000 		call	_Z15thread_dispatchv@plt
 703      E7800000 
 704              	.LVL51:
  50:src/syscall_cpp.cpp **** 
 705              		.loc 2 50 1
 706 02f0 83308100 		ld	ra,8(sp)
 707              		.cfi_restore 1
 708 02f4 03340100 		ld	s0,0(sp)
 709              		.cfi_restore 8
 710              		.cfi_def_cfa 2, 16
 711 02f8 13010101 		addi	sp,sp,16
 712              		.cfi_def_cfa_offset 0
 713 02fc 67800000 		jr	ra
 714              		.cfi_endproc
 715              	.LFE17:
 717              		.align	2
 718              		.globl	_ZN6Thread5sleepEm
 720              	_ZN6Thread5sleepEm:
 721              	.LFB18:
  52:src/syscall_cpp.cpp ****     return time_sleep(t);
 722              		.loc 2 52 29 is_stmt 1
 723              		.cfi_startproc
 724              	.LVL52:
 725 0300 130101FF 		addi	sp,sp,-16
 726              		.cfi_def_cfa_offset 16
 727 0304 23341100 		sd	ra,8(sp)
 728 0308 23308100 		sd	s0,0(sp)
 729              		.cfi_offset 1, -8
 730              		.cfi_offset 8, -16
 731 030c 13040101 		addi	s0,sp,16
 732              		.cfi_def_cfa 8, 0
  53:src/syscall_cpp.cpp **** }
 733              		.loc 2 53 5
  53:src/syscall_cpp.cpp **** }
 734              		.loc 2 53 22 is_stmt 0
GAS LISTING /tmp/ccfzpqLg.s 			page 17


 735 0310 97000000 		call	_Z10time_sleepm@plt
 735      E7800000 
 736              	.LVL53:
  54:src/syscall_cpp.cpp **** 
 737              		.loc 2 54 1
 738 0318 83308100 		ld	ra,8(sp)
 739              		.cfi_restore 1
 740 031c 03340100 		ld	s0,0(sp)
 741              		.cfi_restore 8
 742              		.cfi_def_cfa 2, 16
 743 0320 13010101 		addi	sp,sp,16
 744              		.cfi_def_cfa_offset 0
 745 0324 67800000 		jr	ra
 746              		.cfi_endproc
 747              	.LFE18:
 749              		.align	2
 750              		.globl	_ZN9SemaphoreC2Ej
 752              	_ZN9SemaphoreC2Ej:
 753              	.LFB21:
  61:src/syscall_cpp.cpp ****     sem_open(&myHandle,init);
 754              		.loc 2 61 1 is_stmt 1
 755              		.cfi_startproc
 756              	.LVL54:
 757 0328 130101FF 		addi	sp,sp,-16
 758              		.cfi_def_cfa_offset 16
 759 032c 23341100 		sd	ra,8(sp)
 760 0330 23308100 		sd	s0,0(sp)
 761              		.cfi_offset 1, -8
 762              		.cfi_offset 8, -16
 763 0334 13040101 		addi	s0,sp,16
 764              		.cfi_def_cfa 8, 0
 765              	.LBB12:
  61:src/syscall_cpp.cpp ****     sem_open(&myHandle,init);
 766              		.loc 2 61 39 is_stmt 0
 767 0338 97070000 		lla	a5,_ZTV9Semaphore+16
 767      93870700 
 768 0340 2330F500 		sd	a5,0(a0)
  62:src/syscall_cpp.cpp **** }
 769              		.loc 2 62 5 is_stmt 1
  62:src/syscall_cpp.cpp **** }
 770              		.loc 2 62 13 is_stmt 0
 771 0344 13058500 		addi	a0,a0,8
 772              	.LVL55:
 773 0348 97000000 		call	_Z8sem_openPP7Semaforj@plt
 773      E7800000 
 774              	.LVL56:
 775              	.LBE12:
  63:src/syscall_cpp.cpp **** 
 776              		.loc 2 63 1
 777 0350 83308100 		ld	ra,8(sp)
 778              		.cfi_restore 1
 779 0354 03340100 		ld	s0,0(sp)
 780              		.cfi_restore 8
 781              		.cfi_def_cfa 2, 16
 782 0358 13010101 		addi	sp,sp,16
 783              		.cfi_def_cfa_offset 0
 784 035c 67800000 		jr	ra
GAS LISTING /tmp/ccfzpqLg.s 			page 18


 785              		.cfi_endproc
 786              	.LFE21:
 788              		.globl	_ZN9SemaphoreC1Ej
 789              		.set	_ZN9SemaphoreC1Ej,_ZN9SemaphoreC2Ej
 790              		.align	2
 791              		.globl	_ZN9Semaphore4waitEv
 793              	_ZN9Semaphore4waitEv:
 794              	.LFB27:
  69:src/syscall_cpp.cpp ****     return sem_wait(myHandle);
 795              		.loc 2 69 23 is_stmt 1
 796              		.cfi_startproc
 797              	.LVL57:
 798 0360 130101FF 		addi	sp,sp,-16
 799              		.cfi_def_cfa_offset 16
 800 0364 23341100 		sd	ra,8(sp)
 801 0368 23308100 		sd	s0,0(sp)
 802              		.cfi_offset 1, -8
 803              		.cfi_offset 8, -16
 804 036c 13040101 		addi	s0,sp,16
 805              		.cfi_def_cfa 8, 0
  70:src/syscall_cpp.cpp **** }
 806              		.loc 2 70 5
  70:src/syscall_cpp.cpp **** }
 807              		.loc 2 70 20 is_stmt 0
 808 0370 03358500 		ld	a0,8(a0)
 809              	.LVL58:
 810 0374 97000000 		call	_Z8sem_waitP7Semafor@plt
 810      E7800000 
 811              	.LVL59:
  71:src/syscall_cpp.cpp **** 
 812              		.loc 2 71 1
 813 037c 83308100 		ld	ra,8(sp)
 814              		.cfi_restore 1
 815 0380 03340100 		ld	s0,0(sp)
 816              		.cfi_restore 8
 817              		.cfi_def_cfa 2, 16
 818 0384 13010101 		addi	sp,sp,16
 819              		.cfi_def_cfa_offset 0
 820 0388 67800000 		jr	ra
 821              		.cfi_endproc
 822              	.LFE27:
 824              		.align	2
 825              		.globl	_ZN9Semaphore6signalEv
 827              	_ZN9Semaphore6signalEv:
 828              	.LFB28:
  73:src/syscall_cpp.cpp ****     return sem_signal(myHandle);
 829              		.loc 2 73 25 is_stmt 1
 830              		.cfi_startproc
 831              	.LVL60:
 832 038c 130101FF 		addi	sp,sp,-16
 833              		.cfi_def_cfa_offset 16
 834 0390 23341100 		sd	ra,8(sp)
 835 0394 23308100 		sd	s0,0(sp)
 836              		.cfi_offset 1, -8
 837              		.cfi_offset 8, -16
 838 0398 13040101 		addi	s0,sp,16
 839              		.cfi_def_cfa 8, 0
GAS LISTING /tmp/ccfzpqLg.s 			page 19


  74:src/syscall_cpp.cpp **** }
 840              		.loc 2 74 5
  74:src/syscall_cpp.cpp **** }
 841              		.loc 2 74 22 is_stmt 0
 842 039c 03358500 		ld	a0,8(a0)
 843              	.LVL61:
 844 03a0 97000000 		call	_Z10sem_signalP7Semafor@plt
 844      E7800000 
 845              	.LVL62:
  75:src/syscall_cpp.cpp **** 
 846              		.loc 2 75 1
 847 03a8 83308100 		ld	ra,8(sp)
 848              		.cfi_restore 1
 849 03ac 03340100 		ld	s0,0(sp)
 850              		.cfi_restore 8
 851              		.cfi_def_cfa 2, 16
 852 03b0 13010101 		addi	sp,sp,16
 853              		.cfi_def_cfa_offset 0
 854 03b4 67800000 		jr	ra
 855              		.cfi_endproc
 856              	.LFE28:
 858              		.align	2
 859              		.globl	_ZN14PeriodicThreadC2Em
 861              	_ZN14PeriodicThreadC2Em:
 862              	.LFB30:
  77:src/syscall_cpp.cpp ****     this->period=period;
 863              		.loc 2 77 1 is_stmt 1
 864              		.cfi_startproc
 865              	.LVL63:
 866 03b8 130101FE 		addi	sp,sp,-32
 867              		.cfi_def_cfa_offset 32
 868 03bc 233C1100 		sd	ra,24(sp)
 869 03c0 23388100 		sd	s0,16(sp)
 870 03c4 23349100 		sd	s1,8(sp)
 871 03c8 23302101 		sd	s2,0(sp)
 872              		.cfi_offset 1, -8
 873              		.cfi_offset 8, -16
 874              		.cfi_offset 9, -24
 875              		.cfi_offset 18, -32
 876 03cc 13040102 		addi	s0,sp,32
 877              		.cfi_def_cfa 8, 0
 878 03d0 93040500 		mv	s1,a0
 879 03d4 13890500 		mv	s2,a1
 880              	.LBB13:
  77:src/syscall_cpp.cpp ****     this->period=period;
 881              		.loc 2 77 55 is_stmt 0
 882 03d8 97000000 		call	_ZN6ThreadC2Ev
 882      E7800000 
 883              	.LVL64:
 884 03e0 97070000 		lla	a5,_ZTV14PeriodicThread+16
 884      93870700 
 885 03e8 23B0F400 		sd	a5,0(s1)
 886 03ec 93071000 		li	a5,1
 887 03f0 2380F402 		sb	a5,32(s1)
  78:src/syscall_cpp.cpp **** }
 888              		.loc 2 78 5 is_stmt 1
  78:src/syscall_cpp.cpp **** }
GAS LISTING /tmp/ccfzpqLg.s 			page 20


 889              		.loc 2 78 17 is_stmt 0
 890 03f4 23B42403 		sd	s2,40(s1)
 891              	.LBE13:
  79:src/syscall_cpp.cpp **** 
 892              		.loc 2 79 1
 893 03f8 83308101 		ld	ra,24(sp)
 894              		.cfi_restore 1
 895 03fc 03340101 		ld	s0,16(sp)
 896              		.cfi_restore 8
 897              		.cfi_def_cfa 2, 32
 898 0400 83348100 		ld	s1,8(sp)
 899              		.cfi_restore 9
 900              	.LVL65:
 901 0404 03390100 		ld	s2,0(sp)
 902              		.cfi_restore 18
 903              	.LVL66:
 904 0408 13010102 		addi	sp,sp,32
 905              		.cfi_def_cfa_offset 0
 906 040c 67800000 		jr	ra
 907              		.cfi_endproc
 908              	.LFE30:
 910              		.globl	_ZN14PeriodicThreadC1Em
 911              		.set	_ZN14PeriodicThreadC1Em,_ZN14PeriodicThreadC2Em
 912              		.align	2
 913              		.globl	_ZN14PeriodicThread9terminateEv
 915              	_ZN14PeriodicThread9terminateEv:
 916              	.LFB33:
  87:src/syscall_cpp.cpp **** 
  88:src/syscall_cpp.cpp **** void PeriodicThread::terminate() {
 917              		.loc 2 88 34 is_stmt 1
 918              		.cfi_startproc
 919              	.LVL67:
 920 0410 130101FF 		addi	sp,sp,-16
 921              		.cfi_def_cfa_offset 16
 922 0414 23348100 		sd	s0,8(sp)
 923              		.cfi_offset 8, -8
 924 0418 13040101 		addi	s0,sp,16
 925              		.cfi_def_cfa 8, 0
  89:src/syscall_cpp.cpp ****     flag=false;
 926              		.loc 2 89 5
 927              		.loc 2 89 9 is_stmt 0
 928 041c 23000502 		sb	zero,32(a0)
  90:src/syscall_cpp.cpp **** }
 929              		.loc 2 90 1
 930 0420 03348100 		ld	s0,8(sp)
 931              		.cfi_restore 8
 932              		.cfi_def_cfa 2, 16
 933 0424 13010101 		addi	sp,sp,16
 934              		.cfi_def_cfa_offset 0
 935 0428 67800000 		jr	ra
 936              		.cfi_endproc
 937              	.LFE33:
 939              		.align	2
 940              		.globl	_ZN7Console4getcEv
 942              	_ZN7Console4getcEv:
 943              	.LFB34:
  91:src/syscall_cpp.cpp **** 
GAS LISTING /tmp/ccfzpqLg.s 			page 21


  92:src/syscall_cpp.cpp **** char Console::getc() {
 944              		.loc 2 92 22 is_stmt 1
 945              		.cfi_startproc
 946 042c 130101FF 		addi	sp,sp,-16
 947              		.cfi_def_cfa_offset 16
 948 0430 23341100 		sd	ra,8(sp)
 949 0434 23308100 		sd	s0,0(sp)
 950              		.cfi_offset 1, -8
 951              		.cfi_offset 8, -16
 952 0438 13040101 		addi	s0,sp,16
 953              		.cfi_def_cfa 8, 0
  93:src/syscall_cpp.cpp ****     return ::getc();
 954              		.loc 2 93 5
 955              		.loc 2 93 18 is_stmt 0
 956 043c 97000000 		call	_Z4getcv@plt
 956      E7800000 
 957              	.LVL68:
  94:src/syscall_cpp.cpp **** }
 958              		.loc 2 94 1
 959 0444 83308100 		ld	ra,8(sp)
 960              		.cfi_restore 1
 961 0448 03340100 		ld	s0,0(sp)
 962              		.cfi_restore 8
 963              		.cfi_def_cfa 2, 16
 964 044c 13010101 		addi	sp,sp,16
 965              		.cfi_def_cfa_offset 0
 966 0450 67800000 		jr	ra
 967              		.cfi_endproc
 968              	.LFE34:
 970              		.align	2
 971              		.globl	_ZN7Console4putcEc
 973              	_ZN7Console4putcEc:
 974              	.LFB35:
  95:src/syscall_cpp.cpp **** 
  96:src/syscall_cpp.cpp **** void Console::putc(char c) {
 975              		.loc 2 96 28 is_stmt 1
 976              		.cfi_startproc
 977              	.LVL69:
 978 0454 130101FF 		addi	sp,sp,-16
 979              		.cfi_def_cfa_offset 16
 980 0458 23341100 		sd	ra,8(sp)
 981 045c 23308100 		sd	s0,0(sp)
 982              		.cfi_offset 1, -8
 983              		.cfi_offset 8, -16
 984 0460 13040101 		addi	s0,sp,16
 985              		.cfi_def_cfa 8, 0
  97:src/syscall_cpp.cpp ****     ::putc(c);
 986              		.loc 2 97 5
 987              		.loc 2 97 11 is_stmt 0
 988 0464 97000000 		call	_Z4putcc@plt
 988      E7800000 
 989              	.LVL70:
  98:src/syscall_cpp.cpp **** }
 990              		.loc 2 98 1
 991 046c 83308100 		ld	ra,8(sp)
 992              		.cfi_restore 1
 993 0470 03340100 		ld	s0,0(sp)
GAS LISTING /tmp/ccfzpqLg.s 			page 22


 994              		.cfi_restore 8
 995              		.cfi_def_cfa 2, 16
 996 0474 13010101 		addi	sp,sp,16
 997              		.cfi_def_cfa_offset 0
 998 0478 67800000 		jr	ra
 999              		.cfi_endproc
 1000              	.LFE35:
 1002              		.weak	_ZTV6Thread
 1003              		.section	.data.rel.ro.local._ZTV6Thread,"awG",@progbits,_ZTV6Thread,comdat
 1004              		.align	3
 1007              	_ZTV6Thread:
 1008 0000 00000000 		.dword	0
 1008      00000000 
 1009 0008 00000000 		.dword	0
 1009      00000000 
 1010 0010 00000000 		.dword	_ZN6ThreadD1Ev
 1010      00000000 
 1011 0018 00000000 		.dword	_ZN6ThreadD0Ev
 1011      00000000 
 1012 0020 00000000 		.dword	_ZN6Thread3runEv
 1012      00000000 
 1013              		.weak	_ZTV9Semaphore
 1014              		.section	.data.rel.ro.local._ZTV9Semaphore,"awG",@progbits,_ZTV9Semaphore,comdat
 1015              		.align	3
 1018              	_ZTV9Semaphore:
 1019 0000 00000000 		.dword	0
 1019      00000000 
 1020 0008 00000000 		.dword	0
 1020      00000000 
 1021 0010 00000000 		.dword	_ZN9SemaphoreD1Ev
 1021      00000000 
 1022 0018 00000000 		.dword	_ZN9SemaphoreD0Ev
 1022      00000000 
 1023              		.weak	_ZTV14PeriodicThread
 1024              		.section	.data.rel.ro.local._ZTV14PeriodicThread,"awG",@progbits,_ZTV14PeriodicThread,comdat
 1025              		.align	3
 1028              	_ZTV14PeriodicThread:
 1029 0000 00000000 		.dword	0
 1029      00000000 
 1030 0008 00000000 		.dword	0
 1030      00000000 
 1031 0010 00000000 		.dword	_ZN14PeriodicThreadD1Ev
 1031      00000000 
 1032 0018 00000000 		.dword	_ZN14PeriodicThreadD0Ev
 1032      00000000 
 1033 0020 00000000 		.dword	_ZN14PeriodicThread3runEv
 1033      00000000 
 1034 0028 00000000 		.dword	_ZN14PeriodicThread18periodicActivationEv
 1034      00000000 
 1035              		.text
 1036              	.Letext0:
 1037              		.file 3 "src/../h/../lib/hw.h"
 1038              		.file 4 "src/../h/syscall_c.h"
 4254              		.align	3
 4257              	DW.ref.__gxx_personality_v0:
 4258 0000 00000000 		.dword	__gxx_personality_v0
 4258      00000000 
GAS LISTING /tmp/ccfzpqLg.s 			page 23


 4259              		.ident	"GCC: (Ubuntu 9.4.0-1ubuntu1~20.04) 9.4.0"
 4260              		.section	.note.GNU-stack,"",@progbits
GAS LISTING /tmp/ccfzpqLg.s 			page 24


DEFINED SYMBOLS
                            *ABS*:0000000000000000 syscall_cpp.cpp
     /tmp/ccfzpqLg.s:10     .text._ZN6Thread3runEv:0000000000000000 _ZN6Thread3runEv
     /tmp/ccfzpqLg.s:14     .text._ZN6Thread3runEv:0000000000000000 .L0 
     /tmp/ccfzpqLg.s:16     .text._ZN6Thread3runEv:0000000000000000 .L0 
     /tmp/ccfzpqLg.s:17     .text._ZN6Thread3runEv:0000000000000004 .L0 
     /tmp/ccfzpqLg.s:19     .text._ZN6Thread3runEv:0000000000000008 .L0 
     /tmp/ccfzpqLg.s:21     .text._ZN6Thread3runEv:000000000000000c .L0 
     /tmp/ccfzpqLg.s:23     .text._ZN6Thread3runEv:000000000000000c .L0 
     /tmp/ccfzpqLg.s:24     .text._ZN6Thread3runEv:0000000000000010 .L0 
     /tmp/ccfzpqLg.s:25     .text._ZN6Thread3runEv:0000000000000010 .L0 
     /tmp/ccfzpqLg.s:27     .text._ZN6Thread3runEv:0000000000000014 .L0 
     /tmp/ccfzpqLg.s:29     .text._ZN6Thread3runEv:0000000000000018 .L0 
     /tmp/ccfzpqLg.s:36     .text._ZN14PeriodicThread18periodicActivationEv:0000000000000000 _ZN14PeriodicThread18periodicActivationEv
     /tmp/ccfzpqLg.s:39     .text._ZN14PeriodicThread18periodicActivationEv:0000000000000000 .L0 
     /tmp/ccfzpqLg.s:41     .text._ZN14PeriodicThread18periodicActivationEv:0000000000000000 .L0 
     /tmp/ccfzpqLg.s:42     .text._ZN14PeriodicThread18periodicActivationEv:0000000000000004 .L0 
     /tmp/ccfzpqLg.s:44     .text._ZN14PeriodicThread18periodicActivationEv:0000000000000008 .L0 
     /tmp/ccfzpqLg.s:46     .text._ZN14PeriodicThread18periodicActivationEv:000000000000000c .L0 
     /tmp/ccfzpqLg.s:48     .text._ZN14PeriodicThread18periodicActivationEv:000000000000000c .L0 
     /tmp/ccfzpqLg.s:49     .text._ZN14PeriodicThread18periodicActivationEv:0000000000000010 .L0 
     /tmp/ccfzpqLg.s:50     .text._ZN14PeriodicThread18periodicActivationEv:0000000000000010 .L0 
     /tmp/ccfzpqLg.s:52     .text._ZN14PeriodicThread18periodicActivationEv:0000000000000014 .L0 
     /tmp/ccfzpqLg.s:54     .text._ZN14PeriodicThread18periodicActivationEv:0000000000000018 .L0 
     /tmp/ccfzpqLg.s:60     .text:0000000000000000 _ZN12_GLOBAL__N_17wrapperEPv
     /tmp/ccfzpqLg.s:64     .text:0000000000000000 .L0 
     /tmp/ccfzpqLg.s:66     .text:0000000000000000 .L0 
     /tmp/ccfzpqLg.s:67     .text:0000000000000004 .L0 
     /tmp/ccfzpqLg.s:70     .text:000000000000000c .L0 
     /tmp/ccfzpqLg.s:71     .text:000000000000000c .L0 
     /tmp/ccfzpqLg.s:73     .text:0000000000000010 .L0 
     /tmp/ccfzpqLg.s:76     .text:0000000000000010 .L0 
     /tmp/ccfzpqLg.s:77     .text:0000000000000010 .L0 
     /tmp/ccfzpqLg.s:78     .text:0000000000000010 .L0 
     /tmp/ccfzpqLg.s:80     .text:0000000000000014 .L0 
     /tmp/ccfzpqLg.s:85     .text:000000000000001c .L0 
     /tmp/ccfzpqLg.s:86     .text:0000000000000020 .L0 
     /tmp/ccfzpqLg.s:88     .text:0000000000000024 .L0 
     /tmp/ccfzpqLg.s:89     .text:0000000000000024 .L0 
     /tmp/ccfzpqLg.s:91     .text:0000000000000028 .L0 
     /tmp/ccfzpqLg.s:93     .text:000000000000002c .L0 
     /tmp/ccfzpqLg.s:99     .text:000000000000002c _ZN6Thread6omotacEPv
     /tmp/ccfzpqLg.s:102    .text:000000000000002c .L0 
     /tmp/ccfzpqLg.s:104    .text:000000000000002c .L0 
     /tmp/ccfzpqLg.s:105    .text:0000000000000030 .L0 
     /tmp/ccfzpqLg.s:108    .text:0000000000000038 .L0 
     /tmp/ccfzpqLg.s:109    .text:0000000000000038 .L0 
     /tmp/ccfzpqLg.s:111    .text:000000000000003c .L0 
     /tmp/ccfzpqLg.s:114    .text:000000000000003c .L0 
     /tmp/ccfzpqLg.s:115    .text:000000000000003c .L0 
     /tmp/ccfzpqLg.s:116    .text:000000000000003c .L0 
     /tmp/ccfzpqLg.s:119    .text:0000000000000044 .L0 
     /tmp/ccfzpqLg.s:122    .text:0000000000000048 .L0 
     /tmp/ccfzpqLg.s:123    .text:000000000000004c .L0 
     /tmp/ccfzpqLg.s:125    .text:0000000000000050 .L0 
     /tmp/ccfzpqLg.s:126    .text:0000000000000050 .L0 
     /tmp/ccfzpqLg.s:128    .text:0000000000000054 .L0 
GAS LISTING /tmp/ccfzpqLg.s 			page 25


     /tmp/ccfzpqLg.s:130    .text:0000000000000058 .L0 
     /tmp/ccfzpqLg.s:136    .text:0000000000000058 _ZN6ThreadD2Ev
     /tmp/ccfzpqLg.s:139    .text:0000000000000058 .L0 
     /tmp/ccfzpqLg.s:4257   .data.rel.local.DW.ref.__gxx_personality_v0:0000000000000000 DW.ref.__gxx_personality_v0
     /tmp/ccfzpqLg.s:143    .text:0000000000000058 .L0 
     /tmp/ccfzpqLg.s:144    .text:000000000000005c .L0 
     /tmp/ccfzpqLg.s:147    .text:0000000000000064 .L0 
     /tmp/ccfzpqLg.s:148    .text:0000000000000064 .L0 
     /tmp/ccfzpqLg.s:150    .text:0000000000000068 .L0 
     /tmp/ccfzpqLg.s:1007   .data.rel.ro.local._ZTV6Thread:0000000000000000 _ZTV6Thread
     /tmp/ccfzpqLg.s:153    .text:0000000000000068 .L0 
     /tmp/ccfzpqLg.s:156    .text:0000000000000074 .L0 
     /tmp/ccfzpqLg.s:157    .text:0000000000000074 .L0 
     /tmp/ccfzpqLg.s:163    .text:0000000000000080 .L0 
     /tmp/ccfzpqLg.s:164    .text:0000000000000084 .L0 
     /tmp/ccfzpqLg.s:166    .text:0000000000000088 .L0 
     /tmp/ccfzpqLg.s:167    .text:0000000000000088 .L0 
     /tmp/ccfzpqLg.s:169    .text:000000000000008c .L0 
     /tmp/ccfzpqLg.s:171    .text:0000000000000090 .L0 
     /tmp/ccfzpqLg.s:136    .text:0000000000000058 _ZN6ThreadD1Ev
     /tmp/ccfzpqLg.s:188    .text._ZN14PeriodicThreadD2Ev:0000000000000000 _ZN14PeriodicThreadD2Ev
     /tmp/ccfzpqLg.s:191    .text._ZN14PeriodicThreadD2Ev:0000000000000000 .L0 
     /tmp/ccfzpqLg.s:193    .text._ZN14PeriodicThreadD2Ev:0000000000000000 .L0 
     /tmp/ccfzpqLg.s:194    .text._ZN14PeriodicThreadD2Ev:0000000000000004 .L0 
     /tmp/ccfzpqLg.s:197    .text._ZN14PeriodicThreadD2Ev:000000000000000c .L0 
     /tmp/ccfzpqLg.s:198    .text._ZN14PeriodicThreadD2Ev:000000000000000c .L0 
     /tmp/ccfzpqLg.s:200    .text._ZN14PeriodicThreadD2Ev:0000000000000010 .L0 
     /tmp/ccfzpqLg.s:1028   .data.rel.ro.local._ZTV14PeriodicThread:0000000000000000 _ZTV14PeriodicThread
     /tmp/ccfzpqLg.s:203    .text._ZN14PeriodicThreadD2Ev:0000000000000010 .L0 
     /tmp/ccfzpqLg.s:209    .text._ZN14PeriodicThreadD2Ev:0000000000000028 .L0 
     /tmp/ccfzpqLg.s:211    .text._ZN14PeriodicThreadD2Ev:000000000000002c .L0 
     /tmp/ccfzpqLg.s:212    .text._ZN14PeriodicThreadD2Ev:000000000000002c .L0 
     /tmp/ccfzpqLg.s:214    .text._ZN14PeriodicThreadD2Ev:0000000000000030 .L0 
     /tmp/ccfzpqLg.s:216    .text._ZN14PeriodicThreadD2Ev:0000000000000034 .L0 
     /tmp/ccfzpqLg.s:188    .text._ZN14PeriodicThreadD2Ev:0000000000000000 _ZN14PeriodicThreadD1Ev
     /tmp/ccfzpqLg.s:225    .text:0000000000000090 _ZN14PeriodicThread3runEv
     /tmp/ccfzpqLg.s:228    .text:0000000000000090 .L0 
     /tmp/ccfzpqLg.s:230    .text:0000000000000090 .L0 
     /tmp/ccfzpqLg.s:231    .text:0000000000000094 .L0 
     /tmp/ccfzpqLg.s:235    .text:00000000000000a0 .L0 
     /tmp/ccfzpqLg.s:236    .text:00000000000000a0 .L0 
     /tmp/ccfzpqLg.s:237    .text:00000000000000a0 .L0 
     /tmp/ccfzpqLg.s:239    .text:00000000000000a4 .L0 
     /tmp/ccfzpqLg.s:244    .text:00000000000000a8 .L0 
     /tmp/ccfzpqLg.s:245    .text:00000000000000a8 .L0 
     /tmp/ccfzpqLg.s:248    .text:00000000000000b0 .L0 
     /tmp/ccfzpqLg.s:249    .text:00000000000000b0 .L0 
     /tmp/ccfzpqLg.s:252    .text:00000000000000b8 .L0 
     /tmp/ccfzpqLg.s:256    .text:00000000000000c0 .L0 
     /tmp/ccfzpqLg.s:257    .text:00000000000000c0 .L0 
     /tmp/ccfzpqLg.s:261    .text:00000000000000cc .L0 
     /tmp/ccfzpqLg.s:264    .text:00000000000000d0 .L0 
     /tmp/ccfzpqLg.s:265    .text:00000000000000d4 .L0 
     /tmp/ccfzpqLg.s:267    .text:00000000000000d8 .L0 
     /tmp/ccfzpqLg.s:268    .text:00000000000000d8 .L0 
     /tmp/ccfzpqLg.s:270    .text:00000000000000dc .L0 
     /tmp/ccfzpqLg.s:273    .text:00000000000000e0 .L0 
GAS LISTING /tmp/ccfzpqLg.s 			page 26


     /tmp/ccfzpqLg.s:275    .text:00000000000000e4 .L0 
     /tmp/ccfzpqLg.s:281    .text:00000000000000e4 _ZN9SemaphoreD2Ev
     /tmp/ccfzpqLg.s:284    .text:00000000000000e4 .L0 
     /tmp/ccfzpqLg.s:288    .text:00000000000000e4 .L0 
     /tmp/ccfzpqLg.s:289    .text:00000000000000e8 .L0 
     /tmp/ccfzpqLg.s:292    .text:00000000000000f0 .L0 
     /tmp/ccfzpqLg.s:293    .text:00000000000000f0 .L0 
     /tmp/ccfzpqLg.s:295    .text:00000000000000f4 .L0 
     /tmp/ccfzpqLg.s:1018   .data.rel.ro.local._ZTV9Semaphore:0000000000000000 _ZTV9Semaphore
     /tmp/ccfzpqLg.s:298    .text:00000000000000f4 .L0 
     /tmp/ccfzpqLg.s:301    .text:0000000000000100 .L0 
     /tmp/ccfzpqLg.s:302    .text:0000000000000100 .L0 
     /tmp/ccfzpqLg.s:308    .text:000000000000010c .L0 
     /tmp/ccfzpqLg.s:309    .text:0000000000000110 .L0 
     /tmp/ccfzpqLg.s:311    .text:0000000000000114 .L0 
     /tmp/ccfzpqLg.s:312    .text:0000000000000114 .L0 
     /tmp/ccfzpqLg.s:314    .text:0000000000000118 .L0 
     /tmp/ccfzpqLg.s:316    .text:000000000000011c .L0 
     /tmp/ccfzpqLg.s:281    .text:00000000000000e4 _ZN9SemaphoreD1Ev
     /tmp/ccfzpqLg.s:331    .text:000000000000011c _Znwm
     /tmp/ccfzpqLg.s:334    .text:000000000000011c .L0 
     /tmp/ccfzpqLg.s:336    .text:000000000000011c .L0 
     /tmp/ccfzpqLg.s:337    .text:0000000000000120 .L0 
     /tmp/ccfzpqLg.s:340    .text:0000000000000128 .L0 
     /tmp/ccfzpqLg.s:341    .text:0000000000000128 .L0 
     /tmp/ccfzpqLg.s:343    .text:000000000000012c .L0 
     /tmp/ccfzpqLg.s:345    .text:000000000000012c .L0 
     /tmp/ccfzpqLg.s:346    .text:000000000000012c .L0 
     /tmp/ccfzpqLg.s:349    .text:0000000000000134 .L0 
     /tmp/ccfzpqLg.s:350    .text:0000000000000138 .L0 
     /tmp/ccfzpqLg.s:352    .text:000000000000013c .L0 
     /tmp/ccfzpqLg.s:353    .text:000000000000013c .L0 
     /tmp/ccfzpqLg.s:355    .text:0000000000000140 .L0 
     /tmp/ccfzpqLg.s:357    .text:0000000000000144 .L0 
     /tmp/ccfzpqLg.s:363    .text:0000000000000144 _ZdlPv
     /tmp/ccfzpqLg.s:366    .text:0000000000000144 .L0 
     /tmp/ccfzpqLg.s:368    .text:0000000000000144 .L0 
     /tmp/ccfzpqLg.s:369    .text:0000000000000148 .L0 
     /tmp/ccfzpqLg.s:372    .text:0000000000000150 .L0 
     /tmp/ccfzpqLg.s:373    .text:0000000000000150 .L0 
     /tmp/ccfzpqLg.s:375    .text:0000000000000154 .L0 
     /tmp/ccfzpqLg.s:377    .text:0000000000000154 .L0 
     /tmp/ccfzpqLg.s:378    .text:0000000000000154 .L0 
     /tmp/ccfzpqLg.s:381    .text:000000000000015c .L0 
     /tmp/ccfzpqLg.s:382    .text:0000000000000160 .L0 
     /tmp/ccfzpqLg.s:384    .text:0000000000000164 .L0 
     /tmp/ccfzpqLg.s:385    .text:0000000000000164 .L0 
     /tmp/ccfzpqLg.s:387    .text:0000000000000168 .L0 
     /tmp/ccfzpqLg.s:389    .text:000000000000016c .L0 
     /tmp/ccfzpqLg.s:395    .text:000000000000016c _ZN6ThreadD0Ev
     /tmp/ccfzpqLg.s:398    .text:000000000000016c .L0 
     /tmp/ccfzpqLg.s:400    .text:000000000000016c .L0 
     /tmp/ccfzpqLg.s:401    .text:0000000000000170 .L0 
     /tmp/ccfzpqLg.s:405    .text:000000000000017c .L0 
     /tmp/ccfzpqLg.s:406    .text:000000000000017c .L0 
     /tmp/ccfzpqLg.s:407    .text:000000000000017c .L0 
     /tmp/ccfzpqLg.s:409    .text:0000000000000180 .L0 
GAS LISTING /tmp/ccfzpqLg.s 			page 27


     /tmp/ccfzpqLg.s:412    .text:0000000000000184 .L0 
     /tmp/ccfzpqLg.s:418    .text:000000000000019c .L0 
     /tmp/ccfzpqLg.s:420    .text:00000000000001a0 .L0 
     /tmp/ccfzpqLg.s:421    .text:00000000000001a0 .L0 
     /tmp/ccfzpqLg.s:423    .text:00000000000001a4 .L0 
     /tmp/ccfzpqLg.s:426    .text:00000000000001a8 .L0 
     /tmp/ccfzpqLg.s:428    .text:00000000000001ac .L0 
     /tmp/ccfzpqLg.s:434    .text:00000000000001ac _ZN9SemaphoreD0Ev
     /tmp/ccfzpqLg.s:437    .text:00000000000001ac .L0 
     /tmp/ccfzpqLg.s:439    .text:00000000000001ac .L0 
     /tmp/ccfzpqLg.s:440    .text:00000000000001b0 .L0 
     /tmp/ccfzpqLg.s:444    .text:00000000000001bc .L0 
     /tmp/ccfzpqLg.s:445    .text:00000000000001bc .L0 
     /tmp/ccfzpqLg.s:446    .text:00000000000001bc .L0 
     /tmp/ccfzpqLg.s:448    .text:00000000000001c0 .L0 
     /tmp/ccfzpqLg.s:451    .text:00000000000001c4 .L0 
     /tmp/ccfzpqLg.s:457    .text:00000000000001dc .L0 
     /tmp/ccfzpqLg.s:459    .text:00000000000001e0 .L0 
     /tmp/ccfzpqLg.s:460    .text:00000000000001e0 .L0 
     /tmp/ccfzpqLg.s:462    .text:00000000000001e4 .L0 
     /tmp/ccfzpqLg.s:465    .text:00000000000001e8 .L0 
     /tmp/ccfzpqLg.s:467    .text:00000000000001ec .L0 
     /tmp/ccfzpqLg.s:474    .text._ZN14PeriodicThreadD0Ev:0000000000000000 _ZN14PeriodicThreadD0Ev
     /tmp/ccfzpqLg.s:477    .text._ZN14PeriodicThreadD0Ev:0000000000000000 .L0 
     /tmp/ccfzpqLg.s:479    .text._ZN14PeriodicThreadD0Ev:0000000000000000 .L0 
     /tmp/ccfzpqLg.s:480    .text._ZN14PeriodicThreadD0Ev:0000000000000004 .L0 
     /tmp/ccfzpqLg.s:484    .text._ZN14PeriodicThreadD0Ev:0000000000000010 .L0 
     /tmp/ccfzpqLg.s:485    .text._ZN14PeriodicThreadD0Ev:0000000000000010 .L0 
     /tmp/ccfzpqLg.s:486    .text._ZN14PeriodicThreadD0Ev:0000000000000010 .L0 
     /tmp/ccfzpqLg.s:488    .text._ZN14PeriodicThreadD0Ev:0000000000000014 .L0 
     /tmp/ccfzpqLg.s:494    .text._ZN14PeriodicThreadD0Ev:0000000000000018 .L0 
     /tmp/ccfzpqLg.s:504    .text._ZN14PeriodicThreadD0Ev:000000000000003c .L0 
     /tmp/ccfzpqLg.s:506    .text._ZN14PeriodicThreadD0Ev:0000000000000040 .L0 
     /tmp/ccfzpqLg.s:507    .text._ZN14PeriodicThreadD0Ev:0000000000000040 .L0 
     /tmp/ccfzpqLg.s:509    .text._ZN14PeriodicThreadD0Ev:0000000000000044 .L0 
     /tmp/ccfzpqLg.s:512    .text._ZN14PeriodicThreadD0Ev:0000000000000048 .L0 
     /tmp/ccfzpqLg.s:514    .text._ZN14PeriodicThreadD0Ev:000000000000004c .L0 
     /tmp/ccfzpqLg.s:521    .text:00000000000001ec _ZN6ThreadC2EPFvPvES0_
     /tmp/ccfzpqLg.s:524    .text:00000000000001ec .L0 
     /tmp/ccfzpqLg.s:526    .text:00000000000001ec .L0 
     /tmp/ccfzpqLg.s:527    .text:00000000000001f0 .L0 
     /tmp/ccfzpqLg.s:529    .text:00000000000001f4 .L0 
     /tmp/ccfzpqLg.s:531    .text:00000000000001f8 .L0 
     /tmp/ccfzpqLg.s:534    .text:00000000000001f8 .L0 
     /tmp/ccfzpqLg.s:537    .text:0000000000000204 .L0 
     /tmp/ccfzpqLg.s:538    .text:0000000000000204 .L0 
     /tmp/ccfzpqLg.s:540    .text:0000000000000208 .L0 
     /tmp/ccfzpqLg.s:541    .text:0000000000000208 .L0 
     /tmp/ccfzpqLg.s:544    .text:000000000000020c .L0 
     /tmp/ccfzpqLg.s:545    .text:0000000000000210 .L0 
     /tmp/ccfzpqLg.s:546    .text:0000000000000210 .L0 
     /tmp/ccfzpqLg.s:548    .text:0000000000000214 .L0 
     /tmp/ccfzpqLg.s:550    .text:0000000000000218 .L0 
     /tmp/ccfzpqLg.s:521    .text:00000000000001ec _ZN6ThreadC1EPFvPvES0_
     /tmp/ccfzpqLg.s:558    .text:0000000000000218 _ZN6ThreadC2Ev
     /tmp/ccfzpqLg.s:561    .text:0000000000000218 .L0 
     /tmp/ccfzpqLg.s:563    .text:0000000000000218 .L0 
GAS LISTING /tmp/ccfzpqLg.s 			page 28


     /tmp/ccfzpqLg.s:564    .text:000000000000021c .L0 
     /tmp/ccfzpqLg.s:566    .text:0000000000000220 .L0 
     /tmp/ccfzpqLg.s:568    .text:0000000000000224 .L0 
     /tmp/ccfzpqLg.s:571    .text:0000000000000224 .L0 
     /tmp/ccfzpqLg.s:574    .text:0000000000000230 .L0 
     /tmp/ccfzpqLg.s:575    .text:0000000000000230 .L0 
     /tmp/ccfzpqLg.s:578    .text:000000000000023c .L0 
     /tmp/ccfzpqLg.s:579    .text:000000000000023c .L0 
     /tmp/ccfzpqLg.s:582    .text:0000000000000240 .L0 
     /tmp/ccfzpqLg.s:583    .text:0000000000000244 .L0 
     /tmp/ccfzpqLg.s:584    .text:0000000000000244 .L0 
     /tmp/ccfzpqLg.s:586    .text:0000000000000248 .L0 
     /tmp/ccfzpqLg.s:588    .text:000000000000024c .L0 
     /tmp/ccfzpqLg.s:558    .text:0000000000000218 _ZN6ThreadC1Ev
     /tmp/ccfzpqLg.s:596    .text:000000000000024c _ZN6Thread5startEv
     /tmp/ccfzpqLg.s:599    .text:000000000000024c .L0 
     /tmp/ccfzpqLg.s:601    .text:000000000000024c .L0 
     /tmp/ccfzpqLg.s:602    .text:0000000000000250 .L0 
     /tmp/ccfzpqLg.s:606    .text:000000000000025c .L0 
     /tmp/ccfzpqLg.s:607    .text:000000000000025c .L0 
     /tmp/ccfzpqLg.s:608    .text:000000000000025c .L0 
     /tmp/ccfzpqLg.s:610    .text:0000000000000260 .L0 
     /tmp/ccfzpqLg.s:613    .text:0000000000000264 .L0 
     /tmp/ccfzpqLg.s:614    .text:0000000000000264 .L0 
     /tmp/ccfzpqLg.s:621    .text:0000000000000274 .L0 
     /tmp/ccfzpqLg.s:622    .text:0000000000000274 .L0 
     /tmp/ccfzpqLg.s:624    .text:0000000000000278 .L0 
     /tmp/ccfzpqLg.s:626    .text:000000000000027c .L0 
     /tmp/ccfzpqLg.s:627    .text:000000000000027c .L0 
     /tmp/ccfzpqLg.s:629    .text:0000000000000280 .L0 
     /tmp/ccfzpqLg.s:631    .text:0000000000000284 .L0 
     /tmp/ccfzpqLg.s:632    .text:0000000000000284 .L0 
     /tmp/ccfzpqLg.s:638    .text:0000000000000298 .L0 
     /tmp/ccfzpqLg.s:639    .text:000000000000029c .L0 
     /tmp/ccfzpqLg.s:641    .text:00000000000002a0 .L0 
     /tmp/ccfzpqLg.s:642    .text:00000000000002a0 .L0 
     /tmp/ccfzpqLg.s:644    .text:00000000000002a4 .L0 
     /tmp/ccfzpqLg.s:647    .text:00000000000002a8 .L0 
     /tmp/ccfzpqLg.s:649    .text:00000000000002ac .L0 
     /tmp/ccfzpqLg.s:655    .text:00000000000002ac _ZN6Thread4joinEv
     /tmp/ccfzpqLg.s:658    .text:00000000000002ac .L0 
     /tmp/ccfzpqLg.s:660    .text:00000000000002ac .L0 
     /tmp/ccfzpqLg.s:661    .text:00000000000002b0 .L0 
     /tmp/ccfzpqLg.s:664    .text:00000000000002b8 .L0 
     /tmp/ccfzpqLg.s:665    .text:00000000000002b8 .L0 
     /tmp/ccfzpqLg.s:667    .text:00000000000002bc .L0 
     /tmp/ccfzpqLg.s:669    .text:00000000000002bc .L0 
     /tmp/ccfzpqLg.s:670    .text:00000000000002bc .L0 
     /tmp/ccfzpqLg.s:675    .text:00000000000002c8 .L0 
     /tmp/ccfzpqLg.s:676    .text:00000000000002cc .L0 
     /tmp/ccfzpqLg.s:678    .text:00000000000002d0 .L0 
     /tmp/ccfzpqLg.s:679    .text:00000000000002d0 .L0 
     /tmp/ccfzpqLg.s:681    .text:00000000000002d4 .L0 
     /tmp/ccfzpqLg.s:683    .text:00000000000002d8 .L0 
     /tmp/ccfzpqLg.s:689    .text:00000000000002d8 _ZN6Thread8dispatchEv
     /tmp/ccfzpqLg.s:692    .text:00000000000002d8 .L0 
     /tmp/ccfzpqLg.s:693    .text:00000000000002d8 .L0 
GAS LISTING /tmp/ccfzpqLg.s 			page 29


     /tmp/ccfzpqLg.s:694    .text:00000000000002dc .L0 
     /tmp/ccfzpqLg.s:697    .text:00000000000002e4 .L0 
     /tmp/ccfzpqLg.s:698    .text:00000000000002e4 .L0 
     /tmp/ccfzpqLg.s:700    .text:00000000000002e8 .L0 
     /tmp/ccfzpqLg.s:702    .text:00000000000002e8 .L0 
     /tmp/ccfzpqLg.s:703    .text:00000000000002e8 .L0 
     /tmp/ccfzpqLg.s:706    .text:00000000000002f0 .L0 
     /tmp/ccfzpqLg.s:707    .text:00000000000002f4 .L0 
     /tmp/ccfzpqLg.s:709    .text:00000000000002f8 .L0 
     /tmp/ccfzpqLg.s:710    .text:00000000000002f8 .L0 
     /tmp/ccfzpqLg.s:712    .text:00000000000002fc .L0 
     /tmp/ccfzpqLg.s:714    .text:0000000000000300 .L0 
     /tmp/ccfzpqLg.s:720    .text:0000000000000300 _ZN6Thread5sleepEm
     /tmp/ccfzpqLg.s:723    .text:0000000000000300 .L0 
     /tmp/ccfzpqLg.s:725    .text:0000000000000300 .L0 
     /tmp/ccfzpqLg.s:726    .text:0000000000000304 .L0 
     /tmp/ccfzpqLg.s:729    .text:000000000000030c .L0 
     /tmp/ccfzpqLg.s:730    .text:000000000000030c .L0 
     /tmp/ccfzpqLg.s:732    .text:0000000000000310 .L0 
     /tmp/ccfzpqLg.s:734    .text:0000000000000310 .L0 
     /tmp/ccfzpqLg.s:735    .text:0000000000000310 .L0 
     /tmp/ccfzpqLg.s:738    .text:0000000000000318 .L0 
     /tmp/ccfzpqLg.s:739    .text:000000000000031c .L0 
     /tmp/ccfzpqLg.s:741    .text:0000000000000320 .L0 
     /tmp/ccfzpqLg.s:742    .text:0000000000000320 .L0 
     /tmp/ccfzpqLg.s:744    .text:0000000000000324 .L0 
     /tmp/ccfzpqLg.s:746    .text:0000000000000328 .L0 
     /tmp/ccfzpqLg.s:752    .text:0000000000000328 _ZN9SemaphoreC2Ej
     /tmp/ccfzpqLg.s:755    .text:0000000000000328 .L0 
     /tmp/ccfzpqLg.s:757    .text:0000000000000328 .L0 
     /tmp/ccfzpqLg.s:758    .text:000000000000032c .L0 
     /tmp/ccfzpqLg.s:761    .text:0000000000000334 .L0 
     /tmp/ccfzpqLg.s:762    .text:0000000000000334 .L0 
     /tmp/ccfzpqLg.s:764    .text:0000000000000338 .L0 
     /tmp/ccfzpqLg.s:767    .text:0000000000000338 .L0 
     /tmp/ccfzpqLg.s:770    .text:0000000000000344 .L0 
     /tmp/ccfzpqLg.s:771    .text:0000000000000344 .L0 
     /tmp/ccfzpqLg.s:777    .text:0000000000000350 .L0 
     /tmp/ccfzpqLg.s:778    .text:0000000000000354 .L0 
     /tmp/ccfzpqLg.s:780    .text:0000000000000358 .L0 
     /tmp/ccfzpqLg.s:781    .text:0000000000000358 .L0 
     /tmp/ccfzpqLg.s:783    .text:000000000000035c .L0 
     /tmp/ccfzpqLg.s:785    .text:0000000000000360 .L0 
     /tmp/ccfzpqLg.s:752    .text:0000000000000328 _ZN9SemaphoreC1Ej
     /tmp/ccfzpqLg.s:793    .text:0000000000000360 _ZN9Semaphore4waitEv
     /tmp/ccfzpqLg.s:796    .text:0000000000000360 .L0 
     /tmp/ccfzpqLg.s:798    .text:0000000000000360 .L0 
     /tmp/ccfzpqLg.s:799    .text:0000000000000364 .L0 
     /tmp/ccfzpqLg.s:802    .text:000000000000036c .L0 
     /tmp/ccfzpqLg.s:803    .text:000000000000036c .L0 
     /tmp/ccfzpqLg.s:805    .text:0000000000000370 .L0 
     /tmp/ccfzpqLg.s:807    .text:0000000000000370 .L0 
     /tmp/ccfzpqLg.s:808    .text:0000000000000370 .L0 
     /tmp/ccfzpqLg.s:813    .text:000000000000037c .L0 
     /tmp/ccfzpqLg.s:814    .text:0000000000000380 .L0 
     /tmp/ccfzpqLg.s:816    .text:0000000000000384 .L0 
     /tmp/ccfzpqLg.s:817    .text:0000000000000384 .L0 
GAS LISTING /tmp/ccfzpqLg.s 			page 30


     /tmp/ccfzpqLg.s:819    .text:0000000000000388 .L0 
     /tmp/ccfzpqLg.s:821    .text:000000000000038c .L0 
     /tmp/ccfzpqLg.s:827    .text:000000000000038c _ZN9Semaphore6signalEv
     /tmp/ccfzpqLg.s:830    .text:000000000000038c .L0 
     /tmp/ccfzpqLg.s:832    .text:000000000000038c .L0 
     /tmp/ccfzpqLg.s:833    .text:0000000000000390 .L0 
     /tmp/ccfzpqLg.s:836    .text:0000000000000398 .L0 
     /tmp/ccfzpqLg.s:837    .text:0000000000000398 .L0 
     /tmp/ccfzpqLg.s:839    .text:000000000000039c .L0 
     /tmp/ccfzpqLg.s:841    .text:000000000000039c .L0 
     /tmp/ccfzpqLg.s:842    .text:000000000000039c .L0 
     /tmp/ccfzpqLg.s:847    .text:00000000000003a8 .L0 
     /tmp/ccfzpqLg.s:848    .text:00000000000003ac .L0 
     /tmp/ccfzpqLg.s:850    .text:00000000000003b0 .L0 
     /tmp/ccfzpqLg.s:851    .text:00000000000003b0 .L0 
     /tmp/ccfzpqLg.s:853    .text:00000000000003b4 .L0 
     /tmp/ccfzpqLg.s:855    .text:00000000000003b8 .L0 
     /tmp/ccfzpqLg.s:861    .text:00000000000003b8 _ZN14PeriodicThreadC2Em
     /tmp/ccfzpqLg.s:864    .text:00000000000003b8 .L0 
     /tmp/ccfzpqLg.s:866    .text:00000000000003b8 .L0 
     /tmp/ccfzpqLg.s:867    .text:00000000000003bc .L0 
     /tmp/ccfzpqLg.s:872    .text:00000000000003cc .L0 
     /tmp/ccfzpqLg.s:873    .text:00000000000003cc .L0 
     /tmp/ccfzpqLg.s:874    .text:00000000000003cc .L0 
     /tmp/ccfzpqLg.s:875    .text:00000000000003cc .L0 
     /tmp/ccfzpqLg.s:877    .text:00000000000003d0 .L0 
     /tmp/ccfzpqLg.s:882    .text:00000000000003d8 .L0 
     /tmp/ccfzpqLg.s:889    .text:00000000000003f4 .L0 
     /tmp/ccfzpqLg.s:890    .text:00000000000003f4 .L0 
     /tmp/ccfzpqLg.s:893    .text:00000000000003f8 .L0 
     /tmp/ccfzpqLg.s:894    .text:00000000000003fc .L0 
     /tmp/ccfzpqLg.s:896    .text:0000000000000400 .L0 
     /tmp/ccfzpqLg.s:897    .text:0000000000000400 .L0 
     /tmp/ccfzpqLg.s:899    .text:0000000000000404 .L0 
     /tmp/ccfzpqLg.s:902    .text:0000000000000408 .L0 
     /tmp/ccfzpqLg.s:905    .text:000000000000040c .L0 
     /tmp/ccfzpqLg.s:907    .text:0000000000000410 .L0 
     /tmp/ccfzpqLg.s:861    .text:00000000000003b8 _ZN14PeriodicThreadC1Em
     /tmp/ccfzpqLg.s:915    .text:0000000000000410 _ZN14PeriodicThread9terminateEv
     /tmp/ccfzpqLg.s:918    .text:0000000000000410 .L0 
     /tmp/ccfzpqLg.s:920    .text:0000000000000410 .L0 
     /tmp/ccfzpqLg.s:921    .text:0000000000000414 .L0 
     /tmp/ccfzpqLg.s:923    .text:0000000000000418 .L0 
     /tmp/ccfzpqLg.s:925    .text:000000000000041c .L0 
     /tmp/ccfzpqLg.s:927    .text:000000000000041c .L0 
     /tmp/ccfzpqLg.s:928    .text:000000000000041c .L0 
     /tmp/ccfzpqLg.s:930    .text:0000000000000420 .L0 
     /tmp/ccfzpqLg.s:931    .text:0000000000000424 .L0 
     /tmp/ccfzpqLg.s:932    .text:0000000000000424 .L0 
     /tmp/ccfzpqLg.s:934    .text:0000000000000428 .L0 
     /tmp/ccfzpqLg.s:936    .text:000000000000042c .L0 
     /tmp/ccfzpqLg.s:942    .text:000000000000042c _ZN7Console4getcEv
     /tmp/ccfzpqLg.s:945    .text:000000000000042c .L0 
     /tmp/ccfzpqLg.s:946    .text:000000000000042c .L0 
     /tmp/ccfzpqLg.s:947    .text:0000000000000430 .L0 
     /tmp/ccfzpqLg.s:950    .text:0000000000000438 .L0 
     /tmp/ccfzpqLg.s:951    .text:0000000000000438 .L0 
GAS LISTING /tmp/ccfzpqLg.s 			page 31


     /tmp/ccfzpqLg.s:953    .text:000000000000043c .L0 
     /tmp/ccfzpqLg.s:955    .text:000000000000043c .L0 
     /tmp/ccfzpqLg.s:956    .text:000000000000043c .L0 
     /tmp/ccfzpqLg.s:959    .text:0000000000000444 .L0 
     /tmp/ccfzpqLg.s:960    .text:0000000000000448 .L0 
     /tmp/ccfzpqLg.s:962    .text:000000000000044c .L0 
     /tmp/ccfzpqLg.s:963    .text:000000000000044c .L0 
     /tmp/ccfzpqLg.s:965    .text:0000000000000450 .L0 
     /tmp/ccfzpqLg.s:967    .text:0000000000000454 .L0 
     /tmp/ccfzpqLg.s:973    .text:0000000000000454 _ZN7Console4putcEc
     /tmp/ccfzpqLg.s:976    .text:0000000000000454 .L0 
     /tmp/ccfzpqLg.s:978    .text:0000000000000454 .L0 
     /tmp/ccfzpqLg.s:979    .text:0000000000000458 .L0 
     /tmp/ccfzpqLg.s:982    .text:0000000000000460 .L0 
     /tmp/ccfzpqLg.s:983    .text:0000000000000460 .L0 
     /tmp/ccfzpqLg.s:985    .text:0000000000000464 .L0 
     /tmp/ccfzpqLg.s:987    .text:0000000000000464 .L0 
     /tmp/ccfzpqLg.s:988    .text:0000000000000464 .L0 
     /tmp/ccfzpqLg.s:991    .text:000000000000046c .L0 
     /tmp/ccfzpqLg.s:992    .text:0000000000000470 .L0 
     /tmp/ccfzpqLg.s:994    .text:0000000000000474 .L0 
     /tmp/ccfzpqLg.s:995    .text:0000000000000474 .L0 
     /tmp/ccfzpqLg.s:997    .text:0000000000000478 .L0 
     /tmp/ccfzpqLg.s:999    .text:000000000000047c .L0 
     /tmp/ccfzpqLg.s:32     .text._ZN6Thread3runEv:0000000000000018 .L0 
     /tmp/ccfzpqLg.s:57     .text._ZN14PeriodicThread18periodicActivationEv:0000000000000018 .L0 
     /tmp/ccfzpqLg.s:1039   .text:000000000000047c .L0 
     /tmp/ccfzpqLg.s:221    .text._ZN14PeriodicThreadD2Ev:0000000000000034 .L0 
     /tmp/ccfzpqLg.s:517    .text._ZN14PeriodicThreadD0Ev:000000000000004c .L0 
     /tmp/ccfzpqLg.s:153    .text:0000000000000068 .L0 
     /tmp/ccfzpqLg.s:298    .text:00000000000000f4 .L0 
     /tmp/ccfzpqLg.s:534    .text:00000000000001f8 .L0 
     /tmp/ccfzpqLg.s:571    .text:0000000000000224 .L0 
     /tmp/ccfzpqLg.s:575    .text:0000000000000230 .L0 
     /tmp/ccfzpqLg.s:632    .text:0000000000000284 .L0 
     /tmp/ccfzpqLg.s:767    .text:0000000000000338 .L0 
     /tmp/ccfzpqLg.s:884    .text:00000000000003e0 .L0 
     /tmp/ccfzpqLg.s:262    .text:00000000000000d0 .L13
     /tmp/ccfzpqLg.s:242    .text:00000000000000a8 .L15
     /tmp/ccfzpqLg.s:203    .text._ZN14PeriodicThreadD2Ev:0000000000000010 .L0 
     /tmp/ccfzpqLg.s:494    .text._ZN14PeriodicThreadD0Ev:0000000000000018 .L0 
     /tmp/ccfzpqLg.s:2490   .debug_abbrev:0000000000000000 .Ldebug_abbrev0
     /tmp/ccfzpqLg.s:4209   .debug_str:0000000000000591 .LASF102
     /tmp/ccfzpqLg.s:4187   .debug_str:00000000000004de .LASF103
     /tmp/ccfzpqLg.s:4045   .debug_str:00000000000000aa .LASF104
     /tmp/ccfzpqLg.s:4003   .debug_ranges:0000000000000000 .Ldebug_ranges0
     /tmp/ccfzpqLg.s:4017   .debug_line:0000000000000000 .Ldebug_line0
     /tmp/ccfzpqLg.s:4143   .debug_str:0000000000000393 .LASF0
     /tmp/ccfzpqLg.s:4153   .debug_str:00000000000003d6 .LASF1
     /tmp/ccfzpqLg.s:4129   .debug_str:0000000000000333 .LASF2
     /tmp/ccfzpqLg.s:4111   .debug_str:00000000000002ce .LASF4
     /tmp/ccfzpqLg.s:4195   .debug_str:000000000000051c .LASF3
     /tmp/ccfzpqLg.s:4043   .debug_str:00000000000000a3 .LASF5
     /tmp/ccfzpqLg.s:4067   .debug_str:0000000000000182 .LASF6
     /tmp/ccfzpqLg.s:4157   .debug_str:00000000000003fc .LASF7
     /tmp/ccfzpqLg.s:4141   .debug_str:0000000000000380 .LASF8
     /tmp/ccfzpqLg.s:4221   .debug_str:00000000000006a0 .LASF9
GAS LISTING /tmp/ccfzpqLg.s 			page 32


     /tmp/ccfzpqLg.s:4093   .debug_str:0000000000000242 .LASF10
     /tmp/ccfzpqLg.s:4167   .debug_str:0000000000000438 .LASF11
     /tmp/ccfzpqLg.s:4211   .debug_str:0000000000000655 .LASF12
     /tmp/ccfzpqLg.s:4121   .debug_str:0000000000000300 .LASF13
     /tmp/ccfzpqLg.s:4023   .debug_str:0000000000000013 .LASF14
     /tmp/ccfzpqLg.s:4053   .debug_str:0000000000000102 .LASF15
     /tmp/ccfzpqLg.s:4191   .debug_str:00000000000004fd .LASF16
     /tmp/ccfzpqLg.s:4061   .debug_str:000000000000014f .LASF17
     /tmp/ccfzpqLg.s:4019   .debug_str:0000000000000000 .LASF18
     /tmp/ccfzpqLg.s:4073   .debug_str:00000000000001aa .LASF19
     /tmp/ccfzpqLg.s:4103   .debug_str:0000000000000294 .LASF20
     /tmp/ccfzpqLg.s:4105   .debug_str:000000000000029c .LASF105
     /tmp/ccfzpqLg.s:4025   .debug_str:0000000000000023 .LASF81
     /tmp/ccfzpqLg.s:4049   .debug_str:00000000000000dd .LASF106
     /tmp/ccfzpqLg.s:4131   .debug_str:0000000000000341 .LASF24
     /tmp/ccfzpqLg.s:4155   .debug_str:00000000000003e9 .LASF44
     /tmp/ccfzpqLg.s:4159   .debug_str:000000000000040f .LASF21
     /tmp/ccfzpqLg.s:4137   .debug_str:000000000000036d .LASF23
     /tmp/ccfzpqLg.s:4115   .debug_str:00000000000002dc .LASF22
     /tmp/ccfzpqLg.s:4201   .debug_str:0000000000000543 .LASF107
     /tmp/ccfzpqLg.s:4163   .debug_str:000000000000041b .LASF25
     /tmp/ccfzpqLg.s:4033   .debug_str:000000000000004f .LASF26
     /tmp/ccfzpqLg.s:4237   .debug_str:0000000000000716 .LASF27
     /tmp/ccfzpqLg.s:4027   .debug_str:0000000000000028 .LASF42
     /tmp/ccfzpqLg.s:4057   .debug_str:0000000000000117 .LASF108
     /tmp/ccfzpqLg.s:4039   .debug_str:000000000000007b .LASF31
     /tmp/ccfzpqLg.s:4231   .debug_str:00000000000006fd .LASF28
     /tmp/ccfzpqLg.s:4097   .debug_str:0000000000000263 .LASF109
     /tmp/ccfzpqLg.s:4113   .debug_str:00000000000002d5 .LASF29
     /tmp/ccfzpqLg.s:4035   .debug_str:0000000000000069 .LASF30
     /tmp/ccfzpqLg.s:4203   .debug_str:000000000000054b .LASF32
     /tmp/ccfzpqLg.s:4243   .debug_str:0000000000000756 .LASF110
     /tmp/ccfzpqLg.s:4107   .debug_str:00000000000002a4 .LASF111
     /tmp/ccfzpqLg.s:4217   .debug_str:000000000000068e .LASF33
     /tmp/ccfzpqLg.s:4133   .debug_str:0000000000000346 .LASF34
     /tmp/ccfzpqLg.s:4127   .debug_str:0000000000000326 .LASF50
     /tmp/ccfzpqLg.s:4171   .debug_str:0000000000000451 .LASF35
     /tmp/ccfzpqLg.s:4037   .debug_str:0000000000000073 .LASF36
     /tmp/ccfzpqLg.s:4149   .debug_str:00000000000003c1 .LASF54
     /tmp/ccfzpqLg.s:4151   .debug_str:00000000000003d0 .LASF56
     /tmp/ccfzpqLg.s:4091   .debug_str:000000000000022f .LASF58
     /tmp/ccfzpqLg.s:4197   .debug_str:000000000000052e .LASF37
     /tmp/ccfzpqLg.s:4101   .debug_str:0000000000000282 .LASF38
     /tmp/ccfzpqLg.s:4145   .debug_str:00000000000003a0 .LASF112
     /tmp/ccfzpqLg.s:4085   .debug_str:00000000000001ea .LASF113
     /tmp/ccfzpqLg.s:4247   .debug_str:000000000000076f .LASF39
     /tmp/ccfzpqLg.s:4095   .debug_str:0000000000000250 .LASF40
     /tmp/ccfzpqLg.s:4181   .debug_str:00000000000004ad .LASF41
     /tmp/ccfzpqLg.s:4079   .debug_str:00000000000001be .LASF114
     /tmp/ccfzpqLg.s:4233   .debug_str:0000000000000702 .LASF43
     /tmp/ccfzpqLg.s:4069   .debug_str:0000000000000189 .LASF45
     /tmp/ccfzpqLg.s:4245   .debug_str:0000000000000766 .LASF46
     /tmp/ccfzpqLg.s:4031   .debug_str:000000000000004a .LASF47
     /tmp/ccfzpqLg.s:4021   .debug_str:0000000000000009 .LASF48
     /tmp/ccfzpqLg.s:4119   .debug_str:00000000000002eb .LASF49
     /tmp/ccfzpqLg.s:4041   .debug_str:0000000000000093 .LASF51
     /tmp/ccfzpqLg.s:4215   .debug_str:000000000000067c .LASF52
GAS LISTING /tmp/ccfzpqLg.s 			page 33


     /tmp/ccfzpqLg.s:4185   .debug_str:00000000000004d3 .LASF53
     /tmp/ccfzpqLg.s:4051   .debug_str:00000000000000f0 .LASF55
     /tmp/ccfzpqLg.s:4077   .debug_str:00000000000001b9 .LASF57
     /tmp/ccfzpqLg.s:4241   .debug_str:0000000000000741 .LASF59
     /tmp/ccfzpqLg.s:4161   .debug_str:0000000000000414 .LASF60
     /tmp/ccfzpqLg.s:4183   .debug_str:00000000000004bc .LASF61
     /tmp/ccfzpqLg.s:4223   .debug_str:00000000000006b0 .LASF115
     /tmp/ccfzpqLg.s:4177   .debug_str:0000000000000493 .LASF62
     /tmp/ccfzpqLg.s:4169   .debug_str:0000000000000447 .LASF63
     /tmp/ccfzpqLg.s:4213   .debug_str:0000000000000664 .LASF64
     /tmp/ccfzpqLg.s:475    .text._ZN14PeriodicThreadD0Ev:0000000000000000 .LFB39
     /tmp/ccfzpqLg.s:515    .text._ZN14PeriodicThreadD0Ev:000000000000004c .LFE39
     /tmp/ccfzpqLg.s:3603   .debug_loc:0000000000000000 .LLST12
     /tmp/ccfzpqLg.s:491    .text._ZN14PeriodicThreadD0Ev:0000000000000018 .LBB8
     /tmp/ccfzpqLg.s:499    .text._ZN14PeriodicThreadD0Ev:000000000000002c .LBE8
     /tmp/ccfzpqLg.s:3621   .debug_loc:000000000000004c .LLST13
     /tmp/ccfzpqLg.s:497    .text._ZN14PeriodicThreadD0Ev:000000000000002c .LVL36
     /tmp/ccfzpqLg.s:502    .text._ZN14PeriodicThreadD0Ev:0000000000000038 .LVL37
     /tmp/ccfzpqLg.s:4147   .debug_str:00000000000003a9 .LASF65
     /tmp/ccfzpqLg.s:189    .text._ZN14PeriodicThreadD2Ev:0000000000000000 .LFB37
     /tmp/ccfzpqLg.s:217    .text._ZN14PeriodicThreadD2Ev:0000000000000034 .LFE37
     /tmp/ccfzpqLg.s:3632   .debug_loc:0000000000000082 .LLST5
     /tmp/ccfzpqLg.s:206    .text._ZN14PeriodicThreadD2Ev:0000000000000024 .LVL13
     /tmp/ccfzpqLg.s:974    .text:0000000000000454 .LFB35
     /tmp/ccfzpqLg.s:1000   .text:000000000000047c .LFE35
     /tmp/ccfzpqLg.s:3646   .debug_loc:00000000000000bb .LLST24
     /tmp/ccfzpqLg.s:989    .text:000000000000046c .LVL70
     /tmp/ccfzpqLg.s:943    .text:000000000000042c .LFB34
     /tmp/ccfzpqLg.s:968    .text:0000000000000454 .LFE34
     /tmp/ccfzpqLg.s:957    .text:0000000000000444 .LVL68
     /tmp/ccfzpqLg.s:916    .text:0000000000000410 .LFB33
     /tmp/ccfzpqLg.s:937    .text:000000000000042c .LFE33
     /tmp/ccfzpqLg.s:226    .text:0000000000000090 .LFB32
     /tmp/ccfzpqLg.s:276    .text:00000000000000e4 .LFE32
     /tmp/ccfzpqLg.s:3660   .debug_loc:00000000000000f4 .LLST6
     /tmp/ccfzpqLg.s:254    .text:00000000000000c0 .LVL16
     /tmp/ccfzpqLg.s:259    .text:00000000000000cc .LVL17
     /tmp/ccfzpqLg.s:4087   .debug_str:0000000000000200 .LASF66
     /tmp/ccfzpqLg.s:862    .text:00000000000003b8 .LFB30
     /tmp/ccfzpqLg.s:908    .text:0000000000000410 .LFE30
     /tmp/ccfzpqLg.s:3678   .debug_loc:0000000000000140 .LLST22
     /tmp/ccfzpqLg.s:3696   .debug_loc:000000000000018c .LLST23
     /tmp/ccfzpqLg.s:883    .text:00000000000003e0 .LVL64
     /tmp/ccfzpqLg.s:828    .text:000000000000038c .LFB28
     /tmp/ccfzpqLg.s:856    .text:00000000000003b8 .LFE28
     /tmp/ccfzpqLg.s:3715   .debug_loc:00000000000001d9 .LLST21
     /tmp/ccfzpqLg.s:845    .text:00000000000003a8 .LVL62
     /tmp/ccfzpqLg.s:794    .text:0000000000000360 .LFB27
     /tmp/ccfzpqLg.s:822    .text:000000000000038c .LFE27
     /tmp/ccfzpqLg.s:3729   .debug_loc:0000000000000212 .LLST20
     /tmp/ccfzpqLg.s:811    .text:000000000000037c .LVL59
     /tmp/ccfzpqLg.s:4083   .debug_str:00000000000001d8 .LASF67
     /tmp/ccfzpqLg.s:435    .text:00000000000001ac .LFB26
     /tmp/ccfzpqLg.s:468    .text:00000000000001ec .LFE26
     /tmp/ccfzpqLg.s:3743   .debug_loc:000000000000024b .LLST11
     /tmp/ccfzpqLg.s:452    .text:00000000000001cc .LVL31
     /tmp/ccfzpqLg.s:455    .text:00000000000001d8 .LVL32
GAS LISTING /tmp/ccfzpqLg.s 			page 34


     /tmp/ccfzpqLg.s:4109   .debug_str:00000000000002bc .LASF68
     /tmp/ccfzpqLg.s:282    .text:00000000000000e4 .LFB24
     /tmp/ccfzpqLg.s:317    .text:000000000000011c .LFE24
     /tmp/ccfzpqLg.s:3761   .debug_loc:0000000000000297 .LLST7
     /tmp/ccfzpqLg.s:305    .text:000000000000010c .LVL21
     /tmp/ccfzpqLg.s:4099   .debug_str:000000000000027d .LASF69
     /tmp/ccfzpqLg.s:4227   .debug_str:00000000000006ca .LASF70
     /tmp/ccfzpqLg.s:753    .text:0000000000000328 .LFB21
     /tmp/ccfzpqLg.s:786    .text:0000000000000360 .LFE21
     /tmp/ccfzpqLg.s:3775   .debug_loc:00000000000002d0 .LLST18
     /tmp/ccfzpqLg.s:3795   .debug_loc:000000000000031e .LLST19
     /tmp/ccfzpqLg.s:774    .text:0000000000000350 .LVL56
     /tmp/ccfzpqLg.s:100    .text:000000000000002c .LFB19
     /tmp/ccfzpqLg.s:131    .text:0000000000000058 .LFE19
     /tmp/ccfzpqLg.s:3809   .debug_loc:0000000000000357 .LLST2
     /tmp/ccfzpqLg.s:3823   .debug_loc:0000000000000390 .LLST3
     /tmp/ccfzpqLg.s:120    .text:0000000000000048 .LVL8
     /tmp/ccfzpqLg.s:721    .text:0000000000000300 .LFB18
     /tmp/ccfzpqLg.s:747    .text:0000000000000328 .LFE18
     /tmp/ccfzpqLg.s:3837   .debug_loc:00000000000003c9 .LLST17
     /tmp/ccfzpqLg.s:736    .text:0000000000000318 .LVL53
     /tmp/ccfzpqLg.s:690    .text:00000000000002d8 .LFB17
     /tmp/ccfzpqLg.s:715    .text:0000000000000300 .LFE17
     /tmp/ccfzpqLg.s:704    .text:00000000000002f0 .LVL51
     /tmp/ccfzpqLg.s:656    .text:00000000000002ac .LFB16
     /tmp/ccfzpqLg.s:684    .text:00000000000002d8 .LFE16
     /tmp/ccfzpqLg.s:3851   .debug_loc:0000000000000402 .LLST16
     /tmp/ccfzpqLg.s:673    .text:00000000000002c8 .LVL50
     /tmp/ccfzpqLg.s:597    .text:000000000000024c .LFB15
     /tmp/ccfzpqLg.s:650    .text:00000000000002ac .LFE15
     /tmp/ccfzpqLg.s:3865   .debug_loc:000000000000043b .LLST14
     /tmp/ccfzpqLg.s:3883   .debug_loc:0000000000000487 .LLST15
     /tmp/ccfzpqLg.s:617    .text:0000000000000270 .LVL43
     /tmp/ccfzpqLg.s:636    .text:0000000000000298 .LVL46
     /tmp/ccfzpqLg.s:61     .text:0000000000000000 .LFB14
     /tmp/ccfzpqLg.s:94     .text:000000000000002c .LFE14
     /tmp/ccfzpqLg.s:3894   .debug_loc:00000000000004bd .LLST0
     /tmp/ccfzpqLg.s:3908   .debug_loc:00000000000004f6 .LLST1
     /tmp/ccfzpqLg.s:4029   .debug_str:000000000000003b .LASF71
     /tmp/ccfzpqLg.s:396    .text:000000000000016c .LFB13
     /tmp/ccfzpqLg.s:429    .text:00000000000001ac .LFE13
     /tmp/ccfzpqLg.s:3922   .debug_loc:000000000000052f .LLST10
     /tmp/ccfzpqLg.s:413    .text:000000000000018c .LVL27
     /tmp/ccfzpqLg.s:416    .text:0000000000000198 .LVL28
     /tmp/ccfzpqLg.s:4207   .debug_str:0000000000000582 .LASF72
     /tmp/ccfzpqLg.s:137    .text:0000000000000058 .LFB11
     /tmp/ccfzpqLg.s:172    .text:0000000000000090 .LFE11
     /tmp/ccfzpqLg.s:3940   .debug_loc:000000000000057b .LLST4
     /tmp/ccfzpqLg.s:160    .text:0000000000000080 .LVL11
     /tmp/ccfzpqLg.s:4065   .debug_str:0000000000000173 .LASF73
     /tmp/ccfzpqLg.s:559    .text:0000000000000218 .LFB8
     /tmp/ccfzpqLg.s:589    .text:000000000000024c .LFE8
     /tmp/ccfzpqLg.s:4089   .debug_str:0000000000000218 .LASF74
     /tmp/ccfzpqLg.s:522    .text:00000000000001ec .LFB5
     /tmp/ccfzpqLg.s:551    .text:0000000000000218 .LFE5
     /tmp/ccfzpqLg.s:4199   .debug_str:0000000000000533 .LASF75
     /tmp/ccfzpqLg.s:4249   .debug_str:0000000000000775 .LASF76
GAS LISTING /tmp/ccfzpqLg.s 			page 35


     /tmp/ccfzpqLg.s:364    .text:0000000000000144 .LFB3
     /tmp/ccfzpqLg.s:390    .text:000000000000016c .LFE3
     /tmp/ccfzpqLg.s:3954   .debug_loc:00000000000005b4 .LLST9
     /tmp/ccfzpqLg.s:379    .text:000000000000015c .LVL25
     /tmp/ccfzpqLg.s:4235   .debug_str:0000000000000709 .LASF77
     /tmp/ccfzpqLg.s:4125   .debug_str:0000000000000320 .LASF78
     /tmp/ccfzpqLg.s:332    .text:000000000000011c .LFB2
     /tmp/ccfzpqLg.s:358    .text:0000000000000144 .LFE2
     /tmp/ccfzpqLg.s:3968   .debug_loc:00000000000005ed .LLST8
     /tmp/ccfzpqLg.s:347    .text:0000000000000134 .LVL23
     /tmp/ccfzpqLg.s:37     .text._ZN14PeriodicThread18periodicActivationEv:0000000000000000 .LFB1
     /tmp/ccfzpqLg.s:55     .text._ZN14PeriodicThread18periodicActivationEv:0000000000000018 .LFE1
     /tmp/ccfzpqLg.s:11     .text._ZN6Thread3runEv:0000000000000000 .LFB0
     /tmp/ccfzpqLg.s:30     .text._ZN6Thread3runEv:0000000000000018 .LFE0
     /tmp/ccfzpqLg.s:4081   .debug_str:00000000000001cf .LASF79
     /tmp/ccfzpqLg.s:4193   .debug_str:0000000000000513 .LASF80
     /tmp/ccfzpqLg.s:4239   .debug_str:0000000000000731 .LASF82
     /tmp/ccfzpqLg.s:4189   .debug_str:00000000000004f2 .LASF83
     /tmp/ccfzpqLg.s:4047   .debug_str:00000000000000c5 .LASF84
     /tmp/ccfzpqLg.s:4219   .debug_str:0000000000000695 .LASF85
     /tmp/ccfzpqLg.s:4179   .debug_str:0000000000000498 .LASF86
     /tmp/ccfzpqLg.s:4055   .debug_str:000000000000010e .LASF87
     /tmp/ccfzpqLg.s:4175   .debug_str:000000000000047d .LASF88
     /tmp/ccfzpqLg.s:4117   .debug_str:00000000000002e1 .LASF89
     /tmp/ccfzpqLg.s:4205   .debug_str:000000000000056b .LASF90
     /tmp/ccfzpqLg.s:4075   .debug_str:00000000000001b0 .LASF91
     /tmp/ccfzpqLg.s:4173   .debug_str:0000000000000468 .LASF92
     /tmp/ccfzpqLg.s:4123   .debug_str:0000000000000310 .LASF93
     /tmp/ccfzpqLg.s:4135   .debug_str:0000000000000358 .LASF94
     /tmp/ccfzpqLg.s:4071   .debug_str:000000000000019e .LASF95
     /tmp/ccfzpqLg.s:4229   .debug_str:00000000000006dc .LASF96
     /tmp/ccfzpqLg.s:4063   .debug_str:0000000000000165 .LASF97
     /tmp/ccfzpqLg.s:4165   .debug_str:000000000000042a .LASF98
     /tmp/ccfzpqLg.s:4139   .debug_str:0000000000000377 .LASF99
     /tmp/ccfzpqLg.s:4059   .debug_str:0000000000000141 .LASF100
     /tmp/ccfzpqLg.s:4225   .debug_str:00000000000006c0 .LASF101
     /tmp/ccfzpqLg.s:478    .text._ZN14PeriodicThreadD0Ev:0000000000000000 .LVL34
     /tmp/ccfzpqLg.s:510    .text._ZN14PeriodicThreadD0Ev:0000000000000044 .LVL38
     /tmp/ccfzpqLg.s:490    .text._ZN14PeriodicThreadD0Ev:0000000000000018 .LVL35
     /tmp/ccfzpqLg.s:192    .text._ZN14PeriodicThreadD2Ev:0000000000000000 .LVL12
     /tmp/ccfzpqLg.s:977    .text:0000000000000454 .LVL69
     /tmp/ccfzpqLg.s:229    .text:0000000000000090 .LVL14
     /tmp/ccfzpqLg.s:241    .text:00000000000000a8 .LVL15
     /tmp/ccfzpqLg.s:271    .text:00000000000000dc .LVL18
     /tmp/ccfzpqLg.s:865    .text:00000000000003b8 .LVL63
     /tmp/ccfzpqLg.s:900    .text:0000000000000404 .LVL65
     /tmp/ccfzpqLg.s:903    .text:0000000000000408 .LVL66
     /tmp/ccfzpqLg.s:831    .text:000000000000038c .LVL60
     /tmp/ccfzpqLg.s:843    .text:00000000000003a0 .LVL61
     /tmp/ccfzpqLg.s:797    .text:0000000000000360 .LVL57
     /tmp/ccfzpqLg.s:809    .text:0000000000000374 .LVL58
     /tmp/ccfzpqLg.s:438    .text:00000000000001ac .LVL30
     /tmp/ccfzpqLg.s:463    .text:00000000000001e4 .LVL33
     /tmp/ccfzpqLg.s:287    .text:00000000000000e4 .LVL19
     /tmp/ccfzpqLg.s:303    .text:0000000000000104 .LVL20
     /tmp/ccfzpqLg.s:756    .text:0000000000000328 .LVL54
     /tmp/ccfzpqLg.s:772    .text:0000000000000348 .LVL55
GAS LISTING /tmp/ccfzpqLg.s 			page 36


     /tmp/ccfzpqLg.s:103    .text:000000000000002c .LVL6
     /tmp/ccfzpqLg.s:113    .text:000000000000003c .LVL7
     /tmp/ccfzpqLg.s:724    .text:0000000000000300 .LVL52
     /tmp/ccfzpqLg.s:659    .text:00000000000002ac .LVL48
     /tmp/ccfzpqLg.s:671    .text:00000000000002c0 .LVL49
     /tmp/ccfzpqLg.s:600    .text:000000000000024c .LVL41
     /tmp/ccfzpqLg.s:615    .text:0000000000000268 .LVL42
     /tmp/ccfzpqLg.s:645    .text:00000000000002a4 .LVL47
     /tmp/ccfzpqLg.s:619    .text:0000000000000274 .LVL44
     /tmp/ccfzpqLg.s:634    .text:0000000000000290 .LVL45
     /tmp/ccfzpqLg.s:65     .text:0000000000000000 .LVL2
     /tmp/ccfzpqLg.s:81     .text:0000000000000018 .LVL4
     /tmp/ccfzpqLg.s:75     .text:0000000000000010 .LVL3
     /tmp/ccfzpqLg.s:399    .text:000000000000016c .LVL26
     /tmp/ccfzpqLg.s:424    .text:00000000000001a4 .LVL29
     /tmp/ccfzpqLg.s:142    .text:0000000000000058 .LVL9
     /tmp/ccfzpqLg.s:158    .text:0000000000000078 .LVL10
     /tmp/ccfzpqLg.s:367    .text:0000000000000144 .LVL24
     /tmp/ccfzpqLg.s:335    .text:000000000000011c .LVL22
     /tmp/ccfzpqLg.s:1040   .debug_info:0000000000000000 .Ldebug_info0
     /tmp/ccfzpqLg.s:5      .text:0000000000000000 .Ltext0
     /tmp/ccfzpqLg.s:1036   .text:000000000000047c .Letext0
     /tmp/ccfzpqLg.s:175    .gcc_except_table:0000000000000000 .LLSDA11
     /tmp/ccfzpqLg.s:319    .gcc_except_table:0000000000000004 .LLSDA24
                           .group:0000000000000000 _ZN14PeriodicThreadD5Ev

UNDEFINED SYMBOLS
_Z8mem_freePv
__gxx_personality_v0
_Z10time_sleepm
_Z9sem_closeP7Semafor
_Z9mem_allocm
_Z13thread_createPP3NitPFvPvES2_
_Z11thread_joinP3Nit
_Z15thread_dispatchv
_Z8sem_openPP7Semaforj
_Z8sem_waitP7Semafor
_Z10sem_signalP7Semafor
_Z4getcv
_Z4putcc
