GAS LISTING /tmp/cceI7Fuw.s 			page 1


   1              		.file	"syscall_c.cpp"
   2              		.option pic
   3              		.option norelax
   4              		.text
   5              	.Ltext0:
   6              		.align	2
   7              		.globl	_Z9mem_allocm
   9              	_Z9mem_allocm:
  10              	.LFB0:
  11              		.file 1 "src/syscall_c.cpp"
   1:src/syscall_c.cpp **** //
   2:src/syscall_c.cpp **** // Created by os on 8/10/22.
   3:src/syscall_c.cpp **** //
   4:src/syscall_c.cpp **** 
   5:src/syscall_c.cpp **** #include "../h/syscall_c.h"
   6:src/syscall_c.cpp **** #include "../test/printing.hpp"
   7:src/syscall_c.cpp **** 
   8:src/syscall_c.cpp **** void* mem_alloc(size_t size){
  12              		.loc 1 8 29
  13              		.cfi_startproc
  14              	.LVL0:
  15 0000 130101FF 		addi	sp,sp,-16
  16              		.cfi_def_cfa_offset 16
  17 0004 23348100 		sd	s0,8(sp)
  18              		.cfi_offset 8, -8
  19 0008 13040101 		addi	s0,sp,16
  20              		.cfi_def_cfa 8, 0
   9:src/syscall_c.cpp **** 
  10:src/syscall_c.cpp ****     __asm__ volatile("mv a1, %0" : : "r" (size)); // u a1 stavljamo size
  21              		.loc 1 10 5
  22              		.loc 1 10 49 is_stmt 0
  23              	#APP
  24              	# 10 "src/syscall_c.cpp" 1
  11              	    __asm__ volatile("mv a0, %0" : : "r" (0x01)); // u a0 stavljamo 0x01
  25              		mv a1, a0
  26              	# 0 "" 2
  27              		.loc 1 11 5 is_stmt 1
  28              		.loc 1 11 49 is_stmt 0
  29              	#NO_APP
  30 0010 93071000 		li	a5,1
  31              	#APP
  32              	# 11 "src/syscall_c.cpp" 1
  12              	    __asm__ volatile("ecall");
  33              		mv a0, a5
  34              	# 0 "" 2
  35              		.loc 1 12 5 is_stmt 1
  36              		.loc 1 12 30 is_stmt 0
  37              	# 12 "src/syscall_c.cpp" 1
  13              	
  14:src/syscall_c.cpp ****     void* rez;
  38              		ecall
  39              	# 0 "" 2
  40              		.loc 1 14 5 is_stmt 1
  15:src/syscall_c.cpp ****     __asm__ volatile("mv %0, a0" : "=r" (rez));
  41              		.loc 1 15 5
  42              		.loc 1 15 47 is_stmt 0
  43              	# 15 "src/syscall_c.cpp" 1
GAS LISTING /tmp/cceI7Fuw.s 			page 2


  16              	    return rez;
  44              		mv a0, a0
  45              	# 0 "" 2
  46              	.LVL1:
  47              		.loc 1 16 5 is_stmt 1
  17:src/syscall_c.cpp **** }
  48              		.loc 1 17 1 is_stmt 0
  49              	#NO_APP
  50 0020 03348100 		ld	s0,8(sp)
  51              		.cfi_restore 8
  52              		.cfi_def_cfa 2, 16
  53 0024 13010101 		addi	sp,sp,16
  54              		.cfi_def_cfa_offset 0
  55 0028 67800000 		jr	ra
  56              		.cfi_endproc
  57              	.LFE0:
  59              		.align	2
  60              		.globl	_Z8mem_freePv
  62              	_Z8mem_freePv:
  63              	.LFB1:
  18:src/syscall_c.cpp **** int mem_free(void* add){
  64              		.loc 1 18 24 is_stmt 1
  65              		.cfi_startproc
  66              	.LVL2:
  67 002c 130101FF 		addi	sp,sp,-16
  68              		.cfi_def_cfa_offset 16
  69 0030 23348100 		sd	s0,8(sp)
  70              		.cfi_offset 8, -8
  71 0034 13040101 		addi	s0,sp,16
  72              		.cfi_def_cfa 8, 0
  19:src/syscall_c.cpp ****     __asm__ volatile("mv a1, %0" : : "r" (add)); // u a1 stavljamo add
  73              		.loc 1 19 5
  74              		.loc 1 19 48 is_stmt 0
  75              	#APP
  76              	# 19 "src/syscall_c.cpp" 1
  20              	    __asm__ volatile("mv a0, %0" : : "r" (0x02)); // u a0 stavljamo 0x01
  77              		mv a1, a0
  78              	# 0 "" 2
  79              		.loc 1 20 5 is_stmt 1
  80              		.loc 1 20 49 is_stmt 0
  81              	#NO_APP
  82 003c 93072000 		li	a5,2
  83              	#APP
  84              	# 20 "src/syscall_c.cpp" 1
  21              	    __asm__ volatile("ecall");
  85              		mv a0, a5
  86              	# 0 "" 2
  87              		.loc 1 21 5 is_stmt 1
  88              		.loc 1 21 30 is_stmt 0
  89              	# 21 "src/syscall_c.cpp" 1
  22              	
  23:src/syscall_c.cpp ****     int rez;
  90              		ecall
  91              	# 0 "" 2
  92              		.loc 1 23 5 is_stmt 1
  24:src/syscall_c.cpp ****     __asm__ volatile("mv %0, a0" : "=r" (rez));
  93              		.loc 1 24 5
GAS LISTING /tmp/cceI7Fuw.s 			page 3


  94              		.loc 1 24 47 is_stmt 0
  95              	# 24 "src/syscall_c.cpp" 1
  25              	    return rez;
  96              		mv a0, a0
  97              	# 0 "" 2
  98              	.LVL3:
  99              		.loc 1 25 5 is_stmt 1
  26:src/syscall_c.cpp **** }
 100              		.loc 1 26 1 is_stmt 0
 101              	#NO_APP
 102 004c 1B050500 		sext.w	a0,a0
 103 0050 03348100 		ld	s0,8(sp)
 104              		.cfi_restore 8
 105              		.cfi_def_cfa 2, 16
 106 0054 13010101 		addi	sp,sp,16
 107              		.cfi_def_cfa_offset 0
 108 0058 67800000 		jr	ra
 109              		.cfi_endproc
 110              	.LFE1:
 112              		.align	2
 113              		.globl	_Z13thread_createPP3NitPFvPvES2_
 115              	_Z13thread_createPP3NitPFvPvES2_:
 116              	.LFB2:
  27:src/syscall_c.cpp **** 
  28:src/syscall_c.cpp **** int thread_create(thread_t* handle, void(*start_routine)(void*),void* arg){
 117              		.loc 1 28 75 is_stmt 1
 118              		.cfi_startproc
 119              	.LVL4:
 120 005c 130101FF 		addi	sp,sp,-16
 121              		.cfi_def_cfa_offset 16
 122 0060 23348100 		sd	s0,8(sp)
 123              		.cfi_offset 8, -8
 124 0064 13040101 		addi	s0,sp,16
 125              		.cfi_def_cfa 8, 0
  29:src/syscall_c.cpp ****     __asm__ volatile("mv a3, %0" : : "r" (arg));
 126              		.loc 1 29 5
 127              		.loc 1 29 48 is_stmt 0
 128              	#APP
 129              	# 29 "src/syscall_c.cpp" 1
  30              	    __asm__ volatile("mv a2, %0" : : "r" (start_routine));
 130              		mv a3, a2
 131              	# 0 "" 2
 132              		.loc 1 30 5 is_stmt 1
 133              		.loc 1 30 58 is_stmt 0
 134              	# 30 "src/syscall_c.cpp" 1
  31              	    __asm__ volatile("mv a1, %0" : : "r" (handle));
 135              		mv a2, a1
 136              	# 0 "" 2
 137              		.loc 1 31 5 is_stmt 1
 138              		.loc 1 31 51 is_stmt 0
 139              	# 31 "src/syscall_c.cpp" 1
  32              	    __asm__ volatile("mv a0, %0" : : "r" (0x11));
 140              		mv a1, a0
 141              	# 0 "" 2
 142              		.loc 1 32 5 is_stmt 1
 143              		.loc 1 32 49 is_stmt 0
 144              	#NO_APP
GAS LISTING /tmp/cceI7Fuw.s 			page 4


 145 0074 93071001 		li	a5,17
 146              	#APP
 147              	# 32 "src/syscall_c.cpp" 1
  33              	
  34:src/syscall_c.cpp ****     __asm__ volatile("ecall");
 148              		mv a0, a5
 149              	# 0 "" 2
 150              		.loc 1 34 5 is_stmt 1
 151              		.loc 1 34 30 is_stmt 0
 152              	# 34 "src/syscall_c.cpp" 1
  35              	
  36:src/syscall_c.cpp ****     int rez;
 153              		ecall
 154              	# 0 "" 2
 155              		.loc 1 36 5 is_stmt 1
  37:src/syscall_c.cpp ****     __asm__ volatile("mv %0, a0" : "=r" (rez));
 156              		.loc 1 37 5
 157              		.loc 1 37 47 is_stmt 0
 158              	# 37 "src/syscall_c.cpp" 1
  38              	    return rez;
 159              		mv a0, a0
 160              	# 0 "" 2
 161              	.LVL5:
 162              		.loc 1 38 5 is_stmt 1
  39:src/syscall_c.cpp **** }
 163              		.loc 1 39 1 is_stmt 0
 164              	#NO_APP
 165 0084 1B050500 		sext.w	a0,a0
 166 0088 03348100 		ld	s0,8(sp)
 167              		.cfi_restore 8
 168              		.cfi_def_cfa 2, 16
 169 008c 13010101 		addi	sp,sp,16
 170              		.cfi_def_cfa_offset 0
 171 0090 67800000 		jr	ra
 172              		.cfi_endproc
 173              	.LFE2:
 175              		.align	2
 176              		.globl	_Z11thread_exitv
 178              	_Z11thread_exitv:
 179              	.LFB3:
  40:src/syscall_c.cpp **** int thread_exit(){
 180              		.loc 1 40 18 is_stmt 1
 181              		.cfi_startproc
 182 0094 130101FF 		addi	sp,sp,-16
 183              		.cfi_def_cfa_offset 16
 184 0098 23348100 		sd	s0,8(sp)
 185              		.cfi_offset 8, -8
 186 009c 13040101 		addi	s0,sp,16
 187              		.cfi_def_cfa 8, 0
  41:src/syscall_c.cpp ****     __asm__ volatile("mv a0, %0" : : "r" (0x12));
 188              		.loc 1 41 5
 189              		.loc 1 41 49 is_stmt 0
 190 00a0 93072001 		li	a5,18
 191              	#APP
 192              	# 41 "src/syscall_c.cpp" 1
  42              	    __asm__ volatile("ecall");
 193              		mv a0, a5
GAS LISTING /tmp/cceI7Fuw.s 			page 5


 194              	# 0 "" 2
 195              		.loc 1 42 5 is_stmt 1
 196              		.loc 1 42 30 is_stmt 0
 197              	# 42 "src/syscall_c.cpp" 1
  43              	    return 0;
 198              		ecall
 199              	# 0 "" 2
 200              		.loc 1 43 5 is_stmt 1
  44:src/syscall_c.cpp **** }
 201              		.loc 1 44 1 is_stmt 0
 202              	#NO_APP
 203 00ac 13050000 		li	a0,0
 204 00b0 03348100 		ld	s0,8(sp)
 205              		.cfi_restore 8
 206              		.cfi_def_cfa 2, 16
 207 00b4 13010101 		addi	sp,sp,16
 208              		.cfi_def_cfa_offset 0
 209 00b8 67800000 		jr	ra
 210              		.cfi_endproc
 211              	.LFE3:
 213              		.align	2
 214              		.globl	_Z15thread_dispatchv
 216              	_Z15thread_dispatchv:
 217              	.LFB4:
  45:src/syscall_c.cpp **** void thread_dispatch(){
 218              		.loc 1 45 23 is_stmt 1
 219              		.cfi_startproc
 220 00bc 130101FF 		addi	sp,sp,-16
 221              		.cfi_def_cfa_offset 16
 222 00c0 23348100 		sd	s0,8(sp)
 223              		.cfi_offset 8, -8
 224 00c4 13040101 		addi	s0,sp,16
 225              		.cfi_def_cfa 8, 0
  46:src/syscall_c.cpp ****     __asm__ volatile("mv a0, %0" : : "r" (0x13));
 226              		.loc 1 46 5
 227              		.loc 1 46 49 is_stmt 0
 228 00c8 93073001 		li	a5,19
 229              	#APP
 230              	# 46 "src/syscall_c.cpp" 1
  47              	    __asm__ volatile("ecall");
 231              		mv a0, a5
 232              	# 0 "" 2
 233              		.loc 1 47 5 is_stmt 1
 234              		.loc 1 47 30 is_stmt 0
 235              	# 47 "src/syscall_c.cpp" 1
  48              	}
 236              		ecall
 237              	# 0 "" 2
 238              		.loc 1 48 1
 239              	#NO_APP
 240 00d4 03348100 		ld	s0,8(sp)
 241              		.cfi_restore 8
 242              		.cfi_def_cfa 2, 16
 243 00d8 13010101 		addi	sp,sp,16
 244              		.cfi_def_cfa_offset 0
 245 00dc 67800000 		jr	ra
 246              		.cfi_endproc
GAS LISTING /tmp/cceI7Fuw.s 			page 6


 247              	.LFE4:
 249              		.align	2
 250              		.globl	_Z11thread_joinP3Nit
 252              	_Z11thread_joinP3Nit:
 253              	.LFB5:
  49:src/syscall_c.cpp **** void thread_join(Nit* thread){
 254              		.loc 1 49 30 is_stmt 1
 255              		.cfi_startproc
 256              	.LVL6:
 257 00e0 130101FF 		addi	sp,sp,-16
 258              		.cfi_def_cfa_offset 16
 259 00e4 23348100 		sd	s0,8(sp)
 260              		.cfi_offset 8, -8
 261 00e8 13040101 		addi	s0,sp,16
 262              		.cfi_def_cfa 8, 0
  50:src/syscall_c.cpp ****     __asm__ volatile("mv a1, %0" : : "r" (thread));
 263              		.loc 1 50 5
 264              		.loc 1 50 51 is_stmt 0
 265              	#APP
 266              	# 50 "src/syscall_c.cpp" 1
  51              	    __asm__ volatile("mv a0, %0" : : "r" (0x14));
 267              		mv a1, a0
 268              	# 0 "" 2
 269              		.loc 1 51 5 is_stmt 1
 270              		.loc 1 51 49 is_stmt 0
 271              	#NO_APP
 272 00f0 93074001 		li	a5,20
 273              	#APP
 274              	# 51 "src/syscall_c.cpp" 1
  52              	    __asm__ volatile("ecall");
 275              		mv a0, a5
 276              	# 0 "" 2
 277              		.loc 1 52 5 is_stmt 1
 278              		.loc 1 52 30 is_stmt 0
 279              	# 52 "src/syscall_c.cpp" 1
  53              	}
 280              		ecall
 281              	# 0 "" 2
 282              		.loc 1 53 1
 283              	#NO_APP
 284 00fc 03348100 		ld	s0,8(sp)
 285              		.cfi_restore 8
 286              		.cfi_def_cfa 2, 16
 287 0100 13010101 		addi	sp,sp,16
 288              		.cfi_def_cfa_offset 0
 289 0104 67800000 		jr	ra
 290              		.cfi_endproc
 291              	.LFE5:
 293              		.align	2
 294              		.globl	_Z8sem_openPP7Semaforj
 296              	_Z8sem_openPP7Semaforj:
 297              	.LFB6:
  54:src/syscall_c.cpp **** 
  55:src/syscall_c.cpp **** int sem_open(sem_t* handle, unsigned init){
 298              		.loc 1 55 43 is_stmt 1
 299              		.cfi_startproc
 300              	.LVL7:
GAS LISTING /tmp/cceI7Fuw.s 			page 7


 301 0108 130101FF 		addi	sp,sp,-16
 302              		.cfi_def_cfa_offset 16
 303 010c 23348100 		sd	s0,8(sp)
 304              		.cfi_offset 8, -8
 305 0110 13040101 		addi	s0,sp,16
 306              		.cfi_def_cfa 8, 0
  56:src/syscall_c.cpp ****     __asm__ volatile("mv a2, %0" : : "r" (init));
 307              		.loc 1 56 5
 308              		.loc 1 56 49 is_stmt 0
 309              	#APP
 310              	# 56 "src/syscall_c.cpp" 1
  57              	    __asm__ volatile("mv a1, %0" : : "r" (handle));
 311              		mv a2, a1
 312              	# 0 "" 2
 313              		.loc 1 57 5 is_stmt 1
 314              		.loc 1 57 51 is_stmt 0
 315              	# 57 "src/syscall_c.cpp" 1
  58              	    __asm__ volatile("mv a0, %0" : : "r" (0x21));
 316              		mv a1, a0
 317              	# 0 "" 2
 318              		.loc 1 58 5 is_stmt 1
 319              		.loc 1 58 49 is_stmt 0
 320              	#NO_APP
 321 011c 93071002 		li	a5,33
 322              	#APP
 323              	# 58 "src/syscall_c.cpp" 1
  59              	
  60:src/syscall_c.cpp ****     __asm__ volatile("ecall");
 324              		mv a0, a5
 325              	# 0 "" 2
 326              		.loc 1 60 5 is_stmt 1
 327              		.loc 1 60 30 is_stmt 0
 328              	# 60 "src/syscall_c.cpp" 1
  61              	
  62:src/syscall_c.cpp ****     int rez;
 329              		ecall
 330              	# 0 "" 2
 331              		.loc 1 62 5 is_stmt 1
  63:src/syscall_c.cpp ****     __asm__ volatile("mv %0, a0" : "=r" (rez));
 332              		.loc 1 63 5
 333              		.loc 1 63 47 is_stmt 0
 334              	# 63 "src/syscall_c.cpp" 1
  64              	    return rez;
 335              		mv a0, a0
 336              	# 0 "" 2
 337              	.LVL8:
 338              		.loc 1 64 5 is_stmt 1
  65:src/syscall_c.cpp **** }
 339              		.loc 1 65 1 is_stmt 0
 340              	#NO_APP
 341 012c 1B050500 		sext.w	a0,a0
 342 0130 03348100 		ld	s0,8(sp)
 343              		.cfi_restore 8
 344              		.cfi_def_cfa 2, 16
 345 0134 13010101 		addi	sp,sp,16
 346              		.cfi_def_cfa_offset 0
 347 0138 67800000 		jr	ra
GAS LISTING /tmp/cceI7Fuw.s 			page 8


 348              		.cfi_endproc
 349              	.LFE6:
 351              		.align	2
 352              		.globl	_Z9sem_closeP7Semafor
 354              	_Z9sem_closeP7Semafor:
 355              	.LFB7:
  66:src/syscall_c.cpp **** int sem_close(sem_t handle){
 356              		.loc 1 66 28 is_stmt 1
 357              		.cfi_startproc
 358              	.LVL9:
 359 013c 130101FF 		addi	sp,sp,-16
 360              		.cfi_def_cfa_offset 16
 361 0140 23348100 		sd	s0,8(sp)
 362              		.cfi_offset 8, -8
 363 0144 13040101 		addi	s0,sp,16
 364              		.cfi_def_cfa 8, 0
  67:src/syscall_c.cpp ****     __asm__ volatile("mv a1, %0" : : "r" (handle));
 365              		.loc 1 67 5
 366              		.loc 1 67 51 is_stmt 0
 367              	#APP
 368              	# 67 "src/syscall_c.cpp" 1
  68              	    __asm__ volatile("mv a0, %0" : : "r" (0x22));
 369              		mv a1, a0
 370              	# 0 "" 2
 371              		.loc 1 68 5 is_stmt 1
 372              		.loc 1 68 49 is_stmt 0
 373              	#NO_APP
 374 014c 93072002 		li	a5,34
 375              	#APP
 376              	# 68 "src/syscall_c.cpp" 1
  69              	
  70:src/syscall_c.cpp ****     __asm__ volatile("ecall");
 377              		mv a0, a5
 378              	# 0 "" 2
 379              		.loc 1 70 5 is_stmt 1
 380              		.loc 1 70 30 is_stmt 0
 381              	# 70 "src/syscall_c.cpp" 1
  71              	
  72:src/syscall_c.cpp ****     int rez;
 382              		ecall
 383              	# 0 "" 2
 384              		.loc 1 72 5 is_stmt 1
  73:src/syscall_c.cpp ****     __asm__ volatile("mv %0, a0" : "=r" (rez));
 385              		.loc 1 73 5
 386              		.loc 1 73 47 is_stmt 0
 387              	# 73 "src/syscall_c.cpp" 1
  74              	    return rez;
 388              		mv a0, a0
 389              	# 0 "" 2
 390              	.LVL10:
 391              		.loc 1 74 5 is_stmt 1
  75:src/syscall_c.cpp **** }
 392              		.loc 1 75 1 is_stmt 0
 393              	#NO_APP
 394 015c 1B050500 		sext.w	a0,a0
 395 0160 03348100 		ld	s0,8(sp)
 396              		.cfi_restore 8
GAS LISTING /tmp/cceI7Fuw.s 			page 9


 397              		.cfi_def_cfa 2, 16
 398 0164 13010101 		addi	sp,sp,16
 399              		.cfi_def_cfa_offset 0
 400 0168 67800000 		jr	ra
 401              		.cfi_endproc
 402              	.LFE7:
 404              		.align	2
 405              		.globl	_Z8sem_waitP7Semafor
 407              	_Z8sem_waitP7Semafor:
 408              	.LFB8:
  76:src/syscall_c.cpp **** int sem_wait(sem_t id){
 409              		.loc 1 76 23 is_stmt 1
 410              		.cfi_startproc
 411              	.LVL11:
 412 016c 130101FF 		addi	sp,sp,-16
 413              		.cfi_def_cfa_offset 16
 414 0170 23348100 		sd	s0,8(sp)
 415              		.cfi_offset 8, -8
 416 0174 13040101 		addi	s0,sp,16
 417              		.cfi_def_cfa 8, 0
  77:src/syscall_c.cpp ****     __asm__ volatile("mv a1, %0" : : "r" (id));
 418              		.loc 1 77 5
 419              		.loc 1 77 47 is_stmt 0
 420              	#APP
 421              	# 77 "src/syscall_c.cpp" 1
  78              	    __asm__ volatile("mv a0, %0" : : "r" (0x23));
 422              		mv a1, a0
 423              	# 0 "" 2
 424              		.loc 1 78 5 is_stmt 1
 425              		.loc 1 78 49 is_stmt 0
 426              	#NO_APP
 427 017c 93073002 		li	a5,35
 428              	#APP
 429              	# 78 "src/syscall_c.cpp" 1
  79              	
  80:src/syscall_c.cpp ****     __asm__ volatile("ecall");
 430              		mv a0, a5
 431              	# 0 "" 2
 432              		.loc 1 80 5 is_stmt 1
 433              		.loc 1 80 30 is_stmt 0
 434              	# 80 "src/syscall_c.cpp" 1
  81              	
  82:src/syscall_c.cpp ****     int rez;
 435              		ecall
 436              	# 0 "" 2
 437              		.loc 1 82 5 is_stmt 1
  83:src/syscall_c.cpp ****     __asm__ volatile("mv %0, a0" : "=r" (rez));
 438              		.loc 1 83 5
 439              		.loc 1 83 47 is_stmt 0
 440              	# 83 "src/syscall_c.cpp" 1
  84              	    return rez;
 441              		mv a0, a0
 442              	# 0 "" 2
 443              	.LVL12:
 444              		.loc 1 84 5 is_stmt 1
  85:src/syscall_c.cpp **** }
 445              		.loc 1 85 1 is_stmt 0
GAS LISTING /tmp/cceI7Fuw.s 			page 10


 446              	#NO_APP
 447 018c 1B050500 		sext.w	a0,a0
 448 0190 03348100 		ld	s0,8(sp)
 449              		.cfi_restore 8
 450              		.cfi_def_cfa 2, 16
 451 0194 13010101 		addi	sp,sp,16
 452              		.cfi_def_cfa_offset 0
 453 0198 67800000 		jr	ra
 454              		.cfi_endproc
 455              	.LFE8:
 457              		.align	2
 458              		.globl	_Z10sem_signalP7Semafor
 460              	_Z10sem_signalP7Semafor:
 461              	.LFB9:
  86:src/syscall_c.cpp **** int sem_signal(sem_t id){
 462              		.loc 1 86 25 is_stmt 1
 463              		.cfi_startproc
 464              	.LVL13:
 465 019c 130101FF 		addi	sp,sp,-16
 466              		.cfi_def_cfa_offset 16
 467 01a0 23348100 		sd	s0,8(sp)
 468              		.cfi_offset 8, -8
 469 01a4 13040101 		addi	s0,sp,16
 470              		.cfi_def_cfa 8, 0
  87:src/syscall_c.cpp ****     __asm__ volatile("mv a1, %0" : : "r" (id));
 471              		.loc 1 87 5
 472              		.loc 1 87 47 is_stmt 0
 473              	#APP
 474              	# 87 "src/syscall_c.cpp" 1
  88              	    __asm__ volatile("mv a0, %0" : : "r" (0x24));
 475              		mv a1, a0
 476              	# 0 "" 2
 477              		.loc 1 88 5 is_stmt 1
 478              		.loc 1 88 49 is_stmt 0
 479              	#NO_APP
 480 01ac 93074002 		li	a5,36
 481              	#APP
 482              	# 88 "src/syscall_c.cpp" 1
  89              	
  90:src/syscall_c.cpp ****     __asm__ volatile("ecall");
 483              		mv a0, a5
 484              	# 0 "" 2
 485              		.loc 1 90 5 is_stmt 1
 486              		.loc 1 90 30 is_stmt 0
 487              	# 90 "src/syscall_c.cpp" 1
  91              	
  92:src/syscall_c.cpp ****     int rez;
 488              		ecall
 489              	# 0 "" 2
 490              		.loc 1 92 5 is_stmt 1
  93:src/syscall_c.cpp ****     __asm__ volatile("mv %0, a0" : "=r" (rez));
 491              		.loc 1 93 5
 492              		.loc 1 93 47 is_stmt 0
 493              	# 93 "src/syscall_c.cpp" 1
  94              	    return rez;
 494              		mv a0, a0
 495              	# 0 "" 2
GAS LISTING /tmp/cceI7Fuw.s 			page 11


 496              	.LVL14:
 497              		.loc 1 94 5 is_stmt 1
  95:src/syscall_c.cpp **** }
 498              		.loc 1 95 1 is_stmt 0
 499              	#NO_APP
 500 01bc 1B050500 		sext.w	a0,a0
 501 01c0 03348100 		ld	s0,8(sp)
 502              		.cfi_restore 8
 503              		.cfi_def_cfa 2, 16
 504 01c4 13010101 		addi	sp,sp,16
 505              		.cfi_def_cfa_offset 0
 506 01c8 67800000 		jr	ra
 507              		.cfi_endproc
 508              	.LFE9:
 510              		.align	2
 511              		.globl	_Z10time_sleepm
 513              	_Z10time_sleepm:
 514              	.LFB10:
  96:src/syscall_c.cpp **** 
  97:src/syscall_c.cpp **** int time_sleep(time_t t) {
 515              		.loc 1 97 26 is_stmt 1
 516              		.cfi_startproc
 517              	.LVL15:
 518 01cc 130101FF 		addi	sp,sp,-16
 519              		.cfi_def_cfa_offset 16
 520 01d0 23348100 		sd	s0,8(sp)
 521              		.cfi_offset 8, -8
 522 01d4 13040101 		addi	s0,sp,16
 523              		.cfi_def_cfa 8, 0
  98:src/syscall_c.cpp ****     __asm__ volatile("mv a1, %0" : : "r" (t));
 524              		.loc 1 98 5
 525              		.loc 1 98 46 is_stmt 0
 526              	#APP
 527              	# 98 "src/syscall_c.cpp" 1
  99              	    __asm__ volatile("mv a0, %0" : : "r" (0x31));
 528              		mv a1, a0
 529              	# 0 "" 2
 530              		.loc 1 99 5 is_stmt 1
 531              		.loc 1 99 49 is_stmt 0
 532              	#NO_APP
 533 01dc 93071003 		li	a5,49
 534              	#APP
 535              	# 99 "src/syscall_c.cpp" 1
 100              	
 101:src/syscall_c.cpp ****     __asm__ volatile("ecall");
 536              		mv a0, a5
 537              	# 0 "" 2
 538              		.loc 1 101 5 is_stmt 1
 539              		.loc 1 101 30 is_stmt 0
 540              	# 101 "src/syscall_c.cpp" 1
 102              	
 103:src/syscall_c.cpp ****     int rez;
 541              		ecall
 542              	# 0 "" 2
 543              		.loc 1 103 5 is_stmt 1
 104:src/syscall_c.cpp ****     __asm__ volatile("mv %0, a0" : "=r" (rez));
 544              		.loc 1 104 5
GAS LISTING /tmp/cceI7Fuw.s 			page 12


 545              		.loc 1 104 47 is_stmt 0
 546              	# 104 "src/syscall_c.cpp" 1
 105              	    return rez;
 547              		mv a0, a0
 548              	# 0 "" 2
 549              	.LVL16:
 550              		.loc 1 105 5 is_stmt 1
 106:src/syscall_c.cpp **** }
 551              		.loc 1 106 1 is_stmt 0
 552              	#NO_APP
 553 01ec 1B050500 		sext.w	a0,a0
 554 01f0 03348100 		ld	s0,8(sp)
 555              		.cfi_restore 8
 556              		.cfi_def_cfa 2, 16
 557 01f4 13010101 		addi	sp,sp,16
 558              		.cfi_def_cfa_offset 0
 559 01f8 67800000 		jr	ra
 560              		.cfi_endproc
 561              	.LFE10:
 563              		.align	2
 564              		.globl	_Z4getcv
 566              	_Z4getcv:
 567              	.LFB11:
 107:src/syscall_c.cpp **** 
 108:src/syscall_c.cpp **** char getc(){
 568              		.loc 1 108 12 is_stmt 1
 569              		.cfi_startproc
 570 01fc 130101FF 		addi	sp,sp,-16
 571              		.cfi_def_cfa_offset 16
 572 0200 23348100 		sd	s0,8(sp)
 573              		.cfi_offset 8, -8
 574 0204 13040101 		addi	s0,sp,16
 575              		.cfi_def_cfa 8, 0
 109:src/syscall_c.cpp ****     __asm__ volatile("mv a0, %0" : : "r" (0x41));
 576              		.loc 1 109 5
 577              		.loc 1 109 49 is_stmt 0
 578 0208 93071004 		li	a5,65
 579              	#APP
 580              	# 109 "src/syscall_c.cpp" 1
 110              	
 111:src/syscall_c.cpp ****     __asm__ volatile("ecall");
 581              		mv a0, a5
 582              	# 0 "" 2
 583              		.loc 1 111 5 is_stmt 1
 584              		.loc 1 111 30 is_stmt 0
 585              	# 111 "src/syscall_c.cpp" 1
 112              	
 113:src/syscall_c.cpp ****     char rez;
 586              		ecall
 587              	# 0 "" 2
 588              		.loc 1 113 5 is_stmt 1
 114:src/syscall_c.cpp ****     __asm__ volatile("mv %0, a0" : "=r" (rez));
 589              		.loc 1 114 5
 590              		.loc 1 114 47 is_stmt 0
 591              	# 114 "src/syscall_c.cpp" 1
 115              	
 592              		mv a0, a0
GAS LISTING /tmp/cceI7Fuw.s 			page 13


 593              	# 0 "" 2
 594              	.LVL17:
 116:src/syscall_c.cpp ****     return rez;
 595              		.loc 1 116 5 is_stmt 1
 117:src/syscall_c.cpp **** }
 596              		.loc 1 117 1 is_stmt 0
 597              	#NO_APP
 598 0218 1375F50F 		andi	a0,a0,0xff
 599 021c 03348100 		ld	s0,8(sp)
 600              		.cfi_restore 8
 601              		.cfi_def_cfa 2, 16
 602 0220 13010101 		addi	sp,sp,16
 603              		.cfi_def_cfa_offset 0
 604 0224 67800000 		jr	ra
 605              		.cfi_endproc
 606              	.LFE11:
 608              		.align	2
 609              		.globl	_Z4putcc
 611              	_Z4putcc:
 612              	.LFB12:
 118:src/syscall_c.cpp **** void putc(char c){
 613              		.loc 1 118 18 is_stmt 1
 614              		.cfi_startproc
 615              	.LVL18:
 616 0228 130101FF 		addi	sp,sp,-16
 617              		.cfi_def_cfa_offset 16
 618 022c 23348100 		sd	s0,8(sp)
 619              		.cfi_offset 8, -8
 620 0230 13040101 		addi	s0,sp,16
 621              		.cfi_def_cfa 8, 0
 119:src/syscall_c.cpp ****     __asm__ volatile("mv a1, %0" : : "r" (c));
 622              		.loc 1 119 5
 623              		.loc 1 119 46 is_stmt 0
 624              	#APP
 625              	# 119 "src/syscall_c.cpp" 1
 120              	    __asm__ volatile("mv a0, %0" : : "r" (0x42));
 626              		mv a1, a0
 627              	# 0 "" 2
 628              		.loc 1 120 5 is_stmt 1
 629              		.loc 1 120 49 is_stmt 0
 630              	#NO_APP
 631 0238 93072004 		li	a5,66
 632              	#APP
 633              	# 120 "src/syscall_c.cpp" 1
 121              	
 122:src/syscall_c.cpp ****     __asm__ volatile("ecall");
 634              		mv a0, a5
 635              	# 0 "" 2
 636              		.loc 1 122 5 is_stmt 1
 637              		.loc 1 122 30 is_stmt 0
 638              	# 122 "src/syscall_c.cpp" 1
 123              	}
 639              		ecall
 640              	# 0 "" 2
 641              		.loc 1 123 1
 642              	#NO_APP
 643 0244 03348100 		ld	s0,8(sp)
GAS LISTING /tmp/cceI7Fuw.s 			page 14


 644              		.cfi_restore 8
 645              		.cfi_def_cfa 2, 16
 646 0248 13010101 		addi	sp,sp,16
 647              		.cfi_def_cfa_offset 0
 648 024c 67800000 		jr	ra
 649              		.cfi_endproc
 650              	.LFE12:
 652              		.align	2
 653              		.globl	_Z13promenarezimav
 655              	_Z13promenarezimav:
 656              	.LFB13:
 124:src/syscall_c.cpp **** 
 125:src/syscall_c.cpp **** void promenarezima() {
 657              		.loc 1 125 22 is_stmt 1
 658              		.cfi_startproc
 659 0250 130101FF 		addi	sp,sp,-16
 660              		.cfi_def_cfa_offset 16
 661 0254 23348100 		sd	s0,8(sp)
 662              		.cfi_offset 8, -8
 663 0258 13040101 		addi	s0,sp,16
 664              		.cfi_def_cfa 8, 0
 126:src/syscall_c.cpp ****     __asm__ volatile("mv a0, %0" : : "r" (0x70));
 665              		.loc 1 126 5
 666              		.loc 1 126 49 is_stmt 0
 667 025c 93070007 		li	a5,112
 668              	#APP
 669              	# 126 "src/syscall_c.cpp" 1
 127              	
 128:src/syscall_c.cpp ****     __asm__ volatile("ecall");
 670              		mv a0, a5
 671              	# 0 "" 2
 672              		.loc 1 128 5 is_stmt 1
 673              		.loc 1 128 30 is_stmt 0
 674              	# 128 "src/syscall_c.cpp" 1
 129              	}
 675              		ecall
 676              	# 0 "" 2
 677              		.loc 1 129 1
 678              	#NO_APP
 679 0268 03348100 		ld	s0,8(sp)
 680              		.cfi_restore 8
 681              		.cfi_def_cfa 2, 16
 682 026c 13010101 		addi	sp,sp,16
 683              		.cfi_def_cfa_offset 0
 684 0270 67800000 		jr	ra
 685              		.cfi_endproc
 686              	.LFE13:
 688              	.Letext0:
 689              		.file 2 "src/../h/../lib/hw.h"
 690              		.file 3 "src/../h/syscall_c.h"
GAS LISTING /tmp/cceI7Fuw.s 			page 15

