GAS LISTING /tmp/cctkymxF.s 			page 1


   1              		.file	"Bafer.cpp"
   2              		.option pic
   3              		.option norelax
   4              		.text
   5              	.Ltext0:
   6              		.align	2
   7              		.globl	_ZN5BaferC2Ei
   9              	_ZN5BaferC2Ei:
  10              	.LFB21:
  11              		.file 1 "src/Bafer.cpp"
   1:src/Bafer.cpp **** //
   2:src/Bafer.cpp **** // Created by os on 9/14/22.
   3:src/Bafer.cpp **** //
   4:src/Bafer.cpp **** 
   5:src/Bafer.cpp **** #include "../h/Bafer.h"
   6:src/Bafer.cpp **** #include "../h/scheduler.h"
   7:src/Bafer.cpp **** 
   8:src/Bafer.cpp **** Bafer::Bafer(int _cap) : cap(_cap + 1), head(0), tail(0) {
  12              		.loc 1 8 1
  13              		.cfi_startproc
  14              	.LVL0:
  15 0000 130101FE 		addi	sp,sp,-32
  16              		.cfi_def_cfa_offset 32
  17 0004 233C1100 		sd	ra,24(sp)
  18 0008 23388100 		sd	s0,16(sp)
  19 000c 23349100 		sd	s1,8(sp)
  20 0010 23302101 		sd	s2,0(sp)
  21              		.cfi_offset 1, -8
  22              		.cfi_offset 8, -16
  23              		.cfi_offset 9, -24
  24              		.cfi_offset 18, -32
  25 0014 13040102 		addi	s0,sp,32
  26              		.cfi_def_cfa 8, 0
  27 0018 93040500 		mv	s1,a0
  28 001c 13890500 		mv	s2,a1
  29              	.LBB23:
  30              		.loc 1 8 35 is_stmt 0
  31 0020 9B871500 		addiw	a5,a1,1
  32 0024 1B850700 		sext.w	a0,a5
  33              	.LVL1:
  34              		.loc 1 8 56
  35 0028 23A0F400 		sw	a5,0(s1)
  36 002c 23A20400 		sw	zero,4(s1)
  37 0030 23A80400 		sw	zero,16(s1)
  38 0034 23AA0400 		sw	zero,20(s1)
   9:src/Bafer.cpp ****     buffer = (int *)Memorija::alokacija(sizeof(int) * cap);
  39              		.loc 1 9 5 is_stmt 1
  40              		.loc 1 9 40 is_stmt 0
  41 0038 13152500 		slli	a0,a0,2
  42 003c 97000000 		call	_ZN8Memorija9alokacijaEm@plt
  42      E7800000 
  43              	.LVL2:
  44              		.loc 1 9 12
  45 0044 23B4A400 		sd	a0,8(s1)
  10:src/Bafer.cpp ****     itemAvailable= new Semafor(0);
  46              		.loc 1 10 5 is_stmt 1
  47              	.LVL3:
GAS LISTING /tmp/cctkymxF.s 			page 2


  48              	.LBB24:
  49              	.LBB25:
  50              		.file 2 "src/../h/semafor.h"
   1:src/../h/semafor.h **** //
   2:src/../h/semafor.h **** // Created by os on 8/20/22.
   3:src/../h/semafor.h **** //
   4:src/../h/semafor.h **** 
   5:src/../h/semafor.h **** #ifndef PROJECT_BASE_V1_1_SEMAFOR_H
   6:src/../h/semafor.h **** #define PROJECT_BASE_V1_1_SEMAFOR_H
   7:src/../h/semafor.h **** 
   8:src/../h/semafor.h **** #include "thread.h"
   9:src/../h/semafor.h **** 
  10:src/../h/semafor.h **** class Semafor {
  11:src/../h/semafor.h **** private:
  12:src/../h/semafor.h **** 
  13:src/../h/semafor.h ****     static int idd;
  14:src/../h/semafor.h ****     int id=0;
  15:src/../h/semafor.h **** 
  16:src/../h/semafor.h ****     struct struktura{
  17:src/../h/semafor.h ****         Nit *t;
  18:src/../h/semafor.h ****         struktura* next;
  19:src/../h/semafor.h ****     };
  20:src/../h/semafor.h **** 
  21:src/../h/semafor.h ****     struktura *tail=nullptr;
  22:src/../h/semafor.h ****     struktura *head=nullptr;
  23:src/../h/semafor.h **** 
  24:src/../h/semafor.h **** public:
  25:src/../h/semafor.h ****     int val;
  26:src/../h/semafor.h **** 
  27:src/../h/semafor.h ****     void Print();
  28:src/../h/semafor.h **** 
  29:src/../h/semafor.h ****     static void *operator new(uint64 n){
  30:src/../h/semafor.h ****         return Memorija::alokacija(n);
  51              		.loc 2 30 9
  52              		.loc 2 30 35 is_stmt 0
  53 0048 13050002 		li	a0,32
  54 004c 97000000 		call	_ZN8Memorija9alokacijaEm@plt
  54      E7800000 
  55              	.LVL4:
  56              	.LBE25:
  57              	.LBE24:
  58              	.LBB26:
  59              	.LBB27:
  31:src/../h/semafor.h ****     }
  32:src/../h/semafor.h **** 
  33:src/../h/semafor.h ****     static void *operator new[](uint64 n){
  34:src/../h/semafor.h ****         return Memorija::alokacija(n);
  35:src/../h/semafor.h ****     }
  36:src/../h/semafor.h **** 
  37:src/../h/semafor.h ****     static void operator delete(void* p){
  38:src/../h/semafor.h ****         Memorija::oslobadjanje(p);
  39:src/../h/semafor.h ****     }
  40:src/../h/semafor.h **** 
  41:src/../h/semafor.h ****     static void operator delete[](void* p){
  42:src/../h/semafor.h ****         Memorija::oslobadjanje(p);
  43:src/../h/semafor.h ****     }
  44:src/../h/semafor.h **** 
GAS LISTING /tmp/cctkymxF.s 			page 3


  45:src/../h/semafor.h ****     Semafor(unsigned n=1):val(n){}
  60              		.loc 2 45 32
  61 0054 23200500 		sw	zero,0(a0)
  62 0058 23340500 		sd	zero,8(a0)
  63 005c 23380500 		sd	zero,16(a0)
  64 0060 232C0500 		sw	zero,24(a0)
  65              	.LVL5:
  66              	.LBE27:
  67              	.LBE26:
  68              		.loc 1 10 18
  69 0064 23B0A402 		sd	a0,32(s1)
  11:src/Bafer.cpp ****     spaceAvailable=new Semafor(_cap);
  70              		.loc 1 11 5 is_stmt 1
  71              	.LVL6:
  72              	.LBB28:
  73              	.LBB29:
  30:src/../h/semafor.h ****     }
  74              		.loc 2 30 9
  30:src/../h/semafor.h ****     }
  75              		.loc 2 30 35 is_stmt 0
  76 0068 13050002 		li	a0,32
  77 006c 97000000 		call	_ZN8Memorija9alokacijaEm@plt
  77      E7800000 
  78              	.LVL7:
  79              	.LBE29:
  80              	.LBE28:
  81              	.LBB30:
  82              	.LBB31:
  83              		.loc 2 45 32
  84 0074 23200500 		sw	zero,0(a0)
  85 0078 23340500 		sd	zero,8(a0)
  86 007c 23380500 		sd	zero,16(a0)
  87 0080 232C2501 		sw	s2,24(a0)
  88              	.LVL8:
  89              	.LBE31:
  90              	.LBE30:
  91              		.loc 1 11 19
  92 0084 23BCA400 		sd	a0,24(s1)
  12:src/Bafer.cpp ****     mutexHead = new Semafor(1);
  93              		.loc 1 12 5 is_stmt 1
  94              	.LVL9:
  95              	.LBB32:
  96              	.LBB33:
  30:src/../h/semafor.h ****     }
  97              		.loc 2 30 9
  30:src/../h/semafor.h ****     }
  98              		.loc 2 30 35 is_stmt 0
  99 0088 13050002 		li	a0,32
 100 008c 97000000 		call	_ZN8Memorija9alokacijaEm@plt
 100      E7800000 
 101              	.LVL10:
 102              	.LBE33:
 103              	.LBE32:
 104              	.LBB34:
 105              	.LBB35:
 106              		.loc 2 45 32
 107 0094 23200500 		sw	zero,0(a0)
GAS LISTING /tmp/cctkymxF.s 			page 4


 108 0098 23340500 		sd	zero,8(a0)
 109 009c 23380500 		sd	zero,16(a0)
 110 00a0 13091000 		li	s2,1
 111 00a4 232C2501 		sw	s2,24(a0)
 112              	.LVL11:
 113              	.LBE35:
 114              	.LBE34:
 115              		.loc 1 12 15
 116 00a8 23B4A402 		sd	a0,40(s1)
  13:src/Bafer.cpp ****     mutexTail = new Semafor(1);
 117              		.loc 1 13 5 is_stmt 1
 118              	.LVL12:
 119              	.LBB36:
 120              	.LBB37:
  30:src/../h/semafor.h ****     }
 121              		.loc 2 30 9
  30:src/../h/semafor.h ****     }
 122              		.loc 2 30 35 is_stmt 0
 123 00ac 13050002 		li	a0,32
 124 00b0 97000000 		call	_ZN8Memorija9alokacijaEm@plt
 124      E7800000 
 125              	.LVL13:
 126              	.LBE37:
 127              	.LBE36:
 128              	.LBB38:
 129              	.LBB39:
 130              		.loc 2 45 32
 131 00b8 23200500 		sw	zero,0(a0)
 132 00bc 23340500 		sd	zero,8(a0)
 133 00c0 23380500 		sd	zero,16(a0)
 134 00c4 232C2501 		sw	s2,24(a0)
 135              	.LVL14:
 136              	.LBE39:
 137              	.LBE38:
 138              		.loc 1 13 15
 139 00c8 23B8A402 		sd	a0,48(s1)
 140              	.LBE23:
  14:src/Bafer.cpp **** }
 141              		.loc 1 14 1
 142 00cc 83308101 		ld	ra,24(sp)
 143              		.cfi_restore 1
 144 00d0 03340101 		ld	s0,16(sp)
 145              		.cfi_restore 8
 146              		.cfi_def_cfa 2, 32
 147 00d4 83348100 		ld	s1,8(sp)
 148              		.cfi_restore 9
 149              	.LVL15:
 150 00d8 03390100 		ld	s2,0(sp)
 151              		.cfi_restore 18
 152 00dc 13010102 		addi	sp,sp,32
 153              		.cfi_def_cfa_offset 0
 154 00e0 67800000 		jr	ra
 155              		.cfi_endproc
 156              	.LFE21:
 158              		.globl	_ZN5BaferC1Ei
 159              		.set	_ZN5BaferC1Ei,_ZN5BaferC2Ei
 160              		.align	2
GAS LISTING /tmp/cctkymxF.s 			page 5


 161              		.globl	_ZN5BaferD2Ev
 163              	_ZN5BaferD2Ev:
 164              	.LFB24:
  15:src/Bafer.cpp **** 
  16:src/Bafer.cpp **** Bafer::~Bafer() {
 165              		.loc 1 16 1 is_stmt 1
 166              		.cfi_startproc
 167              	.LVL16:
 168 00e4 130101FF 		addi	sp,sp,-16
 169              		.cfi_def_cfa_offset 16
 170 00e8 23348100 		sd	s0,8(sp)
 171              		.cfi_offset 8, -8
 172 00ec 13040101 		addi	s0,sp,16
 173              		.cfi_def_cfa 8, 0
  17:src/Bafer.cpp ****     /*
  18:src/Bafer.cpp ****     while (getCnt() > 0) {
  19:src/Bafer.cpp ****         char ch = buffer[head];
  20:src/Bafer.cpp ****         putc(ch);
  21:src/Bafer.cpp ****         head = (head + 1) % cap;
  22:src/Bafer.cpp ****     }
  23:src/Bafer.cpp **** 
  24:src/Bafer.cpp ****     mem_free(buffer);
  25:src/Bafer.cpp ****     sem_close(itemAvailable);
  26:src/Bafer.cpp ****     sem_close(spaceAvailable);
  27:src/Bafer.cpp ****     sem_close(mutexTail);
  28:src/Bafer.cpp ****     sem_close(mutexHead);*/
  29:src/Bafer.cpp **** }
 174              		.loc 1 29 1 is_stmt 0
 175 00f0 03348100 		ld	s0,8(sp)
 176              		.cfi_restore 8
 177              		.cfi_def_cfa 2, 16
 178 00f4 13010101 		addi	sp,sp,16
 179              		.cfi_def_cfa_offset 0
 180 00f8 67800000 		jr	ra
 181              		.cfi_endproc
 182              	.LFE24:
 184              		.globl	_ZN5BaferD1Ev
 185              		.set	_ZN5BaferD1Ev,_ZN5BaferD2Ev
 186              		.align	2
 187              		.globl	_ZN5Bafer3putEi
 189              	_ZN5Bafer3putEi:
 190              	.LFB26:
  30:src/Bafer.cpp **** 
  31:src/Bafer.cpp **** void Bafer::put(int val) {
 191              		.loc 1 31 26 is_stmt 1
 192              		.cfi_startproc
 193              	.LVL17:
 194 00fc 130101FE 		addi	sp,sp,-32
 195              		.cfi_def_cfa_offset 32
 196 0100 233C1100 		sd	ra,24(sp)
 197 0104 23388100 		sd	s0,16(sp)
 198 0108 23349100 		sd	s1,8(sp)
 199 010c 23302101 		sd	s2,0(sp)
 200              		.cfi_offset 1, -8
 201              		.cfi_offset 8, -16
 202              		.cfi_offset 9, -24
 203              		.cfi_offset 18, -32
GAS LISTING /tmp/cctkymxF.s 			page 6


 204 0110 13040102 		addi	s0,sp,32
 205              		.cfi_def_cfa 8, 0
 206 0114 93040500 		mv	s1,a0
 207 0118 13890500 		mv	s2,a1
  32:src/Bafer.cpp ****     //print(spaceAvailable->val);
  33:src/Bafer.cpp ****     if(spaceAvailable->val==0){
 208              		.loc 1 33 5
  34:src/Bafer.cpp ****         //print("a");
  35:src/Bafer.cpp ****     }
  36:src/Bafer.cpp ****     if(spaceAvailable->wait()!=-1){
 209              		.loc 1 36 5
 210              		.loc 1 36 28 is_stmt 0
 211 011c 03358501 		ld	a0,24(a0)
 212              	.LVL18:
 213 0120 97000000 		call	_ZN7Semafor4waitEv@plt
 213      E7800000 
 214              	.LVL19:
 215              		.loc 1 36 5
 216 0128 9307F0FF 		li	a5,-1
 217 012c 6314F508 		bne	a0,a5,.L10
 218              	.L6:
  37:src/Bafer.cpp **** 
  38:src/Bafer.cpp ****         //spaceAvailable->Print();
  39:src/Bafer.cpp ****         //Scheduler::Print();
  40:src/Bafer.cpp ****         //__putc('a');
  41:src/Bafer.cpp ****         Nit::dispatch();
  42:src/Bafer.cpp ****     }
  43:src/Bafer.cpp ****     if(mutexTail->wait()!=-1){
 219              		.loc 1 43 5 is_stmt 1
 220              		.loc 1 43 23 is_stmt 0
 221 0130 03B50403 		ld	a0,48(s1)
 222 0134 97000000 		call	_ZN7Semafor4waitEv@plt
 222      E7800000 
 223              	.LVL20:
 224              		.loc 1 43 5
 225 013c 9307F0FF 		li	a5,-1
 226 0140 6310F508 		bne	a0,a5,.L11
 227              	.L7:
  44:src/Bafer.cpp ****         Nit::dispatch();
  45:src/Bafer.cpp ****     }
  46:src/Bafer.cpp **** 
  47:src/Bafer.cpp ****     if(cnt<cap) {
 228              		.loc 1 47 5 is_stmt 1
 229              		.loc 1 47 8 is_stmt 0
 230 0144 03A74400 		lw	a4,4(s1)
 231              		.loc 1 47 12
 232 0148 83A70400 		lw	a5,0(s1)
 233              		.loc 1 47 5
 234 014c 635CF702 		bge	a4,a5,.L8
  48:src/Bafer.cpp ****         buffer[tail] = val;
 235              		.loc 1 48 9 is_stmt 1
 236 0150 83B78400 		ld	a5,8(s1)
 237              		.loc 1 48 16 is_stmt 0
 238 0154 03A74401 		lw	a4,20(s1)
 239              		.loc 1 48 20
 240 0158 13172700 		slli	a4,a4,2
 241 015c B387E700 		add	a5,a5,a4
GAS LISTING /tmp/cctkymxF.s 			page 7


 242              		.loc 1 48 22
 243 0160 23A02701 		sw	s2,0(a5)
  49:src/Bafer.cpp ****         tail = (tail + 1) % cap;
 244              		.loc 1 49 9 is_stmt 1
 245              		.loc 1 49 17 is_stmt 0
 246 0164 83A74401 		lw	a5,20(s1)
 247              		.loc 1 49 22
 248 0168 9B871700 		addiw	a5,a5,1
 249              		.loc 1 49 29
 250 016c 03A70400 		lw	a4,0(s1)
 251              		.loc 1 49 27
 252 0170 BBE7E702 		remw	a5,a5,a4
 253              		.loc 1 49 14
 254 0174 23AAF400 		sw	a5,20(s1)
  50:src/Bafer.cpp ****         cnt++;
 255              		.loc 1 50 9 is_stmt 1
 256 0178 83A74400 		lw	a5,4(s1)
 257              		.loc 1 50 12 is_stmt 0
 258 017c 9B871700 		addiw	a5,a5,1
 259 0180 23A2F400 		sw	a5,4(s1)
 260              	.L8:
  51:src/Bafer.cpp ****     }
  52:src/Bafer.cpp **** 
  53:src/Bafer.cpp ****     mutexTail->signal();
 261              		.loc 1 53 5 is_stmt 1
 262              		.loc 1 53 22 is_stmt 0
 263 0184 03B50403 		ld	a0,48(s1)
 264 0188 97000000 		call	_ZN7Semafor6signalEv@plt
 264      E7800000 
 265              	.LVL21:
  54:src/Bafer.cpp ****     itemAvailable->signal();
 266              		.loc 1 54 5 is_stmt 1
 267              		.loc 1 54 26 is_stmt 0
 268 0190 03B50402 		ld	a0,32(s1)
 269 0194 97000000 		call	_ZN7Semafor6signalEv@plt
 269      E7800000 
 270              	.LVL22:
  55:src/Bafer.cpp **** }
 271              		.loc 1 55 1
 272 019c 83308101 		ld	ra,24(sp)
 273              		.cfi_remember_state
 274              		.cfi_restore 1
 275 01a0 03340101 		ld	s0,16(sp)
 276              		.cfi_restore 8
 277              		.cfi_def_cfa 2, 32
 278 01a4 83348100 		ld	s1,8(sp)
 279              		.cfi_restore 9
 280              	.LVL23:
 281 01a8 03390100 		ld	s2,0(sp)
 282              		.cfi_restore 18
 283 01ac 13010102 		addi	sp,sp,32
 284              		.cfi_def_cfa_offset 0
 285 01b0 67800000 		jr	ra
 286              	.LVL24:
 287              	.L10:
 288              		.cfi_restore_state
  41:src/Bafer.cpp ****     }
GAS LISTING /tmp/cctkymxF.s 			page 8


 289              		.loc 1 41 9 is_stmt 1
  41:src/Bafer.cpp ****     }
 290              		.loc 1 41 22 is_stmt 0
 291 01b4 97000000 		call	_ZN3Nit8dispatchEv@plt
 291      E7800000 
 292              	.LVL25:
 293 01bc 6FF05FF7 		j	.L6
 294              	.L11:
  44:src/Bafer.cpp ****     }
 295              		.loc 1 44 9 is_stmt 1
  44:src/Bafer.cpp ****     }
 296              		.loc 1 44 22 is_stmt 0
 297 01c0 97000000 		call	_ZN3Nit8dispatchEv@plt
 297      E7800000 
 298              	.LVL26:
 299 01c8 6FF0DFF7 		j	.L7
 300              		.cfi_endproc
 301              	.LFE26:
 303              		.align	2
 304              		.globl	_ZN5Bafer3getEv
 306              	_ZN5Bafer3getEv:
 307              	.LFB27:
  56:src/Bafer.cpp **** 
  57:src/Bafer.cpp **** int Bafer::get() {
 308              		.loc 1 57 18 is_stmt 1
 309              		.cfi_startproc
 310              	.LVL27:
 311 01cc 130101FE 		addi	sp,sp,-32
 312              		.cfi_def_cfa_offset 32
 313 01d0 233C1100 		sd	ra,24(sp)
 314 01d4 23388100 		sd	s0,16(sp)
 315 01d8 23349100 		sd	s1,8(sp)
 316 01dc 23302101 		sd	s2,0(sp)
 317              		.cfi_offset 1, -8
 318              		.cfi_offset 8, -16
 319              		.cfi_offset 9, -24
 320              		.cfi_offset 18, -32
 321 01e0 13040102 		addi	s0,sp,32
 322              		.cfi_def_cfa 8, 0
 323 01e4 93040500 		mv	s1,a0
  58:src/Bafer.cpp **** 
  59:src/Bafer.cpp ****     //print(itemAvailable->val);
  60:src/Bafer.cpp ****     if(itemAvailable->wait()!=-1){
 324              		.loc 1 60 5
 325              		.loc 1 60 27 is_stmt 0
 326 01e8 03350502 		ld	a0,32(a0)
 327              	.LVL28:
 328 01ec 97000000 		call	_ZN7Semafor4waitEv@plt
 328      E7800000 
 329              	.LVL29:
 330              		.loc 1 60 5
 331 01f4 9307F0FF 		li	a5,-1
 332 01f8 6310F508 		bne	a0,a5,.L18
 333              	.L13:
  61:src/Bafer.cpp ****         //itemAvailable->Print();
  62:src/Bafer.cpp ****         Nit::dispatch();
  63:src/Bafer.cpp ****     }
GAS LISTING /tmp/cctkymxF.s 			page 9


  64:src/Bafer.cpp ****     if(mutexHead->wait()!=-1){
 334              		.loc 1 64 5 is_stmt 1
 335              		.loc 1 64 23 is_stmt 0
 336 01fc 03B58402 		ld	a0,40(s1)
 337 0200 97000000 		call	_ZN7Semafor4waitEv@plt
 337      E7800000 
 338              	.LVL30:
 339              		.loc 1 64 5
 340 0208 9307F0FF 		li	a5,-1
 341 020c 631CF506 		bne	a0,a5,.L19
 342              	.L14:
  65:src/Bafer.cpp ****         Nit::dispatch();
  66:src/Bafer.cpp ****     }
  67:src/Bafer.cpp **** 
  68:src/Bafer.cpp ****     int ret=-1;
 343              		.loc 1 68 5 is_stmt 1
 344              	.LVL31:
  69:src/Bafer.cpp ****     if(cnt>0) {
 345              		.loc 1 69 5
 346              		.loc 1 69 8 is_stmt 0
 347 0210 03A74400 		lw	a4,4(s1)
 348              		.loc 1 69 5
 349 0214 635EE006 		blez	a4,.L16
  70:src/Bafer.cpp ****         ret = buffer[head];
 350              		.loc 1 70 9 is_stmt 1
 351              		.loc 1 70 15 is_stmt 0
 352 0218 83B68400 		ld	a3,8(s1)
 353              		.loc 1 70 22
 354 021c 83A70401 		lw	a5,16(s1)
 355              		.loc 1 70 26
 356 0220 13962700 		slli	a2,a5,2
 357 0224 B386C600 		add	a3,a3,a2
 358              		.loc 1 70 13
 359 0228 03A90600 		lw	s2,0(a3)
 360              	.LVL32:
  71:src/Bafer.cpp ****         head = (head + 1) % cap;
 361              		.loc 1 71 9 is_stmt 1
 362              		.loc 1 71 22 is_stmt 0
 363 022c 9B871700 		addiw	a5,a5,1
 364              		.loc 1 71 29
 365 0230 83A60400 		lw	a3,0(s1)
 366              		.loc 1 71 27
 367 0234 BBE7D702 		remw	a5,a5,a3
 368              		.loc 1 71 14
 369 0238 23A8F400 		sw	a5,16(s1)
  72:src/Bafer.cpp ****         cnt--;
 370              		.loc 1 72 9 is_stmt 1
 371              		.loc 1 72 12 is_stmt 0
 372 023c 1B07F7FF 		addiw	a4,a4,-1
 373 0240 23A2E400 		sw	a4,4(s1)
 374              	.LVL33:
 375              	.L15:
  73:src/Bafer.cpp ****     }
  74:src/Bafer.cpp **** 
  75:src/Bafer.cpp ****     mutexHead->signal();
 376              		.loc 1 75 5 is_stmt 1
 377              		.loc 1 75 22 is_stmt 0
GAS LISTING /tmp/cctkymxF.s 			page 10


 378 0244 03B58402 		ld	a0,40(s1)
 379 0248 97000000 		call	_ZN7Semafor6signalEv@plt
 379      E7800000 
 380              	.LVL34:
  76:src/Bafer.cpp ****     spaceAvailable->signal();
 381              		.loc 1 76 5 is_stmt 1
 382              		.loc 1 76 27 is_stmt 0
 383 0250 03B58401 		ld	a0,24(s1)
 384 0254 97000000 		call	_ZN7Semafor6signalEv@plt
 384      E7800000 
 385              	.LVL35:
  77:src/Bafer.cpp **** 
  78:src/Bafer.cpp ****     return ret;
 386              		.loc 1 78 5 is_stmt 1
  79:src/Bafer.cpp **** }
 387              		.loc 1 79 1 is_stmt 0
 388 025c 13050900 		mv	a0,s2
 389 0260 83308101 		ld	ra,24(sp)
 390              		.cfi_remember_state
 391              		.cfi_restore 1
 392 0264 03340101 		ld	s0,16(sp)
 393              		.cfi_restore 8
 394              		.cfi_def_cfa 2, 32
 395 0268 83348100 		ld	s1,8(sp)
 396              		.cfi_restore 9
 397              	.LVL36:
 398 026c 03390100 		ld	s2,0(sp)
 399              		.cfi_restore 18
 400              	.LVL37:
 401 0270 13010102 		addi	sp,sp,32
 402              		.cfi_def_cfa_offset 0
 403 0274 67800000 		jr	ra
 404              	.LVL38:
 405              	.L18:
 406              		.cfi_restore_state
  62:src/Bafer.cpp ****     }
 407              		.loc 1 62 9 is_stmt 1
  62:src/Bafer.cpp ****     }
 408              		.loc 1 62 22 is_stmt 0
 409 0278 97000000 		call	_ZN3Nit8dispatchEv@plt
 409      E7800000 
 410              	.LVL39:
 411 0280 6FF0DFF7 		j	.L13
 412              	.L19:
  65:src/Bafer.cpp ****     }
 413              		.loc 1 65 9 is_stmt 1
  65:src/Bafer.cpp ****     }
 414              		.loc 1 65 22 is_stmt 0
 415 0284 97000000 		call	_ZN3Nit8dispatchEv@plt
 415      E7800000 
 416              	.LVL40:
 417 028c 6FF05FF8 		j	.L14
 418              	.LVL41:
 419              	.L16:
  68:src/Bafer.cpp ****     if(cnt>0) {
 420              		.loc 1 68 9
 421 0290 1309F0FF 		li	s2,-1
GAS LISTING /tmp/cctkymxF.s 			page 11


 422 0294 6FF01FFB 		j	.L15
 423              		.cfi_endproc
 424              	.LFE27:
 426              		.align	2
 427              		.globl	_ZN5Bafer6getCntEv
 429              	_ZN5Bafer6getCntEv:
 430              	.LFB28:
  80:src/Bafer.cpp **** 
  81:src/Bafer.cpp **** int Bafer::getCnt() {
 431              		.loc 1 81 21 is_stmt 1
 432              		.cfi_startproc
 433              	.LVL42:
 434 0298 130101FF 		addi	sp,sp,-16
 435              		.cfi_def_cfa_offset 16
 436 029c 23348100 		sd	s0,8(sp)
 437              		.cfi_offset 8, -8
 438 02a0 13040101 		addi	s0,sp,16
 439              		.cfi_def_cfa 8, 0
  82:src/Bafer.cpp ****     return cnt;
 440              		.loc 1 82 5
  83:src/Bafer.cpp **** }
 441              		.loc 1 83 1 is_stmt 0
 442 02a4 03254500 		lw	a0,4(a0)
 443              	.LVL43:
 444 02a8 03348100 		ld	s0,8(sp)
 445              		.cfi_restore 8
 446              		.cfi_def_cfa 2, 16
 447 02ac 13010101 		addi	sp,sp,16
 448              		.cfi_def_cfa_offset 0
 449 02b0 67800000 		jr	ra
 450              		.cfi_endproc
 451              	.LFE28:
 453              		.section	.rodata.str1.8,"aMS",@progbits,1
 454              		.align	3
 455              	.LC0:
 456 0000 42414645 		.string	"BAFER:\n"
 456      523A0A00 
 457              		.align	3
 458              	.LC1:
 459 0008 2D2D2D2D 		.string	"-------\n"
 459      2D2D2D0A 
 459      00
 460              		.text
 461              		.align	2
 462              		.globl	_ZN5Bafer5PrintEv
 464              	_ZN5Bafer5PrintEv:
 465              	.LFB29:
  84:src/Bafer.cpp **** 
  85:src/Bafer.cpp **** void Bafer::Print() {
 466              		.loc 1 85 21 is_stmt 1
 467              		.cfi_startproc
 468              	.LVL44:
 469 02b4 130101FE 		addi	sp,sp,-32
 470              		.cfi_def_cfa_offset 32
 471 02b8 233C1100 		sd	ra,24(sp)
 472 02bc 23388100 		sd	s0,16(sp)
 473 02c0 23349100 		sd	s1,8(sp)
GAS LISTING /tmp/cctkymxF.s 			page 12


 474 02c4 23302101 		sd	s2,0(sp)
 475              		.cfi_offset 1, -8
 476              		.cfi_offset 8, -16
 477              		.cfi_offset 9, -24
 478              		.cfi_offset 18, -32
 479 02c8 13040102 		addi	s0,sp,32
 480              		.cfi_def_cfa 8, 0
 481 02cc 13090500 		mv	s2,a0
  86:src/Bafer.cpp **** 
  87:src/Bafer.cpp ****     if(mutexHead->wait()!=-1){
 482              		.loc 1 87 5
 483              		.loc 1 87 23 is_stmt 0
 484 02d0 03358502 		ld	a0,40(a0)
 485              	.LVL45:
 486 02d4 97000000 		call	_ZN7Semafor4waitEv@plt
 486      E7800000 
 487              	.LVL46:
 488              		.loc 1 87 5
 489 02dc 9307F0FF 		li	a5,-1
 490 02e0 631EF504 		bne	a0,a5,.L28
 491              	.L23:
  88:src/Bafer.cpp ****         Nit::dispatch();
  89:src/Bafer.cpp ****     }
  90:src/Bafer.cpp ****     if(mutexTail->wait()!=-1){
 492              		.loc 1 90 5 is_stmt 1
 493              		.loc 1 90 23 is_stmt 0
 494 02e4 03350903 		ld	a0,48(s2)
 495 02e8 97000000 		call	_ZN7Semafor4waitEv@plt
 495      E7800000 
 496              	.LVL47:
 497              		.loc 1 90 5
 498 02f0 9307F0FF 		li	a5,-1
 499 02f4 631AF504 		bne	a0,a5,.L29
 500              	.L24:
  91:src/Bafer.cpp ****         Nit::dispatch();
  92:src/Bafer.cpp ****     }
  93:src/Bafer.cpp **** 
  94:src/Bafer.cpp ****     int temp=head;
 501              		.loc 1 94 5 is_stmt 1
 502              		.loc 1 94 9 is_stmt 0
 503 02f8 83240901 		lw	s1,16(s2)
 504              	.LVL48:
  95:src/Bafer.cpp ****     print("BAFER:\n");
 505              		.loc 1 95 5 is_stmt 1
 506              		.loc 1 95 10 is_stmt 0
 507 02fc 17050000 		lla	a0,.LC0
 507      13050500 
 508 0304 97000000 		call	_Z5printPKc@plt
 508      E7800000 
 509              	.LVL49:
 510              	.L26:
  96:src/Bafer.cpp ****     while(temp!=tail){
 511              		.loc 1 96 5 is_stmt 1
 512              		.loc 1 96 15
 513              		.loc 1 96 17 is_stmt 0
 514 030c 83274901 		lw	a5,20(s2)
 515              		.loc 1 96 15
GAS LISTING /tmp/cctkymxF.s 			page 13


 516 0310 63829704 		beq	a5,s1,.L25
  97:src/Bafer.cpp ****         print(buffer[temp]);
 517              		.loc 1 97 9 is_stmt 1
 518              		.loc 1 97 15 is_stmt 0
 519 0314 83378900 		ld	a5,8(s2)
 520              		.loc 1 97 26
 521 0318 13972400 		slli	a4,s1,2
 522 031c B387E700 		add	a5,a5,a4
 523              		.loc 1 97 14
 524 0320 03A50700 		lw	a0,0(a5)
 525 0324 97000000 		call	_Z5printi@plt
 525      E7800000 
 526              	.LVL50:
  98:src/Bafer.cpp ****         temp=(temp+1)%cap;
 527              		.loc 1 98 9 is_stmt 1
 528              		.loc 1 98 19 is_stmt 0
 529 032c 9B841400 		addiw	s1,s1,1
 530              	.LVL51:
 531              		.loc 1 98 23
 532 0330 83270900 		lw	a5,0(s2)
 533              		.loc 1 98 13
 534 0334 BBE4F402 		remw	s1,s1,a5
 535              	.LVL52:
  96:src/Bafer.cpp ****     while(temp!=tail){
 536              		.loc 1 96 5
 537 0338 6FF05FFD 		j	.L26
 538              	.L28:
  88:src/Bafer.cpp ****     }
 539              		.loc 1 88 9 is_stmt 1
  88:src/Bafer.cpp ****     }
 540              		.loc 1 88 22 is_stmt 0
 541 033c 97000000 		call	_ZN3Nit8dispatchEv@plt
 541      E7800000 
 542              	.LVL53:
 543 0344 6FF01FFA 		j	.L23
 544              	.L29:
  91:src/Bafer.cpp ****     }
 545              		.loc 1 91 9 is_stmt 1
  91:src/Bafer.cpp ****     }
 546              		.loc 1 91 22 is_stmt 0
 547 0348 97000000 		call	_ZN3Nit8dispatchEv@plt
 547      E7800000 
 548              	.LVL54:
 549 0350 6FF09FFA 		j	.L24
 550              	.LVL55:
 551              	.L25:
  99:src/Bafer.cpp ****     }
 100:src/Bafer.cpp ****     print("-------\n");
 552              		.loc 1 100 5 is_stmt 1
 553              		.loc 1 100 10 is_stmt 0
 554 0354 17050000 		lla	a0,.LC1
 554      13050500 
 555 035c 97000000 		call	_Z5printPKc@plt
 555      E7800000 
 556              	.LVL56:
 101:src/Bafer.cpp **** 
 102:src/Bafer.cpp ****     mutexTail->signal();
GAS LISTING /tmp/cctkymxF.s 			page 14


 557              		.loc 1 102 5 is_stmt 1
 558              		.loc 1 102 22 is_stmt 0
 559 0364 03350903 		ld	a0,48(s2)
 560 0368 97000000 		call	_ZN7Semafor6signalEv@plt
 560      E7800000 
 561              	.LVL57:
 103:src/Bafer.cpp ****     mutexHead->signal();
 562              		.loc 1 103 5 is_stmt 1
 563              		.loc 1 103 22 is_stmt 0
 564 0370 03358902 		ld	a0,40(s2)
 565 0374 97000000 		call	_ZN7Semafor6signalEv@plt
 565      E7800000 
 566              	.LVL58:
 104:src/Bafer.cpp **** }
 567              		.loc 1 104 1
 568 037c 83308101 		ld	ra,24(sp)
 569              		.cfi_restore 1
 570 0380 03340101 		ld	s0,16(sp)
 571              		.cfi_restore 8
 572              		.cfi_def_cfa 2, 32
 573 0384 83348100 		ld	s1,8(sp)
 574              		.cfi_restore 9
 575              	.LVL59:
 576 0388 03390100 		ld	s2,0(sp)
 577              		.cfi_restore 18
 578              	.LVL60:
 579 038c 13010102 		addi	sp,sp,32
 580              		.cfi_def_cfa_offset 0
 581 0390 67800000 		jr	ra
 582              		.cfi_endproc
 583              	.LFE29:
 585              	.Letext0:
 586              		.file 3 "src/../h/../lib/hw.h"
 587              		.file 4 "src/../h/../h/memorija.h"
 588              		.file 5 "src/../h/thread.h"
 589              		.file 6 "src/../h/Bafer.h"
 590              		.file 7 "src/../h/../h/print.h"
 591              		.file 8 "<built-in>"
GAS LISTING /tmp/cctkymxF.s 			page 15

