GAS LISTING /tmp/ccY4LixC.s 			page 1


   1              		.file	"konzola.cpp"
   2              		.option pic
   3              		.option norelax
   4              		.text
   5              	.Ltext0:
   6              		.align	2
   7              		.globl	_ZN7Konzola7putulazEi
   9              	_ZN7Konzola7putulazEi:
  10              	.LFB19:
  11              		.file 1 "src/konzola.cpp"
   1:src/konzola.cpp **** //
   2:src/konzola.cpp **** // Created by os on 9/14/22.
   3:src/konzola.cpp **** //
   4:src/konzola.cpp **** 
   5:src/konzola.cpp **** #include "../h/konzola.h"
   6:src/konzola.cpp **** 
   7:src/konzola.cpp **** Bafer* Konzola::baferizlaz = nullptr;
   8:src/konzola.cpp **** Bafer* Konzola::baferulaz = nullptr;
   9:src/konzola.cpp **** 
  10:src/konzola.cpp **** int Konzola::kapacitet=1024;
  11:src/konzola.cpp **** 
  12:src/konzola.cpp **** void Konzola::putulaz(int val) {
  12              		.loc 1 12 32
  13              		.cfi_startproc
  14              	.LVL0:
  15 0000 130101F9 		addi	sp,sp,-112
  16              		.cfi_def_cfa_offset 112
  17 0004 23341106 		sd	ra,104(sp)
  18 0008 23308106 		sd	s0,96(sp)
  19 000c 233C9104 		sd	s1,88(sp)
  20 0010 23382105 		sd	s2,80(sp)
  21 0014 23343105 		sd	s3,72(sp)
  22              		.cfi_offset 1, -8
  23              		.cfi_offset 8, -16
  24              		.cfi_offset 9, -24
  25              		.cfi_offset 18, -32
  26              		.cfi_offset 19, -40
  27 0018 13040107 		addi	s0,sp,112
  28              		.cfi_def_cfa 8, 0
  29 001c 93040500 		mv	s1,a0
  13:src/konzola.cpp ****     if(baferulaz==nullptr) {
  30              		.loc 1 13 5
  31              		.loc 1 13 17 is_stmt 0
  32 0020 97070000 		ld	a5,.LANCHOR0
  32      83B70700 
  33              		.loc 1 13 5
  34 0028 638A0702 		beqz	a5,.L4
  35              	.LVL1:
  36              	.L2:
  14:src/konzola.cpp ****         baferulaz=(Bafer*) Memorija::alokacija(kapacitet*sizeof(Bafer));
  15:src/konzola.cpp ****         *baferulaz=Bafer(kapacitet);
  16:src/konzola.cpp ****     }
  17:src/konzola.cpp ****     baferulaz->put(val);
  37              		.loc 1 17 5 is_stmt 1
  38              		.loc 1 17 19 is_stmt 0
  39 002c 93850400 		mv	a1,s1
  40 0030 17050000 		ld	a0,.LANCHOR0
GAS LISTING /tmp/ccY4LixC.s 			page 2


  40      03350500 
  41 0038 97000000 		call	_ZN5Bafer3putEi@plt
  41      E7800000 
  42              	.LVL2:
  18:src/konzola.cpp **** }
  43              		.loc 1 18 1
  44 0040 83308106 		ld	ra,104(sp)
  45              		.cfi_remember_state
  46              		.cfi_restore 1
  47 0044 03340106 		ld	s0,96(sp)
  48              		.cfi_restore 8
  49              		.cfi_def_cfa 2, 112
  50 0048 83348105 		ld	s1,88(sp)
  51              		.cfi_restore 9
  52 004c 03390105 		ld	s2,80(sp)
  53              		.cfi_restore 18
  54 0050 83398104 		ld	s3,72(sp)
  55              		.cfi_restore 19
  56 0054 13010107 		addi	sp,sp,112
  57              		.cfi_def_cfa_offset 0
  58 0058 67800000 		jr	ra
  59              	.LVL3:
  60              	.L4:
  61              		.cfi_restore_state
  14:src/konzola.cpp ****         baferulaz=(Bafer*) Memorija::alokacija(kapacitet*sizeof(Bafer));
  62              		.loc 1 14 9 is_stmt 1
  14:src/konzola.cpp ****         baferulaz=(Bafer*) Memorija::alokacija(kapacitet*sizeof(Bafer));
  63              		.loc 1 14 48 is_stmt 0
  64 005c 17090000 		lla	s2,.LANCHOR1
  64      13090900 
  65 0064 83270900 		lw	a5,0(s2)
  14:src/konzola.cpp ****         baferulaz=(Bafer*) Memorija::alokacija(kapacitet*sizeof(Bafer));
  66              		.loc 1 14 47
  67 0068 13953700 		slli	a0,a5,3
  68              	.LVL4:
  69 006c 3305F540 		sub	a0,a0,a5
  70 0070 13153500 		slli	a0,a0,3
  71 0074 97000000 		call	_ZN8Memorija9alokacijaEm@plt
  71      E7800000 
  72              	.LVL5:
  14:src/konzola.cpp ****         baferulaz=(Bafer*) Memorija::alokacija(kapacitet*sizeof(Bafer));
  73              		.loc 1 14 18
  74 007c 97090000 		lla	s3,.LANCHOR0
  74      93890900 
  75 0084 23B0A900 		sd	a0,0(s3)
  15:src/konzola.cpp ****     }
  76              		.loc 1 15 9 is_stmt 1
  15:src/konzola.cpp ****     }
  77              		.loc 1 15 20 is_stmt 0
  78 0088 83250900 		lw	a1,0(s2)
  79 008c 130984F9 		addi	s2,s0,-104
  80 0090 13050900 		mv	a0,s2
  81 0094 97000000 		call	_ZN5BaferC1Ei@plt
  81      E7800000 
  82              	.LVL6:
  15:src/konzola.cpp ****     }
  83              		.loc 1 15 19
GAS LISTING /tmp/ccY4LixC.s 			page 3


  84 009c 83B70900 		ld	a5,0(s3)
  85 00a0 033804FA 		ld	a6,-96(s0)
  86 00a4 033584FA 		ld	a0,-88(s0)
  87 00a8 833504FB 		ld	a1,-80(s0)
  88 00ac 033684FB 		ld	a2,-72(s0)
  89 00b0 833604FC 		ld	a3,-64(s0)
  90 00b4 033784FC 		ld	a4,-56(s0)
  91 00b8 833884F9 		ld	a7,-104(s0)
  92 00bc 23B01701 		sd	a7,0(a5)
  93 00c0 23B40701 		sd	a6,8(a5)
  94 00c4 23B8A700 		sd	a0,16(a5)
  95 00c8 23BCB700 		sd	a1,24(a5)
  96 00cc 23B0C702 		sd	a2,32(a5)
  97 00d0 23B4D702 		sd	a3,40(a5)
  98 00d4 23B8E702 		sd	a4,48(a5)
  15:src/konzola.cpp ****     }
  99              		.loc 1 15 20
 100 00d8 13050900 		mv	a0,s2
 101 00dc 97000000 		call	_ZN5BaferD1Ev@plt
 101      E7800000 
 102              	.LVL7:
 103 00e4 6FF09FF4 		j	.L2
 104              		.cfi_endproc
 105              	.LFE19:
 107              		.align	2
 108              		.globl	_ZN7Konzola7getulazEv
 110              	_ZN7Konzola7getulazEv:
 111              	.LFB20:
  19:src/konzola.cpp **** 
  20:src/konzola.cpp **** int Konzola::getulaz() {
 112              		.loc 1 20 24 is_stmt 1
 113              		.cfi_startproc
 114 00e8 130101FA 		addi	sp,sp,-96
 115              		.cfi_def_cfa_offset 96
 116 00ec 233C1104 		sd	ra,88(sp)
 117 00f0 23388104 		sd	s0,80(sp)
 118 00f4 23349104 		sd	s1,72(sp)
 119 00f8 23302105 		sd	s2,64(sp)
 120              		.cfi_offset 1, -8
 121              		.cfi_offset 8, -16
 122              		.cfi_offset 9, -24
 123              		.cfi_offset 18, -32
 124 00fc 13040106 		addi	s0,sp,96
 125              		.cfi_def_cfa 8, 0
  21:src/konzola.cpp ****     if(baferulaz==nullptr) {
 126              		.loc 1 21 5
 127              		.loc 1 21 17 is_stmt 0
 128 0100 97070000 		ld	a5,.LANCHOR0
 128      83B70700 
 129              		.loc 1 21 5
 130 0108 63860702 		beqz	a5,.L8
 131              	.L6:
  22:src/konzola.cpp ****         baferulaz=(Bafer*) Memorija::alokacija(kapacitet*sizeof(Bafer));
  23:src/konzola.cpp ****         *baferulaz=Bafer(kapacitet);
  24:src/konzola.cpp ****     }
  25:src/konzola.cpp ****     return baferulaz->get();
 132              		.loc 1 25 5 is_stmt 1
GAS LISTING /tmp/ccY4LixC.s 			page 4


 133              		.loc 1 25 26 is_stmt 0
 134 010c 17050000 		ld	a0,.LANCHOR0
 134      03350500 
 135 0114 97000000 		call	_ZN5Bafer3getEv@plt
 135      E7800000 
 136              	.LVL8:
  26:src/konzola.cpp **** }
 137              		.loc 1 26 1
 138 011c 83308105 		ld	ra,88(sp)
 139              		.cfi_remember_state
 140              		.cfi_restore 1
 141 0120 03340105 		ld	s0,80(sp)
 142              		.cfi_restore 8
 143              		.cfi_def_cfa 2, 96
 144 0124 83348104 		ld	s1,72(sp)
 145              		.cfi_restore 9
 146 0128 03390104 		ld	s2,64(sp)
 147              		.cfi_restore 18
 148 012c 13010106 		addi	sp,sp,96
 149              		.cfi_def_cfa_offset 0
 150 0130 67800000 		jr	ra
 151              	.L8:
 152              		.cfi_restore_state
  22:src/konzola.cpp ****         baferulaz=(Bafer*) Memorija::alokacija(kapacitet*sizeof(Bafer));
 153              		.loc 1 22 9 is_stmt 1
  22:src/konzola.cpp ****         baferulaz=(Bafer*) Memorija::alokacija(kapacitet*sizeof(Bafer));
 154              		.loc 1 22 48 is_stmt 0
 155 0134 97040000 		lla	s1,.LANCHOR1
 155      93840400 
 156 013c 83A70400 		lw	a5,0(s1)
  22:src/konzola.cpp ****         baferulaz=(Bafer*) Memorija::alokacija(kapacitet*sizeof(Bafer));
 157              		.loc 1 22 47
 158 0140 13953700 		slli	a0,a5,3
 159 0144 3305F540 		sub	a0,a0,a5
 160 0148 13153500 		slli	a0,a0,3
 161 014c 97000000 		call	_ZN8Memorija9alokacijaEm@plt
 161      E7800000 
 162              	.LVL9:
  22:src/konzola.cpp ****         baferulaz=(Bafer*) Memorija::alokacija(kapacitet*sizeof(Bafer));
 163              		.loc 1 22 18
 164 0154 17090000 		lla	s2,.LANCHOR0
 164      13090900 
 165 015c 2330A900 		sd	a0,0(s2)
  23:src/konzola.cpp ****     }
 166              		.loc 1 23 9 is_stmt 1
  23:src/konzola.cpp ****     }
 167              		.loc 1 23 20 is_stmt 0
 168 0160 83A50400 		lw	a1,0(s1)
 169 0164 930484FA 		addi	s1,s0,-88
 170 0168 13850400 		mv	a0,s1
 171 016c 97000000 		call	_ZN5BaferC1Ei@plt
 171      E7800000 
 172              	.LVL10:
  23:src/konzola.cpp ****     }
 173              		.loc 1 23 19
 174 0174 83370900 		ld	a5,0(s2)
 175 0178 033804FB 		ld	a6,-80(s0)
GAS LISTING /tmp/ccY4LixC.s 			page 5


 176 017c 033584FB 		ld	a0,-72(s0)
 177 0180 833504FC 		ld	a1,-64(s0)
 178 0184 033684FC 		ld	a2,-56(s0)
 179 0188 833604FD 		ld	a3,-48(s0)
 180 018c 033784FD 		ld	a4,-40(s0)
 181 0190 833884FA 		ld	a7,-88(s0)
 182 0194 23B01701 		sd	a7,0(a5)
 183 0198 23B40701 		sd	a6,8(a5)
 184 019c 23B8A700 		sd	a0,16(a5)
 185 01a0 23BCB700 		sd	a1,24(a5)
 186 01a4 23B0C702 		sd	a2,32(a5)
 187 01a8 23B4D702 		sd	a3,40(a5)
 188 01ac 23B8E702 		sd	a4,48(a5)
  23:src/konzola.cpp ****     }
 189              		.loc 1 23 20
 190 01b0 13850400 		mv	a0,s1
 191 01b4 97000000 		call	_ZN5BaferD1Ev@plt
 191      E7800000 
 192              	.LVL11:
 193 01bc 6FF01FF5 		j	.L6
 194              		.cfi_endproc
 195              	.LFE20:
 197              		.align	2
 198              		.globl	_ZN7Konzola8putizlazEi
 200              	_ZN7Konzola8putizlazEi:
 201              	.LFB21:
  27:src/konzola.cpp **** 
  28:src/konzola.cpp **** void Konzola::putizlaz(int val) {
 202              		.loc 1 28 33 is_stmt 1
 203              		.cfi_startproc
 204              	.LVL12:
 205 01c0 130101F9 		addi	sp,sp,-112
 206              		.cfi_def_cfa_offset 112
 207 01c4 23341106 		sd	ra,104(sp)
 208 01c8 23308106 		sd	s0,96(sp)
 209 01cc 233C9104 		sd	s1,88(sp)
 210 01d0 23382105 		sd	s2,80(sp)
 211 01d4 23343105 		sd	s3,72(sp)
 212              		.cfi_offset 1, -8
 213              		.cfi_offset 8, -16
 214              		.cfi_offset 9, -24
 215              		.cfi_offset 18, -32
 216              		.cfi_offset 19, -40
 217 01d8 13040107 		addi	s0,sp,112
 218              		.cfi_def_cfa 8, 0
 219 01dc 93040500 		mv	s1,a0
  29:src/konzola.cpp ****     if(baferizlaz==nullptr) {
 220              		.loc 1 29 5
 221              		.loc 1 29 18 is_stmt 0
 222 01e0 97070000 		ld	a5,.LANCHOR0+8
 222      83B70700 
 223              		.loc 1 29 5
 224 01e8 638A0702 		beqz	a5,.L12
 225              	.LVL13:
 226              	.L10:
  30:src/konzola.cpp ****         baferizlaz=(Bafer*) Memorija::alokacija(kapacitet*sizeof(Bafer));
  31:src/konzola.cpp ****         *baferizlaz=Bafer(kapacitet);
GAS LISTING /tmp/ccY4LixC.s 			page 6


  32:src/konzola.cpp ****     }
  33:src/konzola.cpp ****     baferizlaz->put(val);
 227              		.loc 1 33 5 is_stmt 1
 228              		.loc 1 33 20 is_stmt 0
 229 01ec 93850400 		mv	a1,s1
 230 01f0 17050000 		ld	a0,.LANCHOR0+8
 230      03350500 
 231 01f8 97000000 		call	_ZN5Bafer3putEi@plt
 231      E7800000 
 232              	.LVL14:
  34:src/konzola.cpp **** }
 233              		.loc 1 34 1
 234 0200 83308106 		ld	ra,104(sp)
 235              		.cfi_remember_state
 236              		.cfi_restore 1
 237 0204 03340106 		ld	s0,96(sp)
 238              		.cfi_restore 8
 239              		.cfi_def_cfa 2, 112
 240 0208 83348105 		ld	s1,88(sp)
 241              		.cfi_restore 9
 242 020c 03390105 		ld	s2,80(sp)
 243              		.cfi_restore 18
 244 0210 83398104 		ld	s3,72(sp)
 245              		.cfi_restore 19
 246 0214 13010107 		addi	sp,sp,112
 247              		.cfi_def_cfa_offset 0
 248 0218 67800000 		jr	ra
 249              	.LVL15:
 250              	.L12:
 251              		.cfi_restore_state
  30:src/konzola.cpp ****         baferizlaz=(Bafer*) Memorija::alokacija(kapacitet*sizeof(Bafer));
 252              		.loc 1 30 9 is_stmt 1
  30:src/konzola.cpp ****         baferizlaz=(Bafer*) Memorija::alokacija(kapacitet*sizeof(Bafer));
 253              		.loc 1 30 49 is_stmt 0
 254 021c 17090000 		lla	s2,.LANCHOR1
 254      13090900 
 255 0224 83270900 		lw	a5,0(s2)
  30:src/konzola.cpp ****         baferizlaz=(Bafer*) Memorija::alokacija(kapacitet*sizeof(Bafer));
 256              		.loc 1 30 48
 257 0228 13953700 		slli	a0,a5,3
 258              	.LVL16:
 259 022c 3305F540 		sub	a0,a0,a5
 260 0230 13153500 		slli	a0,a0,3
 261 0234 97000000 		call	_ZN8Memorija9alokacijaEm@plt
 261      E7800000 
 262              	.LVL17:
  30:src/konzola.cpp ****         baferizlaz=(Bafer*) Memorija::alokacija(kapacitet*sizeof(Bafer));
 263              		.loc 1 30 19
 264 023c 97090000 		lla	s3,.LANCHOR0
 264      93890900 
 265 0244 23B4A900 		sd	a0,8(s3)
  31:src/konzola.cpp ****     }
 266              		.loc 1 31 9 is_stmt 1
  31:src/konzola.cpp ****     }
 267              		.loc 1 31 21 is_stmt 0
 268 0248 83250900 		lw	a1,0(s2)
 269 024c 130984F9 		addi	s2,s0,-104
GAS LISTING /tmp/ccY4LixC.s 			page 7


 270 0250 13050900 		mv	a0,s2
 271 0254 97000000 		call	_ZN5BaferC1Ei@plt
 271      E7800000 
 272              	.LVL18:
  31:src/konzola.cpp ****     }
 273              		.loc 1 31 20
 274 025c 83B78900 		ld	a5,8(s3)
 275 0260 033804FA 		ld	a6,-96(s0)
 276 0264 033584FA 		ld	a0,-88(s0)
 277 0268 833504FB 		ld	a1,-80(s0)
 278 026c 033684FB 		ld	a2,-72(s0)
 279 0270 833604FC 		ld	a3,-64(s0)
 280 0274 033784FC 		ld	a4,-56(s0)
 281 0278 833884F9 		ld	a7,-104(s0)
 282 027c 23B01701 		sd	a7,0(a5)
 283 0280 23B40701 		sd	a6,8(a5)
 284 0284 23B8A700 		sd	a0,16(a5)
 285 0288 23BCB700 		sd	a1,24(a5)
 286 028c 23B0C702 		sd	a2,32(a5)
 287 0290 23B4D702 		sd	a3,40(a5)
 288 0294 23B8E702 		sd	a4,48(a5)
  31:src/konzola.cpp ****     }
 289              		.loc 1 31 21
 290 0298 13050900 		mv	a0,s2
 291 029c 97000000 		call	_ZN5BaferD1Ev@plt
 291      E7800000 
 292              	.LVL19:
 293 02a4 6FF09FF4 		j	.L10
 294              		.cfi_endproc
 295              	.LFE21:
 297              		.align	2
 298              		.globl	_ZN7Konzola8getizlazEv
 300              	_ZN7Konzola8getizlazEv:
 301              	.LFB22:
  35:src/konzola.cpp **** 
  36:src/konzola.cpp **** int Konzola::getizlaz() {
 302              		.loc 1 36 25 is_stmt 1
 303              		.cfi_startproc
 304 02a8 130101FA 		addi	sp,sp,-96
 305              		.cfi_def_cfa_offset 96
 306 02ac 233C1104 		sd	ra,88(sp)
 307 02b0 23388104 		sd	s0,80(sp)
 308 02b4 23349104 		sd	s1,72(sp)
 309 02b8 23302105 		sd	s2,64(sp)
 310              		.cfi_offset 1, -8
 311              		.cfi_offset 8, -16
 312              		.cfi_offset 9, -24
 313              		.cfi_offset 18, -32
 314 02bc 13040106 		addi	s0,sp,96
 315              		.cfi_def_cfa 8, 0
  37:src/konzola.cpp ****     if(baferizlaz==nullptr) {
 316              		.loc 1 37 5
 317              		.loc 1 37 18 is_stmt 0
 318 02c0 97070000 		ld	a5,.LANCHOR0+8
 318      83B70700 
 319              		.loc 1 37 5
 320 02c8 63860702 		beqz	a5,.L16
GAS LISTING /tmp/ccY4LixC.s 			page 8


 321              	.L14:
  38:src/konzola.cpp ****         baferizlaz=(Bafer*) Memorija::alokacija(kapacitet*sizeof(Bafer));
  39:src/konzola.cpp ****         *baferizlaz=Bafer(kapacitet);
  40:src/konzola.cpp ****     }
  41:src/konzola.cpp ****     return baferizlaz->get();
 322              		.loc 1 41 5 is_stmt 1
 323              		.loc 1 41 27 is_stmt 0
 324 02cc 17050000 		ld	a0,.LANCHOR0+8
 324      03350500 
 325 02d4 97000000 		call	_ZN5Bafer3getEv@plt
 325      E7800000 
 326              	.LVL20:
  42:src/konzola.cpp **** }
 327              		.loc 1 42 1
 328 02dc 83308105 		ld	ra,88(sp)
 329              		.cfi_remember_state
 330              		.cfi_restore 1
 331 02e0 03340105 		ld	s0,80(sp)
 332              		.cfi_restore 8
 333              		.cfi_def_cfa 2, 96
 334 02e4 83348104 		ld	s1,72(sp)
 335              		.cfi_restore 9
 336 02e8 03390104 		ld	s2,64(sp)
 337              		.cfi_restore 18
 338 02ec 13010106 		addi	sp,sp,96
 339              		.cfi_def_cfa_offset 0
 340 02f0 67800000 		jr	ra
 341              	.L16:
 342              		.cfi_restore_state
  38:src/konzola.cpp ****         baferizlaz=(Bafer*) Memorija::alokacija(kapacitet*sizeof(Bafer));
 343              		.loc 1 38 9 is_stmt 1
  38:src/konzola.cpp ****         baferizlaz=(Bafer*) Memorija::alokacija(kapacitet*sizeof(Bafer));
 344              		.loc 1 38 49 is_stmt 0
 345 02f4 97040000 		lla	s1,.LANCHOR1
 345      93840400 
 346 02fc 83A70400 		lw	a5,0(s1)
  38:src/konzola.cpp ****         baferizlaz=(Bafer*) Memorija::alokacija(kapacitet*sizeof(Bafer));
 347              		.loc 1 38 48
 348 0300 13953700 		slli	a0,a5,3
 349 0304 3305F540 		sub	a0,a0,a5
 350 0308 13153500 		slli	a0,a0,3
 351 030c 97000000 		call	_ZN8Memorija9alokacijaEm@plt
 351      E7800000 
 352              	.LVL21:
  38:src/konzola.cpp ****         baferizlaz=(Bafer*) Memorija::alokacija(kapacitet*sizeof(Bafer));
 353              		.loc 1 38 19
 354 0314 17090000 		lla	s2,.LANCHOR0
 354      13090900 
 355 031c 2334A900 		sd	a0,8(s2)
  39:src/konzola.cpp ****     }
 356              		.loc 1 39 9 is_stmt 1
  39:src/konzola.cpp ****     }
 357              		.loc 1 39 21 is_stmt 0
 358 0320 83A50400 		lw	a1,0(s1)
 359 0324 930484FA 		addi	s1,s0,-88
 360 0328 13850400 		mv	a0,s1
 361 032c 97000000 		call	_ZN5BaferC1Ei@plt
GAS LISTING /tmp/ccY4LixC.s 			page 9


 361      E7800000 
 362              	.LVL22:
  39:src/konzola.cpp ****     }
 363              		.loc 1 39 20
 364 0334 83378900 		ld	a5,8(s2)
 365 0338 033804FB 		ld	a6,-80(s0)
 366 033c 033584FB 		ld	a0,-72(s0)
 367 0340 833504FC 		ld	a1,-64(s0)
 368 0344 033684FC 		ld	a2,-56(s0)
 369 0348 833604FD 		ld	a3,-48(s0)
 370 034c 033784FD 		ld	a4,-40(s0)
 371 0350 833884FA 		ld	a7,-88(s0)
 372 0354 23B01701 		sd	a7,0(a5)
 373 0358 23B40701 		sd	a6,8(a5)
 374 035c 23B8A700 		sd	a0,16(a5)
 375 0360 23BCB700 		sd	a1,24(a5)
 376 0364 23B0C702 		sd	a2,32(a5)
 377 0368 23B4D702 		sd	a3,40(a5)
 378 036c 23B8E702 		sd	a4,48(a5)
  39:src/konzola.cpp ****     }
 379              		.loc 1 39 21
 380 0370 13850400 		mv	a0,s1
 381 0374 97000000 		call	_ZN5BaferD1Ev@plt
 381      E7800000 
 382              	.LVL23:
 383 037c 6FF01FF5 		j	.L14
 384              		.cfi_endproc
 385              	.LFE22:
 387              		.align	2
 388              		.globl	_ZN7Konzola8getcntbiEv
 390              	_ZN7Konzola8getcntbiEv:
 391              	.LFB23:
  43:src/konzola.cpp **** 
  44:src/konzola.cpp **** int Konzola::getcntbi() {
 392              		.loc 1 44 25 is_stmt 1
 393              		.cfi_startproc
 394 0380 130101FF 		addi	sp,sp,-16
 395              		.cfi_def_cfa_offset 16
 396 0384 23341100 		sd	ra,8(sp)
 397 0388 23308100 		sd	s0,0(sp)
 398              		.cfi_offset 1, -8
 399              		.cfi_offset 8, -16
 400 038c 13040101 		addi	s0,sp,16
 401              		.cfi_def_cfa 8, 0
  45:src/konzola.cpp ****     return baferizlaz->getCnt();
 402              		.loc 1 45 5
 403              		.loc 1 45 30 is_stmt 0
 404 0390 17050000 		ld	a0,.LANCHOR0+8
 404      03350500 
 405 0398 97000000 		call	_ZN5Bafer6getCntEv@plt
 405      E7800000 
 406              	.LVL24:
  46:src/konzola.cpp **** }
 407              		.loc 1 46 1
 408 03a0 83308100 		ld	ra,8(sp)
 409              		.cfi_restore 1
 410 03a4 03340100 		ld	s0,0(sp)
GAS LISTING /tmp/ccY4LixC.s 			page 10


 411              		.cfi_restore 8
 412              		.cfi_def_cfa 2, 16
 413 03a8 13010101 		addi	sp,sp,16
 414              		.cfi_def_cfa_offset 0
 415 03ac 67800000 		jr	ra
 416              		.cfi_endproc
 417              	.LFE23:
 419              		.align	2
 420              		.globl	_ZN7Konzola8getcntbuEv
 422              	_ZN7Konzola8getcntbuEv:
 423              	.LFB24:
  47:src/konzola.cpp **** 
  48:src/konzola.cpp **** int Konzola::getcntbu() {
 424              		.loc 1 48 25 is_stmt 1
 425              		.cfi_startproc
 426 03b0 130101FF 		addi	sp,sp,-16
 427              		.cfi_def_cfa_offset 16
 428 03b4 23341100 		sd	ra,8(sp)
 429 03b8 23308100 		sd	s0,0(sp)
 430              		.cfi_offset 1, -8
 431              		.cfi_offset 8, -16
 432 03bc 13040101 		addi	s0,sp,16
 433              		.cfi_def_cfa 8, 0
  49:src/konzola.cpp ****     return baferulaz->getCnt();
 434              		.loc 1 49 5
 435              		.loc 1 49 29 is_stmt 0
 436 03c0 17050000 		ld	a0,.LANCHOR0
 436      03350500 
 437 03c8 97000000 		call	_ZN5Bafer6getCntEv@plt
 437      E7800000 
 438              	.LVL25:
  50:src/konzola.cpp **** }
 439              		.loc 1 50 1
 440 03d0 83308100 		ld	ra,8(sp)
 441              		.cfi_restore 1
 442 03d4 03340100 		ld	s0,0(sp)
 443              		.cfi_restore 8
 444              		.cfi_def_cfa 2, 16
 445 03d8 13010101 		addi	sp,sp,16
 446              		.cfi_def_cfa_offset 0
 447 03dc 67800000 		jr	ra
 448              		.cfi_endproc
 449              	.LFE24:
 451              		.globl	_ZN7Konzola9kapacitetE
 452              		.globl	_ZN7Konzola9baferulazE
 453              		.globl	_ZN7Konzola10baferizlazE
 454              		.data
 455              		.align	2
 456              		.set	.LANCHOR1,. + 0
 459              	_ZN7Konzola9kapacitetE:
 460 0000 00040000 		.word	1024
 461              		.bss
 462              		.align	3
 463              		.set	.LANCHOR0,. + 0
 466              	_ZN7Konzola9baferulazE:
 467 0000 00000000 		.zero	8
 467      00000000 
GAS LISTING /tmp/ccY4LixC.s 			page 11


 470              	_ZN7Konzola10baferizlazE:
 471 0008 00000000 		.zero	8
 471      00000000 
 472              		.text
 473              	.Letext0:
 474              		.file 2 "src/../h/../lib/hw.h"
 475              		.file 3 "src/../h/../h/memorija.h"
 476              		.file 4 "src/../h/thread.h"
 477              		.file 5 "src/../h/semafor.h"
 478              		.file 6 "src/../h/Bafer.h"
 479              		.file 7 "src/../h/konzola.h"
 480              		.file 8 "<built-in>"
GAS LISTING /tmp/ccY4LixC.s 			page 12

