GAS LISTING /tmp/ccpRLX6w.s 			page 1


   1              		.file	"memorija.cpp"
   2              		.option pic
   3              		.option norelax
   4              		.text
   5              	.Ltext0:
   6              		.align	2
   7              		.globl	_ZN8Memorija9alokacijaEm
   9              	_ZN8Memorija9alokacijaEm:
  10              	.LFB1:
  11              		.file 1 "src/memorija.cpp"
   1:src/memorija.cpp **** //
   2:src/memorija.cpp **** // Created by os on 8/5/22.
   3:src/memorija.cpp **** //
   4:src/memorija.cpp **** 
   5:src/memorija.cpp **** #include "../h/memorija.h"
   6:src/memorija.cpp **** #include "../h/print.h"
   7:src/memorija.cpp **** 
   8:src/memorija.cpp **** Memorija::struktura* Memorija::head = nullptr;
   9:src/memorija.cpp **** 
  10:src/memorija.cpp **** void* Memorija::alokacija(size_t size) {
  12              		.loc 1 10 40
  13              		.cfi_startproc
  14              	.LVL0:
  15 0000 130101FF 		addi	sp,sp,-16
  16              		.cfi_def_cfa_offset 16
  17 0004 23348100 		sd	s0,8(sp)
  18              		.cfi_offset 8, -8
  19 0008 13040101 		addi	s0,sp,16
  20              		.cfi_def_cfa 8, 0
  11:src/memorija.cpp **** 
  12:src/memorija.cpp ****     CreateMemorija();
  21              		.loc 1 12 5
  22              	.LBB9:
  23              	.LBB10:
  24              		.file 2 "src/../h/memorija.h"
   1:src/../h/memorija.h **** //
   2:src/../h/memorija.h **** // Created by os on 8/4/22.
   3:src/../h/memorija.h **** //
   4:src/../h/memorija.h **** #include "../lib/hw.h"
   5:src/../h/memorija.h **** #include "../lib/console.h"
   6:src/../h/memorija.h **** 
   7:src/../h/memorija.h **** #ifndef PROJECT_BASE_V1_1_MEMORIJA_H
   8:src/../h/memorija.h **** #define PROJECT_BASE_V1_1_MEMORIJA_H
   9:src/../h/memorija.h **** 
  10:src/../h/memorija.h **** using namespace std;
  11:src/../h/memorija.h **** 
  12:src/../h/memorija.h **** class Memorija {
  13:src/../h/memorija.h **** public:
  14:src/../h/memorija.h ****     static int oslobadjanje(void* add);
  15:src/../h/memorija.h ****     static void* alokacija(size_t size);
  16:src/../h/memorija.h **** 
  17:src/../h/memorija.h ****     static void Print();
  18:src/../h/memorija.h **** private:
  19:src/../h/memorija.h **** 
  20:src/../h/memorija.h ****     static void CreateMemorija() {
  21:src/../h/memorija.h ****         if (head == nullptr) {
  25              		.loc 2 21 9
GAS LISTING /tmp/ccpRLX6w.s 			page 2


  26              		.loc 2 21 18 is_stmt 0
  27 000c 97070000 		ld	a5,.LANCHOR0
  27      83B70700 
  28              		.loc 2 21 9
  29 0014 638A0702 		beqz	a5,.L14
  30              	.L2:
  31              	.LBE10:
  32              	.LBE9:
  13:src/memorija.cpp **** 
  14:src/memorija.cpp ****     if(size<0) return nullptr;
  33              		.loc 1 14 5 is_stmt 1
  15:src/memorija.cpp **** 
  16:src/memorija.cpp ****     size+=sizeof(struktura);
  34              		.loc 1 16 5
  35              		.loc 1 16 9 is_stmt 0
  36 0018 93078501 		addi	a5,a0,24
  37              	.LVL1:
  17:src/memorija.cpp **** 
  18:src/memorija.cpp ****     if(size%MEM_BLOCK_SIZE) size+= MEM_BLOCK_SIZE - size%MEM_BLOCK_SIZE; // ????
  38              		.loc 1 18 5 is_stmt 1
  39              		.loc 1 18 12 is_stmt 0
  40 001c 13F7F703 		andi	a4,a5,63
  41              		.loc 1 18 5
  42 0020 63060700 		beqz	a4,.L3
  43              		.loc 1 18 29 is_stmt 1 discriminator 1
  44              		.loc 1 18 33 is_stmt 0 discriminator 1
  45 0024 93F707FC 		andi	a5,a5,-64
  46              	.LVL2:
  47 0028 93870704 		addi	a5,a5,64
  48              	.LVL3:
  49              	.L3:
  19:src/memorija.cpp **** 
  20:src/memorija.cpp ****     struktura *temp = head;
  50              		.loc 1 20 5 is_stmt 1
  51              		.loc 1 20 16 is_stmt 0
  52 002c 17050000 		ld	a0,.LANCHOR0
  52      03350500 
  53              	.LVL4:
  54              	.L5:
  21:src/memorija.cpp ****     while(temp){
  55              		.loc 1 21 5 is_stmt 1
  56              		.loc 1 21 11
  57 0034 630C0504 		beqz	a0,.L4
  22:src/memorija.cpp ****         if(temp->size>=size) break;
  58              		.loc 1 22 9
  59              		.loc 1 22 18 is_stmt 0
  60 0038 03370501 		ld	a4,16(a0)
  61              		.loc 1 22 9
  62 003c 6378F704 		bgeu	a4,a5,.L4
  23:src/memorija.cpp ****         temp=temp->next;
  63              		.loc 1 23 9 is_stmt 1
  64              		.loc 1 23 13 is_stmt 0
  65 0040 03350500 		ld	a0,0(a0)
  66              	.LVL5:
  21:src/memorija.cpp ****     while(temp){
  67              		.loc 1 21 5
  68 0044 6FF01FFF 		j	.L5
GAS LISTING /tmp/ccpRLX6w.s 			page 3


  69              	.LVL6:
  70              	.L14:
  71              	.LBB12:
  72              	.LBB11:
  22:src/../h/memorija.h ****             head = (struktura * )(HEAP_START_ADDR);
  73              		.loc 2 22 13 is_stmt 1
  74              		.loc 2 22 18 is_stmt 0
  75 0048 97070000 		la	a5,HEAP_START_ADDR
  75      83B70700 
  76 0050 83B60700 		ld	a3,0(a5)
  77 0054 17070000 		lla	a4,.LANCHOR0
  77      13070700 
  78 005c 2330D700 		sd	a3,0(a4)
  23:src/../h/memorija.h ****             head->next = nullptr;
  79              		.loc 2 23 13 is_stmt 1
  80              		.loc 2 23 24 is_stmt 0
  81 0060 23B00600 		sd	zero,0(a3)
  24:src/../h/memorija.h ****             head->prev = nullptr;
  82              		.loc 2 24 13 is_stmt 1
  83              		.loc 2 24 19 is_stmt 0
  84 0064 03370700 		ld	a4,0(a4)
  85              		.loc 2 24 24
  86 0068 23340700 		sd	zero,8(a4)
  25:src/../h/memorija.h ****             head->size = (char *) HEAP_START_ADDR - (char *) HEAP_END_ADDR - sizeof(struktura);
  87              		.loc 2 25 13 is_stmt 1
  88              		.loc 2 25 26 is_stmt 0
  89 006c 83B70700 		ld	a5,0(a5)
  90              		.loc 2 25 53
  91 0070 97060000 		la	a3,HEAP_END_ADDR
  91      83B60600 
  92 0078 83B60600 		ld	a3,0(a3)
  93              		.loc 2 25 51
  94 007c B387D740 		sub	a5,a5,a3
  95              		.loc 2 25 76
  96 0080 938787FE 		addi	a5,a5,-24
  97              		.loc 2 25 24
  98 0084 2338F700 		sd	a5,16(a4)
  99 0088 6FF01FF9 		j	.L2
 100              	.LVL7:
 101              	.L4:
 102              	.LBE11:
 103              	.LBE12:
  24:src/memorija.cpp ****     }
  25:src/memorija.cpp **** 
  26:src/memorija.cpp ****     if(temp == nullptr) return nullptr;
 104              		.loc 1 26 5 is_stmt 1
 105 008c 63040504 		beqz	a0,.L1
  27:src/memorija.cpp **** 
  28:src/memorija.cpp ****     if(temp->size>size) {
 106              		.loc 1 28 5
 107              	.LBB13:
 108              		.loc 1 28 14 is_stmt 0
 109 0090 03370501 		ld	a4,16(a0)
 110              		.loc 1 28 5
 111 0094 63FCE704 		bleu	a4,a5,.L7
 112              	.LBB14:
  29:src/memorija.cpp ****         // 10-3-4 -> 5-3-4
GAS LISTING /tmp/ccpRLX6w.s 			page 4


  30:src/memorija.cpp ****         //ako ima ostatka
  31:src/memorija.cpp ****         //ostavljamo strukturu unutar bloka da nam govori
  32:src/memorija.cpp ****         //  kolika je velicina bloka koji je rezervisan
  33:src/memorija.cpp **** 
  34:src/memorija.cpp ****         int ostatak = temp->size - size; // ovo je preostao prostor bloka
 113              		.loc 1 34 9 is_stmt 1
 114              		.loc 1 34 13 is_stmt 0
 115 0098 3B07F740 		subw	a4,a4,a5
 116              	.LVL8:
  35:src/memorija.cpp ****         temp->size = size;
 117              		.loc 1 35 9 is_stmt 1
 118              		.loc 1 35 20 is_stmt 0
 119 009c 2338F500 		sd	a5,16(a0)
 120              	.LVL9:
  36:src/memorija.cpp ****         struktura *temp2 = (struktura *) ((char *) temp + size);
 121              		.loc 1 36 9 is_stmt 1
 122              		.loc 1 36 20 is_stmt 0
 123 00a0 B307F500 		add	a5,a0,a5
 124              	.LVL10:
  37:src/memorija.cpp ****         temp2->size = ostatak;
 125              		.loc 1 37 9 is_stmt 1
 126              		.loc 1 37 21 is_stmt 0
 127 00a4 23B8E700 		sd	a4,16(a5)
 128              	.LVL11:
  38:src/memorija.cpp ****         temp2->next = temp->next;
 129              		.loc 1 38 9 is_stmt 1
 130              		.loc 1 38 29 is_stmt 0
 131 00a8 03370500 		ld	a4,0(a0)
 132              		.loc 1 38 21
 133 00ac 23B0E700 		sd	a4,0(a5)
  39:src/memorija.cpp ****         temp2->prev = temp->prev;
 134              		.loc 1 39 9 is_stmt 1
 135              		.loc 1 39 29 is_stmt 0
 136 00b0 03378500 		ld	a4,8(a0)
 137              		.loc 1 39 21
 138 00b4 23B4E700 		sd	a4,8(a5)
  40:src/memorija.cpp ****         if (temp->next) temp->next->prev = temp2; // update sledbenika ako ga ima
 139              		.loc 1 40 9 is_stmt 1
 140              		.loc 1 40 19 is_stmt 0
 141 00b8 03370500 		ld	a4,0(a0)
 142              		.loc 1 40 9
 143 00bc 63040700 		beqz	a4,.L8
 144              		.loc 1 40 25 is_stmt 1 discriminator 1
 145              		.loc 1 40 42 is_stmt 0 discriminator 1
 146 00c0 2334F700 		sd	a5,8(a4)
 147              	.L8:
  41:src/memorija.cpp ****         if (temp->prev) temp->prev->next = temp2; //update prethodnika ako ga ima
 148              		.loc 1 41 9 is_stmt 1
 149              		.loc 1 41 19 is_stmt 0
 150 00c4 03378500 		ld	a4,8(a0)
 151              		.loc 1 41 9
 152 00c8 630C0700 		beqz	a4,.L9
 153              		.loc 1 41 25 is_stmt 1 discriminator 1
 154              		.loc 1 41 42 is_stmt 0 discriminator 1
 155 00cc 2330F700 		sd	a5,0(a4)
 156              	.LVL12:
 157              	.L10:
GAS LISTING /tmp/ccpRLX6w.s 			page 5


 158              	.LBE14:
 159              	.LBE13:
  42:src/memorija.cpp ****         else head=temp2; //ako nema prethodnika onda je temp2 head
  43:src/memorija.cpp ****     }
  44:src/memorija.cpp ****     //ako nema ostatka, treba samo da se spoje
  45:src/memorija.cpp ****     else{
  46:src/memorija.cpp ****         // 10-3-4 -> 10-4
  47:src/memorija.cpp ****         //ako se popuni ceo prostor nekog clana liste
  48:src/memorija.cpp ****         //struktura koju ostavljamo ostaje nepromenjena
  49:src/memorija.cpp ****         //  ali je brisemo iz liste slobodnih delova memorije
  50:src/memorija.cpp **** 
  51:src/memorija.cpp ****         if(temp->next) temp->next->prev = temp->prev;
  52:src/memorija.cpp ****         if(temp->prev) temp->prev->next = temp->next;
  53:src/memorija.cpp ****         else head=temp->next; //ako se brise prvi clan liste update head
  54:src/memorija.cpp ****     }
  55:src/memorija.cpp **** 
  56:src/memorija.cpp ****     return (char*)temp + sizeof(struktura);
 160              		.loc 1 56 5 is_stmt 1
 161              		.loc 1 56 42 is_stmt 0
 162 00d0 13058501 		addi	a0,a0,24
 163              	.LVL13:
 164              	.L1:
  57:src/memorija.cpp **** }
 165              		.loc 1 57 1
 166 00d4 03348100 		ld	s0,8(sp)
 167              		.cfi_remember_state
 168              		.cfi_restore 8
 169              		.cfi_def_cfa 2, 16
 170 00d8 13010101 		addi	sp,sp,16
 171              		.cfi_def_cfa_offset 0
 172 00dc 67800000 		jr	ra
 173              	.LVL14:
 174              	.L9:
 175              		.cfi_restore_state
 176              	.LBB16:
 177              	.LBB15:
  42:src/memorija.cpp ****         else head=temp2; //ako nema prethodnika onda je temp2 head
 178              		.loc 1 42 14 is_stmt 1
  42:src/memorija.cpp ****         else head=temp2; //ako nema prethodnika onda je temp2 head
 179              		.loc 1 42 18 is_stmt 0
 180 00e0 17070000 		sd	a5,.LANCHOR0,a4
 180      2330F700 
 181 00e8 6FF09FFE 		j	.L10
 182              	.LVL15:
 183              	.L7:
 184              	.LBE15:
  51:src/memorija.cpp ****         if(temp->prev) temp->prev->next = temp->next;
 185              		.loc 1 51 9 is_stmt 1
  51:src/memorija.cpp ****         if(temp->prev) temp->prev->next = temp->next;
 186              		.loc 1 51 18 is_stmt 0
 187 00ec 83370500 		ld	a5,0(a0)
 188              	.LVL16:
  51:src/memorija.cpp ****         if(temp->prev) temp->prev->next = temp->next;
 189              		.loc 1 51 9
 190 00f0 63860700 		beqz	a5,.L11
  51:src/memorija.cpp ****         if(temp->prev) temp->prev->next = temp->next;
 191              		.loc 1 51 24 is_stmt 1 discriminator 1
GAS LISTING /tmp/ccpRLX6w.s 			page 6


  51:src/memorija.cpp ****         if(temp->prev) temp->prev->next = temp->next;
 192              		.loc 1 51 49 is_stmt 0 discriminator 1
 193 00f4 03378500 		ld	a4,8(a0)
  51:src/memorija.cpp ****         if(temp->prev) temp->prev->next = temp->next;
 194              		.loc 1 51 41 discriminator 1
 195 00f8 23B4E700 		sd	a4,8(a5)
 196              	.L11:
  52:src/memorija.cpp ****         else head=temp->next; //ako se brise prvi clan liste update head
 197              		.loc 1 52 9 is_stmt 1
  52:src/memorija.cpp ****         else head=temp->next; //ako se brise prvi clan liste update head
 198              		.loc 1 52 18 is_stmt 0
 199 00fc 83378500 		ld	a5,8(a0)
  52:src/memorija.cpp ****         else head=temp->next; //ako se brise prvi clan liste update head
 200              		.loc 1 52 9
 201 0100 63880700 		beqz	a5,.L12
  52:src/memorija.cpp ****         else head=temp->next; //ako se brise prvi clan liste update head
 202              		.loc 1 52 24 is_stmt 1 discriminator 1
  52:src/memorija.cpp ****         else head=temp->next; //ako se brise prvi clan liste update head
 203              		.loc 1 52 49 is_stmt 0 discriminator 1
 204 0104 03370500 		ld	a4,0(a0)
  52:src/memorija.cpp ****         else head=temp->next; //ako se brise prvi clan liste update head
 205              		.loc 1 52 41 discriminator 1
 206 0108 23B0E700 		sd	a4,0(a5)
 207 010c 6FF05FFC 		j	.L10
 208              	.L12:
  53:src/memorija.cpp ****     }
 209              		.loc 1 53 14 is_stmt 1
  53:src/memorija.cpp ****     }
 210              		.loc 1 53 25 is_stmt 0
 211 0110 83370500 		ld	a5,0(a0)
  53:src/memorija.cpp ****     }
 212              		.loc 1 53 18
 213 0114 17070000 		sd	a5,.LANCHOR0,a4
 213      2330F700 
 214 011c 6FF05FFB 		j	.L10
 215              	.LBE16:
 216              		.cfi_endproc
 217              	.LFE1:
 219              		.align	2
 220              		.globl	_ZN8Memorija12oslobadjanjeEPv
 222              	_ZN8Memorija12oslobadjanjeEPv:
 223              	.LFB2:
  58:src/memorija.cpp **** 
  59:src/memorija.cpp **** int Memorija::oslobadjanje(void *add) {
 224              		.loc 1 59 39 is_stmt 1
 225              		.cfi_startproc
 226              	.LVL17:
 227 0120 130101FF 		addi	sp,sp,-16
 228              		.cfi_def_cfa_offset 16
 229 0124 23348100 		sd	s0,8(sp)
 230              		.cfi_offset 8, -8
 231 0128 13040101 		addi	s0,sp,16
 232              		.cfi_def_cfa 8, 0
  60:src/memorija.cpp **** 
  61:src/memorija.cpp ****     if(!add) return -1;
 233              		.loc 1 61 5
 234 012c 630C050E 		beqz	a0,.L26
GAS LISTING /tmp/ccpRLX6w.s 			page 7


  62:src/memorija.cpp ****     if(!head) return -2;
 235              		.loc 1 62 5
 236              		.loc 1 62 8 is_stmt 0
 237 0130 97070000 		ld	a5,.LANCHOR0
 237      83B70700 
 238              		.loc 1 62 5
 239 0138 63980700 		bnez	a5,.L18
 240              		.loc 1 62 23
 241 013c 1305E0FF 		li	a0,-2
 242              	.LVL18:
 243 0140 6F00C006 		j	.L16
 244              	.LVL19:
 245              	.L29:
  63:src/memorija.cpp **** 
  64:src/memorija.cpp ****     struktura* temp=head;
  65:src/memorija.cpp ****     bool flag=false;
  66:src/memorija.cpp ****     while((char*)temp < (char*)add){
  67:src/memorija.cpp ****         if(temp->next==nullptr){
  68:src/memorija.cpp ****             flag=true;
  69:src/memorija.cpp ****             break;
  70:src/memorija.cpp ****         }
  71:src/memorija.cpp ****         temp=temp->next;
 246              		.loc 1 71 13
 247 0144 93070700 		mv	a5,a4
 248              	.LVL20:
 249              	.L18:
  66:src/memorija.cpp ****         if(temp->next==nullptr){
 250              		.loc 1 66 5 is_stmt 1
  66:src/memorija.cpp ****         if(temp->next==nullptr){
 251              		.loc 1 66 23
 252 0148 63FAA700 		bgeu	a5,a0,.L28
  67:src/memorija.cpp ****             flag=true;
 253              		.loc 1 67 9
  67:src/memorija.cpp ****             flag=true;
 254              		.loc 1 67 18 is_stmt 0
 255 014c 03B70700 		ld	a4,0(a5)
  67:src/memorija.cpp ****             flag=true;
 256              		.loc 1 67 9
 257 0150 E31A07FE 		bnez	a4,.L29
  68:src/memorija.cpp ****             break;
 258              		.loc 1 68 17
 259 0154 93051000 		li	a1,1
 260 0158 6F008000 		j	.L17
 261              	.L28:
  65:src/memorija.cpp ****     while((char*)temp < (char*)add){
 262              		.loc 1 65 10
 263 015c 93050000 		li	a1,0
 264              	.L17:
 265              	.LVL21:
  72:src/memorija.cpp ****     }
  73:src/memorija.cpp **** 
  74:src/memorija.cpp **** 
  75:src/memorija.cpp ****     //ako je flag=true to znaci da se oslobadja poslednji blok
  76:src/memorija.cpp ****     //  temp pokazuje na poslednje slobodno polje liste
  77:src/memorija.cpp **** 
  78:src/memorija.cpp ****     //ako je flag=false to znaci da se oslobadja ne poslednji blok
  79:src/memorija.cpp ****     //  temp pokazuje na prvo polje ispod onog koje se oslobadja
GAS LISTING /tmp/ccpRLX6w.s 			page 8


  80:src/memorija.cpp **** 
  81:src/memorija.cpp ****     struktura* novo = (struktura*)((char*)add-sizeof(struktura));
 266              		.loc 1 81 5 is_stmt 1
 267              		.loc 1 81 16 is_stmt 0
 268 0160 930685FE 		addi	a3,a0,-24
 269              	.LVL22:
  82:src/memorija.cpp ****     int size = novo->size;
 270              		.loc 1 82 5 is_stmt 1
 271              		.loc 1 82 22 is_stmt 0
 272 0164 033685FF 		ld	a2,-8(a0)
 273              		.loc 1 82 9
 274 0168 1B070600 		sext.w	a4,a2
 275              	.LVL23:
  83:src/memorija.cpp **** 
  84:src/memorija.cpp ****     if ((char *) add + size - sizeof(struktura) == (char *) temp) { // - sizeof(struktura) jer add 
 276              		.loc 1 84 5 is_stmt 1
 277              		.loc 1 84 29 is_stmt 0
 278 016c 130787FE 		addi	a4,a4,-24
 279              	.LVL24:
 280 0170 3307E500 		add	a4,a0,a4
 281              	.LVL25:
 282              		.loc 1 84 5
 283 0174 6302F704 		beq	a4,a5,.L34
  85:src/memorija.cpp **** 
  86:src/memorija.cpp ****         //treba temp da se utopi u novo i da se doda u listu
  87:src/memorija.cpp ****         // 3 5 (3) 2 5 -> 3 5 [5] 5
  88:src/memorija.cpp ****         novo->size+=temp->size;
  89:src/memorija.cpp ****         novo->next=temp->next;
  90:src/memorija.cpp ****         if(temp->next) temp->next->prev=novo;
  91:src/memorija.cpp ****         novo->prev=temp->prev;
  92:src/memorija.cpp ****         if(temp->prev) temp->prev->next=novo;
  93:src/memorija.cpp ****         else head=novo;
  94:src/memorija.cpp ****     }
  95:src/memorija.cpp ****     else{
  96:src/memorija.cpp ****         //ne treba da se spoji treba da se doda u listu
  97:src/memorija.cpp ****         // 3 5 (3) 2 5 -> 3 5 [3] 2 5
  98:src/memorija.cpp ****         novo->next=temp;
 284              		.loc 1 98 9 is_stmt 1
 285              		.loc 1 98 19 is_stmt 0
 286 0178 2334F5FE 		sd	a5,-24(a0)
  99:src/memorija.cpp ****         novo->prev=temp->prev;
 287              		.loc 1 99 9 is_stmt 1
 288              		.loc 1 99 26 is_stmt 0
 289 017c 03B78700 		ld	a4,8(a5)
 290              		.loc 1 99 19
 291 0180 2338E5FE 		sd	a4,-16(a0)
 100:src/memorija.cpp ****         if(temp->prev) temp->prev->next=novo;
 292              		.loc 1 100 9 is_stmt 1
 293 0184 63080706 		beqz	a4,.L23
 294              		.loc 1 100 24 discriminator 1
 295              		.loc 1 100 40 is_stmt 0 discriminator 1
 296 0188 2330D700 		sd	a3,0(a4)
 297              	.L24:
 101:src/memorija.cpp ****         else head=novo;
 102:src/memorija.cpp ****         temp->prev=novo;
 298              		.loc 1 102 9 is_stmt 1
 299              		.loc 1 102 19 is_stmt 0
GAS LISTING /tmp/ccpRLX6w.s 			page 9


 300 018c 23B4D700 		sd	a3,8(a5)
 301              	.LVL26:
 302              	.L22:
 103:src/memorija.cpp ****     }
 104:src/memorija.cpp **** 
 105:src/memorija.cpp ****     //sada smo dodali novo u listu slobodnih mesta
 106:src/memorija.cpp ****     //  i mozda spojili sa slobodnim mestom desno od njega
 107:src/memorija.cpp ****     //  treba proveriti da li se sada i moze spojiti sa levom stranom
 108:src/memorija.cpp **** 
 109:src/memorija.cpp ****     if(flag==false) temp=novo->prev;
 303              		.loc 1 109 5 is_stmt 1
 304 0190 63940500 		bnez	a1,.L25
 305              		.loc 1 109 21 discriminator 1
 306              		.loc 1 109 25 is_stmt 0 discriminator 1
 307 0194 833705FF 		ld	a5,-16(a0)
 308              	.LVL27:
 309              	.L25:
 110:src/memorija.cpp ****     //temp sada pokazuje na nivo iznad strukture 'novo'
 111:src/memorija.cpp ****     // 3 4 5 (6) 2; 5->temp, 6->novo
 112:src/memorija.cpp **** 
 113:src/memorija.cpp ****     if (temp && (char *) temp + temp->size == (char *) novo){
 310              		.loc 1 113 5 is_stmt 1
 311 0198 638A0708 		beqz	a5,.L30
 312              		.loc 1 113 39 is_stmt 0 discriminator 1
 313 019c 03B70701 		ld	a4,16(a5)
 314              		.loc 1 113 31 discriminator 1
 315 01a0 3386E700 		add	a2,a5,a4
 316              		.loc 1 113 14 discriminator 1
 317 01a4 630ED604 		beq	a2,a3,.L35
 114:src/memorija.cpp ****         //treba novo da se utopi u temp
 115:src/memorija.cpp ****         // 3 4 {5} (6) 2 -> 3 4 [11] 2
 116:src/memorija.cpp ****         temp->size+=novo->size;
 117:src/memorija.cpp ****         temp->next=novo->next;
 118:src/memorija.cpp ****         if(novo->next) novo->next->prev=temp;
 119:src/memorija.cpp ****     }
 120:src/memorija.cpp **** 
 121:src/memorija.cpp ****     return 0;
 318              		.loc 1 121 12
 319 01a8 13050000 		li	a0,0
 320              	.LVL28:
 321              	.L16:
 122:src/memorija.cpp **** }
 322              		.loc 1 122 1
 323 01ac 03348100 		ld	s0,8(sp)
 324              		.cfi_remember_state
 325              		.cfi_restore 8
 326              		.cfi_def_cfa 2, 16
 327 01b0 13010101 		addi	sp,sp,16
 328              		.cfi_def_cfa_offset 0
 329 01b4 67800000 		jr	ra
 330              	.LVL29:
 331              	.L34:
 332              		.cfi_restore_state
  88:src/memorija.cpp ****         novo->next=temp->next;
 333              		.loc 1 88 9 is_stmt 1
  88:src/memorija.cpp ****         novo->next=temp->next;
 334              		.loc 1 88 27 is_stmt 0
GAS LISTING /tmp/ccpRLX6w.s 			page 10


 335 01b8 03B70701 		ld	a4,16(a5)
  88:src/memorija.cpp ****         novo->next=temp->next;
 336              		.loc 1 88 19
 337 01bc 3306E600 		add	a2,a2,a4
 338              	.LVL30:
 339 01c0 233CC5FE 		sd	a2,-8(a0)
 340              	.LVL31:
  89:src/memorija.cpp ****         if(temp->next) temp->next->prev=novo;
 341              		.loc 1 89 9 is_stmt 1
  89:src/memorija.cpp ****         if(temp->next) temp->next->prev=novo;
 342              		.loc 1 89 26 is_stmt 0
 343 01c4 03B70700 		ld	a4,0(a5)
  89:src/memorija.cpp ****         if(temp->next) temp->next->prev=novo;
 344              		.loc 1 89 19
 345 01c8 2334E5FE 		sd	a4,-24(a0)
  90:src/memorija.cpp ****         novo->prev=temp->prev;
 346              		.loc 1 90 9 is_stmt 1
 347 01cc 63040700 		beqz	a4,.L20
  90:src/memorija.cpp ****         novo->prev=temp->prev;
 348              		.loc 1 90 24 discriminator 1
  90:src/memorija.cpp ****         novo->prev=temp->prev;
 349              		.loc 1 90 40 is_stmt 0 discriminator 1
 350 01d0 2334D700 		sd	a3,8(a4)
 351              	.L20:
  91:src/memorija.cpp ****         if(temp->prev) temp->prev->next=novo;
 352              		.loc 1 91 9 is_stmt 1
  91:src/memorija.cpp ****         if(temp->prev) temp->prev->next=novo;
 353              		.loc 1 91 26 is_stmt 0
 354 01d4 03B78700 		ld	a4,8(a5)
  91:src/memorija.cpp ****         if(temp->prev) temp->prev->next=novo;
 355              		.loc 1 91 19
 356 01d8 2338E5FE 		sd	a4,-16(a0)
  92:src/memorija.cpp ****         else head=novo;
 357              		.loc 1 92 9 is_stmt 1
 358 01dc 63060700 		beqz	a4,.L21
  92:src/memorija.cpp ****         else head=novo;
 359              		.loc 1 92 24 discriminator 1
  92:src/memorija.cpp ****         else head=novo;
 360              		.loc 1 92 40 is_stmt 0 discriminator 1
 361 01e0 2330D700 		sd	a3,0(a4)
 362 01e4 6FF0DFFA 		j	.L22
 363              	.L21:
  93:src/memorija.cpp ****     }
 364              		.loc 1 93 14 is_stmt 1
  93:src/memorija.cpp ****     }
 365              		.loc 1 93 18 is_stmt 0
 366 01e8 17070000 		sd	a3,.LANCHOR0,a4
 366      2330D700 
 367 01f0 6FF01FFA 		j	.L22
 368              	.LVL32:
 369              	.L23:
 101:src/memorija.cpp ****         temp->prev=novo;
 370              		.loc 1 101 14 is_stmt 1
 101:src/memorija.cpp ****         temp->prev=novo;
 371              		.loc 1 101 18 is_stmt 0
 372 01f4 17070000 		sd	a3,.LANCHOR0,a4
 372      2330D700 
GAS LISTING /tmp/ccpRLX6w.s 			page 11


 373 01fc 6FF01FF9 		j	.L24
 374              	.LVL33:
 375              	.L35:
 116:src/memorija.cpp ****         temp->next=novo->next;
 376              		.loc 1 116 9 is_stmt 1
 116:src/memorija.cpp ****         temp->next=novo->next;
 377              		.loc 1 116 27 is_stmt 0
 378 0200 833685FF 		ld	a3,-8(a0)
 379              	.LVL34:
 116:src/memorija.cpp ****         temp->next=novo->next;
 380              		.loc 1 116 19
 381 0204 3307D700 		add	a4,a4,a3
 382 0208 23B8E700 		sd	a4,16(a5)
 117:src/memorija.cpp ****         if(novo->next) novo->next->prev=temp;
 383              		.loc 1 117 9 is_stmt 1
 117:src/memorija.cpp ****         if(novo->next) novo->next->prev=temp;
 384              		.loc 1 117 26 is_stmt 0
 385 020c 033785FE 		ld	a4,-24(a0)
 117:src/memorija.cpp ****         if(novo->next) novo->next->prev=temp;
 386              		.loc 1 117 19
 387 0210 23B0E700 		sd	a4,0(a5)
 118:src/memorija.cpp ****     }
 388              		.loc 1 118 9 is_stmt 1
 389 0214 63000702 		beqz	a4,.L32
 118:src/memorija.cpp ****     }
 390              		.loc 1 118 24 discriminator 1
 118:src/memorija.cpp ****     }
 391              		.loc 1 118 40 is_stmt 0 discriminator 1
 392 0218 2334F700 		sd	a5,8(a4)
 121:src/memorija.cpp **** }
 393              		.loc 1 121 12 discriminator 1
 394 021c 13050000 		li	a0,0
 395              	.LVL35:
 396 0220 6FF0DFF8 		j	.L16
 397              	.LVL36:
 398              	.L26:
  61:src/memorija.cpp ****     if(!head) return -2;
 399              		.loc 1 61 22
 400 0224 1305F0FF 		li	a0,-1
 401              	.LVL37:
 402 0228 6FF05FF8 		j	.L16
 403              	.LVL38:
 404              	.L30:
 121:src/memorija.cpp **** }
 405              		.loc 1 121 12
 406 022c 13050000 		li	a0,0
 407              	.LVL39:
 408 0230 6FF0DFF7 		j	.L16
 409              	.LVL40:
 410              	.L32:
 411 0234 13050000 		li	a0,0
 412              	.LVL41:
 413 0238 6FF05FF7 		j	.L16
 414              		.cfi_endproc
 415              	.LFE2:
 417              		.align	2
 418              		.globl	_ZN8Memorija5PrintEv
GAS LISTING /tmp/ccpRLX6w.s 			page 12


 420              	_ZN8Memorija5PrintEv:
 421              	.LFB3:
 123:src/memorija.cpp **** 
 124:src/memorija.cpp **** void Memorija::Print() {
 422              		.loc 1 124 24 is_stmt 1
 423              		.cfi_startproc
 424 023c 130101FE 		addi	sp,sp,-32
 425              		.cfi_def_cfa_offset 32
 426 0240 233C1100 		sd	ra,24(sp)
 427 0244 23388100 		sd	s0,16(sp)
 428 0248 23349100 		sd	s1,8(sp)
 429              		.cfi_offset 1, -8
 430              		.cfi_offset 8, -16
 431              		.cfi_offset 9, -24
 432 024c 13040102 		addi	s0,sp,32
 433              		.cfi_def_cfa 8, 0
 125:src/memorija.cpp ****     CreateMemorija();
 434              		.loc 1 125 5
 435              	.LBB17:
 436              	.LBB18:
  21:src/../h/memorija.h ****             head = (struktura * )(HEAP_START_ADDR);
 437              		.loc 2 21 9
  21:src/../h/memorija.h ****             head = (struktura * )(HEAP_START_ADDR);
 438              		.loc 2 21 18 is_stmt 0
 439 0250 97070000 		ld	a5,.LANCHOR0
 439      83B70700 
  21:src/../h/memorija.h ****             head = (struktura * )(HEAP_START_ADDR);
 440              		.loc 2 21 9
 441 0258 63820702 		beqz	a5,.L41
 442              	.L37:
 443              	.LBE18:
 444              	.LBE17:
 126:src/memorija.cpp ****     for(struktura *blk = head; blk!=nullptr; blk=blk->next){
 445              		.loc 1 126 5 is_stmt 1
 446              	.LBB20:
 447              		.loc 1 126 20 is_stmt 0
 448 025c 97040000 		ld	s1,.LANCHOR0
 448      83B40400 
 449              	.LVL42:
 450              	.L39:
 451              		.loc 1 126 35 is_stmt 1 discriminator 3
 452 0264 638E0404 		beqz	s1,.L36
 127:src/memorija.cpp ****         print(blk->size);
 453              		.loc 1 127 9 discriminator 2
 454              		.loc 1 127 14 is_stmt 0 discriminator 2
 455 0268 03A50401 		lw	a0,16(s1)
 456 026c 97000000 		call	_Z5printi@plt
 456      E7800000 
 457              	.LVL43:
 126:src/memorija.cpp ****     for(struktura *blk = head; blk!=nullptr; blk=blk->next){
 458              		.loc 1 126 5 is_stmt 1 discriminator 2
 126:src/memorija.cpp ****     for(struktura *blk = head; blk!=nullptr; blk=blk->next){
 459              		.loc 1 126 49 is_stmt 0 discriminator 2
 460 0274 83B40400 		ld	s1,0(s1)
 461              	.LVL44:
 126:src/memorija.cpp ****     for(struktura *blk = head; blk!=nullptr; blk=blk->next){
 462              		.loc 1 126 5 discriminator 2
GAS LISTING /tmp/ccpRLX6w.s 			page 13


 463 0278 6FF0DFFE 		j	.L39
 464              	.LVL45:
 465              	.L41:
 466              	.LBE20:
 467              	.LBB21:
 468              	.LBB19:
  22:src/../h/memorija.h ****             head->next = nullptr;
 469              		.loc 2 22 13 is_stmt 1
  22:src/../h/memorija.h ****             head->next = nullptr;
 470              		.loc 2 22 18 is_stmt 0
 471 027c 97070000 		la	a5,HEAP_START_ADDR
 471      83B70700 
 472 0284 83B60700 		ld	a3,0(a5)
 473 0288 17070000 		lla	a4,.LANCHOR0
 473      13070700 
 474 0290 2330D700 		sd	a3,0(a4)
  23:src/../h/memorija.h ****             head->prev = nullptr;
 475              		.loc 2 23 13 is_stmt 1
  23:src/../h/memorija.h ****             head->prev = nullptr;
 476              		.loc 2 23 24 is_stmt 0
 477 0294 23B00600 		sd	zero,0(a3)
  24:src/../h/memorija.h ****             head->size = (char *) HEAP_START_ADDR - (char *) HEAP_END_ADDR - sizeof(struktura);
 478              		.loc 2 24 13 is_stmt 1
  24:src/../h/memorija.h ****             head->size = (char *) HEAP_START_ADDR - (char *) HEAP_END_ADDR - sizeof(struktura);
 479              		.loc 2 24 19 is_stmt 0
 480 0298 03370700 		ld	a4,0(a4)
  24:src/../h/memorija.h ****             head->size = (char *) HEAP_START_ADDR - (char *) HEAP_END_ADDR - sizeof(struktura);
 481              		.loc 2 24 24
 482 029c 23340700 		sd	zero,8(a4)
 483              		.loc 2 25 13 is_stmt 1
 484              		.loc 2 25 26 is_stmt 0
 485 02a0 83B70700 		ld	a5,0(a5)
 486              		.loc 2 25 53
 487 02a4 97060000 		la	a3,HEAP_END_ADDR
 487      83B60600 
 488 02ac 83B60600 		ld	a3,0(a3)
 489              		.loc 2 25 51
 490 02b0 B387D740 		sub	a5,a5,a3
 491              		.loc 2 25 76
 492 02b4 938787FE 		addi	a5,a5,-24
 493              		.loc 2 25 24
 494 02b8 2338F700 		sd	a5,16(a4)
 495 02bc 6FF01FFA 		j	.L37
 496              	.LVL46:
 497              	.L36:
 498              	.LBE19:
 499              	.LBE21:
 128:src/memorija.cpp ****     }
 129:src/memorija.cpp **** }...
 500              		.loc 1 129 1
 501 02c0 83308101 		ld	ra,24(sp)
 502              		.cfi_restore 1
 503 02c4 03340101 		ld	s0,16(sp)
 504              		.cfi_restore 8
 505              		.cfi_def_cfa 2, 32
 506 02c8 83348100 		ld	s1,8(sp)
 507              		.cfi_restore 9
GAS LISTING /tmp/ccpRLX6w.s 			page 14


 508              	.LVL47:
 509 02cc 13010102 		addi	sp,sp,32
 510              		.cfi_def_cfa_offset 0
 511 02d0 67800000 		jr	ra
 512              		.cfi_endproc
 513              	.LFE3:
 515              		.globl	_ZN8Memorija4headE
 516              		.bss
 517              		.align	3
 518              		.set	.LANCHOR0,. + 0
 521              	_ZN8Memorija4headE:
 522 0000 00000000 		.zero	8
 522      00000000 
 523              		.text
 524              	.Letext0:
 525              		.file 3 "src/../h/../lib/hw.h"
 526              		.file 4 "<built-in>"
 527              		.file 5 "src/../h/print.h"
GAS LISTING /tmp/ccpRLX6w.s 			page 15

