GAS LISTING /tmp/ccJ3tbgr.s 			page 1


   1              		.file	"print.cpp"
   2              		.option pic
   3              		.option norelax
   4              		.text
   5              	.Ltext0:
   6              		.align	2
   7              		.globl	_Z5printPKc
   9              	_Z5printPKc:
  10              	.LFB0:
  11              		.file 1 "src/print.cpp"
   1:src/print.cpp **** #include "../lib/console.h"
   2:src/print.cpp **** #include "../h/syscall_c.h"
   3:src/print.cpp **** #include "../h/print.h"
   4:src/print.cpp **** 
   5:src/print.cpp **** void print(char const *string){
  12              		.loc 1 5 31
  13              		.cfi_startproc
  14              	.LVL0:
  15 0000 130101FE 		addi	sp,sp,-32
  16              		.cfi_def_cfa_offset 32
  17 0004 233C1100 		sd	ra,24(sp)
  18 0008 23388100 		sd	s0,16(sp)
  19 000c 23349100 		sd	s1,8(sp)
  20              		.cfi_offset 1, -8
  21              		.cfi_offset 8, -16
  22              		.cfi_offset 9, -24
  23 0010 13040102 		addi	s0,sp,32
  24              		.cfi_def_cfa 8, 0
  25 0014 93040500 		mv	s1,a0
  26              	.LVL1:
  27              	.L3:
   6:src/print.cpp ****     while(*string!='\0'){
  28              		.loc 1 6 5
  29              		.loc 1 6 18
  30              		.loc 1 6 11 is_stmt 0
  31 0018 03C50400 		lbu	a0,0(s1)
  32              		.loc 1 6 18
  33 001c 630A0500 		beqz	a0,.L1
   7:src/print.cpp ****         putc(*string);
  34              		.loc 1 7 9 is_stmt 1
  35              		.loc 1 7 13 is_stmt 0
  36 0020 97000000 		call	_Z4putcc@plt
  36      E7800000 
  37              	.LVL2:
   8:src/print.cpp ****         string++;
  38              		.loc 1 8 9 is_stmt 1
  39              		.loc 1 8 15 is_stmt 0
  40 0028 93841400 		addi	s1,s1,1
  41              	.LVL3:
   6:src/print.cpp ****     while(*string!='\0'){
  42              		.loc 1 6 5
  43 002c 6FF0DFFE 		j	.L3
  44              	.L1:
   9:src/print.cpp ****     }
  10:src/print.cpp **** }
  45              		.loc 1 10 1
  46 0030 83308101 		ld	ra,24(sp)
GAS LISTING /tmp/ccJ3tbgr.s 			page 2


  47              		.cfi_restore 1
  48 0034 03340101 		ld	s0,16(sp)
  49              		.cfi_restore 8
  50              		.cfi_def_cfa 2, 32
  51 0038 83348100 		ld	s1,8(sp)
  52              		.cfi_restore 9
  53              	.LVL4:
  54 003c 13010102 		addi	sp,sp,32
  55              		.cfi_def_cfa_offset 0
  56 0040 67800000 		jr	ra
  57              		.cfi_endproc
  58              	.LFE0:
  60              		.align	2
  61              		.globl	_Z5printi
  63              	_Z5printi:
  64              	.LFB1:
  11:src/print.cpp **** 
  12:src/print.cpp **** void print(int n){
  65              		.loc 1 12 18 is_stmt 1
  66              		.cfi_startproc
  67              	.LVL5:
  68 0044 130101EE 		addi	sp,sp,-288
  69              		.cfi_def_cfa_offset 288
  70 0048 233C1110 		sd	ra,280(sp)
  71 004c 23388110 		sd	s0,272(sp)
  72 0050 23349110 		sd	s1,264(sp)
  73              		.cfi_offset 1, -8
  74              		.cfi_offset 8, -16
  75              		.cfi_offset 9, -24
  76 0054 13040112 		addi	s0,sp,288
  77              		.cfi_def_cfa 8, 0
  78 0058 93040500 		mv	s1,a0
  13:src/print.cpp ****     if(n==0) putc('0');
  79              		.loc 1 13 5
  80 005c 630A0502 		beqz	a0,.L13
  81              	.LVL6:
  82              	.L6:
  14:src/print.cpp ****     if(n<0){
  83              		.loc 1 14 5
  84 0060 63C00404 		bltz	s1,.L14
  85              	.LVL7:
  86              	.L7:
  12:src/print.cpp ****     if(n==0) putc('0');
  87              		.loc 1 12 18 is_stmt 0 discriminator 2
  88 0064 93070000 		li	a5,0
  89              	.L9:
  90              	.LVL8:
  15:src/print.cpp ****         putc('-');
  16:src/print.cpp ****         n*=-1;
  17:src/print.cpp ****     }
  18:src/print.cpp ****     int cifre[64];
  19:src/print.cpp ****     int i=0;
  20:src/print.cpp ****     for(;n;i++,n=n/10){
  91              		.loc 1 20 5 is_stmt 1 discriminator 2
  92              		.loc 1 20 10 discriminator 2
  93 0068 63860404 		beqz	s1,.L8
  21:src/print.cpp ****         cifre[i]=n%10;
GAS LISTING /tmp/ccJ3tbgr.s 			page 3


  94              		.loc 1 21 9 discriminator 1
  95              		.loc 1 21 19 is_stmt 0 discriminator 1
  96 006c 9306A000 		li	a3,10
  97 0070 3BE6D402 		remw	a2,s1,a3
  98              		.loc 1 21 17 discriminator 1
  99 0074 13972700 		slli	a4,a5,2
 100 0078 930504FE 		addi	a1,s0,-32
 101 007c 3387E500 		add	a4,a1,a4
 102 0080 2320C7F0 		sw	a2,-256(a4)
  20:src/print.cpp ****         cifre[i]=n%10;
 103              		.loc 1 20 5 is_stmt 1 discriminator 1
 104 0084 9B871700 		addiw	a5,a5,1
 105              	.LVL9:
  20:src/print.cpp ****         cifre[i]=n%10;
 106              		.loc 1 20 17 is_stmt 0 discriminator 1
 107 0088 BBC4D402 		divw	s1,s1,a3
 108              	.LVL10:
  20:src/print.cpp ****         cifre[i]=n%10;
 109              		.loc 1 20 5 discriminator 1
 110 008c 6FF0DFFD 		j	.L9
 111              	.LVL11:
 112              	.L13:
  13:src/print.cpp ****     if(n<0){
 113              		.loc 1 13 14 is_stmt 1 discriminator 1
  13:src/print.cpp ****     if(n<0){
 114              		.loc 1 13 18 is_stmt 0 discriminator 1
 115 0090 13050003 		li	a0,48
 116              	.LVL12:
 117 0094 97000000 		call	_Z4putcc@plt
 117      E7800000 
 118              	.LVL13:
 119 009c 6FF05FFC 		j	.L6
 120              	.L14:
  15:src/print.cpp ****         n*=-1;
 121              		.loc 1 15 9 is_stmt 1
  15:src/print.cpp ****         n*=-1;
 122              		.loc 1 15 13 is_stmt 0
 123 00a0 1305D002 		li	a0,45
 124 00a4 97000000 		call	_Z4putcc@plt
 124      E7800000 
 125              	.LVL14:
  16:src/print.cpp ****     }
 126              		.loc 1 16 9 is_stmt 1
  16:src/print.cpp ****     }
 127              		.loc 1 16 10 is_stmt 0
 128 00ac BB049040 		negw	s1,s1
 129              	.LVL15:
 130 00b0 6FF05FFB 		j	.L7
 131              	.LVL16:
 132              	.L8:
  22:src/print.cpp ****     }
  23:src/print.cpp ****     i--;
 133              		.loc 1 23 5 is_stmt 1
 134              		.loc 1 23 6 is_stmt 0
 135 00b4 9B87F7FF 		addiw	a5,a5,-1
 136              	.LVL17:
 137              	.L11:
GAS LISTING /tmp/ccJ3tbgr.s 			page 4


  24:src/print.cpp ****     while(i>=0){
 138              		.loc 1 24 5 is_stmt 1
 139              		.loc 1 24 12
 140 00b8 63C80702 		bltz	a5,.L10
  25:src/print.cpp ****         putc('0'+cifre[i--]);
 141              		.loc 1 25 9
 142              		.loc 1 25 25 is_stmt 0
 143 00bc 9B84F7FF 		addiw	s1,a5,-1
 144              	.LVL18:
 145              		.loc 1 25 27
 146 00c0 93972700 		slli	a5,a5,2
 147              	.LVL19:
 148 00c4 130704FE 		addi	a4,s0,-32
 149 00c8 B307F700 		add	a5,a4,a5
 150 00cc 03A507F0 		lw	a0,-256(a5)
 151              		.loc 1 25 13
 152 00d0 1B050503 		addiw	a0,a0,48
 153 00d4 1375F50F 		andi	a0,a0,0xff
 154 00d8 97000000 		call	_Z4putcc@plt
 154      E7800000 
 155              	.LVL20:
 156              		.loc 1 25 25
 157 00e0 93870400 		mv	a5,s1
 158 00e4 6FF05FFD 		j	.L11
 159              	.LVL21:
 160              	.L10:
  26:src/print.cpp ****     }
  27:src/print.cpp **** 
  28:src/print.cpp ****     putc('\n');
 161              		.loc 1 28 5 is_stmt 1
 162              		.loc 1 28 9 is_stmt 0
 163 00e8 1305A000 		li	a0,10
 164 00ec 97000000 		call	_Z4putcc@plt
 164      E7800000 
 165              	.LVL22:
  29:src/print.cpp **** }
 166              		.loc 1 29 1
 167 00f4 83308111 		ld	ra,280(sp)
 168              		.cfi_restore 1
 169 00f8 03340111 		ld	s0,272(sp)
 170              		.cfi_restore 8
 171              		.cfi_def_cfa 2, 288
 172 00fc 83348110 		ld	s1,264(sp)
 173              		.cfi_restore 9
 174 0100 13010112 		addi	sp,sp,288
 175              		.cfi_def_cfa_offset 0
 176 0104 67800000 		jr	ra
 177              		.cfi_endproc
 178              	.LFE1:
 180              	.Letext0:
 181              		.file 2 "src/../h/../lib/hw.h"
 182              		.file 3 "src/../h/syscall_c.h"
GAS LISTING /tmp/ccJ3tbgr.s 			page 5


DEFINED SYMBOLS
                            *ABS*:0000000000000000 print.cpp
     /tmp/ccJ3tbgr.s:9      .text:0000000000000000 _Z5printPKc
     /tmp/ccJ3tbgr.s:13     .text:0000000000000000 .L0 
     /tmp/ccJ3tbgr.s:15     .text:0000000000000000 .L0 
     /tmp/ccJ3tbgr.s:16     .text:0000000000000004 .L0 
     /tmp/ccJ3tbgr.s:20     .text:0000000000000010 .L0 
     /tmp/ccJ3tbgr.s:21     .text:0000000000000010 .L0 
     /tmp/ccJ3tbgr.s:22     .text:0000000000000010 .L0 
     /tmp/ccJ3tbgr.s:24     .text:0000000000000014 .L0 
     /tmp/ccJ3tbgr.s:29     .text:0000000000000018 .L0 
     /tmp/ccJ3tbgr.s:30     .text:0000000000000018 .L0 
     /tmp/ccJ3tbgr.s:31     .text:0000000000000018 .L0 
     /tmp/ccJ3tbgr.s:33     .text:000000000000001c .L0 
     /tmp/ccJ3tbgr.s:35     .text:0000000000000020 .L0 
     /tmp/ccJ3tbgr.s:36     .text:0000000000000020 .L0 
     /tmp/ccJ3tbgr.s:39     .text:0000000000000028 .L0 
     /tmp/ccJ3tbgr.s:40     .text:0000000000000028 .L0 
     /tmp/ccJ3tbgr.s:43     .text:000000000000002c .L0 
     /tmp/ccJ3tbgr.s:46     .text:0000000000000030 .L0 
     /tmp/ccJ3tbgr.s:47     .text:0000000000000034 .L0 
     /tmp/ccJ3tbgr.s:49     .text:0000000000000038 .L0 
     /tmp/ccJ3tbgr.s:50     .text:0000000000000038 .L0 
     /tmp/ccJ3tbgr.s:52     .text:000000000000003c .L0 
     /tmp/ccJ3tbgr.s:55     .text:0000000000000040 .L0 
     /tmp/ccJ3tbgr.s:57     .text:0000000000000044 .L0 
     /tmp/ccJ3tbgr.s:63     .text:0000000000000044 _Z5printi
     /tmp/ccJ3tbgr.s:66     .text:0000000000000044 .L0 
     /tmp/ccJ3tbgr.s:68     .text:0000000000000044 .L0 
     /tmp/ccJ3tbgr.s:69     .text:0000000000000048 .L0 
     /tmp/ccJ3tbgr.s:73     .text:0000000000000054 .L0 
     /tmp/ccJ3tbgr.s:74     .text:0000000000000054 .L0 
     /tmp/ccJ3tbgr.s:75     .text:0000000000000054 .L0 
     /tmp/ccJ3tbgr.s:77     .text:0000000000000058 .L0 
     /tmp/ccJ3tbgr.s:80     .text:000000000000005c .L0 
     /tmp/ccJ3tbgr.s:84     .text:0000000000000060 .L0 
     /tmp/ccJ3tbgr.s:88     .text:0000000000000064 .L0 
     /tmp/ccJ3tbgr.s:92     .text:0000000000000068 .L0 
     /tmp/ccJ3tbgr.s:93     .text:0000000000000068 .L0 
     /tmp/ccJ3tbgr.s:95     .text:000000000000006c .L0 
     /tmp/ccJ3tbgr.s:96     .text:000000000000006c .L0 
     /tmp/ccJ3tbgr.s:99     .text:0000000000000074 .L0 
     /tmp/ccJ3tbgr.s:104    .text:0000000000000084 .L0 
     /tmp/ccJ3tbgr.s:107    .text:0000000000000088 .L0 
     /tmp/ccJ3tbgr.s:110    .text:000000000000008c .L0 
     /tmp/ccJ3tbgr.s:114    .text:0000000000000090 .L0 
     /tmp/ccJ3tbgr.s:115    .text:0000000000000090 .L0 
     /tmp/ccJ3tbgr.s:122    .text:00000000000000a0 .L0 
     /tmp/ccJ3tbgr.s:123    .text:00000000000000a0 .L0 
     /tmp/ccJ3tbgr.s:127    .text:00000000000000ac .L0 
     /tmp/ccJ3tbgr.s:128    .text:00000000000000ac .L0 
     /tmp/ccJ3tbgr.s:134    .text:00000000000000b4 .L0 
     /tmp/ccJ3tbgr.s:135    .text:00000000000000b4 .L0 
     /tmp/ccJ3tbgr.s:139    .text:00000000000000b8 .L0 
     /tmp/ccJ3tbgr.s:140    .text:00000000000000b8 .L0 
     /tmp/ccJ3tbgr.s:142    .text:00000000000000bc .L0 
     /tmp/ccJ3tbgr.s:143    .text:00000000000000bc .L0 
GAS LISTING /tmp/ccJ3tbgr.s 			page 6


     /tmp/ccJ3tbgr.s:146    .text:00000000000000c0 .L0 
     /tmp/ccJ3tbgr.s:152    .text:00000000000000d0 .L0 
     /tmp/ccJ3tbgr.s:157    .text:00000000000000e0 .L0 
     /tmp/ccJ3tbgr.s:162    .text:00000000000000e8 .L0 
     /tmp/ccJ3tbgr.s:163    .text:00000000000000e8 .L0 
     /tmp/ccJ3tbgr.s:167    .text:00000000000000f4 .L0 
     /tmp/ccJ3tbgr.s:168    .text:00000000000000f8 .L0 
     /tmp/ccJ3tbgr.s:170    .text:00000000000000fc .L0 
     /tmp/ccJ3tbgr.s:171    .text:00000000000000fc .L0 
     /tmp/ccJ3tbgr.s:173    .text:0000000000000100 .L0 
     /tmp/ccJ3tbgr.s:175    .text:0000000000000104 .L0 
     /tmp/ccJ3tbgr.s:177    .text:0000000000000108 .L0 
     /tmp/ccJ3tbgr.s:183    .text:0000000000000108 .L0 
     /tmp/ccJ3tbgr.s:44     .text:0000000000000030 .L1
     /tmp/ccJ3tbgr.s:27     .text:0000000000000018 .L3
     /tmp/ccJ3tbgr.s:112    .text:0000000000000090 .L13
     /tmp/ccJ3tbgr.s:120    .text:00000000000000a0 .L14
     /tmp/ccJ3tbgr.s:132    .text:00000000000000b4 .L8
     /tmp/ccJ3tbgr.s:89     .text:0000000000000068 .L9
     /tmp/ccJ3tbgr.s:82     .text:0000000000000060 .L6
     /tmp/ccJ3tbgr.s:86     .text:0000000000000064 .L7
     /tmp/ccJ3tbgr.s:160    .text:00000000000000e8 .L10
     /tmp/ccJ3tbgr.s:137    .text:00000000000000b8 .L11
     /tmp/ccJ3tbgr.s:433    .debug_abbrev:0000000000000000 .Ldebug_abbrev0
     /tmp/ccJ3tbgr.s:878    .debug_str:0000000000000130 .LASF23
     /tmp/ccJ3tbgr.s:844    .debug_str:000000000000004c .LASF24
     /tmp/ccJ3tbgr.s:838    .debug_str:0000000000000014 .LASF25
     /tmp/ccJ3tbgr.s:5      .text:0000000000000000 .Ltext0
     /tmp/ccJ3tbgr.s:180    .text:0000000000000108 .Letext0
     /tmp/ccJ3tbgr.s:832    .debug_line:0000000000000000 .Ldebug_line0
     /tmp/ccJ3tbgr.s:836    .debug_str:0000000000000007 .LASF0
     /tmp/ccJ3tbgr.s:876    .debug_str:000000000000011d .LASF1
     /tmp/ccJ3tbgr.s:862    .debug_str:00000000000000b9 .LASF2
     /tmp/ccJ3tbgr.s:854    .debug_str:0000000000000096 .LASF4
     /tmp/ccJ3tbgr.s:850    .debug_str:0000000000000071 .LASF3
     /tmp/ccJ3tbgr.s:848    .debug_str:000000000000006a .LASF5
     /tmp/ccJ3tbgr.s:852    .debug_str:0000000000000083 .LASF6
     /tmp/ccJ3tbgr.s:874    .debug_str:000000000000010a .LASF7
     /tmp/ccJ3tbgr.s:886    .debug_str:0000000000000211 .LASF8
     /tmp/ccJ3tbgr.s:840    .debug_str:000000000000002f .LASF9
     /tmp/ccJ3tbgr.s:842    .debug_str:000000000000003d .LASF10
     /tmp/ccJ3tbgr.s:880    .debug_str:00000000000001f4 .LASF11
     /tmp/ccJ3tbgr.s:846    .debug_str:000000000000005a .LASF12
     /tmp/ccJ3tbgr.s:888    .debug_str:0000000000000221 .LASF13
     /tmp/ccJ3tbgr.s:860    .debug_str:00000000000000ad .LASF14
     /tmp/ccJ3tbgr.s:870    .debug_str:00000000000000e8 .LASF15
     /tmp/ccJ3tbgr.s:866    .debug_str:00000000000000cc .LASF16
     /tmp/ccJ3tbgr.s:856    .debug_str:000000000000009d .LASF18
     /tmp/ccJ3tbgr.s:858    .debug_str:00000000000000a3 .LASF19
     /tmp/ccJ3tbgr.s:64     .text:0000000000000044 .LFB1
     /tmp/ccJ3tbgr.s:178    .text:0000000000000108 .LFE1
     /tmp/ccJ3tbgr.s:754    .debug_loc:0000000000000000 .LLST1
     /tmp/ccJ3tbgr.s:868    .debug_str:00000000000000e2 .LASF17
     /tmp/ccJ3tbgr.s:787    .debug_loc:0000000000000088 .LLST2
     /tmp/ccJ3tbgr.s:118    .text:000000000000009c .LVL13
     /tmp/ccJ3tbgr.s:125    .text:00000000000000ac .LVL14
     /tmp/ccJ3tbgr.s:155    .text:00000000000000e0 .LVL20
GAS LISTING /tmp/ccJ3tbgr.s 			page 7


     /tmp/ccJ3tbgr.s:165    .text:00000000000000f4 .LVL22
     /tmp/ccJ3tbgr.s:872    .debug_str:00000000000000fe .LASF20
     /tmp/ccJ3tbgr.s:10     .text:0000000000000000 .LFB0
     /tmp/ccJ3tbgr.s:58     .text:0000000000000044 .LFE0
     /tmp/ccJ3tbgr.s:834    .debug_str:0000000000000000 .LASF21
     /tmp/ccJ3tbgr.s:808    .debug_loc:00000000000000e6 .LLST0
     /tmp/ccJ3tbgr.s:37     .text:0000000000000028 .LVL2
     /tmp/ccJ3tbgr.s:864    .debug_str:00000000000000c7 .LASF22
     /tmp/ccJ3tbgr.s:882    .debug_str:0000000000000203 .LASF26
     /tmp/ccJ3tbgr.s:884    .debug_str:000000000000020c .LASF27
     /tmp/ccJ3tbgr.s:67     .text:0000000000000044 .LVL5
     /tmp/ccJ3tbgr.s:81     .text:0000000000000060 .LVL6
     /tmp/ccJ3tbgr.s:85     .text:0000000000000064 .LVL7
     /tmp/ccJ3tbgr.s:90     .text:0000000000000068 .LVL8
     /tmp/ccJ3tbgr.s:108    .text:000000000000008c .LVL10
     /tmp/ccJ3tbgr.s:111    .text:0000000000000090 .LVL11
     /tmp/ccJ3tbgr.s:116    .text:0000000000000094 .LVL12
     /tmp/ccJ3tbgr.s:129    .text:00000000000000b0 .LVL15
     /tmp/ccJ3tbgr.s:131    .text:00000000000000b4 .LVL16
     /tmp/ccJ3tbgr.s:136    .text:00000000000000b8 .LVL17
     /tmp/ccJ3tbgr.s:105    .text:0000000000000088 .LVL9
     /tmp/ccJ3tbgr.s:144    .text:00000000000000c0 .LVL18
     /tmp/ccJ3tbgr.s:147    .text:00000000000000c4 .LVL19
     /tmp/ccJ3tbgr.s:159    .text:00000000000000e8 .LVL21
     /tmp/ccJ3tbgr.s:14     .text:0000000000000000 .LVL0
     /tmp/ccJ3tbgr.s:26     .text:0000000000000018 .LVL1
     /tmp/ccJ3tbgr.s:53     .text:000000000000003c .LVL4
     /tmp/ccJ3tbgr.s:184    .debug_info:0000000000000000 .Ldebug_info0

UNDEFINED SYMBOLS
_Z4putcc
