GAS LISTING /tmp/ccprvi8E.s 			page 1


   1              		.file	"semafor.cpp"
   2              		.option pic
   3              		.option norelax
   4              		.text
   5              	.Ltext0:
   6              		.align	2
   7              		.globl	_ZN7Semafor4waitEv
   9              	_ZN7Semafor4waitEv:
  10              	.LFB20:
  11              		.file 1 "src/semafor.cpp"
   1:src/semafor.cpp **** //
   2:src/semafor.cpp **** // Created by os on 8/20/22.
   3:src/semafor.cpp **** //
   4:src/semafor.cpp **** 
   5:src/semafor.cpp **** #include "../h/semafor.h"
   6:src/semafor.cpp **** #include "../h/memorija.h"
   7:src/semafor.cpp **** #include "../h/scheduler.h"
   8:src/semafor.cpp **** 
   9:src/semafor.cpp **** int Semafor::idd=0;
  10:src/semafor.cpp **** 
  11:src/semafor.cpp **** int Semafor::wait() {
  12              		.loc 1 11 21
  13              		.cfi_startproc
  14              	.LVL0:
  12:src/semafor.cpp ****     //neki if treba za val
  13:src/semafor.cpp ****     if (--val>=0) return -1;
  15              		.loc 1 13 5
  16              		.loc 1 13 11 is_stmt 0
  17 0000 83278501 		lw	a5,24(a0)
  18              		.loc 1 13 9
  19 0004 9B87F7FF 		addiw	a5,a5,-1
  20              		.loc 1 13 14
  21 0008 232CF500 		sw	a5,24(a0)
  22              		.loc 1 13 5
  23 000c 13970702 		slli	a4,a5,32
  24 0010 63500708 		bgez	a4,.L5
  11:src/semafor.cpp ****     //neki if treba za val
  25              		.loc 1 11 21
  26 0014 130101FE 		addi	sp,sp,-32
  27              		.cfi_def_cfa_offset 32
  28 0018 233C1100 		sd	ra,24(sp)
  29 001c 23388100 		sd	s0,16(sp)
  30 0020 23349100 		sd	s1,8(sp)
  31              		.cfi_offset 1, -8
  32              		.cfi_offset 8, -16
  33              		.cfi_offset 9, -24
  34 0024 13040102 		addi	s0,sp,32
  35              		.cfi_def_cfa 8, 0
  36 0028 93040500 		mv	s1,a0
  14:src/semafor.cpp **** 
  15:src/semafor.cpp ****     struktura* temp = (struktura*)Memorija::alokacija(sizeof(struktura));
  37              		.loc 1 15 5 is_stmt 1
  38              		.loc 1 15 54 is_stmt 0
  39 002c 13050001 		li	a0,16
  40              	.LVL1:
  41 0030 97000000 		call	_ZN8Memorija9alokacijaEm@plt
  41      E7800000 
GAS LISTING /tmp/ccprvi8E.s 			page 2


  42              	.LVL2:
  16:src/semafor.cpp **** 
  17:src/semafor.cpp ****     if(temp==nullptr) return -2;
  43              		.loc 1 17 5 is_stmt 1
  44 0038 63000506 		beqz	a0,.L6
  18:src/semafor.cpp **** 
  19:src/semafor.cpp ****     temp->t=Nit::running;
  45              		.loc 1 19 5
  46              		.loc 1 19 12 is_stmt 0
  47 003c 97070000 		la	a5,_ZN3Nit7runningE
  47      83B70700 
  48 0044 83B70700 		ld	a5,0(a5)
  49 0048 2330F500 		sd	a5,0(a0)
  20:src/semafor.cpp ****     temp->next=nullptr;
  50              		.loc 1 20 5 is_stmt 1
  51              		.loc 1 20 15 is_stmt 0
  52 004c 23340500 		sd	zero,8(a0)
  21:src/semafor.cpp **** 
  22:src/semafor.cpp ****     if(head==nullptr){
  53              		.loc 1 22 5 is_stmt 1
  54              		.loc 1 22 8 is_stmt 0
  55 0050 03B70401 		ld	a4,16(s1)
  56              		.loc 1 22 5
  57 0054 63080702 		beqz	a4,.L11
  23:src/semafor.cpp ****         head=temp;
  24:src/semafor.cpp ****         tail=temp;
  25:src/semafor.cpp ****     }
  26:src/semafor.cpp ****     else{
  27:src/semafor.cpp ****         tail->next=temp;
  58              		.loc 1 27 9 is_stmt 1
  59 0058 03B78400 		ld	a4,8(s1)
  60              		.loc 1 27 19 is_stmt 0
  61 005c 2334A700 		sd	a0,8(a4)
  28:src/semafor.cpp ****         tail=temp;
  62              		.loc 1 28 9 is_stmt 1
  63              		.loc 1 28 13 is_stmt 0
  64 0060 23B4A400 		sd	a0,8(s1)
  65              	.L4:
  29:src/semafor.cpp ****     }
  30:src/semafor.cpp **** 
  31:src/semafor.cpp ****     Nit::running->finished=true;
  66              		.loc 1 31 5 is_stmt 1
  67              		.loc 1 31 27 is_stmt 0
  68 0064 13071000 		li	a4,1
  69 0068 2384E700 		sb	a4,8(a5)
  32:src/semafor.cpp ****     return Nit::running->prekid;
  70              		.loc 1 32 5 is_stmt 1
  71              		.loc 1 32 26 is_stmt 0
  72 006c 03A50700 		lw	a0,0(a5)
  73              	.LVL3:
  74              	.L2:
  33:src/semafor.cpp **** }
  75              		.loc 1 33 1
  76 0070 83308101 		ld	ra,24(sp)
  77              		.cfi_remember_state
  78              		.cfi_restore 1
  79 0074 03340101 		ld	s0,16(sp)
GAS LISTING /tmp/ccprvi8E.s 			page 3


  80              		.cfi_restore 8
  81              		.cfi_def_cfa 2, 32
  82 0078 83348100 		ld	s1,8(sp)
  83              		.cfi_restore 9
  84              	.LVL4:
  85 007c 13010102 		addi	sp,sp,32
  86              		.cfi_def_cfa_offset 0
  87 0080 67800000 		jr	ra
  88              	.LVL5:
  89              	.L11:
  90              		.cfi_restore_state
  23:src/semafor.cpp ****         tail=temp;
  91              		.loc 1 23 9 is_stmt 1
  23:src/semafor.cpp ****         tail=temp;
  92              		.loc 1 23 13 is_stmt 0
  93 0084 23B8A400 		sd	a0,16(s1)
  24:src/semafor.cpp ****     }
  94              		.loc 1 24 9 is_stmt 1
  24:src/semafor.cpp ****     }
  95              		.loc 1 24 13 is_stmt 0
  96 0088 23B4A400 		sd	a0,8(s1)
  97 008c 6FF09FFD 		j	.L4
  98              	.LVL6:
  99              	.L5:
 100              		.cfi_def_cfa_register 2
 101              		.cfi_restore 1
 102              		.cfi_restore 8
 103              		.cfi_restore 9
  13:src/semafor.cpp **** 
 104              		.loc 1 13 27
 105 0090 1305F0FF 		li	a0,-1
 106              	.LVL7:
 107              		.loc 1 33 1
 108 0094 67800000 		ret
 109              	.LVL8:
 110              	.L6:
 111              		.cfi_def_cfa_register 8
 112              		.cfi_offset 1, -8
 113              		.cfi_offset 8, -16
 114              		.cfi_offset 9, -24
  17:src/semafor.cpp **** 
 115              		.loc 1 17 31
 116 0098 1305E0FF 		li	a0,-2
 117              	.LVL9:
 118 009c 6FF05FFD 		j	.L2
 119              		.cfi_endproc
 120              	.LFE20:
 122              		.align	2
 123              		.globl	_ZN7Semafor6signalEv
 125              	_ZN7Semafor6signalEv:
 126              	.LFB21:
  34:src/semafor.cpp **** 
  35:src/semafor.cpp **** int Semafor::signal() {
 127              		.loc 1 35 23 is_stmt 1
 128              		.cfi_startproc
 129              	.LVL10:
  36:src/semafor.cpp **** 
GAS LISTING /tmp/ccprvi8E.s 			page 4


  37:src/semafor.cpp ****     //neki if treba za val
  38:src/semafor.cpp ****     if (val++>=0) return -1;
 130              		.loc 1 38 5
 131              		.loc 1 38 9 is_stmt 0
 132 00a0 83278501 		lw	a5,24(a0)
 133              		.loc 1 38 12
 134 00a4 1B871700 		addiw	a4,a5,1
 135 00a8 232CE500 		sw	a4,24(a0)
 136              		.loc 1 38 5
 137 00ac 63D00706 		bgez	a5,.L14
  35:src/semafor.cpp **** 
 138              		.loc 1 35 23
 139 00b0 130101FE 		addi	sp,sp,-32
 140              		.cfi_def_cfa_offset 32
 141 00b4 233C1100 		sd	ra,24(sp)
 142 00b8 23388100 		sd	s0,16(sp)
 143 00bc 23349100 		sd	s1,8(sp)
 144              		.cfi_offset 1, -8
 145              		.cfi_offset 8, -16
 146              		.cfi_offset 9, -24
 147 00c0 13040102 		addi	s0,sp,32
 148              		.cfi_def_cfa 8, 0
  39:src/semafor.cpp **** 
  40:src/semafor.cpp ****     if(head==nullptr) return -2;
 149              		.loc 1 40 5 is_stmt 1
 150              		.loc 1 40 8 is_stmt 0
 151 00c4 83340501 		ld	s1,16(a0)
 152              		.loc 1 40 5
 153 00c8 63860404 		beqz	s1,.L15
  41:src/semafor.cpp ****     struktura* temp = head;
 154              		.loc 1 41 5 is_stmt 1
 155              	.LVL11:
  42:src/semafor.cpp **** 
  43:src/semafor.cpp ****     head=temp->next;
 156              		.loc 1 43 5
 157              		.loc 1 43 16 is_stmt 0
 158 00cc 83B78400 		ld	a5,8(s1)
 159              		.loc 1 43 9
 160 00d0 2338F500 		sd	a5,16(a0)
  44:src/semafor.cpp **** 
  45:src/semafor.cpp ****     temp->t->finished=false;
 161              		.loc 1 45 5 is_stmt 1
 162              		.loc 1 45 11 is_stmt 0
 163 00d4 83B70400 		ld	a5,0(s1)
 164              		.loc 1 45 22
 165 00d8 23840700 		sb	zero,8(a5)
  46:src/semafor.cpp ****     Scheduler::put(temp->t);
 166              		.loc 1 46 5 is_stmt 1
 167              		.loc 1 46 19 is_stmt 0
 168 00dc 03B50400 		ld	a0,0(s1)
 169              	.LVL12:
 170 00e0 97000000 		call	_ZN9Scheduler3putEP3Nit@plt
 170      E7800000 
 171              	.LVL13:
  47:src/semafor.cpp **** 
  48:src/semafor.cpp ****     Memorija::oslobadjanje(temp);
 172              		.loc 1 48 5 is_stmt 1
GAS LISTING /tmp/ccprvi8E.s 			page 5


 173              		.loc 1 48 27 is_stmt 0
 174 00e8 13850400 		mv	a0,s1
 175 00ec 97000000 		call	_ZN8Memorija12oslobadjanjeEPv@plt
 175      E7800000 
 176              	.LVL14:
  49:src/semafor.cpp ****     return 0;
 177              		.loc 1 49 5 is_stmt 1
 178              		.loc 1 49 12 is_stmt 0
 179 00f4 13050000 		li	a0,0
 180              	.LVL15:
 181              	.L13:
  50:src/semafor.cpp **** }
 182              		.loc 1 50 1
 183 00f8 83308101 		ld	ra,24(sp)
 184              		.cfi_restore 1
 185 00fc 03340101 		ld	s0,16(sp)
 186              		.cfi_restore 8
 187              		.cfi_def_cfa 2, 32
 188 0100 83348100 		ld	s1,8(sp)
 189              		.cfi_restore 9
 190 0104 13010102 		addi	sp,sp,32
 191              		.cfi_def_cfa_offset 0
 192 0108 67800000 		jr	ra
 193              	.LVL16:
 194              	.L14:
  38:src/semafor.cpp **** 
 195              		.loc 1 38 27
 196 010c 1305F0FF 		li	a0,-1
 197              	.LVL17:
 198              		.loc 1 50 1
 199 0110 67800000 		ret
 200              	.LVL18:
 201              	.L15:
 202              		.cfi_def_cfa_register 8
 203              		.cfi_offset 1, -8
 204              		.cfi_offset 8, -16
 205              		.cfi_offset 9, -24
  40:src/semafor.cpp ****     struktura* temp = head;
 206              		.loc 1 40 31
 207 0114 1305E0FF 		li	a0,-2
 208              	.LVL19:
 209 0118 6FF01FFE 		j	.L13
 210              		.cfi_endproc
 211              	.LFE21:
 213              		.section	.rodata.str1.8,"aMS",@progbits,1
 214              		.align	3
 215              	.LC0:
 216 0000 53454D41 		.string	"SEMAFOR\nID: "
 216      464F520A 
 216      49443A20 
 216      00
 217 000d 000000   		.align	3
 218              	.LC1:
 219 0010 56414C3A 		.string	"VAL: "
 219      2000
 220 0016 0000     		.align	3
 221              	.LC2:
GAS LISTING /tmp/ccprvi8E.s 			page 6


 222 0018 4C495354 		.string	"LISTA:\n"
 222      413A0A00 
 223              		.align	3
 224              	.LC3:
 225 0020 6B72616A 		.string	"kraj\n"
 225      0A00
 226              		.text
 227              		.align	2
 228              		.globl	_ZN7Semafor5PrintEv
 230              	_ZN7Semafor5PrintEv:
 231              	.LFB22:
  51:src/semafor.cpp **** 
  52:src/semafor.cpp **** void Semafor::Print() {
 232              		.loc 1 52 23 is_stmt 1
 233              		.cfi_startproc
 234              	.LVL20:
 235 011c 130101FE 		addi	sp,sp,-32
 236              		.cfi_def_cfa_offset 32
 237 0120 233C1100 		sd	ra,24(sp)
 238 0124 23388100 		sd	s0,16(sp)
 239 0128 23349100 		sd	s1,8(sp)
 240              		.cfi_offset 1, -8
 241              		.cfi_offset 8, -16
 242              		.cfi_offset 9, -24
 243 012c 13040102 		addi	s0,sp,32
 244              		.cfi_def_cfa 8, 0
 245 0130 93040500 		mv	s1,a0
  53:src/semafor.cpp ****     print("SEMAFOR\nID: ");
 246              		.loc 1 53 5
 247              		.loc 1 53 10 is_stmt 0
 248 0134 17050000 		lla	a0,.LC0
 248      13050500 
 249              	.LVL21:
 250 013c 97000000 		call	_Z5printPKc@plt
 250      E7800000 
 251              	.LVL22:
  54:src/semafor.cpp ****     print(id);
 252              		.loc 1 54 5 is_stmt 1
 253              		.loc 1 54 10 is_stmt 0
 254 0144 03A50400 		lw	a0,0(s1)
 255 0148 97000000 		call	_Z5printi@plt
 255      E7800000 
 256              	.LVL23:
  55:src/semafor.cpp ****     print("VAL: ");
 257              		.loc 1 55 5 is_stmt 1
 258              		.loc 1 55 10 is_stmt 0
 259 0150 17050000 		lla	a0,.LC1
 259      13050500 
 260 0158 97000000 		call	_Z5printPKc@plt
 260      E7800000 
 261              	.LVL24:
  56:src/semafor.cpp ****     print(val);
 262              		.loc 1 56 5 is_stmt 1
 263              		.loc 1 56 10 is_stmt 0
 264 0160 03A58401 		lw	a0,24(s1)
 265 0164 97000000 		call	_Z5printi@plt
 265      E7800000 
GAS LISTING /tmp/ccprvi8E.s 			page 7


 266              	.LVL25:
  57:src/semafor.cpp ****     print("LISTA:\n");
 267              		.loc 1 57 5 is_stmt 1
 268              		.loc 1 57 10 is_stmt 0
 269 016c 17050000 		lla	a0,.LC2
 269      13050500 
 270 0174 97000000 		call	_Z5printPKc@plt
 270      E7800000 
 271              	.LVL26:
  58:src/semafor.cpp ****     struktura *temp=head;
 272              		.loc 1 58 5 is_stmt 1
 273              		.loc 1 58 16 is_stmt 0
 274 017c 83B40401 		ld	s1,16(s1)
 275              	.LVL27:
 276              	.L22:
  59:src/semafor.cpp ****     while(temp){
 277              		.loc 1 59 5 is_stmt 1
 278              		.loc 1 59 11
 279 0180 638C0400 		beqz	s1,.L21
  60:src/semafor.cpp ****         temp->t->stampa();
 280              		.loc 1 60 9
 281              		.loc 1 60 24 is_stmt 0
 282 0184 03B50400 		ld	a0,0(s1)
 283 0188 97000000 		call	_ZN3Nit6stampaEv@plt
 283      E7800000 
 284              	.LVL28:
  61:src/semafor.cpp ****         temp=temp->next;
 285              		.loc 1 61 9 is_stmt 1
 286              		.loc 1 61 13 is_stmt 0
 287 0190 83B48400 		ld	s1,8(s1)
 288              	.LVL29:
  59:src/semafor.cpp ****     while(temp){
 289              		.loc 1 59 5
 290 0194 6FF0DFFE 		j	.L22
 291              	.L21:
  62:src/semafor.cpp ****     }
  63:src/semafor.cpp ****     print("kraj\n");
 292              		.loc 1 63 5 is_stmt 1
 293              		.loc 1 63 10 is_stmt 0
 294 0198 17050000 		lla	a0,.LC3
 294      13050500 
 295 01a0 97000000 		call	_Z5printPKc@plt
 295      E7800000 
 296              	.LVL30:
  64:src/semafor.cpp **** }
 297              		.loc 1 64 1
 298 01a8 83308101 		ld	ra,24(sp)
 299              		.cfi_restore 1
 300 01ac 03340101 		ld	s0,16(sp)
 301              		.cfi_restore 8
 302              		.cfi_def_cfa 2, 32
 303 01b0 83348100 		ld	s1,8(sp)
 304              		.cfi_restore 9
 305              	.LVL31:
 306 01b4 13010102 		addi	sp,sp,32
 307              		.cfi_def_cfa_offset 0
 308 01b8 67800000 		jr	ra
GAS LISTING /tmp/ccprvi8E.s 			page 8


 309              		.cfi_endproc
 310              	.LFE22:
 312              		.align	2
 313              		.globl	_ZN7Semafor5closeEv
 315              	_ZN7Semafor5closeEv:
 316              	.LFB23:
  65:src/semafor.cpp **** 
  66:src/semafor.cpp **** void Semafor::close() {
 317              		.loc 1 66 23 is_stmt 1
 318              		.cfi_startproc
 319              	.LVL32:
 320 01bc 130101FE 		addi	sp,sp,-32
 321              		.cfi_def_cfa_offset 32
 322 01c0 233C1100 		sd	ra,24(sp)
 323 01c4 23388100 		sd	s0,16(sp)
 324 01c8 23349100 		sd	s1,8(sp)
 325              		.cfi_offset 1, -8
 326              		.cfi_offset 8, -16
 327              		.cfi_offset 9, -24
 328 01cc 13040102 		addi	s0,sp,32
 329              		.cfi_def_cfa 8, 0
 330 01d0 93040500 		mv	s1,a0
 331              	.LVL33:
 332              	.L26:
  67:src/semafor.cpp ****     while(this->head){
 333              		.loc 1 67 5
 334              		.loc 1 67 17
 335 01d4 83B70401 		ld	a5,16(s1)
 336 01d8 63800702 		beqz	a5,.L25
  68:src/semafor.cpp ****         this->head->t->prekid=5;
 337              		.loc 1 68 9
 338              		.loc 1 68 21 is_stmt 0
 339 01dc 83B70700 		ld	a5,0(a5)
 340              		.loc 1 68 30
 341 01e0 13075000 		li	a4,5
 342 01e4 23A0E700 		sw	a4,0(a5)
  69:src/semafor.cpp ****         this->signal();
 343              		.loc 1 69 9 is_stmt 1
 344              		.loc 1 69 21 is_stmt 0
 345 01e8 13850400 		mv	a0,s1
 346 01ec 97000000 		call	_ZN7Semafor6signalEv
 346      E7800000 
 347              	.LVL34:
  67:src/semafor.cpp ****     while(this->head){
 348              		.loc 1 67 5
 349 01f4 6FF01FFE 		j	.L26
 350              	.L25:
  70:src/semafor.cpp ****     }
  71:src/semafor.cpp **** 
  72:src/semafor.cpp ****     Memorija::oslobadjanje(this);
 351              		.loc 1 72 5 is_stmt 1
 352              		.loc 1 72 27 is_stmt 0
 353 01f8 13850400 		mv	a0,s1
 354 01fc 97000000 		call	_ZN8Memorija12oslobadjanjeEPv@plt
 354      E7800000 
 355              	.LVL35:
  73:src/semafor.cpp **** }
GAS LISTING /tmp/ccprvi8E.s 			page 9


 356              		.loc 1 73 1
 357 0204 83308101 		ld	ra,24(sp)
 358              		.cfi_restore 1
 359 0208 03340101 		ld	s0,16(sp)
 360              		.cfi_restore 8
 361              		.cfi_def_cfa 2, 32
 362 020c 83348100 		ld	s1,8(sp)
 363              		.cfi_restore 9
 364              	.LVL36:
 365 0210 13010102 		addi	sp,sp,32
 366              		.cfi_def_cfa_offset 0
 367 0214 67800000 		jr	ra
 368              		.cfi_endproc
 369              	.LFE23:
 371              		.globl	_ZN7Semafor3iddE
 372              		.bss
 373              		.align	2
 376              	_ZN7Semafor3iddE:
 377 0000 00000000 		.zero	4
 378              		.text
 379              	.Letext0:
 380              		.file 2 "src/../h/../lib/hw.h"
 381              		.file 3 "src/../h/../h/memorija.h"
 382              		.file 4 "src/../h/thread.h"
 383              		.file 5 "src/../h/semafor.h"
 384              		.file 6 "src/../h/scheduler.h"
 385              		.file 7 "src/../h/../h/print.h"
 386              		.file 8 "<built-in>"
GAS LISTING /tmp/ccprvi8E.s 			page 10


DEFINED SYMBOLS
                            *ABS*:0000000000000000 semafor.cpp
     /tmp/ccprvi8E.s:9      .text:0000000000000000 _ZN7Semafor4waitEv
     /tmp/ccprvi8E.s:13     .text:0000000000000000 .L0 
     /tmp/ccprvi8E.s:15     .text:0000000000000000 .L0 
     /tmp/ccprvi8E.s:16     .text:0000000000000000 .L0 
     /tmp/ccprvi8E.s:17     .text:0000000000000000 .L0 
     /tmp/ccprvi8E.s:19     .text:0000000000000004 .L0 
     /tmp/ccprvi8E.s:21     .text:0000000000000008 .L0 
     /tmp/ccprvi8E.s:23     .text:000000000000000c .L0 
     /tmp/ccprvi8E.s:26     .text:0000000000000014 .L0 
     /tmp/ccprvi8E.s:27     .text:0000000000000018 .L0 
     /tmp/ccprvi8E.s:31     .text:0000000000000024 .L0 
     /tmp/ccprvi8E.s:32     .text:0000000000000024 .L0 
     /tmp/ccprvi8E.s:33     .text:0000000000000024 .L0 
     /tmp/ccprvi8E.s:35     .text:0000000000000028 .L0 
     /tmp/ccprvi8E.s:38     .text:000000000000002c .L0 
     /tmp/ccprvi8E.s:39     .text:000000000000002c .L0 
     /tmp/ccprvi8E.s:44     .text:0000000000000038 .L0 
     /tmp/ccprvi8E.s:46     .text:000000000000003c .L0 
     /tmp/ccprvi8E.s:47     .text:000000000000003c .L0 
     /tmp/ccprvi8E.s:51     .text:000000000000004c .L0 
     /tmp/ccprvi8E.s:52     .text:000000000000004c .L0 
     /tmp/ccprvi8E.s:54     .text:0000000000000050 .L0 
     /tmp/ccprvi8E.s:55     .text:0000000000000050 .L0 
     /tmp/ccprvi8E.s:57     .text:0000000000000054 .L0 
     /tmp/ccprvi8E.s:59     .text:0000000000000058 .L0 
     /tmp/ccprvi8E.s:61     .text:000000000000005c .L0 
     /tmp/ccprvi8E.s:63     .text:0000000000000060 .L0 
     /tmp/ccprvi8E.s:64     .text:0000000000000060 .L0 
     /tmp/ccprvi8E.s:67     .text:0000000000000064 .L0 
     /tmp/ccprvi8E.s:68     .text:0000000000000064 .L0 
     /tmp/ccprvi8E.s:71     .text:000000000000006c .L0 
     /tmp/ccprvi8E.s:72     .text:000000000000006c .L0 
     /tmp/ccprvi8E.s:76     .text:0000000000000070 .L0 
     /tmp/ccprvi8E.s:77     .text:0000000000000074 .L0 
     /tmp/ccprvi8E.s:78     .text:0000000000000074 .L0 
     /tmp/ccprvi8E.s:80     .text:0000000000000078 .L0 
     /tmp/ccprvi8E.s:81     .text:0000000000000078 .L0 
     /tmp/ccprvi8E.s:83     .text:000000000000007c .L0 
     /tmp/ccprvi8E.s:86     .text:0000000000000080 .L0 
     /tmp/ccprvi8E.s:90     .text:0000000000000084 .L0 
     /tmp/ccprvi8E.s:92     .text:0000000000000084 .L0 
     /tmp/ccprvi8E.s:93     .text:0000000000000084 .L0 
     /tmp/ccprvi8E.s:95     .text:0000000000000088 .L0 
     /tmp/ccprvi8E.s:96     .text:0000000000000088 .L0 
     /tmp/ccprvi8E.s:100    .text:0000000000000090 .L0 
     /tmp/ccprvi8E.s:101    .text:0000000000000090 .L0 
     /tmp/ccprvi8E.s:102    .text:0000000000000090 .L0 
     /tmp/ccprvi8E.s:103    .text:0000000000000090 .L0 
     /tmp/ccprvi8E.s:105    .text:0000000000000090 .L0 
     /tmp/ccprvi8E.s:108    .text:0000000000000094 .L0 
     /tmp/ccprvi8E.s:111    .text:0000000000000098 .L0 
     /tmp/ccprvi8E.s:112    .text:0000000000000098 .L0 
     /tmp/ccprvi8E.s:113    .text:0000000000000098 .L0 
     /tmp/ccprvi8E.s:114    .text:0000000000000098 .L0 
     /tmp/ccprvi8E.s:116    .text:0000000000000098 .L0 
GAS LISTING /tmp/ccprvi8E.s 			page 11


     /tmp/ccprvi8E.s:119    .text:00000000000000a0 .L0 
     /tmp/ccprvi8E.s:125    .text:00000000000000a0 _ZN7Semafor6signalEv
     /tmp/ccprvi8E.s:128    .text:00000000000000a0 .L0 
     /tmp/ccprvi8E.s:130    .text:00000000000000a0 .L0 
     /tmp/ccprvi8E.s:131    .text:00000000000000a0 .L0 
     /tmp/ccprvi8E.s:132    .text:00000000000000a0 .L0 
     /tmp/ccprvi8E.s:134    .text:00000000000000a4 .L0 
     /tmp/ccprvi8E.s:137    .text:00000000000000ac .L0 
     /tmp/ccprvi8E.s:139    .text:00000000000000b0 .L0 
     /tmp/ccprvi8E.s:140    .text:00000000000000b4 .L0 
     /tmp/ccprvi8E.s:144    .text:00000000000000c0 .L0 
     /tmp/ccprvi8E.s:145    .text:00000000000000c0 .L0 
     /tmp/ccprvi8E.s:146    .text:00000000000000c0 .L0 
     /tmp/ccprvi8E.s:148    .text:00000000000000c4 .L0 
     /tmp/ccprvi8E.s:150    .text:00000000000000c4 .L0 
     /tmp/ccprvi8E.s:151    .text:00000000000000c4 .L0 
     /tmp/ccprvi8E.s:153    .text:00000000000000c8 .L0 
     /tmp/ccprvi8E.s:156    .text:00000000000000cc .L0 
     /tmp/ccprvi8E.s:157    .text:00000000000000cc .L0 
     /tmp/ccprvi8E.s:158    .text:00000000000000cc .L0 
     /tmp/ccprvi8E.s:160    .text:00000000000000d0 .L0 
     /tmp/ccprvi8E.s:162    .text:00000000000000d4 .L0 
     /tmp/ccprvi8E.s:163    .text:00000000000000d4 .L0 
     /tmp/ccprvi8E.s:165    .text:00000000000000d8 .L0 
     /tmp/ccprvi8E.s:167    .text:00000000000000dc .L0 
     /tmp/ccprvi8E.s:168    .text:00000000000000dc .L0 
     /tmp/ccprvi8E.s:173    .text:00000000000000e8 .L0 
     /tmp/ccprvi8E.s:174    .text:00000000000000e8 .L0 
     /tmp/ccprvi8E.s:178    .text:00000000000000f4 .L0 
     /tmp/ccprvi8E.s:179    .text:00000000000000f4 .L0 
     /tmp/ccprvi8E.s:183    .text:00000000000000f8 .L0 
     /tmp/ccprvi8E.s:184    .text:00000000000000fc .L0 
     /tmp/ccprvi8E.s:186    .text:0000000000000100 .L0 
     /tmp/ccprvi8E.s:187    .text:0000000000000100 .L0 
     /tmp/ccprvi8E.s:189    .text:0000000000000104 .L0 
     /tmp/ccprvi8E.s:191    .text:0000000000000108 .L0 
     /tmp/ccprvi8E.s:196    .text:000000000000010c .L0 
     /tmp/ccprvi8E.s:199    .text:0000000000000110 .L0 
     /tmp/ccprvi8E.s:202    .text:0000000000000114 .L0 
     /tmp/ccprvi8E.s:203    .text:0000000000000114 .L0 
     /tmp/ccprvi8E.s:204    .text:0000000000000114 .L0 
     /tmp/ccprvi8E.s:205    .text:0000000000000114 .L0 
     /tmp/ccprvi8E.s:207    .text:0000000000000114 .L0 
     /tmp/ccprvi8E.s:210    .text:000000000000011c .L0 
     /tmp/ccprvi8E.s:230    .text:000000000000011c _ZN7Semafor5PrintEv
     /tmp/ccprvi8E.s:233    .text:000000000000011c .L0 
     /tmp/ccprvi8E.s:235    .text:000000000000011c .L0 
     /tmp/ccprvi8E.s:236    .text:0000000000000120 .L0 
     /tmp/ccprvi8E.s:240    .text:000000000000012c .L0 
     /tmp/ccprvi8E.s:241    .text:000000000000012c .L0 
     /tmp/ccprvi8E.s:242    .text:000000000000012c .L0 
     /tmp/ccprvi8E.s:244    .text:0000000000000130 .L0 
     /tmp/ccprvi8E.s:247    .text:0000000000000134 .L0 
     /tmp/ccprvi8E.s:248    .text:0000000000000134 .L0 
     /tmp/ccprvi8E.s:253    .text:0000000000000144 .L0 
     /tmp/ccprvi8E.s:254    .text:0000000000000144 .L0 
     /tmp/ccprvi8E.s:258    .text:0000000000000150 .L0 
GAS LISTING /tmp/ccprvi8E.s 			page 12


     /tmp/ccprvi8E.s:259    .text:0000000000000150 .L0 
     /tmp/ccprvi8E.s:263    .text:0000000000000160 .L0 
     /tmp/ccprvi8E.s:264    .text:0000000000000160 .L0 
     /tmp/ccprvi8E.s:268    .text:000000000000016c .L0 
     /tmp/ccprvi8E.s:269    .text:000000000000016c .L0 
     /tmp/ccprvi8E.s:273    .text:000000000000017c .L0 
     /tmp/ccprvi8E.s:274    .text:000000000000017c .L0 
     /tmp/ccprvi8E.s:278    .text:0000000000000180 .L0 
     /tmp/ccprvi8E.s:279    .text:0000000000000180 .L0 
     /tmp/ccprvi8E.s:281    .text:0000000000000184 .L0 
     /tmp/ccprvi8E.s:282    .text:0000000000000184 .L0 
     /tmp/ccprvi8E.s:286    .text:0000000000000190 .L0 
     /tmp/ccprvi8E.s:287    .text:0000000000000190 .L0 
     /tmp/ccprvi8E.s:290    .text:0000000000000194 .L0 
     /tmp/ccprvi8E.s:293    .text:0000000000000198 .L0 
     /tmp/ccprvi8E.s:294    .text:0000000000000198 .L0 
     /tmp/ccprvi8E.s:298    .text:00000000000001a8 .L0 
     /tmp/ccprvi8E.s:299    .text:00000000000001ac .L0 
     /tmp/ccprvi8E.s:301    .text:00000000000001b0 .L0 
     /tmp/ccprvi8E.s:302    .text:00000000000001b0 .L0 
     /tmp/ccprvi8E.s:304    .text:00000000000001b4 .L0 
     /tmp/ccprvi8E.s:307    .text:00000000000001b8 .L0 
     /tmp/ccprvi8E.s:309    .text:00000000000001bc .L0 
     /tmp/ccprvi8E.s:315    .text:00000000000001bc _ZN7Semafor5closeEv
     /tmp/ccprvi8E.s:318    .text:00000000000001bc .L0 
     /tmp/ccprvi8E.s:320    .text:00000000000001bc .L0 
     /tmp/ccprvi8E.s:321    .text:00000000000001c0 .L0 
     /tmp/ccprvi8E.s:325    .text:00000000000001cc .L0 
     /tmp/ccprvi8E.s:326    .text:00000000000001cc .L0 
     /tmp/ccprvi8E.s:327    .text:00000000000001cc .L0 
     /tmp/ccprvi8E.s:329    .text:00000000000001d0 .L0 
     /tmp/ccprvi8E.s:334    .text:00000000000001d4 .L0 
     /tmp/ccprvi8E.s:335    .text:00000000000001d4 .L0 
     /tmp/ccprvi8E.s:338    .text:00000000000001dc .L0 
     /tmp/ccprvi8E.s:339    .text:00000000000001dc .L0 
     /tmp/ccprvi8E.s:341    .text:00000000000001e0 .L0 
     /tmp/ccprvi8E.s:344    .text:00000000000001e8 .L0 
     /tmp/ccprvi8E.s:345    .text:00000000000001e8 .L0 
     /tmp/ccprvi8E.s:349    .text:00000000000001f4 .L0 
     /tmp/ccprvi8E.s:352    .text:00000000000001f8 .L0 
     /tmp/ccprvi8E.s:353    .text:00000000000001f8 .L0 
     /tmp/ccprvi8E.s:357    .text:0000000000000204 .L0 
     /tmp/ccprvi8E.s:358    .text:0000000000000208 .L0 
     /tmp/ccprvi8E.s:360    .text:000000000000020c .L0 
     /tmp/ccprvi8E.s:361    .text:000000000000020c .L0 
     /tmp/ccprvi8E.s:363    .text:0000000000000210 .L0 
     /tmp/ccprvi8E.s:366    .text:0000000000000214 .L0 
     /tmp/ccprvi8E.s:368    .text:0000000000000218 .L0 
     /tmp/ccprvi8E.s:376    .bss:0000000000000000 _ZN7Semafor3iddE
     /tmp/ccprvi8E.s:387    .text:0000000000000218 .L0 
     /tmp/ccprvi8E.s:47     .text:000000000000003c .L0 
     /tmp/ccprvi8E.s:215    .rodata.str1.8:0000000000000000 .LC0
     /tmp/ccprvi8E.s:248    .text:0000000000000134 .L0 
     /tmp/ccprvi8E.s:218    .rodata.str1.8:0000000000000010 .LC1
     /tmp/ccprvi8E.s:259    .text:0000000000000150 .L0 
     /tmp/ccprvi8E.s:221    .rodata.str1.8:0000000000000018 .LC2
     /tmp/ccprvi8E.s:269    .text:000000000000016c .L0 
GAS LISTING /tmp/ccprvi8E.s 			page 13


     /tmp/ccprvi8E.s:224    .rodata.str1.8:0000000000000020 .LC3
     /tmp/ccprvi8E.s:294    .text:0000000000000198 .L0 
     /tmp/ccprvi8E.s:99     .text:0000000000000090 .L5
     /tmp/ccprvi8E.s:110    .text:0000000000000098 .L6
     /tmp/ccprvi8E.s:89     .text:0000000000000084 .L11
     /tmp/ccprvi8E.s:65     .text:0000000000000064 .L4
     /tmp/ccprvi8E.s:74     .text:0000000000000070 .L2
     /tmp/ccprvi8E.s:194    .text:000000000000010c .L14
     /tmp/ccprvi8E.s:201    .text:0000000000000114 .L15
     /tmp/ccprvi8E.s:181    .text:00000000000000f8 .L13
     /tmp/ccprvi8E.s:291    .text:0000000000000198 .L21
     /tmp/ccprvi8E.s:276    .text:0000000000000180 .L22
     /tmp/ccprvi8E.s:350    .text:00000000000001f8 .L25
     /tmp/ccprvi8E.s:332    .text:00000000000001d4 .L26
     /tmp/ccprvi8E.s:1413   .debug_abbrev:0000000000000000 .Ldebug_abbrev0
     /tmp/ccprvi8E.s:2576   .debug_str:00000000000004c2 .LASF97
     /tmp/ccprvi8E.s:2540   .debug_str:00000000000003bf .LASF98
     /tmp/ccprvi8E.s:2434   .debug_str:00000000000000d2 .LASF99
     /tmp/ccprvi8E.s:5      .text:0000000000000000 .Ltext0
     /tmp/ccprvi8E.s:379    .text:0000000000000218 .Letext0
     /tmp/ccprvi8E.s:2402   .debug_line:0000000000000000 .Ldebug_line0
     /tmp/ccprvi8E.s:2524   .debug_str:000000000000033d .LASF0
     /tmp/ccprvi8E.s:2536   .debug_str:0000000000000399 .LASF1
     /tmp/ccprvi8E.s:2510   .debug_str:00000000000002db .LASF2
     /tmp/ccprvi8E.s:2488   .debug_str:000000000000023d .LASF4
     /tmp/ccprvi8E.s:2558   .debug_str:0000000000000439 .LASF3
     /tmp/ccprvi8E.s:2428   .debug_str:00000000000000ae .LASF5
     /tmp/ccprvi8E.s:2538   .debug_str:00000000000003ac .LASF6
     /tmp/ccprvi8E.s:2522   .debug_str:000000000000032a .LASF7
     /tmp/ccprvi8E.s:2584   .debug_str:00000000000005b3 .LASF8
     /tmp/ccprvi8E.s:2478   .debug_str:00000000000001ee .LASF9
     /tmp/ccprvi8E.s:2548   .debug_str:00000000000003e9 .LASF10
     /tmp/ccprvi8E.s:2580   .debug_str:000000000000058c .LASF11
     /tmp/ccprvi8E.s:2500   .debug_str:0000000000000293 .LASF12
     /tmp/ccprvi8E.s:2412   .debug_str:0000000000000033 .LASF13
     /tmp/ccprvi8E.s:2440   .debug_str:000000000000010b .LASF14
     /tmp/ccprvi8E.s:2554   .debug_str:000000000000041c .LASF15
     /tmp/ccprvi8E.s:2448   .debug_str:0000000000000136 .LASF16
     /tmp/ccprvi8E.s:2444   .debug_str:0000000000000128 .LASF24
     /tmp/ccprvi8E.s:2516   .debug_str:0000000000000305 .LASF61
     /tmp/ccprvi8E.s:2606   .debug_str:000000000000062d .LASF17
     /tmp/ccprvi8E.s:2594   .debug_str:00000000000005fc .LASF18
     /tmp/ccprvi8E.s:2570   .debug_str:00000000000004aa .LASF19
     /tmp/ccprvi8E.s:2458   .debug_str:0000000000000181 .LASF20
     /tmp/ccprvi8E.s:2410   .debug_str:0000000000000015 .LASF22
     /tmp/ccprvi8E.s:2592   .debug_str:00000000000005f2 .LASF21
     /tmp/ccprvi8E.s:2532   .debug_str:0000000000000372 .LASF23
     /tmp/ccprvi8E.s:2472   .debug_str:00000000000001c7 .LASF32
     /tmp/ccprvi8E.s:2520   .debug_str:0000000000000315 .LASF34
     /tmp/ccprvi8E.s:2526   .debug_str:000000000000034a .LASF49
     /tmp/ccprvi8E.s:2450   .debug_str:000000000000014c .LASF51
     /tmp/ccprvi8E.s:2452   .debug_str:000000000000016b .LASF25
     /tmp/ccprvi8E.s:2556   .debug_str:0000000000000432 .LASF26
     /tmp/ccprvi8E.s:2470   .debug_str:00000000000001c0 .LASF27
     /tmp/ccprvi8E.s:2416   .debug_str:0000000000000063 .LASF69
     /tmp/ccprvi8E.s:2550   .debug_str:00000000000003f8 .LASF71
     /tmp/ccprvi8E.s:2408   .debug_str:000000000000000e .LASF28
GAS LISTING /tmp/ccprvi8E.s 			page 14


     /tmp/ccprvi8E.s:2438   .debug_str:00000000000000fa .LASF29
     /tmp/ccprvi8E.s:2602   .debug_str:0000000000000614 .LASF30
     /tmp/ccprvi8E.s:2414   .debug_str:0000000000000043 .LASF31
     /tmp/ccprvi8E.s:2494   .debug_str:0000000000000265 .LASF100
     /tmp/ccprvi8E.s:2528   .debug_str:0000000000000359 .LASF33
     /tmp/ccprvi8E.s:2508   .debug_str:00000000000002c8 .LASF35
     /tmp/ccprvi8E.s:2456   .debug_str:000000000000017b .LASF36
     /tmp/ccprvi8E.s:2422   .debug_str:0000000000000081 .LASF37
     /tmp/ccprvi8E.s:2492   .debug_str:000000000000025c .LASF38
     /tmp/ccprvi8E.s:2462   .debug_str:00000000000001a3 .LASF39
     /tmp/ccprvi8E.s:2502   .debug_str:00000000000002a3 .LASF78
     /tmp/ccprvi8E.s:2436   .debug_str:00000000000000ed .LASF40
     /tmp/ccprvi8E.s:2574   .debug_str:00000000000004b6 .LASF41
     /tmp/ccprvi8E.s:2474   .debug_str:00000000000001cd .LASF42
     /tmp/ccprvi8E.s:2482   .debug_str:0000000000000210 .LASF43
     /tmp/ccprvi8E.s:2562   .debug_str:000000000000046a .LASF44
     /tmp/ccprvi8E.s:2486   .debug_str:0000000000000230 .LASF46
     /tmp/ccprvi8E.s:2566   .debug_str:000000000000048b .LASF45
     /tmp/ccprvi8E.s:2604   .debug_str:0000000000000620 .LASF47
     /tmp/ccprvi8E.s:2454   .debug_str:0000000000000170 .LASF48
     /tmp/ccprvi8E.s:2586   .debug_str:00000000000005c3 .LASF101
     /tmp/ccprvi8E.s:2512   .debug_str:00000000000002e9 .LASF50
     /tmp/ccprvi8E.s:2590   .debug_str:00000000000005e2 .LASF52
     /tmp/ccprvi8E.s:2572   .debug_str:00000000000004af .LASF53
     /tmp/ccprvi8E.s:2552   .debug_str:000000000000040b .LASF54
     /tmp/ccprvi8E.s:2588   .debug_str:00000000000005d7 .LASF55
     /tmp/ccprvi8E.s:2546   .debug_str:00000000000003e0 .LASF56
     /tmp/ccprvi8E.s:2600   .debug_str:000000000000060f .LASF57
     /tmp/ccprvi8E.s:2466   .debug_str:00000000000001b0 .LASF58
     /tmp/ccprvi8E.s:2420   .debug_str:000000000000007c .LASF59
     /tmp/ccprvi8E.s:2404   .debug_str:0000000000000000 .LASF60
     /tmp/ccprvi8E.s:2506   .debug_str:00000000000002c3 .LASF62
     /tmp/ccprvi8E.s:2480   .debug_str:00000000000001fc .LASF63
     /tmp/ccprvi8E.s:2530   .debug_str:0000000000000362 .LASF64
     /tmp/ccprvi8E.s:2430   .debug_str:00000000000000b5 .LASF65
     /tmp/ccprvi8E.s:2442   .debug_str:0000000000000117 .LASF66
     /tmp/ccprvi8E.s:2476   .debug_str:00000000000001dd .LASF67
     /tmp/ccprvi8E.s:2418   .debug_str:000000000000006c .LASF68
     /tmp/ccprvi8E.s:2464   .debug_str:00000000000001ab .LASF70
     /tmp/ccprvi8E.s:2608   .debug_str:0000000000000632 .LASF72
     /tmp/ccprvi8E.s:2542   .debug_str:00000000000003cf .LASF73
     /tmp/ccprvi8E.s:2460   .debug_str:000000000000018e .LASF74
     /tmp/ccprvi8E.s:2406   .debug_str:0000000000000008 .LASF75
     /tmp/ccprvi8E.s:2504   .debug_str:00000000000002af .LASF76
     /tmp/ccprvi8E.s:2544   .debug_str:00000000000003d6 .LASF77
     /tmp/ccprvi8E.s:2490   .debug_str:0000000000000244 .LASF79
     /tmp/ccprvi8E.s:2484   .debug_str:000000000000021c .LASF102
     /tmp/ccprvi8E.s:2534   .debug_str:000000000000038b .LASF80
     /tmp/ccprvi8E.s:2560   .debug_str:000000000000044b .LASF81
     /tmp/ccprvi8E.s:2568   .debug_str:000000000000049e .LASF82
     /tmp/ccprvi8E.s:2496   .debug_str:000000000000026a .LASF83
     /tmp/ccprvi8E.s:2514   .debug_str:00000000000002ef .LASF84
     /tmp/ccprvi8E.s:2610   .debug_str:0000000000000645 .LASF85
     /tmp/ccprvi8E.s:2424   .debug_str:0000000000000091 .LASF87
     /tmp/ccprvi8E.s:2596   .debug_str:0000000000000601 .LASF86
     /tmp/ccprvi8E.s:2582   .debug_str:000000000000059b .LASF88
     /tmp/ccprvi8E.s:2598   .debug_str:0000000000000609 .LASF89
GAS LISTING /tmp/ccprvi8E.s 			page 15


     /tmp/ccprvi8E.s:2578   .debug_str:0000000000000586 .LASF90
     /tmp/ccprvi8E.s:2432   .debug_str:00000000000000c5 .LASF91
     /tmp/ccprvi8E.s:2564   .debug_str:000000000000047a .LASF103
     /tmp/ccprvi8E.s:316    .text:00000000000001bc .LFB23
     /tmp/ccprvi8E.s:369    .text:0000000000000218 .LFE23
     /tmp/ccprvi8E.s:2446   .debug_str:0000000000000131 .LASF92
     /tmp/ccprvi8E.s:2251   .debug_loc:0000000000000000 .LLST6
     /tmp/ccprvi8E.s:347    .text:00000000000001f4 .LVL34
     /tmp/ccprvi8E.s:355    .text:0000000000000204 .LVL35
     /tmp/ccprvi8E.s:231    .text:000000000000011c .LFB22
     /tmp/ccprvi8E.s:310    .text:00000000000001bc .LFE22
     /tmp/ccprvi8E.s:2269   .debug_loc:000000000000004c .LLST4
     /tmp/ccprvi8E.s:2426   .debug_str:00000000000000a9 .LASF93
     /tmp/ccprvi8E.s:2287   .debug_loc:0000000000000098 .LLST5
     /tmp/ccprvi8E.s:251    .text:0000000000000144 .LVL22
     /tmp/ccprvi8E.s:256    .text:0000000000000150 .LVL23
     /tmp/ccprvi8E.s:261    .text:0000000000000160 .LVL24
     /tmp/ccprvi8E.s:266    .text:000000000000016c .LVL25
     /tmp/ccprvi8E.s:271    .text:000000000000017c .LVL26
     /tmp/ccprvi8E.s:284    .text:0000000000000190 .LVL28
     /tmp/ccprvi8E.s:296    .text:00000000000001a8 .LVL30
     /tmp/ccprvi8E.s:126    .text:00000000000000a0 .LFB21
     /tmp/ccprvi8E.s:211    .text:000000000000011c .LFE21
     /tmp/ccprvi8E.s:2294   .debug_loc:00000000000000bb .LLST2
     /tmp/ccprvi8E.s:2330   .debug_loc:0000000000000146 .LLST3
     /tmp/ccprvi8E.s:171    .text:00000000000000e8 .LVL13
     /tmp/ccprvi8E.s:176    .text:00000000000000f4 .LVL14
     /tmp/ccprvi8E.s:10     .text:0000000000000000 .LFB20
     /tmp/ccprvi8E.s:120    .text:00000000000000a0 .LFE20
     /tmp/ccprvi8E.s:2337   .debug_loc:0000000000000169 .LLST0
     /tmp/ccprvi8E.s:2374   .debug_loc:0000000000000204 .LLST1
     /tmp/ccprvi8E.s:42     .text:0000000000000038 .LVL2
     /tmp/ccprvi8E.s:2498   .debug_str:0000000000000287 .LASF94
     /tmp/ccprvi8E.s:2518   .debug_str:000000000000030f .LASF96
     /tmp/ccprvi8E.s:2468   .debug_str:00000000000001b6 .LASF95
     /tmp/ccprvi8E.s:319    .text:00000000000001bc .LVL32
     /tmp/ccprvi8E.s:331    .text:00000000000001d4 .LVL33
     /tmp/ccprvi8E.s:364    .text:0000000000000210 .LVL36
     /tmp/ccprvi8E.s:234    .text:000000000000011c .LVL20
     /tmp/ccprvi8E.s:249    .text:000000000000013c .LVL21
     /tmp/ccprvi8E.s:275    .text:0000000000000180 .LVL27
     /tmp/ccprvi8E.s:305    .text:00000000000001b4 .LVL31
     /tmp/ccprvi8E.s:129    .text:00000000000000a0 .LVL10
     /tmp/ccprvi8E.s:169    .text:00000000000000e0 .LVL12
     /tmp/ccprvi8E.s:193    .text:000000000000010c .LVL16
     /tmp/ccprvi8E.s:197    .text:0000000000000110 .LVL17
     /tmp/ccprvi8E.s:200    .text:0000000000000114 .LVL18
     /tmp/ccprvi8E.s:208    .text:0000000000000118 .LVL19
     /tmp/ccprvi8E.s:155    .text:00000000000000cc .LVL11
     /tmp/ccprvi8E.s:180    .text:00000000000000f8 .LVL15
     /tmp/ccprvi8E.s:14     .text:0000000000000000 .LVL0
     /tmp/ccprvi8E.s:40     .text:0000000000000030 .LVL1
     /tmp/ccprvi8E.s:84     .text:000000000000007c .LVL4
     /tmp/ccprvi8E.s:88     .text:0000000000000084 .LVL5
     /tmp/ccprvi8E.s:98     .text:0000000000000090 .LVL6
     /tmp/ccprvi8E.s:106    .text:0000000000000094 .LVL7
     /tmp/ccprvi8E.s:109    .text:0000000000000098 .LVL8
GAS LISTING /tmp/ccprvi8E.s 			page 16


     /tmp/ccprvi8E.s:73     .text:0000000000000070 .LVL3
     /tmp/ccprvi8E.s:117    .text:000000000000009c .LVL9
     /tmp/ccprvi8E.s:388    .debug_info:0000000000000000 .Ldebug_info0

UNDEFINED SYMBOLS
_ZN8Memorija9alokacijaEm
_ZN3Nit7runningE
_ZN9Scheduler3putEP3Nit
_ZN8Memorija12oslobadjanjeEPv
_Z5printPKc
_Z5printi
_ZN3Nit6stampaEv
