GAS LISTING /tmp/ccoNeLwn.s 			page 1


   1              		.file	"syscall_c.cpp"
   2              		.option pic
   3              		.option norelax
   4              		.text
   5              	.Ltext0:
   6              		.align	2
   7              		.globl	_Z9mem_allocm
   9              	_Z9mem_allocm:
  10              	.LFB0:
  11              		.file 1 "src/syscall_c.cpp"
   1:src/syscall_c.cpp **** //
   2:src/syscall_c.cpp **** // Created by os on 8/10/22.
   3:src/syscall_c.cpp **** //
   4:src/syscall_c.cpp **** 
   5:src/syscall_c.cpp **** #include "../h/syscall_c.h"
   6:src/syscall_c.cpp **** #include "../h/printing.h"
   7:src/syscall_c.cpp **** 
   8:src/syscall_c.cpp **** void* mem_alloc(size_t size){
  12              		.loc 1 8 29
  13              		.cfi_startproc
  14              	.LVL0:
  15 0000 130101FF 		addi	sp,sp,-16
  16              		.cfi_def_cfa_offset 16
  17 0004 23348100 		sd	s0,8(sp)
  18              		.cfi_offset 8, -8
  19 0008 13040101 		addi	s0,sp,16
  20              		.cfi_def_cfa 8, 0
   9:src/syscall_c.cpp **** 
  10:src/syscall_c.cpp ****     __asm__ volatile("mv a1, %0" : : "r" (size)); // u a1 stavljamo size
  21              		.loc 1 10 5
  22              		.loc 1 10 49 is_stmt 0
  23              	#APP
  24              	# 10 "src/syscall_c.cpp" 1
  11              	    __asm__ volatile("mv a0, %0" : : "r" (0x01)); // u a0 stavljamo 0x01
  25              		mv a1, a0
  26              	# 0 "" 2
  27              		.loc 1 11 5 is_stmt 1
  28              		.loc 1 11 49 is_stmt 0
  29              	#NO_APP
  30 0010 93071000 		li	a5,1
  31              	#APP
  32              	# 11 "src/syscall_c.cpp" 1
  12              	    __asm__ volatile("ecall");
  33              		mv a0, a5
  34              	# 0 "" 2
  35              		.loc 1 12 5 is_stmt 1
  36              		.loc 1 12 30 is_stmt 0
  37              	# 12 "src/syscall_c.cpp" 1
  13              	
  14:src/syscall_c.cpp ****     void* rez;
  38              		ecall
  39              	# 0 "" 2
  40              		.loc 1 14 5 is_stmt 1
  15:src/syscall_c.cpp ****     __asm__ volatile("mv %0, a0" : "=r" (rez));
  41              		.loc 1 15 5
  42              		.loc 1 15 47 is_stmt 0
  43              	# 15 "src/syscall_c.cpp" 1
GAS LISTING /tmp/ccoNeLwn.s 			page 2


  16              	    return rez;
  44              		mv a0, a0
  45              	# 0 "" 2
  46              	.LVL1:
  47              		.loc 1 16 5 is_stmt 1
  17:src/syscall_c.cpp **** }
  48              		.loc 1 17 1 is_stmt 0
  49              	#NO_APP
  50 0020 03348100 		ld	s0,8(sp)
  51              		.cfi_restore 8
  52              		.cfi_def_cfa 2, 16
  53 0024 13010101 		addi	sp,sp,16
  54              		.cfi_def_cfa_offset 0
  55 0028 67800000 		jr	ra
  56              		.cfi_endproc
  57              	.LFE0:
  59              		.align	2
  60              		.globl	_Z8mem_freePv
  62              	_Z8mem_freePv:
  63              	.LFB1:
  18:src/syscall_c.cpp **** 
  19:src/syscall_c.cpp **** int mem_free(void* add){
  64              		.loc 1 19 24 is_stmt 1
  65              		.cfi_startproc
  66              	.LVL2:
  67 002c 130101FF 		addi	sp,sp,-16
  68              		.cfi_def_cfa_offset 16
  69 0030 23348100 		sd	s0,8(sp)
  70              		.cfi_offset 8, -8
  71 0034 13040101 		addi	s0,sp,16
  72              		.cfi_def_cfa 8, 0
  20:src/syscall_c.cpp ****     __asm__ volatile("mv a1, %0" : : "r" (add)); // u a1 stavljamo add
  73              		.loc 1 20 5
  74              		.loc 1 20 48 is_stmt 0
  75              	#APP
  76              	# 20 "src/syscall_c.cpp" 1
  21              	    __asm__ volatile("mv a0, %0" : : "r" (0x02)); // u a0 stavljamo 0x01
  77              		mv a1, a0
  78              	# 0 "" 2
  79              		.loc 1 21 5 is_stmt 1
  80              		.loc 1 21 49 is_stmt 0
  81              	#NO_APP
  82 003c 93072000 		li	a5,2
  83              	#APP
  84              	# 21 "src/syscall_c.cpp" 1
  22              	    __asm__ volatile("ecall");
  85              		mv a0, a5
  86              	# 0 "" 2
  87              		.loc 1 22 5 is_stmt 1
  88              		.loc 1 22 30 is_stmt 0
  89              	# 22 "src/syscall_c.cpp" 1
  23              	
  24:src/syscall_c.cpp ****     int rez;
  90              		ecall
  91              	# 0 "" 2
  92              		.loc 1 24 5 is_stmt 1
  25:src/syscall_c.cpp ****     __asm__ volatile("mv %0, a0" : "=r" (rez));
GAS LISTING /tmp/ccoNeLwn.s 			page 3


  93              		.loc 1 25 5
  94              		.loc 1 25 47 is_stmt 0
  95              	# 25 "src/syscall_c.cpp" 1
  26              	    return rez;
  96              		mv a0, a0
  97              	# 0 "" 2
  98              	.LVL3:
  99              		.loc 1 26 5 is_stmt 1
  27:src/syscall_c.cpp **** }
 100              		.loc 1 27 1 is_stmt 0
 101              	#NO_APP
 102 004c 1B050500 		sext.w	a0,a0
 103 0050 03348100 		ld	s0,8(sp)
 104              		.cfi_restore 8
 105              		.cfi_def_cfa 2, 16
 106 0054 13010101 		addi	sp,sp,16
 107              		.cfi_def_cfa_offset 0
 108 0058 67800000 		jr	ra
 109              		.cfi_endproc
 110              	.LFE1:
 112              		.align	2
 113              		.globl	_Z13thread_createPP3NitPFvPvES2_
 115              	_Z13thread_createPP3NitPFvPvES2_:
 116              	.LFB2:
  28:src/syscall_c.cpp **** 
  29:src/syscall_c.cpp **** int thread_create(thread_t* handle, void(*start_routine)(void*),void* arg){
 117              		.loc 1 29 75 is_stmt 1
 118              		.cfi_startproc
 119              	.LVL4:
 120 005c 130101FF 		addi	sp,sp,-16
 121              		.cfi_def_cfa_offset 16
 122 0060 23348100 		sd	s0,8(sp)
 123              		.cfi_offset 8, -8
 124 0064 13040101 		addi	s0,sp,16
 125              		.cfi_def_cfa 8, 0
  30:src/syscall_c.cpp ****     __asm__ volatile("mv a3, %0" : : "r" (arg));
 126              		.loc 1 30 5
 127              		.loc 1 30 48 is_stmt 0
 128              	#APP
 129              	# 30 "src/syscall_c.cpp" 1
  31              	    __asm__ volatile("mv a2, %0" : : "r" (start_routine));
 130              		mv a3, a2
 131              	# 0 "" 2
 132              		.loc 1 31 5 is_stmt 1
 133              		.loc 1 31 58 is_stmt 0
 134              	# 31 "src/syscall_c.cpp" 1
  32              	    __asm__ volatile("mv a1, %0" : : "r" (handle));
 135              		mv a2, a1
 136              	# 0 "" 2
 137              		.loc 1 32 5 is_stmt 1
 138              		.loc 1 32 51 is_stmt 0
 139              	# 32 "src/syscall_c.cpp" 1
  33              	    __asm__ volatile("mv a0, %0" : : "r" (0x11));
 140              		mv a1, a0
 141              	# 0 "" 2
 142              		.loc 1 33 5 is_stmt 1
 143              		.loc 1 33 49 is_stmt 0
GAS LISTING /tmp/ccoNeLwn.s 			page 4


 144              	#NO_APP
 145 0074 93071001 		li	a5,17
 146              	#APP
 147              	# 33 "src/syscall_c.cpp" 1
  34              	
  35:src/syscall_c.cpp ****     __asm__ volatile("ecall");
 148              		mv a0, a5
 149              	# 0 "" 2
 150              		.loc 1 35 5 is_stmt 1
 151              		.loc 1 35 30 is_stmt 0
 152              	# 35 "src/syscall_c.cpp" 1
  36              	
  37:src/syscall_c.cpp ****     int rez;
 153              		ecall
 154              	# 0 "" 2
 155              		.loc 1 37 5 is_stmt 1
  38:src/syscall_c.cpp ****     __asm__ volatile("mv %0, a0" : "=r" (rez));
 156              		.loc 1 38 5
 157              		.loc 1 38 47 is_stmt 0
 158              	# 38 "src/syscall_c.cpp" 1
  39              	    return rez;
 159              		mv a0, a0
 160              	# 0 "" 2
 161              	.LVL5:
 162              		.loc 1 39 5 is_stmt 1
  40:src/syscall_c.cpp **** }
 163              		.loc 1 40 1 is_stmt 0
 164              	#NO_APP
 165 0084 1B050500 		sext.w	a0,a0
 166 0088 03348100 		ld	s0,8(sp)
 167              		.cfi_restore 8
 168              		.cfi_def_cfa 2, 16
 169 008c 13010101 		addi	sp,sp,16
 170              		.cfi_def_cfa_offset 0
 171 0090 67800000 		jr	ra
 172              		.cfi_endproc
 173              	.LFE2:
 175              		.align	2
 176              		.globl	_Z11thread_exitv
 178              	_Z11thread_exitv:
 179              	.LFB3:
  41:src/syscall_c.cpp **** 
  42:src/syscall_c.cpp **** int thread_exit(){
 180              		.loc 1 42 18 is_stmt 1
 181              		.cfi_startproc
 182 0094 130101FF 		addi	sp,sp,-16
 183              		.cfi_def_cfa_offset 16
 184 0098 23348100 		sd	s0,8(sp)
 185              		.cfi_offset 8, -8
 186 009c 13040101 		addi	s0,sp,16
 187              		.cfi_def_cfa 8, 0
  43:src/syscall_c.cpp ****     __asm__ volatile("mv a0, %0" : : "r" (0x12));
 188              		.loc 1 43 5
 189              		.loc 1 43 49 is_stmt 0
 190 00a0 93072001 		li	a5,18
 191              	#APP
 192              	# 43 "src/syscall_c.cpp" 1
GAS LISTING /tmp/ccoNeLwn.s 			page 5


  44              	    __asm__ volatile("ecall");
 193              		mv a0, a5
 194              	# 0 "" 2
 195              		.loc 1 44 5 is_stmt 1
 196              		.loc 1 44 30 is_stmt 0
 197              	# 44 "src/syscall_c.cpp" 1
  45              	    return 0;
 198              		ecall
 199              	# 0 "" 2
 200              		.loc 1 45 5 is_stmt 1
  46:src/syscall_c.cpp **** }
 201              		.loc 1 46 1 is_stmt 0
 202              	#NO_APP
 203 00ac 13050000 		li	a0,0
 204 00b0 03348100 		ld	s0,8(sp)
 205              		.cfi_restore 8
 206              		.cfi_def_cfa 2, 16
 207 00b4 13010101 		addi	sp,sp,16
 208              		.cfi_def_cfa_offset 0
 209 00b8 67800000 		jr	ra
 210              		.cfi_endproc
 211              	.LFE3:
 213              		.align	2
 214              		.globl	_Z15thread_dispatchv
 216              	_Z15thread_dispatchv:
 217              	.LFB4:
  47:src/syscall_c.cpp **** 
  48:src/syscall_c.cpp **** void thread_dispatch(){
 218              		.loc 1 48 23 is_stmt 1
 219              		.cfi_startproc
 220 00bc 130101FF 		addi	sp,sp,-16
 221              		.cfi_def_cfa_offset 16
 222 00c0 23348100 		sd	s0,8(sp)
 223              		.cfi_offset 8, -8
 224 00c4 13040101 		addi	s0,sp,16
 225              		.cfi_def_cfa 8, 0
  49:src/syscall_c.cpp ****     __asm__ volatile("mv a0, %0" : : "r" (0x13));
 226              		.loc 1 49 5
 227              		.loc 1 49 49 is_stmt 0
 228 00c8 93073001 		li	a5,19
 229              	#APP
 230              	# 49 "src/syscall_c.cpp" 1
  50              	    __asm__ volatile("ecall");
 231              		mv a0, a5
 232              	# 0 "" 2
 233              		.loc 1 50 5 is_stmt 1
 234              		.loc 1 50 30 is_stmt 0
 235              	# 50 "src/syscall_c.cpp" 1
  51              	}
 236              		ecall
 237              	# 0 "" 2
 238              		.loc 1 51 1
 239              	#NO_APP
 240 00d4 03348100 		ld	s0,8(sp)
 241              		.cfi_restore 8
 242              		.cfi_def_cfa 2, 16
 243 00d8 13010101 		addi	sp,sp,16
GAS LISTING /tmp/ccoNeLwn.s 			page 6


 244              		.cfi_def_cfa_offset 0
 245 00dc 67800000 		jr	ra
 246              		.cfi_endproc
 247              	.LFE4:
 249              		.align	2
 250              		.globl	_Z8sem_openPP7Semaforj
 252              	_Z8sem_openPP7Semaforj:
 253              	.LFB5:
  52:src/syscall_c.cpp **** 
  53:src/syscall_c.cpp **** int sem_open(sem_t* handle, unsigned init){
 254              		.loc 1 53 43 is_stmt 1
 255              		.cfi_startproc
 256              	.LVL6:
 257 00e0 130101FF 		addi	sp,sp,-16
 258              		.cfi_def_cfa_offset 16
 259 00e4 23348100 		sd	s0,8(sp)
 260              		.cfi_offset 8, -8
 261 00e8 13040101 		addi	s0,sp,16
 262              		.cfi_def_cfa 8, 0
  54:src/syscall_c.cpp ****     __asm__ volatile("mv a2, %0" : : "r" (init));
 263              		.loc 1 54 5
 264              		.loc 1 54 49 is_stmt 0
 265              	#APP
 266              	# 54 "src/syscall_c.cpp" 1
  55              	    __asm__ volatile("mv a1, %0" : : "r" (handle));
 267              		mv a2, a1
 268              	# 0 "" 2
 269              		.loc 1 55 5 is_stmt 1
 270              		.loc 1 55 51 is_stmt 0
 271              	# 55 "src/syscall_c.cpp" 1
  56              	    __asm__ volatile("mv a0, %0" : : "r" (0x21));
 272              		mv a1, a0
 273              	# 0 "" 2
 274              		.loc 1 56 5 is_stmt 1
 275              		.loc 1 56 49 is_stmt 0
 276              	#NO_APP
 277 00f4 93071002 		li	a5,33
 278              	#APP
 279              	# 56 "src/syscall_c.cpp" 1
  57              	
  58:src/syscall_c.cpp ****     __asm__ volatile("ecall");
 280              		mv a0, a5
 281              	# 0 "" 2
 282              		.loc 1 58 5 is_stmt 1
 283              		.loc 1 58 30 is_stmt 0
 284              	# 58 "src/syscall_c.cpp" 1
  59              	
  60:src/syscall_c.cpp ****     int rez;
 285              		ecall
 286              	# 0 "" 2
 287              		.loc 1 60 5 is_stmt 1
  61:src/syscall_c.cpp ****     __asm__ volatile("mv %0, a0" : "=r" (rez));
 288              		.loc 1 61 5
 289              		.loc 1 61 47 is_stmt 0
 290              	# 61 "src/syscall_c.cpp" 1
  62              	    return rez;
 291              		mv a0, a0
GAS LISTING /tmp/ccoNeLwn.s 			page 7


 292              	# 0 "" 2
 293              	.LVL7:
 294              		.loc 1 62 5 is_stmt 1
  63:src/syscall_c.cpp **** }
 295              		.loc 1 63 1 is_stmt 0
 296              	#NO_APP
 297 0104 1B050500 		sext.w	a0,a0
 298 0108 03348100 		ld	s0,8(sp)
 299              		.cfi_restore 8
 300              		.cfi_def_cfa 2, 16
 301 010c 13010101 		addi	sp,sp,16
 302              		.cfi_def_cfa_offset 0
 303 0110 67800000 		jr	ra
 304              		.cfi_endproc
 305              	.LFE5:
 307              		.align	2
 308              		.globl	_Z9sem_closeP7Semafor
 310              	_Z9sem_closeP7Semafor:
 311              	.LFB6:
  64:src/syscall_c.cpp **** 
  65:src/syscall_c.cpp **** int sem_close(sem_t handle){
 312              		.loc 1 65 28 is_stmt 1
 313              		.cfi_startproc
 314              	.LVL8:
 315 0114 130101FF 		addi	sp,sp,-16
 316              		.cfi_def_cfa_offset 16
 317 0118 23348100 		sd	s0,8(sp)
 318              		.cfi_offset 8, -8
 319 011c 13040101 		addi	s0,sp,16
 320              		.cfi_def_cfa 8, 0
  66:src/syscall_c.cpp ****     __asm__ volatile("mv a1, %0" : : "r" (handle));
 321              		.loc 1 66 5
 322              		.loc 1 66 51 is_stmt 0
 323              	#APP
 324              	# 66 "src/syscall_c.cpp" 1
  67              	    __asm__ volatile("mv a0, %0" : : "r" (0x22));
 325              		mv a1, a0
 326              	# 0 "" 2
 327              		.loc 1 67 5 is_stmt 1
 328              		.loc 1 67 49 is_stmt 0
 329              	#NO_APP
 330 0124 93072002 		li	a5,34
 331              	#APP
 332              	# 67 "src/syscall_c.cpp" 1
  68              	
  69:src/syscall_c.cpp ****     __asm__ volatile("ecall");
 333              		mv a0, a5
 334              	# 0 "" 2
 335              		.loc 1 69 5 is_stmt 1
 336              		.loc 1 69 30 is_stmt 0
 337              	# 69 "src/syscall_c.cpp" 1
  70              	
  71:src/syscall_c.cpp ****     int rez;
 338              		ecall
 339              	# 0 "" 2
 340              		.loc 1 71 5 is_stmt 1
  72:src/syscall_c.cpp ****     __asm__ volatile("mv %0, a0" : "=r" (rez));
GAS LISTING /tmp/ccoNeLwn.s 			page 8


 341              		.loc 1 72 5
 342              		.loc 1 72 47 is_stmt 0
 343              	# 72 "src/syscall_c.cpp" 1
  73              	    return rez;
 344              		mv a0, a0
 345              	# 0 "" 2
 346              	.LVL9:
 347              		.loc 1 73 5 is_stmt 1
  74:src/syscall_c.cpp **** }
 348              		.loc 1 74 1 is_stmt 0
 349              	#NO_APP
 350 0134 1B050500 		sext.w	a0,a0
 351 0138 03348100 		ld	s0,8(sp)
 352              		.cfi_restore 8
 353              		.cfi_def_cfa 2, 16
 354 013c 13010101 		addi	sp,sp,16
 355              		.cfi_def_cfa_offset 0
 356 0140 67800000 		jr	ra
 357              		.cfi_endproc
 358              	.LFE6:
 360              		.align	2
 361              		.globl	_Z8sem_waitP7Semafor
 363              	_Z8sem_waitP7Semafor:
 364              	.LFB7:
  75:src/syscall_c.cpp **** 
  76:src/syscall_c.cpp **** int sem_wait(sem_t id){
 365              		.loc 1 76 23 is_stmt 1
 366              		.cfi_startproc
 367              	.LVL10:
 368 0144 130101FF 		addi	sp,sp,-16
 369              		.cfi_def_cfa_offset 16
 370 0148 23348100 		sd	s0,8(sp)
 371              		.cfi_offset 8, -8
 372 014c 13040101 		addi	s0,sp,16
 373              		.cfi_def_cfa 8, 0
  77:src/syscall_c.cpp ****     __asm__ volatile("mv a1, %0" : : "r" (id));
 374              		.loc 1 77 5
 375              		.loc 1 77 47 is_stmt 0
 376              	#APP
 377              	# 77 "src/syscall_c.cpp" 1
  78              	    __asm__ volatile("mv a0, %0" : : "r" (0x23));
 378              		mv a1, a0
 379              	# 0 "" 2
 380              		.loc 1 78 5 is_stmt 1
 381              		.loc 1 78 49 is_stmt 0
 382              	#NO_APP
 383 0154 93073002 		li	a5,35
 384              	#APP
 385              	# 78 "src/syscall_c.cpp" 1
  79              	
  80:src/syscall_c.cpp ****     __asm__ volatile("ecall");
 386              		mv a0, a5
 387              	# 0 "" 2
 388              		.loc 1 80 5 is_stmt 1
 389              		.loc 1 80 30 is_stmt 0
 390              	# 80 "src/syscall_c.cpp" 1
  81              	
GAS LISTING /tmp/ccoNeLwn.s 			page 9


  82:src/syscall_c.cpp ****     int rez;
 391              		ecall
 392              	# 0 "" 2
 393              		.loc 1 82 5 is_stmt 1
  83:src/syscall_c.cpp ****     __asm__ volatile("mv %0, a0" : "=r" (rez));
 394              		.loc 1 83 5
 395              		.loc 1 83 47 is_stmt 0
 396              	# 83 "src/syscall_c.cpp" 1
  84              	    return rez;
 397              		mv a0, a0
 398              	# 0 "" 2
 399              	.LVL11:
 400              		.loc 1 84 5 is_stmt 1
  85:src/syscall_c.cpp **** }
 401              		.loc 1 85 1 is_stmt 0
 402              	#NO_APP
 403 0164 1B050500 		sext.w	a0,a0
 404 0168 03348100 		ld	s0,8(sp)
 405              		.cfi_restore 8
 406              		.cfi_def_cfa 2, 16
 407 016c 13010101 		addi	sp,sp,16
 408              		.cfi_def_cfa_offset 0
 409 0170 67800000 		jr	ra
 410              		.cfi_endproc
 411              	.LFE7:
 413              		.align	2
 414              		.globl	_Z10sem_signalP7Semafor
 416              	_Z10sem_signalP7Semafor:
 417              	.LFB8:
  86:src/syscall_c.cpp **** 
  87:src/syscall_c.cpp **** int sem_signal(sem_t id){
 418              		.loc 1 87 25 is_stmt 1
 419              		.cfi_startproc
 420              	.LVL12:
 421 0174 130101FF 		addi	sp,sp,-16
 422              		.cfi_def_cfa_offset 16
 423 0178 23348100 		sd	s0,8(sp)
 424              		.cfi_offset 8, -8
 425 017c 13040101 		addi	s0,sp,16
 426              		.cfi_def_cfa 8, 0
  88:src/syscall_c.cpp ****     __asm__ volatile("mv a1, %0" : : "r" (id));
 427              		.loc 1 88 5
 428              		.loc 1 88 47 is_stmt 0
 429              	#APP
 430              	# 88 "src/syscall_c.cpp" 1
  89              	    __asm__ volatile("mv a0, %0" : : "r" (0x24));
 431              		mv a1, a0
 432              	# 0 "" 2
 433              		.loc 1 89 5 is_stmt 1
 434              		.loc 1 89 49 is_stmt 0
 435              	#NO_APP
 436 0184 93074002 		li	a5,36
 437              	#APP
 438              	# 89 "src/syscall_c.cpp" 1
  90              	
  91:src/syscall_c.cpp ****     __asm__ volatile("ecall");
 439              		mv a0, a5
GAS LISTING /tmp/ccoNeLwn.s 			page 10


 440              	# 0 "" 2
 441              		.loc 1 91 5 is_stmt 1
 442              		.loc 1 91 30 is_stmt 0
 443              	# 91 "src/syscall_c.cpp" 1
  92              	
  93:src/syscall_c.cpp ****     int rez;
 444              		ecall
 445              	# 0 "" 2
 446              		.loc 1 93 5 is_stmt 1
  94:src/syscall_c.cpp ****     __asm__ volatile("mv %0, a0" : "=r" (rez));
 447              		.loc 1 94 5
 448              		.loc 1 94 47 is_stmt 0
 449              	# 94 "src/syscall_c.cpp" 1
  95              	    return rez;
 450              		mv a0, a0
 451              	# 0 "" 2
 452              	.LVL13:
 453              		.loc 1 95 5 is_stmt 1
  96:src/syscall_c.cpp **** }
 454              		.loc 1 96 1 is_stmt 0
 455              	#NO_APP
 456 0194 1B050500 		sext.w	a0,a0
 457 0198 03348100 		ld	s0,8(sp)
 458              		.cfi_restore 8
 459              		.cfi_def_cfa 2, 16
 460 019c 13010101 		addi	sp,sp,16
 461              		.cfi_def_cfa_offset 0
 462 01a0 67800000 		jr	ra
 463              		.cfi_endproc
 464              	.LFE8:
 466              		.align	2
 467              		.globl	_Z10time_sleepm
 469              	_Z10time_sleepm:
 470              	.LFB9:
  97:src/syscall_c.cpp **** 
  98:src/syscall_c.cpp **** int time_sleep(time_t t) {
 471              		.loc 1 98 26 is_stmt 1
 472              		.cfi_startproc
 473              	.LVL14:
 474 01a4 130101FF 		addi	sp,sp,-16
 475              		.cfi_def_cfa_offset 16
 476 01a8 23348100 		sd	s0,8(sp)
 477              		.cfi_offset 8, -8
 478 01ac 13040101 		addi	s0,sp,16
 479              		.cfi_def_cfa 8, 0
  99:src/syscall_c.cpp ****     __asm__ volatile("mv a1, %0" : : "r" (t));
 480              		.loc 1 99 5
 481              		.loc 1 99 46 is_stmt 0
 482              	#APP
 483              	# 99 "src/syscall_c.cpp" 1
 100              	    __asm__ volatile("mv a0, %0" : : "r" (0x31));
 484              		mv a1, a0
 485              	# 0 "" 2
 486              		.loc 1 100 5 is_stmt 1
 487              		.loc 1 100 49 is_stmt 0
 488              	#NO_APP
 489 01b4 93071003 		li	a5,49
GAS LISTING /tmp/ccoNeLwn.s 			page 11


 490              	#APP
 491              	# 100 "src/syscall_c.cpp" 1
 101              	
 102:src/syscall_c.cpp ****     __asm__ volatile("ecall");
 492              		mv a0, a5
 493              	# 0 "" 2
 494              		.loc 1 102 5 is_stmt 1
 495              		.loc 1 102 30 is_stmt 0
 496              	# 102 "src/syscall_c.cpp" 1
 103              	
 104:src/syscall_c.cpp ****     int rez;
 497              		ecall
 498              	# 0 "" 2
 499              		.loc 1 104 5 is_stmt 1
 105:src/syscall_c.cpp ****     __asm__ volatile("mv %0, a0" : "=r" (rez));
 500              		.loc 1 105 5
 501              		.loc 1 105 47 is_stmt 0
 502              	# 105 "src/syscall_c.cpp" 1
 106              	    return rez;
 503              		mv a0, a0
 504              	# 0 "" 2
 505              	.LVL15:
 506              		.loc 1 106 5 is_stmt 1
 107:src/syscall_c.cpp **** }
 507              		.loc 1 107 1 is_stmt 0
 508              	#NO_APP
 509 01c4 1B050500 		sext.w	a0,a0
 510 01c8 03348100 		ld	s0,8(sp)
 511              		.cfi_restore 8
 512              		.cfi_def_cfa 2, 16
 513 01cc 13010101 		addi	sp,sp,16
 514              		.cfi_def_cfa_offset 0
 515 01d0 67800000 		jr	ra
 516              		.cfi_endproc
 517              	.LFE9:
 519              		.align	2
 520              		.globl	_Z4getcv
 522              	_Z4getcv:
 523              	.LFB10:
 108:src/syscall_c.cpp **** 
 109:src/syscall_c.cpp **** char getc(){
 524              		.loc 1 109 12 is_stmt 1
 525              		.cfi_startproc
 526 01d4 130101FF 		addi	sp,sp,-16
 527              		.cfi_def_cfa_offset 16
 528 01d8 23348100 		sd	s0,8(sp)
 529              		.cfi_offset 8, -8
 530 01dc 13040101 		addi	s0,sp,16
 531              		.cfi_def_cfa 8, 0
 110:src/syscall_c.cpp ****     __asm__ volatile("mv a0, %0" : : "r" (0x41));
 532              		.loc 1 110 5
 533              		.loc 1 110 49 is_stmt 0
 534 01e0 93071004 		li	a5,65
 535              	#APP
 536              	# 110 "src/syscall_c.cpp" 1
 111              	
 112:src/syscall_c.cpp ****     __asm__ volatile("ecall");
GAS LISTING /tmp/ccoNeLwn.s 			page 12


 537              		mv a0, a5
 538              	# 0 "" 2
 539              		.loc 1 112 5 is_stmt 1
 540              		.loc 1 112 30 is_stmt 0
 541              	# 112 "src/syscall_c.cpp" 1
 113              	
 114:src/syscall_c.cpp ****     char rez;
 542              		ecall
 543              	# 0 "" 2
 544              		.loc 1 114 5 is_stmt 1
 115:src/syscall_c.cpp ****     __asm__ volatile("mv %0, a0" : "=r" (rez));
 545              		.loc 1 115 5
 546              		.loc 1 115 47 is_stmt 0
 547              	# 115 "src/syscall_c.cpp" 1
 116              	
 548              		mv a0, a0
 549              	# 0 "" 2
 550              	#NO_APP
 551 01f0 1375F50F 		andi	a0,a0,0xff
 552              	.LVL16:
 117:src/syscall_c.cpp ****     if(rez=='k') return 'l';
 553              		.loc 1 117 5 is_stmt 1
 554 01f4 9307B006 		li	a5,107
 555 01f8 6308F500 		beq	a0,a5,.L25
 556              	.LVL17:
 557              	.L22:
 118:src/syscall_c.cpp **** 
 119:src/syscall_c.cpp ****     return rez;
 120:src/syscall_c.cpp **** }
 558              		.loc 1 120 1 is_stmt 0
 559 01fc 03348100 		ld	s0,8(sp)
 560              		.cfi_remember_state
 561              		.cfi_restore 8
 562              		.cfi_def_cfa 2, 16
 563 0200 13010101 		addi	sp,sp,16
 564              		.cfi_def_cfa_offset 0
 565 0204 67800000 		jr	ra
 566              	.LVL18:
 567              	.L25:
 568              		.cfi_restore_state
 117:src/syscall_c.cpp ****     if(rez=='k') return 'l';
 569              		.loc 1 117 25
 570 0208 1305C006 		li	a0,108
 571              	.LVL19:
 572 020c 6FF01FFF 		j	.L22
 573              		.cfi_endproc
 574              	.LFE10:
 576              		.align	2
 577              		.globl	_Z4putcc
 579              	_Z4putcc:
 580              	.LFB11:
 121:src/syscall_c.cpp **** 
 122:src/syscall_c.cpp **** void putc(char c){
 581              		.loc 1 122 18 is_stmt 1
 582              		.cfi_startproc
 583              	.LVL20:
 584 0210 130101FF 		addi	sp,sp,-16
GAS LISTING /tmp/ccoNeLwn.s 			page 13


 585              		.cfi_def_cfa_offset 16
 586 0214 23348100 		sd	s0,8(sp)
 587              		.cfi_offset 8, -8
 588 0218 13040101 		addi	s0,sp,16
 589              		.cfi_def_cfa 8, 0
 123:src/syscall_c.cpp ****     __asm__ volatile("mv a1, %0" : : "r" (c));
 590              		.loc 1 123 5
 591              		.loc 1 123 46 is_stmt 0
 592              	#APP
 593              	# 123 "src/syscall_c.cpp" 1
 124              	    __asm__ volatile("mv a0, %0" : : "r" (0x42));
 594              		mv a1, a0
 595              	# 0 "" 2
 596              		.loc 1 124 5 is_stmt 1
 597              		.loc 1 124 49 is_stmt 0
 598              	#NO_APP
 599 0220 93072004 		li	a5,66
 600              	#APP
 601              	# 124 "src/syscall_c.cpp" 1
 125              	
 126:src/syscall_c.cpp ****     __asm__ volatile("ecall");
 602              		mv a0, a5
 603              	# 0 "" 2
 604              		.loc 1 126 5 is_stmt 1
 605              		.loc 1 126 30 is_stmt 0
 606              	# 126 "src/syscall_c.cpp" 1
 127              	}
 607              		ecall
 608              	# 0 "" 2
 609              		.loc 1 127 1
 610              	#NO_APP
 611 022c 03348100 		ld	s0,8(sp)
 612              		.cfi_restore 8
 613              		.cfi_def_cfa 2, 16
 614 0230 13010101 		addi	sp,sp,16
 615              		.cfi_def_cfa_offset 0
 616 0234 67800000 		jr	ra
 617              		.cfi_endproc
 618              	.LFE11:
 620              		.align	2
 621              		.globl	_Z12putSchedulerP3Nit
 623              	_Z12putSchedulerP3Nit:
 624              	.LFB12:
 128:src/syscall_c.cpp **** 
 129:src/syscall_c.cpp **** int putScheduler(Nit* t){
 625              		.loc 1 129 25 is_stmt 1
 626              		.cfi_startproc
 627              	.LVL21:
 628 0238 130101FF 		addi	sp,sp,-16
 629              		.cfi_def_cfa_offset 16
 630 023c 23348100 		sd	s0,8(sp)
 631              		.cfi_offset 8, -8
 632 0240 13040101 		addi	s0,sp,16
 633              		.cfi_def_cfa 8, 0
 130:src/syscall_c.cpp ****     __asm__ volatile("mv a1, %0" : : "r" (t));
 634              		.loc 1 130 5
 635              		.loc 1 130 46 is_stmt 0
GAS LISTING /tmp/ccoNeLwn.s 			page 14


 636              	#APP
 637              	# 130 "src/syscall_c.cpp" 1
 131              	    __asm__ volatile("mv a0, %0" : : "r" (0x69));
 638              		mv a1, a0
 639              	# 0 "" 2
 640              		.loc 1 131 5 is_stmt 1
 641              		.loc 1 131 49 is_stmt 0
 642              	#NO_APP
 643 0248 93079006 		li	a5,105
 644              	#APP
 645              	# 131 "src/syscall_c.cpp" 1
 132              	
 133:src/syscall_c.cpp ****     __asm__ volatile("ecall");
 646              		mv a0, a5
 647              	# 0 "" 2
 648              		.loc 1 133 5 is_stmt 1
 649              		.loc 1 133 30 is_stmt 0
 650              	# 133 "src/syscall_c.cpp" 1
 134              	
 135:src/syscall_c.cpp ****     return 0;
 651              		ecall
 652              	# 0 "" 2
 653              		.loc 1 135 5 is_stmt 1
 136:src/syscall_c.cpp **** }
 654              		.loc 1 136 1 is_stmt 0
 655              	#NO_APP
 656 0254 13050000 		li	a0,0
 657              	.LVL22:
 658 0258 03348100 		ld	s0,8(sp)
 659              		.cfi_restore 8
 660              		.cfi_def_cfa 2, 16
 661 025c 13010101 		addi	sp,sp,16
 662              		.cfi_def_cfa_offset 0
 663 0260 67800000 		jr	ra
 664              		.cfi_endproc
 665              	.LFE12:
 667              		.align	2
 668              		.globl	_Z14thread_create1PP3NitPFvPvES2_
 670              	_Z14thread_create1PP3NitPFvPvES2_:
 671              	.LFB13:
 137:src/syscall_c.cpp **** 
 138:src/syscall_c.cpp **** int thread_create1(thread_t* handle, void(*start_routine)(void*),void* arg){
 672              		.loc 1 138 76 is_stmt 1
 673              		.cfi_startproc
 674              	.LVL23:
 675 0264 130101FF 		addi	sp,sp,-16
 676              		.cfi_def_cfa_offset 16
 677 0268 23348100 		sd	s0,8(sp)
 678              		.cfi_offset 8, -8
 679 026c 13040101 		addi	s0,sp,16
 680              		.cfi_def_cfa 8, 0
 139:src/syscall_c.cpp ****     __asm__ volatile("mv a3, %0" : : "r" (arg));
 681              		.loc 1 139 5
 682              		.loc 1 139 48 is_stmt 0
 683              	#APP
 684              	# 139 "src/syscall_c.cpp" 1
 140              	    __asm__ volatile("mv a2, %0" : : "r" (start_routine));
GAS LISTING /tmp/ccoNeLwn.s 			page 15


 685              		mv a3, a2
 686              	# 0 "" 2
 687              		.loc 1 140 5 is_stmt 1
 688              		.loc 1 140 58 is_stmt 0
 689              	# 140 "src/syscall_c.cpp" 1
 141              	    __asm__ volatile("mv a1, %0" : : "r" (handle));
 690              		mv a2, a1
 691              	# 0 "" 2
 692              		.loc 1 141 5 is_stmt 1
 693              		.loc 1 141 51 is_stmt 0
 694              	# 141 "src/syscall_c.cpp" 1
 142              	    __asm__ volatile("mv a0, %0" : : "r" (0x68));
 695              		mv a1, a0
 696              	# 0 "" 2
 697              		.loc 1 142 5 is_stmt 1
 698              		.loc 1 142 49 is_stmt 0
 699              	#NO_APP
 700 027c 93078006 		li	a5,104
 701              	#APP
 702              	# 142 "src/syscall_c.cpp" 1
 143              	
 144:src/syscall_c.cpp ****     __asm__ volatile("ecall");
 703              		mv a0, a5
 704              	# 0 "" 2
 705              		.loc 1 144 5 is_stmt 1
 706              		.loc 1 144 30 is_stmt 0
 707              	# 144 "src/syscall_c.cpp" 1
 145              	
 146:src/syscall_c.cpp ****     int rez;
 708              		ecall
 709              	# 0 "" 2
 710              		.loc 1 146 5 is_stmt 1
 147:src/syscall_c.cpp ****     __asm__ volatile("mv %0, a0" : "=r" (rez));
 711              		.loc 1 147 5
 712              		.loc 1 147 47 is_stmt 0
 713              	# 147 "src/syscall_c.cpp" 1
 148              	    return rez;
 714              		mv a0, a0
 715              	# 0 "" 2
 716              	.LVL24:
 717              		.loc 1 148 5 is_stmt 1
 149:src/syscall_c.cpp **** }
 718              		.loc 1 149 1 is_stmt 0
 719              	#NO_APP
 720 028c 1B050500 		sext.w	a0,a0
 721 0290 03348100 		ld	s0,8(sp)
 722              		.cfi_restore 8
 723              		.cfi_def_cfa 2, 16
 724 0294 13010101 		addi	sp,sp,16
 725              		.cfi_def_cfa_offset 0
 726 0298 67800000 		jr	ra
 727              		.cfi_endproc
 728              	.LFE13:
 730              		.align	2
 731              		.globl	_Z13promenarezimav
 733              	_Z13promenarezimav:
 734              	.LFB14:
GAS LISTING /tmp/ccoNeLwn.s 			page 16


 150:src/syscall_c.cpp **** 
 151:src/syscall_c.cpp **** void promenarezima() {
 735              		.loc 1 151 22 is_stmt 1
 736              		.cfi_startproc
 737 029c 130101FF 		addi	sp,sp,-16
 738              		.cfi_def_cfa_offset 16
 739 02a0 23348100 		sd	s0,8(sp)
 740              		.cfi_offset 8, -8
 741 02a4 13040101 		addi	s0,sp,16
 742              		.cfi_def_cfa 8, 0
 152:src/syscall_c.cpp ****     __asm__ volatile("mv a0, %0" : : "r" (0x70));
 743              		.loc 1 152 5
 744              		.loc 1 152 49 is_stmt 0
 745 02a8 93070007 		li	a5,112
 746              	#APP
 747              	# 152 "src/syscall_c.cpp" 1
 153              	
 154:src/syscall_c.cpp ****     __asm__ volatile("ecall");
 748              		mv a0, a5
 749              	# 0 "" 2
 750              		.loc 1 154 5 is_stmt 1
 751              		.loc 1 154 30 is_stmt 0
 752              	# 154 "src/syscall_c.cpp" 1
 155              	}
 753              		ecall
 754              	# 0 "" 2
 755              		.loc 1 155 1
 756              	#NO_APP
 757 02b4 03348100 		ld	s0,8(sp)
 758              		.cfi_restore 8
 759              		.cfi_def_cfa 2, 16
 760 02b8 13010101 		addi	sp,sp,16
 761              		.cfi_def_cfa_offset 0
 762 02bc 67800000 		jr	ra
 763              		.cfi_endproc
 764              	.LFE14:
 766              	.Letext0:
 767              		.file 2 "src/../h/../lib/hw.h"
 768              		.file 3 "src/../h/syscall_c.h"
GAS LISTING /tmp/ccoNeLwn.s 			page 17


DEFINED SYMBOLS
                            *ABS*:0000000000000000 syscall_c.cpp
     /tmp/ccoNeLwn.s:9      .text:0000000000000000 _Z9mem_allocm
     /tmp/ccoNeLwn.s:13     .text:0000000000000000 .L0 
     /tmp/ccoNeLwn.s:15     .text:0000000000000000 .L0 
     /tmp/ccoNeLwn.s:16     .text:0000000000000004 .L0 
     /tmp/ccoNeLwn.s:18     .text:0000000000000008 .L0 
     /tmp/ccoNeLwn.s:20     .text:000000000000000c .L0 
     /tmp/ccoNeLwn.s:22     .text:000000000000000c .L0 
   src/syscall_c.cpp:10     .text:000000000000000c .L0 
     /tmp/ccoNeLwn.s:28     .text:0000000000000010 .L0 
     /tmp/ccoNeLwn.s:30     .text:0000000000000010 .L0 
     /tmp/ccoNeLwn.s:36     .text:0000000000000018 .L0 
   src/syscall_c.cpp:12     .text:0000000000000018 .L0 
     /tmp/ccoNeLwn.s:41     .text:000000000000001c .L0 
     /tmp/ccoNeLwn.s:42     .text:000000000000001c .L0 
   src/syscall_c.cpp:15     .text:000000000000001c .L0 
     /tmp/ccoNeLwn.s:48     .text:0000000000000020 .L0 
     /tmp/ccoNeLwn.s:50     .text:0000000000000020 .L0 
     /tmp/ccoNeLwn.s:51     .text:0000000000000024 .L0 
     /tmp/ccoNeLwn.s:52     .text:0000000000000024 .L0 
     /tmp/ccoNeLwn.s:54     .text:0000000000000028 .L0 
     /tmp/ccoNeLwn.s:56     .text:000000000000002c .L0 
     /tmp/ccoNeLwn.s:62     .text:000000000000002c _Z8mem_freePv
     /tmp/ccoNeLwn.s:65     .text:000000000000002c .L0 
     /tmp/ccoNeLwn.s:67     .text:000000000000002c .L0 
     /tmp/ccoNeLwn.s:68     .text:0000000000000030 .L0 
     /tmp/ccoNeLwn.s:70     .text:0000000000000034 .L0 
     /tmp/ccoNeLwn.s:72     .text:0000000000000038 .L0 
     /tmp/ccoNeLwn.s:74     .text:0000000000000038 .L0 
   src/syscall_c.cpp:20     .text:0000000000000038 .L0 
     /tmp/ccoNeLwn.s:80     .text:000000000000003c .L0 
     /tmp/ccoNeLwn.s:82     .text:000000000000003c .L0 
     /tmp/ccoNeLwn.s:88     .text:0000000000000044 .L0 
   src/syscall_c.cpp:22     .text:0000000000000044 .L0 
     /tmp/ccoNeLwn.s:93     .text:0000000000000048 .L0 
     /tmp/ccoNeLwn.s:94     .text:0000000000000048 .L0 
   src/syscall_c.cpp:25     .text:0000000000000048 .L0 
     /tmp/ccoNeLwn.s:100    .text:000000000000004c .L0 
     /tmp/ccoNeLwn.s:102    .text:000000000000004c .L0 
     /tmp/ccoNeLwn.s:104    .text:0000000000000054 .L0 
     /tmp/ccoNeLwn.s:105    .text:0000000000000054 .L0 
     /tmp/ccoNeLwn.s:107    .text:0000000000000058 .L0 
     /tmp/ccoNeLwn.s:109    .text:000000000000005c .L0 
     /tmp/ccoNeLwn.s:115    .text:000000000000005c _Z13thread_createPP3NitPFvPvES2_
     /tmp/ccoNeLwn.s:118    .text:000000000000005c .L0 
     /tmp/ccoNeLwn.s:120    .text:000000000000005c .L0 
     /tmp/ccoNeLwn.s:121    .text:0000000000000060 .L0 
     /tmp/ccoNeLwn.s:123    .text:0000000000000064 .L0 
     /tmp/ccoNeLwn.s:125    .text:0000000000000068 .L0 
     /tmp/ccoNeLwn.s:127    .text:0000000000000068 .L0 
   src/syscall_c.cpp:30     .text:0000000000000068 .L0 
     /tmp/ccoNeLwn.s:133    .text:000000000000006c .L0 
   src/syscall_c.cpp:31     .text:000000000000006c .L0 
     /tmp/ccoNeLwn.s:138    .text:0000000000000070 .L0 
   src/syscall_c.cpp:32     .text:0000000000000070 .L0 
     /tmp/ccoNeLwn.s:143    .text:0000000000000074 .L0 
GAS LISTING /tmp/ccoNeLwn.s 			page 18


     /tmp/ccoNeLwn.s:145    .text:0000000000000074 .L0 
     /tmp/ccoNeLwn.s:151    .text:000000000000007c .L0 
   src/syscall_c.cpp:35     .text:000000000000007c .L0 
     /tmp/ccoNeLwn.s:156    .text:0000000000000080 .L0 
     /tmp/ccoNeLwn.s:157    .text:0000000000000080 .L0 
   src/syscall_c.cpp:38     .text:0000000000000080 .L0 
     /tmp/ccoNeLwn.s:163    .text:0000000000000084 .L0 
     /tmp/ccoNeLwn.s:165    .text:0000000000000084 .L0 
     /tmp/ccoNeLwn.s:167    .text:000000000000008c .L0 
     /tmp/ccoNeLwn.s:168    .text:000000000000008c .L0 
     /tmp/ccoNeLwn.s:170    .text:0000000000000090 .L0 
     /tmp/ccoNeLwn.s:172    .text:0000000000000094 .L0 
     /tmp/ccoNeLwn.s:178    .text:0000000000000094 _Z11thread_exitv
     /tmp/ccoNeLwn.s:181    .text:0000000000000094 .L0 
     /tmp/ccoNeLwn.s:182    .text:0000000000000094 .L0 
     /tmp/ccoNeLwn.s:183    .text:0000000000000098 .L0 
     /tmp/ccoNeLwn.s:185    .text:000000000000009c .L0 
     /tmp/ccoNeLwn.s:187    .text:00000000000000a0 .L0 
     /tmp/ccoNeLwn.s:189    .text:00000000000000a0 .L0 
     /tmp/ccoNeLwn.s:190    .text:00000000000000a0 .L0 
     /tmp/ccoNeLwn.s:196    .text:00000000000000a8 .L0 
   src/syscall_c.cpp:44     .text:00000000000000a8 .L0 
     /tmp/ccoNeLwn.s:201    .text:00000000000000ac .L0 
     /tmp/ccoNeLwn.s:203    .text:00000000000000ac .L0 
     /tmp/ccoNeLwn.s:205    .text:00000000000000b4 .L0 
     /tmp/ccoNeLwn.s:206    .text:00000000000000b4 .L0 
     /tmp/ccoNeLwn.s:208    .text:00000000000000b8 .L0 
     /tmp/ccoNeLwn.s:210    .text:00000000000000bc .L0 
     /tmp/ccoNeLwn.s:216    .text:00000000000000bc _Z15thread_dispatchv
     /tmp/ccoNeLwn.s:219    .text:00000000000000bc .L0 
     /tmp/ccoNeLwn.s:220    .text:00000000000000bc .L0 
     /tmp/ccoNeLwn.s:221    .text:00000000000000c0 .L0 
     /tmp/ccoNeLwn.s:223    .text:00000000000000c4 .L0 
     /tmp/ccoNeLwn.s:225    .text:00000000000000c8 .L0 
     /tmp/ccoNeLwn.s:227    .text:00000000000000c8 .L0 
     /tmp/ccoNeLwn.s:228    .text:00000000000000c8 .L0 
     /tmp/ccoNeLwn.s:234    .text:00000000000000d0 .L0 
   src/syscall_c.cpp:50     .text:00000000000000d0 .L0 
     /tmp/ccoNeLwn.s:240    .text:00000000000000d4 .L0 
     /tmp/ccoNeLwn.s:241    .text:00000000000000d8 .L0 
     /tmp/ccoNeLwn.s:242    .text:00000000000000d8 .L0 
     /tmp/ccoNeLwn.s:244    .text:00000000000000dc .L0 
     /tmp/ccoNeLwn.s:246    .text:00000000000000e0 .L0 
     /tmp/ccoNeLwn.s:252    .text:00000000000000e0 _Z8sem_openPP7Semaforj
     /tmp/ccoNeLwn.s:255    .text:00000000000000e0 .L0 
     /tmp/ccoNeLwn.s:257    .text:00000000000000e0 .L0 
     /tmp/ccoNeLwn.s:258    .text:00000000000000e4 .L0 
     /tmp/ccoNeLwn.s:260    .text:00000000000000e8 .L0 
     /tmp/ccoNeLwn.s:262    .text:00000000000000ec .L0 
     /tmp/ccoNeLwn.s:264    .text:00000000000000ec .L0 
   src/syscall_c.cpp:54     .text:00000000000000ec .L0 
     /tmp/ccoNeLwn.s:270    .text:00000000000000f0 .L0 
   src/syscall_c.cpp:55     .text:00000000000000f0 .L0 
     /tmp/ccoNeLwn.s:275    .text:00000000000000f4 .L0 
     /tmp/ccoNeLwn.s:277    .text:00000000000000f4 .L0 
     /tmp/ccoNeLwn.s:283    .text:00000000000000fc .L0 
   src/syscall_c.cpp:58     .text:00000000000000fc .L0 
GAS LISTING /tmp/ccoNeLwn.s 			page 19


     /tmp/ccoNeLwn.s:288    .text:0000000000000100 .L0 
     /tmp/ccoNeLwn.s:289    .text:0000000000000100 .L0 
   src/syscall_c.cpp:61     .text:0000000000000100 .L0 
     /tmp/ccoNeLwn.s:295    .text:0000000000000104 .L0 
     /tmp/ccoNeLwn.s:297    .text:0000000000000104 .L0 
     /tmp/ccoNeLwn.s:299    .text:000000000000010c .L0 
     /tmp/ccoNeLwn.s:300    .text:000000000000010c .L0 
     /tmp/ccoNeLwn.s:302    .text:0000000000000110 .L0 
     /tmp/ccoNeLwn.s:304    .text:0000000000000114 .L0 
     /tmp/ccoNeLwn.s:310    .text:0000000000000114 _Z9sem_closeP7Semafor
     /tmp/ccoNeLwn.s:313    .text:0000000000000114 .L0 
     /tmp/ccoNeLwn.s:315    .text:0000000000000114 .L0 
     /tmp/ccoNeLwn.s:316    .text:0000000000000118 .L0 
     /tmp/ccoNeLwn.s:318    .text:000000000000011c .L0 
     /tmp/ccoNeLwn.s:320    .text:0000000000000120 .L0 
     /tmp/ccoNeLwn.s:322    .text:0000000000000120 .L0 
   src/syscall_c.cpp:66     .text:0000000000000120 .L0 
     /tmp/ccoNeLwn.s:328    .text:0000000000000124 .L0 
     /tmp/ccoNeLwn.s:330    .text:0000000000000124 .L0 
     /tmp/ccoNeLwn.s:336    .text:000000000000012c .L0 
   src/syscall_c.cpp:69     .text:000000000000012c .L0 
     /tmp/ccoNeLwn.s:341    .text:0000000000000130 .L0 
     /tmp/ccoNeLwn.s:342    .text:0000000000000130 .L0 
   src/syscall_c.cpp:72     .text:0000000000000130 .L0 
     /tmp/ccoNeLwn.s:348    .text:0000000000000134 .L0 
     /tmp/ccoNeLwn.s:350    .text:0000000000000134 .L0 
     /tmp/ccoNeLwn.s:352    .text:000000000000013c .L0 
     /tmp/ccoNeLwn.s:353    .text:000000000000013c .L0 
     /tmp/ccoNeLwn.s:355    .text:0000000000000140 .L0 
     /tmp/ccoNeLwn.s:357    .text:0000000000000144 .L0 
     /tmp/ccoNeLwn.s:363    .text:0000000000000144 _Z8sem_waitP7Semafor
     /tmp/ccoNeLwn.s:366    .text:0000000000000144 .L0 
     /tmp/ccoNeLwn.s:368    .text:0000000000000144 .L0 
     /tmp/ccoNeLwn.s:369    .text:0000000000000148 .L0 
     /tmp/ccoNeLwn.s:371    .text:000000000000014c .L0 
     /tmp/ccoNeLwn.s:373    .text:0000000000000150 .L0 
     /tmp/ccoNeLwn.s:375    .text:0000000000000150 .L0 
   src/syscall_c.cpp:77     .text:0000000000000150 .L0 
     /tmp/ccoNeLwn.s:381    .text:0000000000000154 .L0 
     /tmp/ccoNeLwn.s:383    .text:0000000000000154 .L0 
     /tmp/ccoNeLwn.s:389    .text:000000000000015c .L0 
   src/syscall_c.cpp:80     .text:000000000000015c .L0 
     /tmp/ccoNeLwn.s:394    .text:0000000000000160 .L0 
     /tmp/ccoNeLwn.s:395    .text:0000000000000160 .L0 
   src/syscall_c.cpp:83     .text:0000000000000160 .L0 
     /tmp/ccoNeLwn.s:401    .text:0000000000000164 .L0 
     /tmp/ccoNeLwn.s:403    .text:0000000000000164 .L0 
     /tmp/ccoNeLwn.s:405    .text:000000000000016c .L0 
     /tmp/ccoNeLwn.s:406    .text:000000000000016c .L0 
     /tmp/ccoNeLwn.s:408    .text:0000000000000170 .L0 
     /tmp/ccoNeLwn.s:410    .text:0000000000000174 .L0 
     /tmp/ccoNeLwn.s:416    .text:0000000000000174 _Z10sem_signalP7Semafor
     /tmp/ccoNeLwn.s:419    .text:0000000000000174 .L0 
     /tmp/ccoNeLwn.s:421    .text:0000000000000174 .L0 
     /tmp/ccoNeLwn.s:422    .text:0000000000000178 .L0 
     /tmp/ccoNeLwn.s:424    .text:000000000000017c .L0 
     /tmp/ccoNeLwn.s:426    .text:0000000000000180 .L0 
GAS LISTING /tmp/ccoNeLwn.s 			page 20


     /tmp/ccoNeLwn.s:428    .text:0000000000000180 .L0 
   src/syscall_c.cpp:88     .text:0000000000000180 .L0 
     /tmp/ccoNeLwn.s:434    .text:0000000000000184 .L0 
     /tmp/ccoNeLwn.s:436    .text:0000000000000184 .L0 
     /tmp/ccoNeLwn.s:442    .text:000000000000018c .L0 
   src/syscall_c.cpp:91     .text:000000000000018c .L0 
     /tmp/ccoNeLwn.s:447    .text:0000000000000190 .L0 
     /tmp/ccoNeLwn.s:448    .text:0000000000000190 .L0 
   src/syscall_c.cpp:94     .text:0000000000000190 .L0 
     /tmp/ccoNeLwn.s:454    .text:0000000000000194 .L0 
     /tmp/ccoNeLwn.s:456    .text:0000000000000194 .L0 
     /tmp/ccoNeLwn.s:458    .text:000000000000019c .L0 
     /tmp/ccoNeLwn.s:459    .text:000000000000019c .L0 
     /tmp/ccoNeLwn.s:461    .text:00000000000001a0 .L0 
     /tmp/ccoNeLwn.s:463    .text:00000000000001a4 .L0 
     /tmp/ccoNeLwn.s:469    .text:00000000000001a4 _Z10time_sleepm
     /tmp/ccoNeLwn.s:472    .text:00000000000001a4 .L0 
     /tmp/ccoNeLwn.s:474    .text:00000000000001a4 .L0 
     /tmp/ccoNeLwn.s:475    .text:00000000000001a8 .L0 
     /tmp/ccoNeLwn.s:477    .text:00000000000001ac .L0 
     /tmp/ccoNeLwn.s:479    .text:00000000000001b0 .L0 
     /tmp/ccoNeLwn.s:481    .text:00000000000001b0 .L0 
   src/syscall_c.cpp:99     .text:00000000000001b0 .L0 
     /tmp/ccoNeLwn.s:487    .text:00000000000001b4 .L0 
     /tmp/ccoNeLwn.s:489    .text:00000000000001b4 .L0 
     /tmp/ccoNeLwn.s:495    .text:00000000000001bc .L0 
   src/syscall_c.cpp:102    .text:00000000000001bc .L0 
     /tmp/ccoNeLwn.s:500    .text:00000000000001c0 .L0 
     /tmp/ccoNeLwn.s:501    .text:00000000000001c0 .L0 
   src/syscall_c.cpp:105    .text:00000000000001c0 .L0 
     /tmp/ccoNeLwn.s:507    .text:00000000000001c4 .L0 
     /tmp/ccoNeLwn.s:509    .text:00000000000001c4 .L0 
     /tmp/ccoNeLwn.s:511    .text:00000000000001cc .L0 
     /tmp/ccoNeLwn.s:512    .text:00000000000001cc .L0 
     /tmp/ccoNeLwn.s:514    .text:00000000000001d0 .L0 
     /tmp/ccoNeLwn.s:516    .text:00000000000001d4 .L0 
     /tmp/ccoNeLwn.s:522    .text:00000000000001d4 _Z4getcv
     /tmp/ccoNeLwn.s:525    .text:00000000000001d4 .L0 
     /tmp/ccoNeLwn.s:526    .text:00000000000001d4 .L0 
     /tmp/ccoNeLwn.s:527    .text:00000000000001d8 .L0 
     /tmp/ccoNeLwn.s:529    .text:00000000000001dc .L0 
     /tmp/ccoNeLwn.s:531    .text:00000000000001e0 .L0 
     /tmp/ccoNeLwn.s:533    .text:00000000000001e0 .L0 
     /tmp/ccoNeLwn.s:534    .text:00000000000001e0 .L0 
     /tmp/ccoNeLwn.s:540    .text:00000000000001e8 .L0 
   src/syscall_c.cpp:112    .text:00000000000001e8 .L0 
     /tmp/ccoNeLwn.s:545    .text:00000000000001ec .L0 
     /tmp/ccoNeLwn.s:546    .text:00000000000001ec .L0 
   src/syscall_c.cpp:115    .text:00000000000001ec .L0 
     /tmp/ccoNeLwn.s:554    .text:00000000000001f4 .L0 
     /tmp/ccoNeLwn.s:559    .text:00000000000001fc .L0 
     /tmp/ccoNeLwn.s:560    .text:0000000000000200 .L0 
     /tmp/ccoNeLwn.s:561    .text:0000000000000200 .L0 
     /tmp/ccoNeLwn.s:562    .text:0000000000000200 .L0 
     /tmp/ccoNeLwn.s:564    .text:0000000000000204 .L0 
     /tmp/ccoNeLwn.s:568    .text:0000000000000208 .L0 
     /tmp/ccoNeLwn.s:570    .text:0000000000000208 .L0 
GAS LISTING /tmp/ccoNeLwn.s 			page 21


     /tmp/ccoNeLwn.s:573    .text:0000000000000210 .L0 
     /tmp/ccoNeLwn.s:579    .text:0000000000000210 _Z4putcc
     /tmp/ccoNeLwn.s:582    .text:0000000000000210 .L0 
     /tmp/ccoNeLwn.s:584    .text:0000000000000210 .L0 
     /tmp/ccoNeLwn.s:585    .text:0000000000000214 .L0 
     /tmp/ccoNeLwn.s:587    .text:0000000000000218 .L0 
     /tmp/ccoNeLwn.s:589    .text:000000000000021c .L0 
     /tmp/ccoNeLwn.s:591    .text:000000000000021c .L0 
   src/syscall_c.cpp:123    .text:000000000000021c .L0 
     /tmp/ccoNeLwn.s:597    .text:0000000000000220 .L0 
     /tmp/ccoNeLwn.s:599    .text:0000000000000220 .L0 
     /tmp/ccoNeLwn.s:605    .text:0000000000000228 .L0 
   src/syscall_c.cpp:126    .text:0000000000000228 .L0 
     /tmp/ccoNeLwn.s:611    .text:000000000000022c .L0 
     /tmp/ccoNeLwn.s:612    .text:0000000000000230 .L0 
     /tmp/ccoNeLwn.s:613    .text:0000000000000230 .L0 
     /tmp/ccoNeLwn.s:615    .text:0000000000000234 .L0 
     /tmp/ccoNeLwn.s:617    .text:0000000000000238 .L0 
     /tmp/ccoNeLwn.s:623    .text:0000000000000238 _Z12putSchedulerP3Nit
     /tmp/ccoNeLwn.s:626    .text:0000000000000238 .L0 
     /tmp/ccoNeLwn.s:628    .text:0000000000000238 .L0 
     /tmp/ccoNeLwn.s:629    .text:000000000000023c .L0 
     /tmp/ccoNeLwn.s:631    .text:0000000000000240 .L0 
     /tmp/ccoNeLwn.s:633    .text:0000000000000244 .L0 
     /tmp/ccoNeLwn.s:635    .text:0000000000000244 .L0 
   src/syscall_c.cpp:130    .text:0000000000000244 .L0 
     /tmp/ccoNeLwn.s:641    .text:0000000000000248 .L0 
     /tmp/ccoNeLwn.s:643    .text:0000000000000248 .L0 
     /tmp/ccoNeLwn.s:649    .text:0000000000000250 .L0 
   src/syscall_c.cpp:133    .text:0000000000000250 .L0 
     /tmp/ccoNeLwn.s:654    .text:0000000000000254 .L0 
     /tmp/ccoNeLwn.s:656    .text:0000000000000254 .L0 
     /tmp/ccoNeLwn.s:659    .text:000000000000025c .L0 
     /tmp/ccoNeLwn.s:660    .text:000000000000025c .L0 
     /tmp/ccoNeLwn.s:662    .text:0000000000000260 .L0 
     /tmp/ccoNeLwn.s:664    .text:0000000000000264 .L0 
     /tmp/ccoNeLwn.s:670    .text:0000000000000264 _Z14thread_create1PP3NitPFvPvES2_
     /tmp/ccoNeLwn.s:673    .text:0000000000000264 .L0 
     /tmp/ccoNeLwn.s:675    .text:0000000000000264 .L0 
     /tmp/ccoNeLwn.s:676    .text:0000000000000268 .L0 
     /tmp/ccoNeLwn.s:678    .text:000000000000026c .L0 
     /tmp/ccoNeLwn.s:680    .text:0000000000000270 .L0 
     /tmp/ccoNeLwn.s:682    .text:0000000000000270 .L0 
   src/syscall_c.cpp:139    .text:0000000000000270 .L0 
     /tmp/ccoNeLwn.s:688    .text:0000000000000274 .L0 
   src/syscall_c.cpp:140    .text:0000000000000274 .L0 
     /tmp/ccoNeLwn.s:693    .text:0000000000000278 .L0 
   src/syscall_c.cpp:141    .text:0000000000000278 .L0 
     /tmp/ccoNeLwn.s:698    .text:000000000000027c .L0 
     /tmp/ccoNeLwn.s:700    .text:000000000000027c .L0 
     /tmp/ccoNeLwn.s:706    .text:0000000000000284 .L0 
   src/syscall_c.cpp:144    .text:0000000000000284 .L0 
     /tmp/ccoNeLwn.s:711    .text:0000000000000288 .L0 
     /tmp/ccoNeLwn.s:712    .text:0000000000000288 .L0 
   src/syscall_c.cpp:147    .text:0000000000000288 .L0 
     /tmp/ccoNeLwn.s:718    .text:000000000000028c .L0 
     /tmp/ccoNeLwn.s:720    .text:000000000000028c .L0 
GAS LISTING /tmp/ccoNeLwn.s 			page 22


     /tmp/ccoNeLwn.s:722    .text:0000000000000294 .L0 
     /tmp/ccoNeLwn.s:723    .text:0000000000000294 .L0 
     /tmp/ccoNeLwn.s:725    .text:0000000000000298 .L0 
     /tmp/ccoNeLwn.s:727    .text:000000000000029c .L0 
     /tmp/ccoNeLwn.s:733    .text:000000000000029c _Z13promenarezimav
     /tmp/ccoNeLwn.s:736    .text:000000000000029c .L0 
     /tmp/ccoNeLwn.s:737    .text:000000000000029c .L0 
     /tmp/ccoNeLwn.s:738    .text:00000000000002a0 .L0 
     /tmp/ccoNeLwn.s:740    .text:00000000000002a4 .L0 
     /tmp/ccoNeLwn.s:742    .text:00000000000002a8 .L0 
     /tmp/ccoNeLwn.s:744    .text:00000000000002a8 .L0 
     /tmp/ccoNeLwn.s:745    .text:00000000000002a8 .L0 
     /tmp/ccoNeLwn.s:751    .text:00000000000002b0 .L0 
   src/syscall_c.cpp:154    .text:00000000000002b0 .L0 
     /tmp/ccoNeLwn.s:757    .text:00000000000002b4 .L0 
     /tmp/ccoNeLwn.s:758    .text:00000000000002b8 .L0 
     /tmp/ccoNeLwn.s:759    .text:00000000000002b8 .L0 
     /tmp/ccoNeLwn.s:761    .text:00000000000002bc .L0 
     /tmp/ccoNeLwn.s:763    .text:00000000000002c0 .L0 
     /tmp/ccoNeLwn.s:769    .text:00000000000002c0 .L0 
     /tmp/ccoNeLwn.s:567    .text:0000000000000208 .L25
     /tmp/ccoNeLwn.s:557    .text:00000000000001fc .L22
     /tmp/ccoNeLwn.s:1336   .debug_abbrev:0000000000000000 .Ldebug_abbrev0
     /tmp/ccoNeLwn.s:1983   .debug_str:000000000000016a .LASF54
     /tmp/ccoNeLwn.s:2043   .debug_str:00000000000003e7 .LASF55
     /tmp/ccoNeLwn.s:1977   .debug_str:0000000000000139 .LASF56
     /tmp/ccoNeLwn.s:5      .text:0000000000000000 .Ltext0
     /tmp/ccoNeLwn.s:766    .text:00000000000002c0 .Letext0
     /tmp/ccoNeLwn.s:1927   .debug_line:0000000000000000 .Ldebug_line0
     /tmp/ccoNeLwn.s:1997   .debug_str:0000000000000297 .LASF0
     /tmp/ccoNeLwn.s:1969   .debug_str:000000000000010a .LASF1
     /tmp/ccoNeLwn.s:1959   .debug_str:00000000000000d2 .LASF2
     /tmp/ccoNeLwn.s:1941   .debug_str:0000000000000049 .LASF4
     /tmp/ccoNeLwn.s:1967   .debug_str:00000000000000f8 .LASF3
     /tmp/ccoNeLwn.s:1933   .debug_str:0000000000000021 .LASF5
     /tmp/ccoNeLwn.s:2003   .debug_str:00000000000002b4 .LASF6
     /tmp/ccoNeLwn.s:1931   .debug_str:000000000000000e .LASF7
     /tmp/ccoNeLwn.s:1955   .debug_str:00000000000000b0 .LASF8
     /tmp/ccoNeLwn.s:2005   .debug_str:00000000000002bb .LASF9
     /tmp/ccoNeLwn.s:1939   .debug_str:000000000000003b .LASF10
     /tmp/ccoNeLwn.s:2045   .debug_str:00000000000003f9 .LASF11
     /tmp/ccoNeLwn.s:1957   .debug_str:00000000000000c3 .LASF12
     /tmp/ccoNeLwn.s:2033   .debug_str:00000000000003a2 .LASF13
     /tmp/ccoNeLwn.s:2015   .debug_str:0000000000000322 .LASF14
     /tmp/ccoNeLwn.s:1973   .debug_str:0000000000000126 .LASF15
     /tmp/ccoNeLwn.s:1947   .debug_str:000000000000006d .LASF16
     /tmp/ccoNeLwn.s:2009   .debug_str:00000000000002ec .LASF17
     /tmp/ccoNeLwn.s:2011   .debug_str:0000000000000302 .LASF18
     /tmp/ccoNeLwn.s:1937   .debug_str:0000000000000035 .LASF19
     /tmp/ccoNeLwn.s:1979   .debug_str:0000000000000154 .LASF20
     /tmp/ccoNeLwn.s:2025   .debug_str:0000000000000365 .LASF41
     /tmp/ccoNeLwn.s:1953   .debug_str:000000000000009d .LASF43
     /tmp/ccoNeLwn.s:734    .text:000000000000029c .LFB14
     /tmp/ccoNeLwn.s:764    .text:00000000000002c0 .LFE14
     /tmp/ccoNeLwn.s:1995   .debug_str:0000000000000288 .LASF23
     /tmp/ccoNeLwn.s:1993   .debug_str:0000000000000266 .LASF25
     /tmp/ccoNeLwn.s:671    .text:0000000000000264 .LFB13
GAS LISTING /tmp/ccoNeLwn.s 			page 23


     /tmp/ccoNeLwn.s:728    .text:000000000000029c .LFE13
     /tmp/ccoNeLwn.s:1975   .debug_str:0000000000000132 .LASF21
     /tmp/ccoNeLwn.s:1763   .debug_loc:0000000000000000 .LLST10
     /tmp/ccoNeLwn.s:1981   .debug_str:000000000000015c .LASF22
     /tmp/ccoNeLwn.s:1935   .debug_str:0000000000000028 .LASF24
     /tmp/ccoNeLwn.s:2041   .debug_str:00000000000003d1 .LASF26
     /tmp/ccoNeLwn.s:624    .text:0000000000000238 .LFB12
     /tmp/ccoNeLwn.s:665    .text:0000000000000264 .LFE12
     /tmp/ccoNeLwn.s:1777   .debug_loc:0000000000000039 .LLST9
     /tmp/ccoNeLwn.s:2023   .debug_str:0000000000000360 .LASF49
     /tmp/ccoNeLwn.s:1971   .debug_str:000000000000011d .LASF51
     /tmp/ccoNeLwn.s:580    .text:0000000000000210 .LFB11
     /tmp/ccoNeLwn.s:618    .text:0000000000000238 .LFE11
     /tmp/ccoNeLwn.s:2001   .debug_str:00000000000002af .LASF27
     /tmp/ccoNeLwn.s:1961   .debug_str:00000000000000e0 .LASF28
     /tmp/ccoNeLwn.s:2039   .debug_str:00000000000003c8 .LASF29
     /tmp/ccoNeLwn.s:523    .text:00000000000001d4 .LFB10
     /tmp/ccoNeLwn.s:574    .text:0000000000000210 .LFE10
     /tmp/ccoNeLwn.s:1791   .debug_loc:0000000000000072 .LLST8
     /tmp/ccoNeLwn.s:1999   .debug_str:00000000000002a4 .LASF30
     /tmp/ccoNeLwn.s:2027   .debug_str:0000000000000373 .LASF31
     /tmp/ccoNeLwn.s:470    .text:00000000000001a4 .LFB9
     /tmp/ccoNeLwn.s:517    .text:00000000000001d4 .LFE9
     /tmp/ccoNeLwn.s:1802   .debug_loc:00000000000000a8 .LLST7
     /tmp/ccoNeLwn.s:1989   .debug_str:000000000000024d .LASF32
     /tmp/ccoNeLwn.s:1943   .debug_str:0000000000000050 .LASF33
     /tmp/ccoNeLwn.s:417    .text:0000000000000174 .LFB8
     /tmp/ccoNeLwn.s:464    .text:00000000000001a4 .LFE8
     /tmp/ccoNeLwn.s:1816   .debug_loc:00000000000000e1 .LLST6
     /tmp/ccoNeLwn.s:1987   .debug_str:0000000000000244 .LASF34
     /tmp/ccoNeLwn.s:2019   .debug_str:000000000000033b .LASF35
     /tmp/ccoNeLwn.s:364    .text:0000000000000144 .LFB7
     /tmp/ccoNeLwn.s:411    .text:0000000000000174 .LFE7
     /tmp/ccoNeLwn.s:1830   .debug_loc:000000000000011a .LLST5
     /tmp/ccoNeLwn.s:1965   .debug_str:00000000000000ee .LASF36
     /tmp/ccoNeLwn.s:1985   .debug_str:000000000000022e .LASF37
     /tmp/ccoNeLwn.s:311    .text:0000000000000114 .LFB6
     /tmp/ccoNeLwn.s:358    .text:0000000000000144 .LFE6
     /tmp/ccoNeLwn.s:1844   .debug_loc:0000000000000153 .LLST4
     /tmp/ccoNeLwn.s:1963   .debug_str:00000000000000e5 .LASF38
     /tmp/ccoNeLwn.s:2013   .debug_str:000000000000030b .LASF39
     /tmp/ccoNeLwn.s:253    .text:00000000000000e0 .LFB5
     /tmp/ccoNeLwn.s:305    .text:0000000000000114 .LFE5
     /tmp/ccoNeLwn.s:1858   .debug_loc:000000000000018c .LLST3
     /tmp/ccoNeLwn.s:1945   .debug_str:0000000000000068 .LASF40
     /tmp/ccoNeLwn.s:2021   .debug_str:0000000000000350 .LASF42
     /tmp/ccoNeLwn.s:1951   .debug_str:0000000000000088 .LASF44
     /tmp/ccoNeLwn.s:217    .text:00000000000000bc .LFB4
     /tmp/ccoNeLwn.s:247    .text:00000000000000e0 .LFE4
     /tmp/ccoNeLwn.s:2035   .debug_str:00000000000003b2 .LASF57
     /tmp/ccoNeLwn.s:2031   .debug_str:0000000000000391 .LASF58
     /tmp/ccoNeLwn.s:179    .text:0000000000000094 .LFB3
     /tmp/ccoNeLwn.s:211    .text:00000000000000bc .LFE3
     /tmp/ccoNeLwn.s:2029   .debug_str:0000000000000383 .LASF45
     /tmp/ccoNeLwn.s:2007   .debug_str:00000000000002cb .LASF46
     /tmp/ccoNeLwn.s:116    .text:000000000000005c .LFB2
     /tmp/ccoNeLwn.s:173    .text:0000000000000094 .LFE2
GAS LISTING /tmp/ccoNeLwn.s 			page 24


     /tmp/ccoNeLwn.s:1872   .debug_loc:00000000000001c5 .LLST2
     /tmp/ccoNeLwn.s:2017   .debug_str:0000000000000332 .LASF47
     /tmp/ccoNeLwn.s:1929   .debug_str:0000000000000000 .LASF48
     /tmp/ccoNeLwn.s:63     .text:000000000000002c .LFB1
     /tmp/ccoNeLwn.s:110    .text:000000000000005c .LFE1
     /tmp/ccoNeLwn.s:1886   .debug_loc:00000000000001fe .LLST1
     /tmp/ccoNeLwn.s:2037   .debug_str:00000000000003be .LASF50
     /tmp/ccoNeLwn.s:1991   .debug_str:0000000000000258 .LASF52
     /tmp/ccoNeLwn.s:10     .text:0000000000000000 .LFB0
     /tmp/ccoNeLwn.s:57     .text:000000000000002c .LFE0
     /tmp/ccoNeLwn.s:1949   .debug_str:0000000000000083 .LASF53
     /tmp/ccoNeLwn.s:1900   .debug_loc:0000000000000237 .LLST0
     /tmp/ccoNeLwn.s:674    .text:0000000000000264 .LVL23
     /tmp/ccoNeLwn.s:716    .text:000000000000028c .LVL24
     /tmp/ccoNeLwn.s:627    .text:0000000000000238 .LVL21
     /tmp/ccoNeLwn.s:657    .text:0000000000000258 .LVL22
     /tmp/ccoNeLwn.s:552    .text:00000000000001f4 .LVL16
     /tmp/ccoNeLwn.s:556    .text:00000000000001fc .LVL17
     /tmp/ccoNeLwn.s:566    .text:0000000000000208 .LVL18
     /tmp/ccoNeLwn.s:571    .text:000000000000020c .LVL19
     /tmp/ccoNeLwn.s:473    .text:00000000000001a4 .LVL14
     /tmp/ccoNeLwn.s:505    .text:00000000000001c4 .LVL15
     /tmp/ccoNeLwn.s:420    .text:0000000000000174 .LVL12
     /tmp/ccoNeLwn.s:452    .text:0000000000000194 .LVL13
     /tmp/ccoNeLwn.s:367    .text:0000000000000144 .LVL10
     /tmp/ccoNeLwn.s:399    .text:0000000000000164 .LVL11
     /tmp/ccoNeLwn.s:314    .text:0000000000000114 .LVL8
     /tmp/ccoNeLwn.s:346    .text:0000000000000134 .LVL9
     /tmp/ccoNeLwn.s:256    .text:00000000000000e0 .LVL6
     /tmp/ccoNeLwn.s:293    .text:0000000000000104 .LVL7
     /tmp/ccoNeLwn.s:119    .text:000000000000005c .LVL4
     /tmp/ccoNeLwn.s:161    .text:0000000000000084 .LVL5
     /tmp/ccoNeLwn.s:66     .text:000000000000002c .LVL2
     /tmp/ccoNeLwn.s:98     .text:000000000000004c .LVL3
     /tmp/ccoNeLwn.s:14     .text:0000000000000000 .LVL0
     /tmp/ccoNeLwn.s:46     .text:0000000000000020 .LVL1
     /tmp/ccoNeLwn.s:770    .debug_info:0000000000000000 .Ldebug_info0

NO UNDEFINED SYMBOLS
