GAS LISTING /tmp/ccoNeLwn.s 			page 1


   1              		.file	"syscall_c.cpp"
   2              		.option pic
   3              		.option norelax
   4              		.text
   5              	.Ltext0:
   6              		.align	2
   7              		.globl	_Z9mem_allocm
   9              	_Z9mem_allocm:
  10              	.LFB0:
  11              		.file 1 "src/syscall_c.cpp"
   1:src/syscall_c.cpp **** //
   2:src/syscall_c.cpp **** // Created by os on 8/10/22.
   3:src/syscall_c.cpp **** //
   4:src/syscall_c.cpp **** 
   5:src/syscall_c.cpp **** #include "../h/syscall_c.h"
   6:src/syscall_c.cpp **** #include "../h/printing.h"
   7:src/syscall_c.cpp **** 
   8:src/syscall_c.cpp **** void* mem_alloc(size_t size){
  12              		.loc 1 8 29
  13              		.cfi_startproc
  14              	.LVL0:
  15 0000 130101FF 		addi	sp,sp,-16
  16              		.cfi_def_cfa_offset 16
  17 0004 23348100 		sd	s0,8(sp)
  18              		.cfi_offset 8, -8
  19 0008 13040101 		addi	s0,sp,16
  20              		.cfi_def_cfa 8, 0
   9:src/syscall_c.cpp **** 
  10:src/syscall_c.cpp ****     __asm__ volatile("mv a1, %0" : : "r" (size)); // u a1 stavljamo size
  21              		.loc 1 10 5
  22              		.loc 1 10 49 is_stmt 0
  23              	#APP
  24              	# 10 "src/syscall_c.cpp" 1
  11              	    __asm__ volatile("mv a0, %0" : : "r" (0x01)); // u a0 stavljamo 0x01
  25              		mv a1, a0
  26              	# 0 "" 2
  27              		.loc 1 11 5 is_stmt 1
  28              		.loc 1 11 49 is_stmt 0
  29              	#NO_APP
  30 0010 93071000 		li	a5,1
  31              	#APP
  32              	# 11 "src/syscall_c.cpp" 1
  12              	    __asm__ volatile("ecall");
  33              		mv a0, a5
  34              	# 0 "" 2
  35              		.loc 1 12 5 is_stmt 1
  36              		.loc 1 12 30 is_stmt 0
  37              	# 12 "src/syscall_c.cpp" 1
  13              	
  14:src/syscall_c.cpp ****     void* rez;
  38              		ecall
  39              	# 0 "" 2
  40              		.loc 1 14 5 is_stmt 1
  15:src/syscall_c.cpp ****     __asm__ volatile("mv %0, a0" : "=r" (rez));
  41              		.loc 1 15 5
  42              		.loc 1 15 47 is_stmt 0
  43              	# 15 "src/syscall_c.cpp" 1
GAS LISTING /tmp/ccoNeLwn.s 			page 2


  16              	    return rez;
  44              		mv a0, a0
  45              	# 0 "" 2
  46              	.LVL1:
  47              		.loc 1 16 5 is_stmt 1
  17:src/syscall_c.cpp **** }
  48              		.loc 1 17 1 is_stmt 0
  49              	#NO_APP
  50 0020 03348100 		ld	s0,8(sp)
  51              		.cfi_restore 8
  52              		.cfi_def_cfa 2, 16
  53 0024 13010101 		addi	sp,sp,16
  54              		.cfi_def_cfa_offset 0
  55 0028 67800000 		jr	ra
  56              		.cfi_endproc
  57              	.LFE0:
  59              		.align	2
  60              		.globl	_Z8mem_freePv
  62              	_Z8mem_freePv:
  63              	.LFB1:
  18:src/syscall_c.cpp **** 
  19:src/syscall_c.cpp **** int mem_free(void* add){
  64              		.loc 1 19 24 is_stmt 1
  65              		.cfi_startproc
  66              	.LVL2:
  67 002c 130101FF 		addi	sp,sp,-16
  68              		.cfi_def_cfa_offset 16
  69 0030 23348100 		sd	s0,8(sp)
  70              		.cfi_offset 8, -8
  71 0034 13040101 		addi	s0,sp,16
  72              		.cfi_def_cfa 8, 0
  20:src/syscall_c.cpp ****     __asm__ volatile("mv a1, %0" : : "r" (add)); // u a1 stavljamo add
  73              		.loc 1 20 5
  74              		.loc 1 20 48 is_stmt 0
  75              	#APP
  76              	# 20 "src/syscall_c.cpp" 1
  21              	    __asm__ volatile("mv a0, %0" : : "r" (0x02)); // u a0 stavljamo 0x01
  77              		mv a1, a0
  78              	# 0 "" 2
  79              		.loc 1 21 5 is_stmt 1
  80              		.loc 1 21 49 is_stmt 0
  81              	#NO_APP
  82 003c 93072000 		li	a5,2
  83              	#APP
  84              	# 21 "src/syscall_c.cpp" 1
  22              	    __asm__ volatile("ecall");
  85              		mv a0, a5
  86              	# 0 "" 2
  87              		.loc 1 22 5 is_stmt 1
  88              		.loc 1 22 30 is_stmt 0
  89              	# 22 "src/syscall_c.cpp" 1
  23              	
  24:src/syscall_c.cpp ****     int rez;
  90              		ecall
  91              	# 0 "" 2
  92              		.loc 1 24 5 is_stmt 1
  25:src/syscall_c.cpp ****     __asm__ volatile("mv %0, a0" : "=r" (rez));
GAS LISTING /tmp/ccoNeLwn.s 			page 3


  93              		.loc 1 25 5
  94              		.loc 1 25 47 is_stmt 0
  95              	# 25 "src/syscall_c.cpp" 1
  26              	    return rez;
  96              		mv a0, a0
  97              	# 0 "" 2
  98              	.LVL3:
  99              		.loc 1 26 5 is_stmt 1
  27:src/syscall_c.cpp **** }
 100              		.loc 1 27 1 is_stmt 0
 101              	#NO_APP
 102 004c 1B050500 		sext.w	a0,a0
 103 0050 03348100 		ld	s0,8(sp)
 104              		.cfi_restore 8
 105              		.cfi_def_cfa 2, 16
 106 0054 13010101 		addi	sp,sp,16
 107              		.cfi_def_cfa_offset 0
 108 0058 67800000 		jr	ra
 109              		.cfi_endproc
 110              	.LFE1:
 112              		.align	2
 113              		.globl	_Z13thread_createPP3NitPFvPvES2_
 115              	_Z13thread_createPP3NitPFvPvES2_:
 116              	.LFB2:
  28:src/syscall_c.cpp **** 
  29:src/syscall_c.cpp **** int thread_create(thread_t* handle, void(*start_routine)(void*),void* arg){
 117              		.loc 1 29 75 is_stmt 1
 118              		.cfi_startproc
 119              	.LVL4:
 120 005c 130101FF 		addi	sp,sp,-16
 121              		.cfi_def_cfa_offset 16
 122 0060 23348100 		sd	s0,8(sp)
 123              		.cfi_offset 8, -8
 124 0064 13040101 		addi	s0,sp,16
 125              		.cfi_def_cfa 8, 0
  30:src/syscall_c.cpp ****     __asm__ volatile("mv a3, %0" : : "r" (arg));
 126              		.loc 1 30 5
 127              		.loc 1 30 48 is_stmt 0
 128              	#APP
 129              	# 30 "src/syscall_c.cpp" 1
  31              	    __asm__ volatile("mv a2, %0" : : "r" (start_routine));
 130              		mv a3, a2
 131              	# 0 "" 2
 132              		.loc 1 31 5 is_stmt 1
 133              		.loc 1 31 58 is_stmt 0
 134              	# 31 "src/syscall_c.cpp" 1
  32              	    __asm__ volatile("mv a1, %0" : : "r" (handle));
 135              		mv a2, a1
 136              	# 0 "" 2
 137              		.loc 1 32 5 is_stmt 1
 138              		.loc 1 32 51 is_stmt 0
 139              	# 32 "src/syscall_c.cpp" 1
  33              	    __asm__ volatile("mv a0, %0" : : "r" (0x11));
 140              		mv a1, a0
 141              	# 0 "" 2
 142              		.loc 1 33 5 is_stmt 1
 143              		.loc 1 33 49 is_stmt 0
GAS LISTING /tmp/ccoNeLwn.s 			page 4


 144              	#NO_APP
 145 0074 93071001 		li	a5,17
 146              	#APP
 147              	# 33 "src/syscall_c.cpp" 1
  34              	
  35:src/syscall_c.cpp ****     __asm__ volatile("ecall");
 148              		mv a0, a5
 149              	# 0 "" 2
 150              		.loc 1 35 5 is_stmt 1
 151              		.loc 1 35 30 is_stmt 0
 152              	# 35 "src/syscall_c.cpp" 1
  36              	
  37:src/syscall_c.cpp ****     int rez;
 153              		ecall
 154              	# 0 "" 2
 155              		.loc 1 37 5 is_stmt 1
  38:src/syscall_c.cpp ****     __asm__ volatile("mv %0, a0" : "=r" (rez));
 156              		.loc 1 38 5
 157              		.loc 1 38 47 is_stmt 0
 158              	# 38 "src/syscall_c.cpp" 1
  39              	    return rez;
 159              		mv a0, a0
 160              	# 0 "" 2
 161              	.LVL5:
 162              		.loc 1 39 5 is_stmt 1
  40:src/syscall_c.cpp **** }
 163              		.loc 1 40 1 is_stmt 0
 164              	#NO_APP
 165 0084 1B050500 		sext.w	a0,a0
 166 0088 03348100 		ld	s0,8(sp)
 167              		.cfi_restore 8
 168              		.cfi_def_cfa 2, 16
 169 008c 13010101 		addi	sp,sp,16
 170              		.cfi_def_cfa_offset 0
 171 0090 67800000 		jr	ra
 172              		.cfi_endproc
 173              	.LFE2:
 175              		.align	2
 176              		.globl	_Z11thread_exitv
 178              	_Z11thread_exitv:
 179              	.LFB3:
  41:src/syscall_c.cpp **** 
  42:src/syscall_c.cpp **** int thread_exit(){
 180              		.loc 1 42 18 is_stmt 1
 181              		.cfi_startproc
 182 0094 130101FF 		addi	sp,sp,-16
 183              		.cfi_def_cfa_offset 16
 184 0098 23348100 		sd	s0,8(sp)
 185              		.cfi_offset 8, -8
 186 009c 13040101 		addi	s0,sp,16
 187              		.cfi_def_cfa 8, 0
  43:src/syscall_c.cpp ****     __asm__ volatile("mv a0, %0" : : "r" (0x12));
 188              		.loc 1 43 5
 189              		.loc 1 43 49 is_stmt 0
 190 00a0 93072001 		li	a5,18
 191              	#APP
 192              	# 43 "src/syscall_c.cpp" 1
GAS LISTING /tmp/ccoNeLwn.s 			page 5


  44              	    __asm__ volatile("ecall");
 193              		mv a0, a5
 194              	# 0 "" 2
 195              		.loc 1 44 5 is_stmt 1
 196              		.loc 1 44 30 is_stmt 0
 197              	# 44 "src/syscall_c.cpp" 1
  45              	    return 0;
 198              		ecall
 199              	# 0 "" 2
 200              		.loc 1 45 5 is_stmt 1
  46:src/syscall_c.cpp **** }
 201              		.loc 1 46 1 is_stmt 0
 202              	#NO_APP
 203 00ac 13050000 		li	a0,0
 204 00b0 03348100 		ld	s0,8(sp)
 205              		.cfi_restore 8
 206              		.cfi_def_cfa 2, 16
 207 00b4 13010101 		addi	sp,sp,16
 208              		.cfi_def_cfa_offset 0
 209 00b8 67800000 		jr	ra
 210              		.cfi_endproc
 211              	.LFE3:
 213              		.align	2
 214              		.globl	_Z15thread_dispatchv
 216              	_Z15thread_dispatchv:
 217              	.LFB4:
  47:src/syscall_c.cpp **** 
  48:src/syscall_c.cpp **** void thread_dispatch(){
 218              		.loc 1 48 23 is_stmt 1
 219              		.cfi_startproc
 220 00bc 130101FF 		addi	sp,sp,-16
 221              		.cfi_def_cfa_offset 16
 222 00c0 23348100 		sd	s0,8(sp)
 223              		.cfi_offset 8, -8
 224 00c4 13040101 		addi	s0,sp,16
 225              		.cfi_def_cfa 8, 0
  49:src/syscall_c.cpp ****     __asm__ volatile("mv a0, %0" : : "r" (0x13));
 226              		.loc 1 49 5
 227              		.loc 1 49 49 is_stmt 0
 228 00c8 93073001 		li	a5,19
 229              	#APP
 230              	# 49 "src/syscall_c.cpp" 1
  50              	    __asm__ volatile("ecall");
 231              		mv a0, a5
 232              	# 0 "" 2
 233              		.loc 1 50 5 is_stmt 1
 234              		.loc 1 50 30 is_stmt 0
 235              	# 50 "src/syscall_c.cpp" 1
  51              	}
 236              		ecall
 237              	# 0 "" 2
 238              		.loc 1 51 1
 239              	#NO_APP
 240 00d4 03348100 		ld	s0,8(sp)
 241              		.cfi_restore 8
 242              		.cfi_def_cfa 2, 16
 243 00d8 13010101 		addi	sp,sp,16
GAS LISTING /tmp/ccoNeLwn.s 			page 6


 244              		.cfi_def_cfa_offset 0
 245 00dc 67800000 		jr	ra
 246              		.cfi_endproc
 247              	.LFE4:
 249              		.align	2
 250              		.globl	_Z8sem_openPP7Semaforj
 252              	_Z8sem_openPP7Semaforj:
 253              	.LFB5:
  52:src/syscall_c.cpp **** 
  53:src/syscall_c.cpp **** int sem_open(sem_t* handle, unsigned init){
 254              		.loc 1 53 43 is_stmt 1
 255              		.cfi_startproc
 256              	.LVL6:
 257 00e0 130101FF 		addi	sp,sp,-16
 258              		.cfi_def_cfa_offset 16
 259 00e4 23348100 		sd	s0,8(sp)
 260              		.cfi_offset 8, -8
 261 00e8 13040101 		addi	s0,sp,16
 262              		.cfi_def_cfa 8, 0
  54:src/syscall_c.cpp ****     __asm__ volatile("mv a2, %0" : : "r" (init));
 263              		.loc 1 54 5
 264              		.loc 1 54 49 is_stmt 0
 265              	#APP
 266              	# 54 "src/syscall_c.cpp" 1
  55              	    __asm__ volatile("mv a1, %0" : : "r" (handle));
 267              		mv a2, a1
 268              	# 0 "" 2
 269              		.loc 1 55 5 is_stmt 1
 270              		.loc 1 55 51 is_stmt 0
 271              	# 55 "src/syscall_c.cpp" 1
  56              	    __asm__ volatile("mv a0, %0" : : "r" (0x21));
 272              		mv a1, a0
 273              	# 0 "" 2
 274              		.loc 1 56 5 is_stmt 1
 275              		.loc 1 56 49 is_stmt 0
 276              	#NO_APP
 277 00f4 93071002 		li	a5,33
 278              	#APP
 279              	# 56 "src/syscall_c.cpp" 1
  57              	
  58:src/syscall_c.cpp ****     __asm__ volatile("ecall");
 280              		mv a0, a5
 281              	# 0 "" 2
 282              		.loc 1 58 5 is_stmt 1
 283              		.loc 1 58 30 is_stmt 0
 284              	# 58 "src/syscall_c.cpp" 1
  59              	
  60:src/syscall_c.cpp ****     int rez;
 285              		ecall
 286              	# 0 "" 2
 287              		.loc 1 60 5 is_stmt 1
  61:src/syscall_c.cpp ****     __asm__ volatile("mv %0, a0" : "=r" (rez));
 288              		.loc 1 61 5
 289              		.loc 1 61 47 is_stmt 0
 290              	# 61 "src/syscall_c.cpp" 1
  62              	    return rez;
 291              		mv a0, a0
GAS LISTING /tmp/ccoNeLwn.s 			page 7


 292              	# 0 "" 2
 293              	.LVL7:
 294              		.loc 1 62 5 is_stmt 1
  63:src/syscall_c.cpp **** }
 295              		.loc 1 63 1 is_stmt 0
 296              	#NO_APP
 297 0104 1B050500 		sext.w	a0,a0
 298 0108 03348100 		ld	s0,8(sp)
 299              		.cfi_restore 8
 300              		.cfi_def_cfa 2, 16
 301 010c 13010101 		addi	sp,sp,16
 302              		.cfi_def_cfa_offset 0
 303 0110 67800000 		jr	ra
 304              		.cfi_endproc
 305              	.LFE5:
 307              		.align	2
 308              		.globl	_Z9sem_closeP7Semafor
 310              	_Z9sem_closeP7Semafor:
 311              	.LFB6:
  64:src/syscall_c.cpp **** 
  65:src/syscall_c.cpp **** int sem_close(sem_t handle){
 312              		.loc 1 65 28 is_stmt 1
 313              		.cfi_startproc
 314              	.LVL8:
 315 0114 130101FF 		addi	sp,sp,-16
 316              		.cfi_def_cfa_offset 16
 317 0118 23348100 		sd	s0,8(sp)
 318              		.cfi_offset 8, -8
 319 011c 13040101 		addi	s0,sp,16
 320              		.cfi_def_cfa 8, 0
  66:src/syscall_c.cpp ****     __asm__ volatile("mv a1, %0" : : "r" (handle));
 321              		.loc 1 66 5
 322              		.loc 1 66 51 is_stmt 0
 323              	#APP
 324              	# 66 "src/syscall_c.cpp" 1
  67              	    __asm__ volatile("mv a0, %0" : : "r" (0x22));
 325              		mv a1, a0
 326              	# 0 "" 2
 327              		.loc 1 67 5 is_stmt 1
 328              		.loc 1 67 49 is_stmt 0
 329              	#NO_APP
 330 0124 93072002 		li	a5,34
 331              	#APP
 332              	# 67 "src/syscall_c.cpp" 1
  68              	
  69:src/syscall_c.cpp ****     __asm__ volatile("ecall");
 333              		mv a0, a5
 334              	# 0 "" 2
 335              		.loc 1 69 5 is_stmt 1
 336              		.loc 1 69 30 is_stmt 0
 337              	# 69 "src/syscall_c.cpp" 1
  70              	
  71:src/syscall_c.cpp ****     int rez;
 338              		ecall
 339              	# 0 "" 2
 340              		.loc 1 71 5 is_stmt 1
  72:src/syscall_c.cpp ****     __asm__ volatile("mv %0, a0" : "=r" (rez));
GAS LISTING /tmp/ccoNeLwn.s 			page 8


 341              		.loc 1 72 5
 342              		.loc 1 72 47 is_stmt 0
 343              	# 72 "src/syscall_c.cpp" 1
  73              	    return rez;
 344              		mv a0, a0
 345              	# 0 "" 2
 346              	.LVL9:
 347              		.loc 1 73 5 is_stmt 1
  74:src/syscall_c.cpp **** }
 348              		.loc 1 74 1 is_stmt 0
 349              	#NO_APP
 350 0134 1B050500 		sext.w	a0,a0
 351 0138 03348100 		ld	s0,8(sp)
 352              		.cfi_restore 8
 353              		.cfi_def_cfa 2, 16
 354 013c 13010101 		addi	sp,sp,16
 355              		.cfi_def_cfa_offset 0
 356 0140 67800000 		jr	ra
 357              		.cfi_endproc
 358              	.LFE6:
 360              		.align	2
 361              		.globl	_Z8sem_waitP7Semafor
 363              	_Z8sem_waitP7Semafor:
 364              	.LFB7:
  75:src/syscall_c.cpp **** 
  76:src/syscall_c.cpp **** int sem_wait(sem_t id){
 365              		.loc 1 76 23 is_stmt 1
 366              		.cfi_startproc
 367              	.LVL10:
 368 0144 130101FF 		addi	sp,sp,-16
 369              		.cfi_def_cfa_offset 16
 370 0148 23348100 		sd	s0,8(sp)
 371              		.cfi_offset 8, -8
 372 014c 13040101 		addi	s0,sp,16
 373              		.cfi_def_cfa 8, 0
  77:src/syscall_c.cpp ****     __asm__ volatile("mv a1, %0" : : "r" (id));
 374              		.loc 1 77 5
 375              		.loc 1 77 47 is_stmt 0
 376              	#APP
 377              	# 77 "src/syscall_c.cpp" 1
  78              	    __asm__ volatile("mv a0, %0" : : "r" (0x23));
 378              		mv a1, a0
 379              	# 0 "" 2
 380              		.loc 1 78 5 is_stmt 1
 381              		.loc 1 78 49 is_stmt 0
 382              	#NO_APP
 383 0154 93073002 		li	a5,35
 384              	#APP
 385              	# 78 "src/syscall_c.cpp" 1
  79              	
  80:src/syscall_c.cpp ****     __asm__ volatile("ecall");
 386              		mv a0, a5
 387              	# 0 "" 2
 388              		.loc 1 80 5 is_stmt 1
 389              		.loc 1 80 30 is_stmt 0
 390              	# 80 "src/syscall_c.cpp" 1
  81              	
GAS LISTING /tmp/ccoNeLwn.s 			page 9


  82:src/syscall_c.cpp ****     int rez;
 391              		ecall
 392              	# 0 "" 2
 393              		.loc 1 82 5 is_stmt 1
  83:src/syscall_c.cpp ****     __asm__ volatile("mv %0, a0" : "=r" (rez));
 394              		.loc 1 83 5
 395              		.loc 1 83 47 is_stmt 0
 396              	# 83 "src/syscall_c.cpp" 1
  84              	    return rez;
 397              		mv a0, a0
 398              	# 0 "" 2
 399              	.LVL11:
 400              		.loc 1 84 5 is_stmt 1
  85:src/syscall_c.cpp **** }
 401              		.loc 1 85 1 is_stmt 0
 402              	#NO_APP
 403 0164 1B050500 		sext.w	a0,a0
 404 0168 03348100 		ld	s0,8(sp)
 405              		.cfi_restore 8
 406              		.cfi_def_cfa 2, 16
 407 016c 13010101 		addi	sp,sp,16
 408              		.cfi_def_cfa_offset 0
 409 0170 67800000 		jr	ra
 410              		.cfi_endproc
 411              	.LFE7:
 413              		.align	2
 414              		.globl	_Z10sem_signalP7Semafor
 416              	_Z10sem_signalP7Semafor:
 417              	.LFB8:
  86:src/syscall_c.cpp **** 
  87:src/syscall_c.cpp **** int sem_signal(sem_t id){
 418              		.loc 1 87 25 is_stmt 1
 419              		.cfi_startproc
 420              	.LVL12:
 421 0174 130101FF 		addi	sp,sp,-16
 422              		.cfi_def_cfa_offset 16
 423 0178 23348100 		sd	s0,8(sp)
 424              		.cfi_offset 8, -8
 425 017c 13040101 		addi	s0,sp,16
 426              		.cfi_def_cfa 8, 0
  88:src/syscall_c.cpp ****     __asm__ volatile("mv a1, %0" : : "r" (id));
 427              		.loc 1 88 5
 428              		.loc 1 88 47 is_stmt 0
 429              	#APP
 430              	# 88 "src/syscall_c.cpp" 1
  89              	    __asm__ volatile("mv a0, %0" : : "r" (0x24));
 431              		mv a1, a0
 432              	# 0 "" 2
 433              		.loc 1 89 5 is_stmt 1
 434              		.loc 1 89 49 is_stmt 0
 435              	#NO_APP
 436 0184 93074002 		li	a5,36
 437              	#APP
 438              	# 89 "src/syscall_c.cpp" 1
  90              	
  91:src/syscall_c.cpp ****     __asm__ volatile("ecall");
 439              		mv a0, a5
GAS LISTING /tmp/ccoNeLwn.s 			page 10


 440              	# 0 "" 2
 441              		.loc 1 91 5 is_stmt 1
 442              		.loc 1 91 30 is_stmt 0
 443              	# 91 "src/syscall_c.cpp" 1
  92              	
  93:src/syscall_c.cpp ****     int rez;
 444              		ecall
 445              	# 0 "" 2
 446              		.loc 1 93 5 is_stmt 1
  94:src/syscall_c.cpp ****     __asm__ volatile("mv %0, a0" : "=r" (rez));
 447              		.loc 1 94 5
 448              		.loc 1 94 47 is_stmt 0
 449              	# 94 "src/syscall_c.cpp" 1
  95              	    return rez;
 450              		mv a0, a0
 451              	# 0 "" 2
 452              	.LVL13:
 453              		.loc 1 95 5 is_stmt 1
  96:src/syscall_c.cpp **** }
 454              		.loc 1 96 1 is_stmt 0
 455              	#NO_APP
 456 0194 1B050500 		sext.w	a0,a0
 457 0198 03348100 		ld	s0,8(sp)
 458              		.cfi_restore 8
 459              		.cfi_def_cfa 2, 16
 460 019c 13010101 		addi	sp,sp,16
 461              		.cfi_def_cfa_offset 0
 462 01a0 67800000 		jr	ra
 463              		.cfi_endproc
 464              	.LFE8:
 466              		.align	2
 467              		.globl	_Z10time_sleepm
 469              	_Z10time_sleepm:
 470              	.LFB9:
  97:src/syscall_c.cpp **** 
  98:src/syscall_c.cpp **** int time_sleep(time_t t) {
 471              		.loc 1 98 26 is_stmt 1
 472              		.cfi_startproc
 473              	.LVL14:
 474 01a4 130101FF 		addi	sp,sp,-16
 475              		.cfi_def_cfa_offset 16
 476 01a8 23348100 		sd	s0,8(sp)
 477              		.cfi_offset 8, -8
 478 01ac 13040101 		addi	s0,sp,16
 479              		.cfi_def_cfa 8, 0
  99:src/syscall_c.cpp ****     __asm__ volatile("mv a1, %0" : : "r" (t));
 480              		.loc 1 99 5
 481              		.loc 1 99 46 is_stmt 0
 482              	#APP
 483              	# 99 "src/syscall_c.cpp" 1
 100              	    __asm__ volatile("mv a0, %0" : : "r" (0x31));
 484              		mv a1, a0
 485              	# 0 "" 2
 486              		.loc 1 100 5 is_stmt 1
 487              		.loc 1 100 49 is_stmt 0
 488              	#NO_APP
 489 01b4 93071003 		li	a5,49
GAS LISTING /tmp/ccoNeLwn.s 			page 11


 490              	#APP
 491              	# 100 "src/syscall_c.cpp" 1
 101              	
 102:src/syscall_c.cpp ****     __asm__ volatile("ecall");
 492              		mv a0, a5
 493              	# 0 "" 2
 494              		.loc 1 102 5 is_stmt 1
 495              		.loc 1 102 30 is_stmt 0
 496              	# 102 "src/syscall_c.cpp" 1
 103              	
 104:src/syscall_c.cpp ****     int rez;
 497              		ecall
 498              	# 0 "" 2
 499              		.loc 1 104 5 is_stmt 1
 105:src/syscall_c.cpp ****     __asm__ volatile("mv %0, a0" : "=r" (rez));
 500              		.loc 1 105 5
 501              		.loc 1 105 47 is_stmt 0
 502              	# 105 "src/syscall_c.cpp" 1
 106              	    return rez;
 503              		mv a0, a0
 504              	# 0 "" 2
 505              	.LVL15:
 506              		.loc 1 106 5 is_stmt 1
 107:src/syscall_c.cpp **** }
 507              		.loc 1 107 1 is_stmt 0
 508              	#NO_APP
 509 01c4 1B050500 		sext.w	a0,a0
 510 01c8 03348100 		ld	s0,8(sp)
 511              		.cfi_restore 8
 512              		.cfi_def_cfa 2, 16
 513 01cc 13010101 		addi	sp,sp,16
 514              		.cfi_def_cfa_offset 0
 515 01d0 67800000 		jr	ra
 516              		.cfi_endproc
 517              	.LFE9:
 519              		.align	2
 520              		.globl	_Z4getcv
 522              	_Z4getcv:
 523              	.LFB10:
 108:src/syscall_c.cpp **** 
 109:src/syscall_c.cpp **** char getc(){
 524              		.loc 1 109 12 is_stmt 1
 525              		.cfi_startproc
 526 01d4 130101FF 		addi	sp,sp,-16
 527              		.cfi_def_cfa_offset 16
 528 01d8 23348100 		sd	s0,8(sp)
 529              		.cfi_offset 8, -8
 530 01dc 13040101 		addi	s0,sp,16
 531              		.cfi_def_cfa 8, 0
 110:src/syscall_c.cpp ****     __asm__ volatile("mv a0, %0" : : "r" (0x41));
 532              		.loc 1 110 5
 533              		.loc 1 110 49 is_stmt 0
 534 01e0 93071004 		li	a5,65
 535              	#APP
 536              	# 110 "src/syscall_c.cpp" 1
 111              	
 112:src/syscall_c.cpp ****     __asm__ volatile("ecall");
GAS LISTING /tmp/ccoNeLwn.s 			page 12


 537              		mv a0, a5
 538              	# 0 "" 2
 539              		.loc 1 112 5 is_stmt 1
 540              		.loc 1 112 30 is_stmt 0
 541              	# 112 "src/syscall_c.cpp" 1
 113              	
 114:src/syscall_c.cpp ****     char rez;
 542              		ecall
 543              	# 0 "" 2
 544              		.loc 1 114 5 is_stmt 1
 115:src/syscall_c.cpp ****     __asm__ volatile("mv %0, a0" : "=r" (rez));
 545              		.loc 1 115 5
 546              		.loc 1 115 47 is_stmt 0
 547              	# 115 "src/syscall_c.cpp" 1
 116              	
 548              		mv a0, a0
 549              	# 0 "" 2
 550              	#NO_APP
 551 01f0 1375F50F 		andi	a0,a0,0xff
 552              	.LVL16:
 117:src/syscall_c.cpp ****     if(rez=='k') return 'l';
 553              		.loc 1 117 5 is_stmt 1
 554 01f4 9307B006 		li	a5,107
 555 01f8 6308F500 		beq	a0,a5,.L25
 556              	.LVL17:
 557              	.L22:
 118:src/syscall_c.cpp **** 
 119:src/syscall_c.cpp ****     return rez;
 120:src/syscall_c.cpp **** }
 558              		.loc 1 120 1 is_stmt 0
 559 01fc 03348100 		ld	s0,8(sp)
 560              		.cfi_remember_state
 561              		.cfi_restore 8
 562              		.cfi_def_cfa 2, 16
 563 0200 13010101 		addi	sp,sp,16
 564              		.cfi_def_cfa_offset 0
 565 0204 67800000 		jr	ra
 566              	.LVL18:
 567              	.L25:
 568              		.cfi_restore_state
 117:src/syscall_c.cpp ****     if(rez=='k') return 'l';
 569              		.loc 1 117 25
 570 0208 1305C006 		li	a0,108
 571              	.LVL19:
 572 020c 6FF01FFF 		j	.L22
 573              		.cfi_endproc
 574              	.LFE10:
 576              		.align	2
 577              		.globl	_Z4putcc
 579              	_Z4putcc:
 580              	.LFB11:
 121:src/syscall_c.cpp **** 
 122:src/syscall_c.cpp **** void putc(char c){
 581              		.loc 1 122 18 is_stmt 1
 582              		.cfi_startproc
 583              	.LVL20:
 584 0210 130101FF 		addi	sp,sp,-16
GAS LISTING /tmp/ccoNeLwn.s 			page 13


 585              		.cfi_def_cfa_offset 16
 586 0214 23348100 		sd	s0,8(sp)
 587              		.cfi_offset 8, -8
 588 0218 13040101 		addi	s0,sp,16
 589              		.cfi_def_cfa 8, 0
 123:src/syscall_c.cpp ****     __asm__ volatile("mv a1, %0" : : "r" (c));
 590              		.loc 1 123 5
 591              		.loc 1 123 46 is_stmt 0
 592              	#APP
 593              	# 123 "src/syscall_c.cpp" 1
 124              	    __asm__ volatile("mv a0, %0" : : "r" (0x42));
 594              		mv a1, a0
 595              	# 0 "" 2
 596              		.loc 1 124 5 is_stmt 1
 597              		.loc 1 124 49 is_stmt 0
 598              	#NO_APP
 599 0220 93072004 		li	a5,66
 600              	#APP
 601              	# 124 "src/syscall_c.cpp" 1
 125              	
 126:src/syscall_c.cpp ****     __asm__ volatile("ecall");
 602              		mv a0, a5
 603              	# 0 "" 2
 604              		.loc 1 126 5 is_stmt 1
 605              		.loc 1 126 30 is_stmt 0
 606              	# 126 "src/syscall_c.cpp" 1
 127              	}
 607              		ecall
 608              	# 0 "" 2
 609              		.loc 1 127 1
 610              	#NO_APP
 611 022c 03348100 		ld	s0,8(sp)
 612              		.cfi_restore 8
 613              		.cfi_def_cfa 2, 16
 614 0230 13010101 		addi	sp,sp,16
 615              		.cfi_def_cfa_offset 0
 616 0234 67800000 		jr	ra
 617              		.cfi_endproc
 618              	.LFE11:
 620              		.align	2
 621              		.globl	_Z12putSchedulerP3Nit
 623              	_Z12putSchedulerP3Nit:
 624              	.LFB12:
 128:src/syscall_c.cpp **** 
 129:src/syscall_c.cpp **** int putScheduler(Nit* t){
 625              		.loc 1 129 25 is_stmt 1
 626              		.cfi_startproc
 627              	.LVL21:
 628 0238 130101FF 		addi	sp,sp,-16
 629              		.cfi_def_cfa_offset 16
 630 023c 23348100 		sd	s0,8(sp)
 631              		.cfi_offset 8, -8
 632 0240 13040101 		addi	s0,sp,16
 633              		.cfi_def_cfa 8, 0
 130:src/syscall_c.cpp ****     __asm__ volatile("mv a1, %0" : : "r" (t));
 634              		.loc 1 130 5
 635              		.loc 1 130 46 is_stmt 0
GAS LISTING /tmp/ccoNeLwn.s 			page 14


 636              	#APP
 637              	# 130 "src/syscall_c.cpp" 1
 131              	    __asm__ volatile("mv a0, %0" : : "r" (0x69));
 638              		mv a1, a0
 639              	# 0 "" 2
 640              		.loc 1 131 5 is_stmt 1
 641              		.loc 1 131 49 is_stmt 0
 642              	#NO_APP
 643 0248 93079006 		li	a5,105
 644              	#APP
 645              	# 131 "src/syscall_c.cpp" 1
 132              	
 133:src/syscall_c.cpp ****     __asm__ volatile("ecall");
 646              		mv a0, a5
 647              	# 0 "" 2
 648              		.loc 1 133 5 is_stmt 1
 649              		.loc 1 133 30 is_stmt 0
 650              	# 133 "src/syscall_c.cpp" 1
 134              	
 135:src/syscall_c.cpp ****     return 0;
 651              		ecall
 652              	# 0 "" 2
 653              		.loc 1 135 5 is_stmt 1
 136:src/syscall_c.cpp **** }
 654              		.loc 1 136 1 is_stmt 0
 655              	#NO_APP
 656 0254 13050000 		li	a0,0
 657              	.LVL22:
 658 0258 03348100 		ld	s0,8(sp)
 659              		.cfi_restore 8
 660              		.cfi_def_cfa 2, 16
 661 025c 13010101 		addi	sp,sp,16
 662              		.cfi_def_cfa_offset 0
 663 0260 67800000 		jr	ra
 664              		.cfi_endproc
 665              	.LFE12:
 667              		.align	2
 668              		.globl	_Z14thread_create1PP3NitPFvPvES2_
 670              	_Z14thread_create1PP3NitPFvPvES2_:
 671              	.LFB13:
 137:src/syscall_c.cpp **** 
 138:src/syscall_c.cpp **** int thread_create1(thread_t* handle, void(*start_routine)(void*),void* arg){
 672              		.loc 1 138 76 is_stmt 1
 673              		.cfi_startproc
 674              	.LVL23:
 675 0264 130101FF 		addi	sp,sp,-16
 676              		.cfi_def_cfa_offset 16
 677 0268 23348100 		sd	s0,8(sp)
 678              		.cfi_offset 8, -8
 679 026c 13040101 		addi	s0,sp,16
 680              		.cfi_def_cfa 8, 0
 139:src/syscall_c.cpp ****     __asm__ volatile("mv a3, %0" : : "r" (arg));
 681              		.loc 1 139 5
 682              		.loc 1 139 48 is_stmt 0
 683              	#APP
 684              	# 139 "src/syscall_c.cpp" 1
 140              	    __asm__ volatile("mv a2, %0" : : "r" (start_routine));
GAS LISTING /tmp/ccoNeLwn.s 			page 15


 685              		mv a3, a2
 686              	# 0 "" 2
 687              		.loc 1 140 5 is_stmt 1
 688              		.loc 1 140 58 is_stmt 0
 689              	# 140 "src/syscall_c.cpp" 1
 141              	    __asm__ volatile("mv a1, %0" : : "r" (handle));
 690              		mv a2, a1
 691              	# 0 "" 2
 692              		.loc 1 141 5 is_stmt 1
 693              		.loc 1 141 51 is_stmt 0
 694              	# 141 "src/syscall_c.cpp" 1
 142              	    __asm__ volatile("mv a0, %0" : : "r" (0x68));
 695              		mv a1, a0
 696              	# 0 "" 2
 697              		.loc 1 142 5 is_stmt 1
 698              		.loc 1 142 49 is_stmt 0
 699              	#NO_APP
 700 027c 93078006 		li	a5,104
 701              	#APP
 702              	# 142 "src/syscall_c.cpp" 1
 143              	
 144:src/syscall_c.cpp ****     __asm__ volatile("ecall");
 703              		mv a0, a5
 704              	# 0 "" 2
 705              		.loc 1 144 5 is_stmt 1
 706              		.loc 1 144 30 is_stmt 0
 707              	# 144 "src/syscall_c.cpp" 1
 145              	
 146:src/syscall_c.cpp ****     int rez;
 708              		ecall
 709              	# 0 "" 2
 710              		.loc 1 146 5 is_stmt 1
 147:src/syscall_c.cpp ****     __asm__ volatile("mv %0, a0" : "=r" (rez));
 711              		.loc 1 147 5
 712              		.loc 1 147 47 is_stmt 0
 713              	# 147 "src/syscall_c.cpp" 1
 148              	    return rez;
 714              		mv a0, a0
 715              	# 0 "" 2
 716              	.LVL24:
 717              		.loc 1 148 5 is_stmt 1
 149:src/syscall_c.cpp **** }
 718              		.loc 1 149 1 is_stmt 0
 719              	#NO_APP
 720 028c 1B050500 		sext.w	a0,a0
 721 0290 03348100 		ld	s0,8(sp)
 722              		.cfi_restore 8
 723              		.cfi_def_cfa 2, 16
 724 0294 13010101 		addi	sp,sp,16
 725              		.cfi_def_cfa_offset 0
 726 0298 67800000 		jr	ra
 727              		.cfi_endproc
 728              	.LFE13:
 730              		.align	2
 731              		.globl	_Z13promenarezimav
 733              	_Z13promenarezimav:
 734              	.LFB14:
GAS LISTING /tmp/ccoNeLwn.s 			page 16


 150:src/syscall_c.cpp **** 
 151:src/syscall_c.cpp **** void promenarezima() {
 735              		.loc 1 151 22 is_stmt 1
 736              		.cfi_startproc
 737 029c 130101FF 		addi	sp,sp,-16
 738              		.cfi_def_cfa_offset 16
 739 02a0 23348100 		sd	s0,8(sp)
 740              		.cfi_offset 8, -8
 741 02a4 13040101 		addi	s0,sp,16
 742              		.cfi_def_cfa 8, 0
 152:src/syscall_c.cpp ****     __asm__ volatile("mv a0, %0" : : "r" (0x70));
 743              		.loc 1 152 5
 744              		.loc 1 152 49 is_stmt 0
 745 02a8 93070007 		li	a5,112
 746              	#APP
 747              	# 152 "src/syscall_c.cpp" 1
 153              	
 154:src/syscall_c.cpp ****     __asm__ volatile("ecall");
 748              		mv a0, a5
 749              	# 0 "" 2
 750              		.loc 1 154 5 is_stmt 1
 751              		.loc 1 154 30 is_stmt 0
 752              	# 154 "src/syscall_c.cpp" 1
 155              	}
 753              		ecall
 754              	# 0 "" 2
 755              		.loc 1 155 1
 756              	#NO_APP
 757 02b4 03348100 		ld	s0,8(sp)
 758              		.cfi_restore 8
 759              		.cfi_def_cfa 2, 16
 760 02b8 13010101 		addi	sp,sp,16
 761              		.cfi_def_cfa_offset 0
 762 02bc 67800000 		jr	ra
 763              		.cfi_endproc
 764              	.LFE14:
 766              	.Letext0:
 767              		.file 2 "src/../h/../lib/hw.h"
 768              		.file 3 "src/../h/syscall_c.h"
GAS LISTING /tmp/ccoNeLwn.s 			page 17

