GAS LISTING /tmp/ccPYkI9H.s 			page 1


   1              		.file	"testovi.cpp"
   2              		.option pic
   3              		.option norelax
   4              		.text
   5              	.Ltext0:
   6              		.align	2
   7              		.globl	_Z9userMain1Pv
   9              	_Z9userMain1Pv:
  10              	.LFB20:
  11              		.file 1 "src/testovi.cpp"
   1:src/testovi.cpp **** //
   2:src/testovi.cpp **** // Created by os on 8/11/22.
   3:src/testovi.cpp **** //
   4:src/testovi.cpp **** 
   5:src/testovi.cpp **** #include "../h/syscall_c.h"
   6:src/testovi.cpp **** #include "../h/memorija.h"
   7:src/testovi.cpp **** #include "../h/print.h"
   8:src/testovi.cpp **** #include "../h/scheduler.h"
   9:src/testovi.cpp **** #include "../h/thread.h"
  10:src/testovi.cpp **** #include "../h/semafor.h"
  11:src/testovi.cpp **** #include "../h/konzola.h"
  12:src/testovi.cpp **** #include "../lib/hw.h"
  13:src/testovi.cpp **** 
  14:src/testovi.cpp **** extern "C" void supervisorTrap();
  15:src/testovi.cpp **** extern "C++" void userMain();
  16:src/testovi.cpp **** 
  17:src/testovi.cpp **** bool flag=true;
  18:src/testovi.cpp **** 
  19:src/testovi.cpp **** void userMain1(void* a){
  12              		.loc 1 19 24
  13              		.cfi_startproc
  14              	.LVL0:
  15 0000 130101FF 		addi	sp,sp,-16
  16              		.cfi_def_cfa_offset 16
  17 0004 23341100 		sd	ra,8(sp)
  18 0008 23308100 		sd	s0,0(sp)
  19              		.cfi_offset 1, -8
  20              		.cfi_offset 8, -16
  21 000c 13040101 		addi	s0,sp,16
  22              		.cfi_def_cfa 8, 0
  20:src/testovi.cpp ****     userMain();
  23              		.loc 1 20 5
  24              		.loc 1 20 13 is_stmt 0
  25 0010 97000000 		call	_Z8userMainv@plt
  25      E7800000 
  26              	.LVL1:
  21:src/testovi.cpp ****     flag=false;
  27              		.loc 1 21 5 is_stmt 1
  28              		.loc 1 21 9 is_stmt 0
  29 0018 97070000 		sb	zero,.LANCHOR0,a5
  29      23800700 
  22:src/testovi.cpp **** }
  30              		.loc 1 22 1
  31 0020 83308100 		ld	ra,8(sp)
  32              		.cfi_restore 1
  33 0024 03340100 		ld	s0,0(sp)
  34              		.cfi_restore 8
GAS LISTING /tmp/ccPYkI9H.s 			page 2


  35              		.cfi_def_cfa 2, 16
  36 0028 13010101 		addi	sp,sp,16
  37              		.cfi_def_cfa_offset 0
  38 002c 67800000 		jr	ra
  39              		.cfi_endproc
  40              	.LFE20:
  42              		.align	2
  43              		.globl	_Z12konzolaispisPv
  45              	_Z12konzolaispisPv:
  46              	.LFB21:
  23:src/testovi.cpp **** 
  24:src/testovi.cpp **** void konzolaispis(void* a){
  47              		.loc 1 24 27 is_stmt 1
  48              		.cfi_startproc
  49              	.LVL2:
  50 0030 130101FF 		addi	sp,sp,-16
  51              		.cfi_def_cfa_offset 16
  52 0034 23341100 		sd	ra,8(sp)
  53 0038 23308100 		sd	s0,0(sp)
  54              		.cfi_offset 1, -8
  55              		.cfi_offset 8, -16
  56 003c 13040101 		addi	s0,sp,16
  57              		.cfi_def_cfa 8, 0
  25:src/testovi.cpp ****     promenarezima();
  58              		.loc 1 25 5
  59              		.loc 1 25 18 is_stmt 0
  60 0040 97000000 		call	_Z13promenarezimav@plt
  60      E7800000 
  61              	.LVL3:
  62 0048 6F00C001 		j	.L4
  63              	.L8:
  64              	.LBB2:
  65              	.LBB3:
  26:src/testovi.cpp ****     while(1){
  27:src/testovi.cpp ****         //Konzola::getcnbi()>0
  28:src/testovi.cpp **** 
  29:src/testovi.cpp ****         while(*((uint8*)CONSOLE_STATUS) & CONSOLE_TX_STATUS_BIT){
  30:src/testovi.cpp ****             char c = Konzola::getizlaz();
  66              		.loc 1 30 13 is_stmt 1
  67              		.loc 1 30 39 is_stmt 0
  68 004c 97000000 		call	_ZN7Konzola8getizlazEv@plt
  68      E7800000 
  69              	.LVL4:
  31:src/testovi.cpp ****             *(char*)CONSOLE_TX_DATA = c;
  70              		.loc 1 31 13 is_stmt 1
  71 0054 97070000 		la	a5,CONSOLE_TX_DATA
  71      83B70700 
  72 005c 83B70700 		ld	a5,0(a5)
  73              		.loc 1 31 37 is_stmt 0
  74 0060 2380A700 		sb	a0,0(a5)
  75              	.LVL5:
  76              	.L4:
  77              	.LBE3:
  78              	.LBE2:
  26:src/testovi.cpp ****     while(1){
  79              		.loc 1 26 5 is_stmt 1
  80              	.LBB4:
GAS LISTING /tmp/ccPYkI9H.s 			page 3


  29:src/testovi.cpp ****             char c = Konzola::getizlaz();
  81              		.loc 1 29 9
  29:src/testovi.cpp ****             char c = Konzola::getizlaz();
  82              		.loc 1 29 43
  29:src/testovi.cpp ****             char c = Konzola::getizlaz();
  83              		.loc 1 29 15 is_stmt 0
  84 0064 97070000 		la	a5,CONSOLE_STATUS
  84      83B70700 
  85 006c 83B70700 		ld	a5,0(a5)
  86 0070 83C70700 		lbu	a5,0(a5)
  29:src/testovi.cpp ****             char c = Konzola::getizlaz();
  87              		.loc 1 29 43
  88 0074 93F70702 		andi	a5,a5,32
  89 0078 E39A07FC 		bnez	a5,.L8
  32:src/testovi.cpp ****         }
  33:src/testovi.cpp ****         thread_dispatch();
  90              		.loc 1 33 9 is_stmt 1
  91              		.loc 1 33 24 is_stmt 0
  92 007c 97000000 		call	_Z15thread_dispatchv@plt
  92      E7800000 
  93              	.LVL6:
  94              	.LBE4:
  26:src/testovi.cpp ****         //Konzola::getcnbi()>0
  95              		.loc 1 26 5 is_stmt 1
  34:src/testovi.cpp **** 
  35:src/testovi.cpp ****     }
  96              		.loc 1 35 5 is_stmt 0
  97 0084 6FF01FFE 		j	.L4
  98              		.cfi_endproc
  99              	.LFE21:
 101              		.align	2
 102              		.globl	main
 104              	main:
 105              	.LFB22:
  36:src/testovi.cpp **** }
  37:src/testovi.cpp **** 
  38:src/testovi.cpp **** void main(){
 106              		.loc 1 38 12 is_stmt 1
 107              		.cfi_startproc
 108 0088 130101F7 		addi	sp,sp,-144
 109              		.cfi_def_cfa_offset 144
 110 008c 23341108 		sd	ra,136(sp)
 111 0090 23308108 		sd	s0,128(sp)
 112 0094 233C9106 		sd	s1,120(sp)
 113 0098 23382107 		sd	s2,112(sp)
 114 009c 23343107 		sd	s3,104(sp)
 115              		.cfi_offset 1, -8
 116              		.cfi_offset 8, -16
 117              		.cfi_offset 9, -24
 118              		.cfi_offset 18, -32
 119              		.cfi_offset 19, -40
 120 00a0 13040109 		addi	s0,sp,144
 121              		.cfi_def_cfa 8, 0
  39:src/testovi.cpp **** 
  40:src/testovi.cpp ****     __asm__ volatile("csrw stvec, %0" : : "r" (&supervisorTrap));
 122              		.loc 1 40 5
 123              		.loc 1 40 65 is_stmt 0
GAS LISTING /tmp/ccPYkI9H.s 			page 4


 124 00a4 97070000 		la	a5,supervisorTrap
 124      83B70700 
 125              	#APP
 126              	# 40 "src/testovi.cpp" 1
  41              	
  42:src/testovi.cpp ****     ///////////////////////////////////////////////////////////////////////////////////////////////
  43:src/testovi.cpp ****     uint64 volatile sstatus;
 127              		csrw stvec, a5
 128              	# 0 "" 2
 129              		.loc 1 43 5 is_stmt 1
  44:src/testovi.cpp ****     __asm__ volatile("csrr %0, sstatus" : "=r" (sstatus));
 130              		.loc 1 44 5
 131              		.loc 1 44 58 is_stmt 0
 132              	# 44 "src/testovi.cpp" 1
  45              	    sstatus|=2;
 133              		csrr a5, sstatus
 134              	# 0 "" 2
 135              	#NO_APP
 136 00b4 2334F4FC 		sd	a5,-56(s0)
 137              		.loc 1 45 5 is_stmt 1
 138              		.loc 1 45 12 is_stmt 0
 139 00b8 833784FC 		ld	a5,-56(s0)
 140 00bc 93E72700 		ori	a5,a5,2
 141 00c0 2334F4FC 		sd	a5,-56(s0)
  46:src/testovi.cpp ****     __asm__ volatile("csrw sstatus, %0"::"r" (sstatus));
 142              		.loc 1 46 5 is_stmt 1
 143              		.loc 1 46 47 is_stmt 0
 144 00c4 833784FC 		ld	a5,-56(s0)
 145              		.loc 1 46 56
 146              	#APP
 147              	# 46 "src/testovi.cpp" 1
  47              	    ///////////////////////////////////////////////////////////////////////////////////////////////
  48:src/testovi.cpp **** 
  49:src/testovi.cpp ****     Konzola::baferulaz=(Bafer*) Memorija::alokacija(Konzola::kapacitet*sizeof(Bafer));
 148              		csrw sstatus, a5
 149              	# 0 "" 2
 150              		.loc 1 49 5 is_stmt 1
 151              		.loc 1 49 62 is_stmt 0
 152              	#NO_APP
 153 00cc 17090000 		la	s2,_ZN7Konzola9kapacitetE
 153      03390900 
 154 00d4 83270900 		lw	a5,0(s2)
 155              		.loc 1 49 52
 156 00d8 13953700 		slli	a0,a5,3
 157 00dc 3305F540 		sub	a0,a0,a5
 158 00e0 13153500 		slli	a0,a0,3
 159 00e4 97000000 		call	_ZN8Memorija9alokacijaEm@plt
 159      E7800000 
 160              	.LVL7:
 161              		.loc 1 49 23
 162 00ec 97090000 		la	s3,_ZN7Konzola9baferulazE
 162      83B90900 
 163 00f4 23B0A900 		sd	a0,0(s3)
  50:src/testovi.cpp ****     *Konzola::baferulaz=Bafer(Konzola::kapacitet);
 164              		.loc 1 50 5 is_stmt 1
 165              		.loc 1 50 25 is_stmt 0
 166 00f8 83250900 		lw	a1,0(s2)
GAS LISTING /tmp/ccPYkI9H.s 			page 5


 167 00fc 930484F7 		addi	s1,s0,-136
 168 0100 13850400 		mv	a0,s1
 169 0104 97000000 		call	_ZN5BaferC1Ei@plt
 169      E7800000 
 170              	.LVL8:
 171              		.loc 1 50 24
 172 010c 83B70900 		ld	a5,0(s3)
 173 0110 033804F8 		ld	a6,-128(s0)
 174 0114 033584F8 		ld	a0,-120(s0)
 175 0118 833504F9 		ld	a1,-112(s0)
 176 011c 033684F9 		ld	a2,-104(s0)
 177 0120 833604FA 		ld	a3,-96(s0)
 178 0124 033784FA 		ld	a4,-88(s0)
 179 0128 833884F7 		ld	a7,-136(s0)
 180 012c 23B01701 		sd	a7,0(a5)
 181 0130 23B40701 		sd	a6,8(a5)
 182 0134 23B8A700 		sd	a0,16(a5)
 183 0138 23BCB700 		sd	a1,24(a5)
 184 013c 23B0C702 		sd	a2,32(a5)
 185 0140 23B4D702 		sd	a3,40(a5)
 186 0144 23B8E702 		sd	a4,48(a5)
 187              		.loc 1 50 25
 188 0148 13850400 		mv	a0,s1
 189 014c 97000000 		call	_ZN5BaferD1Ev@plt
 189      E7800000 
 190              	.LVL9:
  51:src/testovi.cpp **** 
  52:src/testovi.cpp ****     Konzola::baferizlaz=(Bafer*) Memorija::alokacija(Konzola::kapacitet*sizeof(Bafer));
 191              		.loc 1 52 5 is_stmt 1
 192              		.loc 1 52 63 is_stmt 0
 193 0154 83270900 		lw	a5,0(s2)
 194              		.loc 1 52 53
 195 0158 13953700 		slli	a0,a5,3
 196 015c 3305F540 		sub	a0,a0,a5
 197 0160 13153500 		slli	a0,a0,3
 198 0164 97000000 		call	_ZN8Memorija9alokacijaEm@plt
 198      E7800000 
 199              	.LVL10:
 200              		.loc 1 52 24
 201 016c 97090000 		la	s3,_ZN7Konzola10baferizlazE
 201      83B90900 
 202 0174 23B0A900 		sd	a0,0(s3)
  53:src/testovi.cpp ****     *Konzola::baferizlaz=Bafer(Konzola::kapacitet);
 203              		.loc 1 53 5 is_stmt 1
 204              		.loc 1 53 26 is_stmt 0
 205 0178 83250900 		lw	a1,0(s2)
 206 017c 13850400 		mv	a0,s1
 207 0180 97000000 		call	_ZN5BaferC1Ei@plt
 207      E7800000 
 208              	.LVL11:
 209              		.loc 1 53 25
 210 0188 83B70900 		ld	a5,0(s3)
 211 018c 033804F8 		ld	a6,-128(s0)
 212 0190 033584F8 		ld	a0,-120(s0)
 213 0194 833504F9 		ld	a1,-112(s0)
 214 0198 033684F9 		ld	a2,-104(s0)
 215 019c 833604FA 		ld	a3,-96(s0)
GAS LISTING /tmp/ccPYkI9H.s 			page 6


 216 01a0 033784FA 		ld	a4,-88(s0)
 217 01a4 833884F7 		ld	a7,-136(s0)
 218 01a8 23B01701 		sd	a7,0(a5)
 219 01ac 23B40701 		sd	a6,8(a5)
 220 01b0 23B8A700 		sd	a0,16(a5)
 221 01b4 23BCB700 		sd	a1,24(a5)
 222 01b8 23B0C702 		sd	a2,32(a5)
 223 01bc 23B4D702 		sd	a3,40(a5)
 224 01c0 23B8E702 		sd	a4,48(a5)
 225              		.loc 1 53 26
 226 01c4 13850400 		mv	a0,s1
 227 01c8 97000000 		call	_ZN5BaferD1Ev@plt
 227      E7800000 
 228              	.LVL12:
  54:src/testovi.cpp **** 
  55:src/testovi.cpp ****     Nit *t1;
 229              		.loc 1 55 5 is_stmt 1
  56:src/testovi.cpp ****     Nit *t2;
 230              		.loc 1 56 5
  57:src/testovi.cpp ****     Nit *t3;
 231              		.loc 1 57 5
  58:src/testovi.cpp ****     thread_create(&t1,nullptr,nullptr);
 232              		.loc 1 58 5
 233              		.loc 1 58 18 is_stmt 0
 234 01d0 13060000 		li	a2,0
 235 01d4 93050000 		li	a1,0
 236 01d8 130504FC 		addi	a0,s0,-64
 237 01dc 97000000 		call	_Z13thread_createPP3NitPFvPvES2_@plt
 237      E7800000 
 238              	.LVL13:
  59:src/testovi.cpp ****     thread_create(&t2,&userMain1,nullptr);
 239              		.loc 1 59 5 is_stmt 1
 240              		.loc 1 59 18 is_stmt 0
 241 01e4 13060000 		li	a2,0
 242 01e8 97050000 		lla	a1,_Z9userMain1Pv
 242      93850500 
 243 01f0 130584FB 		addi	a0,s0,-72
 244 01f4 97000000 		call	_Z13thread_createPP3NitPFvPvES2_@plt
 244      E7800000 
 245              	.LVL14:
  60:src/testovi.cpp ****     thread_create(&t3,&konzolaispis,nullptr);
 246              		.loc 1 60 5 is_stmt 1
 247              		.loc 1 60 18 is_stmt 0
 248 01fc 13060000 		li	a2,0
 249 0200 97050000 		lla	a1,_Z12konzolaispisPv
 249      93850500 
 250 0208 130504FB 		addi	a0,s0,-80
 251 020c 97000000 		call	_Z13thread_createPP3NitPFvPvES2_@plt
 251      E7800000 
 252              	.LVL15:
 253              	.L11:
  61:src/testovi.cpp **** 
  62:src/testovi.cpp ****     //userMain();
  63:src/testovi.cpp ****     while(flag){
 254              		.loc 1 63 5 is_stmt 1
 255              		.loc 1 63 5
 256 0214 97070000 		lbu	a5,.LANCHOR0
GAS LISTING /tmp/ccPYkI9H.s 			page 7


 256      83C70700 
 257 021c 63880700 		beqz	a5,.L10
  64:src/testovi.cpp ****         thread_dispatch();
 258              		.loc 1 64 9
 259              		.loc 1 64 24 is_stmt 0
 260 0220 97000000 		call	_Z15thread_dispatchv@plt
 260      E7800000 
 261              	.LVL16:
 262 0228 6FF0DFFE 		j	.L11
 263              	.L10:
  65:src/testovi.cpp ****     }
  66:src/testovi.cpp **** 
  67:src/testovi.cpp ****     sstatus=0;
 264              		.loc 1 67 5 is_stmt 1
 265              		.loc 1 67 12 is_stmt 0
 266 022c 233404FC 		sd	zero,-56(s0)
  68:src/testovi.cpp ****     __asm__ volatile("csrw sstatus, %0"::"r" (sstatus));
 267              		.loc 1 68 5 is_stmt 1
 268              		.loc 1 68 47 is_stmt 0
 269 0230 833784FC 		ld	a5,-56(s0)
 270              		.loc 1 68 56
 271              	#APP
 272              	# 68 "src/testovi.cpp" 1
  69              	}
 273              		csrw sstatus, a5
 274              	# 0 "" 2
 275              		.loc 1 69 1
 276              	#NO_APP
 277 0238 83308108 		ld	ra,136(sp)
 278              		.cfi_restore 1
 279 023c 03340108 		ld	s0,128(sp)
 280              		.cfi_restore 8
 281              		.cfi_def_cfa 2, 144
 282 0240 83348107 		ld	s1,120(sp)
 283              		.cfi_restore 9
 284 0244 03390107 		ld	s2,112(sp)
 285              		.cfi_restore 18
 286 0248 83398106 		ld	s3,104(sp)
 287              		.cfi_restore 19
 288 024c 13010109 		addi	sp,sp,144
 289              		.cfi_def_cfa_offset 0
 290 0250 67800000 		jr	ra
 291              		.cfi_endproc
 292              	.LFE22:
 294              		.globl	flag
 295              		.data
 296              		.set	.LANCHOR0,. + 0
 299              	flag:
 300 0000 01       		.byte	1
 301              		.text
 302              	.Letext0:
 303              		.file 2 "src/../h/../lib/hw.h"
 304              		.file 3 "src/../h/../h/thread.h"
 305              		.file 4 "src/../h/semafor.h"
 306              		.file 5 "src/../h/memorija.h"
 307              		.file 6 "src/../h/Bafer.h"
 308              		.file 7 "src/../h/konzola.h"
GAS LISTING /tmp/ccPYkI9H.s 			page 8


 309              		.file 8 "src/../h/syscall_c.h"
 310              		.file 9 "<built-in>"
GAS LISTING /tmp/ccPYkI9H.s 			page 9

