GAS LISTING /tmp/ccuHi8AZ.s 			page 1


   1              		.file	"thread.cpp"
   2              		.option pic
   3              		.option norelax
   4              		.text
   5              	.Ltext0:
   6              		.section	.rodata.str1.8,"aMS",@progbits,1
   7              		.align	3
   8              	.LC0:
   9 0000 49443A20 		.string	"ID: "
   9      00
  10              		.text
  11              		.align	2
  12              		.globl	_ZN3Nit6stampaEv
  14              	_ZN3Nit6stampaEv:
  15              	.LFB13:
  16              		.file 1 "src/thread.cpp"
   1:src/thread.cpp **** //
   2:src/thread.cpp **** // Created by os on 8/12/22.
   3:src/thread.cpp **** //
   4:src/thread.cpp **** 
   5:src/thread.cpp **** #include "../h/thread.h"
   6:src/thread.cpp **** #include "../h/syscall_c.h"
   7:src/thread.cpp **** #include "../h/scheduler.h"
   8:src/thread.cpp **** 
   9:src/thread.cpp **** int Nit::IDD=0;
  10:src/thread.cpp **** int Nit::tajmer=0;
  11:src/thread.cpp **** 
  12:src/thread.cpp **** Nit* Nit::running=nullptr;
  13:src/thread.cpp **** 
  14:src/thread.cpp **** extern "C" void push();
  15:src/thread.cpp **** 
  16:src/thread.cpp **** extern "C" void pop();
  17:src/thread.cpp **** 
  18:src/thread.cpp **** extern "C" void contextSwitch(Nit::struktura*, Nit::struktura*);
  19:src/thread.cpp **** 
  20:src/thread.cpp **** void Nit::stampa() {
  17              		.loc 1 20 20
  18              		.cfi_startproc
  19              	.LVL0:
  20 0000 130101FE 		addi	sp,sp,-32
  21              		.cfi_def_cfa_offset 32
  22 0004 233C1100 		sd	ra,24(sp)
  23 0008 23388100 		sd	s0,16(sp)
  24 000c 23349100 		sd	s1,8(sp)
  25              		.cfi_offset 1, -8
  26              		.cfi_offset 8, -16
  27              		.cfi_offset 9, -24
  28 0010 13040102 		addi	s0,sp,32
  29              		.cfi_def_cfa 8, 0
  30 0014 93040500 		mv	s1,a0
  21:src/thread.cpp ****     print("ID: ");
  31              		.loc 1 21 5
  32              		.loc 1 21 10 is_stmt 0
  33 0018 17050000 		lla	a0,.LC0
  33      13050500 
  34              	.LVL1:
  35 0020 97000000 		call	_Z5printPKc@plt
GAS LISTING /tmp/ccuHi8AZ.s 			page 2


  35      E7800000 
  36              	.LVL2:
  22:src/thread.cpp ****     print(ID);
  37              		.loc 1 22 5 is_stmt 1
  38              		.loc 1 22 10 is_stmt 0
  39 0028 03A54400 		lw	a0,4(s1)
  40 002c 97000000 		call	_Z5printi@plt
  40      E7800000 
  41              	.LVL3:
  23:src/thread.cpp **** }
  42              		.loc 1 23 1
  43 0034 83308101 		ld	ra,24(sp)
  44              		.cfi_restore 1
  45 0038 03340101 		ld	s0,16(sp)
  46              		.cfi_restore 8
  47              		.cfi_def_cfa 2, 32
  48 003c 83348100 		ld	s1,8(sp)
  49              		.cfi_restore 9
  50              	.LVL4:
  51 0040 13010102 		addi	sp,sp,32
  52              		.cfi_def_cfa_offset 0
  53 0044 67800000 		jr	ra
  54              		.cfi_endproc
  55              	.LFE13:
  57              		.align	2
  58              		.globl	_ZN3Nit11konstruktorEPFvPvES0_i
  60              	_ZN3Nit11konstruktorEPFvPvES0_i:
  61              	.LFB14:
  24:src/thread.cpp **** 
  25:src/thread.cpp **** Nit* Nit::konstruktor(body funkcija, void *arg,int a) {
  62              		.loc 1 25 55 is_stmt 1
  63              		.cfi_startproc
  64              		.cfi_personality 0x9b,DW.ref.__gxx_personality_v0
  65              		.cfi_lsda 0x1b,.LLSDA14
  66              	.LVL5:
  67 0048 130101FD 		addi	sp,sp,-48
  68              		.cfi_def_cfa_offset 48
  69 004c 23341102 		sd	ra,40(sp)
  70 0050 23308102 		sd	s0,32(sp)
  71 0054 233C9100 		sd	s1,24(sp)
  72 0058 23382101 		sd	s2,16(sp)
  73 005c 23343101 		sd	s3,8(sp)
  74 0060 23304101 		sd	s4,0(sp)
  75              		.cfi_offset 1, -8
  76              		.cfi_offset 8, -16
  77              		.cfi_offset 9, -24
  78              		.cfi_offset 18, -32
  79              		.cfi_offset 19, -40
  80              		.cfi_offset 20, -48
  81 0064 13040103 		addi	s0,sp,48
  82              		.cfi_def_cfa 8, 0
  83 0068 13090500 		mv	s2,a0
  84 006c 93890500 		mv	s3,a1
  85 0070 130A0600 		mv	s4,a2
  26:src/thread.cpp ****     Nit* t = new Nit(funkcija, arg);
  86              		.loc 1 26 5
  87              	.LVL6:
GAS LISTING /tmp/ccuHi8AZ.s 			page 3


  88              	.LBB13:
  89              	.LBB14:
  90              		.file 2 "src/../h/thread.h"
   1:src/../h/thread.h **** //
   2:src/../h/thread.h **** // Created by os on 8/12/22.
   3:src/../h/thread.h **** //
   4:src/../h/thread.h **** 
   5:src/../h/thread.h **** #ifndef PROJECT_BASE_V1_1_THREAD_H
   6:src/../h/thread.h **** #define PROJECT_BASE_V1_1_THREAD_H
   7:src/../h/thread.h **** 
   8:src/../h/thread.h **** #include "../lib/console.h"
   9:src/../h/thread.h **** #include "../lib/hw.h"
  10:src/../h/thread.h **** #include "../h/memorija.h"
  11:src/../h/thread.h **** #include "../h/print.h"
  12:src/../h/thread.h **** 
  13:src/../h/thread.h **** class Nit {
  14:src/../h/thread.h **** public:
  15:src/../h/thread.h ****     int prekid=0;
  16:src/../h/thread.h **** 
  17:src/../h/thread.h ****     static int tajmer;
  18:src/../h/thread.h **** 
  19:src/../h/thread.h ****     int getvreme(){return vreme;}
  20:src/../h/thread.h **** 
  21:src/../h/thread.h ****     static int IDD;
  22:src/../h/thread.h ****     int ID=IDD++;
  23:src/../h/thread.h ****     void stampa();
  24:src/../h/thread.h **** 
  25:src/../h/thread.h ****     using body = void(*)(void*);
  26:src/../h/thread.h **** 
  27:src/../h/thread.h ****     static Nit* konstruktor(body,void*,int);
  28:src/../h/thread.h **** 
  29:src/../h/thread.h ****     static void dispatch();
  30:src/../h/thread.h **** 
  31:src/../h/thread.h ****     static void yeild();
  32:src/../h/thread.h **** 
  33:src/../h/thread.h ****     bool finished;
  34:src/../h/thread.h **** 
  35:src/../h/thread.h ****     static Nit* running;
  36:src/../h/thread.h **** 
  37:src/../h/thread.h ****     struct struktura{
  38:src/../h/thread.h ****         uint64 pc;
  39:src/../h/thread.h ****         uint64 sp;
  40:src/../h/thread.h ****     };
  41:src/../h/thread.h **** 
  42:src/../h/thread.h ****     Nit(){}
  43:src/../h/thread.h **** 
  44:src/../h/thread.h ****     static void *operator new(uint64 n){
  45:src/../h/thread.h ****         return Memorija::alokacija(n);
  91              		.loc 2 45 9
  92              		.loc 2 45 35 is_stmt 0
  93 0074 13058004 		li	a0,72
  94              	.LVL7:
  95              	.LEHB0:
  96 0078 97000000 		call	_ZN8Memorija9alokacijaEm@plt
  96      E7800000 
  97              	.LVL8:
  98              	.LEHE0:
GAS LISTING /tmp/ccuHi8AZ.s 			page 4


  99 0080 93040500 		mv	s1,a0
 100              	.LVL9:
 101              	.LBE14:
 102              	.LBE13:
 103              	.LBB15:
 104              	.LBB16:
  46:src/../h/thread.h ****     }
  47:src/../h/thread.h **** 
  48:src/../h/thread.h ****     static void *operator new[](uint64 n){
  49:src/../h/thread.h ****         return Memorija::alokacija(n);
  50:src/../h/thread.h ****     }
  51:src/../h/thread.h **** 
  52:src/../h/thread.h ****     static void operator delete(void* p){
  53:src/../h/thread.h ****         Memorija::oslobadjanje(p);
  54:src/../h/thread.h ****     }
  55:src/../h/thread.h **** 
  56:src/../h/thread.h ****     static void operator delete[](void* p){
  57:src/../h/thread.h ****         Memorija::oslobadjanje(p);
  58:src/../h/thread.h ****     }
  59:src/../h/thread.h **** 
  60:src/../h/thread.h ****     void* arg;
  61:src/../h/thread.h ****     bool flagunisti=false;
  62:src/../h/thread.h **** 
  63:src/../h/thread.h **** private:
  64:src/../h/thread.h **** 
  65:src/../h/thread.h ****     Nit(body funkcija1, void* arg){
 105              		.loc 2 65 35
 106 0084 23200500 		sw	zero,0(a0)
 107 0088 17070000 		lla	a4,.LANCHOR0
 107      13070700 
 108 0090 83270700 		lw	a5,0(a4)
 109 0094 9B861700 		addiw	a3,a5,1
 110 0098 2320D700 		sw	a3,0(a4)
 111 009c 2322F500 		sw	a5,4(a0)
 112 00a0 230C0500 		sb	zero,24(a0)
  66:src/../h/thread.h ****         funkcija=funkcija1;
 113              		.loc 2 66 9 is_stmt 1
 114              		.loc 2 66 17 is_stmt 0
 115 00a4 23382503 		sd	s2,48(a0)
  67:src/../h/thread.h ****         finished=false;
 116              		.loc 2 67 9 is_stmt 1
 117              		.loc 2 67 17 is_stmt 0
 118 00a8 23040500 		sb	zero,8(a0)
  68:src/../h/thread.h ****         this->arg=arg;
 119              		.loc 2 68 9 is_stmt 1
 120              		.loc 2 68 18 is_stmt 0
 121 00ac 23383501 		sd	s3,16(a0)
  69:src/../h/thread.h ****         struktura1.pc=(uint64)&omotac;
 122              		.loc 2 69 9 is_stmt 1
 123              		.loc 2 69 22 is_stmt 0
 124 00b0 97070000 		lla	a5,_ZN3Nit6omotacEv
 124      93870700 
 125 00b8 2330F502 		sd	a5,32(a0)
  70:src/../h/thread.h ****         //if(funkcija1!=nullptr) stek = new uint64[DEFAULT_STACK_SIZE];
  71:src/../h/thread.h ****         if(funkcija1!=nullptr) stek = (uint64*)Memorija::alokacija(DEFAULT_STACK_SIZE* sizeof(uint6
 126              		.loc 2 71 9 is_stmt 1
 127 00bc 630A0900 		beqz	s2,.L4
GAS LISTING /tmp/ccuHi8AZ.s 			page 5


 128              		.loc 2 71 32
 129              		.loc 2 71 67 is_stmt 0
 130 00c0 37850000 		li	a0,32768
 131              	.LEHB1:
 132 00c4 97000000 		call	_ZN8Memorija9alokacijaEm@plt
 132      E7800000 
 133              	.LVL10:
 134              	.LEHE1:
 135              		.loc 2 71 37
 136 00cc 23BCA402 		sd	a0,56(s1)
 137              	.L4:
  72:src/../h/thread.h ****         if(funkcija1!=nullptr) struktura1.sp=(uint64)&stek[DEFAULT_STACK_SIZE];
 138              		.loc 2 72 9 is_stmt 1
 139 00d0 630A0900 		beqz	s2,.L5
 140              		.loc 2 72 32
 141              		.loc 2 72 55 is_stmt 0
 142 00d4 83B78403 		ld	a5,56(s1)
 143              		.loc 2 72 54
 144 00d8 37870000 		li	a4,32768
 145 00dc B387E700 		add	a5,a5,a4
 146              		.loc 2 72 45
 147 00e0 23B4F402 		sd	a5,40(s1)
 148              	.L5:
  73:src/../h/thread.h ****         if(funkcija1!=nullptr) vreme = DEFAULT_TIME_SLICE;
 149              		.loc 2 73 9 is_stmt 1
 150 00e4 63060900 		beqz	s2,.L6
 151              		.loc 2 73 32
 152              		.loc 2 73 38 is_stmt 0
 153 00e8 93072000 		li	a5,2
 154 00ec 23B0F404 		sd	a5,64(s1)
 155              	.L6:
 156              	.LVL11:
 157              	.LBE16:
 158              	.LBE15:
  27:src/thread.cpp ****     if(Nit::running==nullptr) {Nit::running=t; return t;}
 159              		.loc 1 27 5 is_stmt 1
 160              		.loc 1 27 20 is_stmt 0
 161 00f0 97070000 		ld	a5,.LANCHOR0+8
 161      83B70700 
 162              		.loc 1 27 5
 163 00f8 63860702 		beqz	a5,.L12
  28:src/thread.cpp ****     if(a) Scheduler::put(t);
 164              		.loc 1 28 5 is_stmt 1
 165 00fc 631A0A02 		bnez	s4,.L13
 166              	.L3:
  29:src/thread.cpp ****     return t;
  30:src/thread.cpp **** }
 167              		.loc 1 30 1 is_stmt 0
 168 0100 13850400 		mv	a0,s1
 169 0104 83308102 		ld	ra,40(sp)
 170              		.cfi_remember_state
 171              		.cfi_restore 1
 172 0108 03340102 		ld	s0,32(sp)
 173              		.cfi_restore 8
 174              		.cfi_def_cfa 2, 48
 175 010c 83348101 		ld	s1,24(sp)
 176              		.cfi_restore 9
GAS LISTING /tmp/ccuHi8AZ.s 			page 6


 177              	.LVL12:
 178 0110 03390101 		ld	s2,16(sp)
 179              		.cfi_restore 18
 180              	.LVL13:
 181 0114 83398100 		ld	s3,8(sp)
 182              		.cfi_restore 19
 183              	.LVL14:
 184 0118 033A0100 		ld	s4,0(sp)
 185              		.cfi_restore 20
 186 011c 13010103 		addi	sp,sp,48
 187              		.cfi_def_cfa_offset 0
 188 0120 67800000 		jr	ra
 189              	.LVL15:
 190              	.L12:
 191              		.cfi_restore_state
  27:src/thread.cpp ****     if(a) Scheduler::put(t);
 192              		.loc 1 27 32 is_stmt 1 discriminator 1
  27:src/thread.cpp ****     if(a) Scheduler::put(t);
 193              		.loc 1 27 44 is_stmt 0 discriminator 1
 194 0124 97070000 		sd	s1,.LANCHOR0+8,a5
 194      23B09700 
  27:src/thread.cpp ****     if(a) Scheduler::put(t);
 195              		.loc 1 27 48 is_stmt 1 discriminator 1
  27:src/thread.cpp ****     if(a) Scheduler::put(t);
 196              		.loc 1 27 55 is_stmt 0 discriminator 1
 197 012c 6FF05FFD 		j	.L3
 198              	.L13:
  28:src/thread.cpp ****     if(a) Scheduler::put(t);
 199              		.loc 1 28 11 is_stmt 1 discriminator 1
  28:src/thread.cpp ****     if(a) Scheduler::put(t);
 200              		.loc 1 28 25 is_stmt 0 discriminator 1
 201 0130 13850400 		mv	a0,s1
 202              	.LEHB2:
 203 0134 97000000 		call	_ZN9Scheduler3putEP3Nit@plt
 203      E7800000 
 204              	.LVL16:
 205              	.LEHE2:
 206 013c 6FF05FFC 		j	.L3
 207              	.LVL17:
 208              	.L10:
 209 0140 13090500 		mv	s2,a0
 210              	.LVL18:
 211              	.LBB17:
 212              	.LBB18:
  53:src/../h/thread.h ****     }
 213              		.loc 2 53 9 is_stmt 1
  53:src/../h/thread.h ****     }
 214              		.loc 2 53 31 is_stmt 0
 215 0144 13850400 		mv	a0,s1
 216 0148 97000000 		call	_ZN8Memorija12oslobadjanjeEPv@plt
 216      E7800000 
 217              	.LVL19:
 218 0150 13050900 		mv	a0,s2
 219              	.LEHB3:
 220 0154 97000000 		call	_Unwind_Resume@plt
 220      E7800000 
 221              	.LVL20:
GAS LISTING /tmp/ccuHi8AZ.s 			page 7


 222              	.LEHE3:
 223              	.LBE18:
 224              	.LBE17:
 225              		.cfi_endproc
 226              	.LFE14:
 227              		.globl	__gxx_personality_v0
 228              		.section	.gcc_except_table,"a",@progbits
 229              	.LLSDA14:
 230 0000 FF       		.byte	0xff
 231 0001 FF       		.byte	0xff
 232 0002 03       		.byte	0x3
 233 0003 34       		.byte	0x34
 234 0004 00000000 		.4byte	.LEHB0-.LFB14
 235 0008 00000000 		.4byte	.LEHE0-.LEHB0
 236 000c 00000000 		.4byte	0
 237 0010 00       		.byte	0
 238 0011 00000000 		.4byte	.LEHB1-.LFB14
 239 0015 00000000 		.4byte	.LEHE1-.LEHB1
 240 0019 00000000 		.4byte	.L10-.LFB14
 241 001d 00       		.byte	0
 242 001e 00000000 		.4byte	.LEHB2-.LFB14
 243 0022 00000000 		.4byte	.LEHE2-.LEHB2
 244 0026 00000000 		.4byte	0
 245 002a 00       		.byte	0
 246 002b 00000000 		.4byte	.LEHB3-.LFB14
 247 002f 00000000 		.4byte	.LEHE3-.LEHB3
 248 0033 00000000 		.4byte	0
 249 0037 00       		.byte	0
 250              		.text
 252              		.align	2
 253              		.globl	_ZN3Nit5yeildEv
 255              	_ZN3Nit5yeildEv:
 256              	.LFB15:
  31:src/thread.cpp **** 
  32:src/thread.cpp **** void Nit::yeild() {
 257              		.loc 1 32 19 is_stmt 1
 258              		.cfi_startproc
 259 015c 130101FF 		addi	sp,sp,-16
 260              		.cfi_def_cfa_offset 16
 261 0160 23341100 		sd	ra,8(sp)
 262 0164 23308100 		sd	s0,0(sp)
 263              		.cfi_offset 1, -8
 264              		.cfi_offset 8, -16
 265 0168 13040101 		addi	s0,sp,16
 266              		.cfi_def_cfa 8, 0
  33:src/thread.cpp ****     //push();
  34:src/thread.cpp ****     //dispatch();
  35:src/thread.cpp ****     //pop();
  36:src/thread.cpp **** 
  37:src/thread.cpp ****     thread_dispatch();
 267              		.loc 1 37 5
 268              		.loc 1 37 20 is_stmt 0
 269 016c 97000000 		call	_Z15thread_dispatchv@plt
 269      E7800000 
 270              	.LVL21:
  38:src/thread.cpp **** }
 271              		.loc 1 38 1
GAS LISTING /tmp/ccuHi8AZ.s 			page 8


 272 0174 83308100 		ld	ra,8(sp)
 273              		.cfi_restore 1
 274 0178 03340100 		ld	s0,0(sp)
 275              		.cfi_restore 8
 276              		.cfi_def_cfa 2, 16
 277 017c 13010101 		addi	sp,sp,16
 278              		.cfi_def_cfa_offset 0
 279 0180 67800000 		jr	ra
 280              		.cfi_endproc
 281              	.LFE15:
 283              		.section	.rodata.str1.8
 284 0005 000000   		.align	3
 285              	.LC1:
 286 0008 6B72696E 		.string	"krindz\n"
 286      647A0A00 
 287              		.text
 288              		.align	2
 289              		.globl	_ZN3Nit8dispatchEv
 291              	_ZN3Nit8dispatchEv:
 292              	.LFB16:
  39:src/thread.cpp **** 
  40:src/thread.cpp **** void Nit::dispatch() {
 293              		.loc 1 40 22 is_stmt 1
 294              		.cfi_startproc
 295 0184 130101FE 		addi	sp,sp,-32
 296              		.cfi_def_cfa_offset 32
 297 0188 233C1100 		sd	ra,24(sp)
 298 018c 23388100 		sd	s0,16(sp)
 299 0190 23349100 		sd	s1,8(sp)
 300              		.cfi_offset 1, -8
 301              		.cfi_offset 8, -16
 302              		.cfi_offset 9, -24
 303 0194 13040102 		addi	s0,sp,32
 304              		.cfi_def_cfa 8, 0
  41:src/thread.cpp **** 
  42:src/thread.cpp ****     if(running==nullptr) {
 305              		.loc 1 42 5
 306              		.loc 1 42 15 is_stmt 0
 307 0198 97040000 		ld	s1,.LANCHOR0+8
 307      83B40400 
 308              		.loc 1 42 5
 309 01a0 63800404 		beqz	s1,.L21
  43:src/thread.cpp ****         print("krindz\n");
  44:src/thread.cpp ****         return;
  45:src/thread.cpp ****     }
  46:src/thread.cpp ****     //if(!Scheduler::gethead()) return;
  47:src/thread.cpp **** 
  48:src/thread.cpp ****     Nit* old = Nit::running;
 310              		.loc 1 48 5 is_stmt 1
 311              	.LVL22:
  49:src/thread.cpp ****     if(!old->finished) Scheduler::put(old);
 312              		.loc 1 49 5
 313              		.loc 1 49 14 is_stmt 0
 314 01a4 83C78400 		lbu	a5,8(s1)
 315              		.loc 1 49 5
 316 01a8 63860704 		beqz	a5,.L22
 317              	.L19:
GAS LISTING /tmp/ccuHi8AZ.s 			page 9


  50:src/thread.cpp ****     running = Scheduler::get();
 318              		.loc 1 50 5 is_stmt 1
 319              		.loc 1 50 29 is_stmt 0
 320 01ac 97000000 		call	_ZN9Scheduler3getEv@plt
 320      E7800000 
 321              	.LVL23:
 322              		.loc 1 50 13
 323 01b4 97070000 		sd	a0,.LANCHOR0+8,a5
 323      23B0A700 
  51:src/thread.cpp **** 
  52:src/thread.cpp **** 
  53:src/thread.cpp ****     //if(old->flagunisti){
  54:src/thread.cpp ****     //    Memorija::oslobadjanje(old);
  55:src/thread.cpp ****     //}
  56:src/thread.cpp ****     //Scheduler::Print();
  57:src/thread.cpp ****     //print("b\n");
  58:src/thread.cpp ****     //if(running==old) dispatch();
  59:src/thread.cpp **** 
  60:src/thread.cpp ****     contextSwitch(&old->struktura1,&running->struktura1);
 324              		.loc 1 60 5 is_stmt 1
 325              		.loc 1 60 18 is_stmt 0
 326 01bc 93050502 		addi	a1,a0,32
 327 01c0 13850402 		addi	a0,s1,32
 328 01c4 97000000 		call	contextSwitch@plt
 328      E7800000 
 329              	.LVL24:
 330              	.L16:
  61:src/thread.cpp **** 
  62:src/thread.cpp **** }
 331              		.loc 1 62 1
 332 01cc 83308101 		ld	ra,24(sp)
 333              		.cfi_remember_state
 334              		.cfi_restore 1
 335 01d0 03340101 		ld	s0,16(sp)
 336              		.cfi_restore 8
 337              		.cfi_def_cfa 2, 32
 338 01d4 83348100 		ld	s1,8(sp)
 339              		.cfi_restore 9
 340 01d8 13010102 		addi	sp,sp,32
 341              		.cfi_def_cfa_offset 0
 342 01dc 67800000 		jr	ra
 343              	.L21:
 344              		.cfi_restore_state
  43:src/thread.cpp ****         return;
 345              		.loc 1 43 9 is_stmt 1
  43:src/thread.cpp ****         return;
 346              		.loc 1 43 14 is_stmt 0
 347 01e0 17050000 		lla	a0,.LC1
 347      13050500 
 348 01e8 97000000 		call	_Z5printPKc@plt
 348      E7800000 
 349              	.LVL25:
  44:src/thread.cpp ****     }
 350              		.loc 1 44 9 is_stmt 1
 351 01f0 6FF0DFFD 		j	.L16
 352              	.LVL26:
 353              	.L22:
GAS LISTING /tmp/ccuHi8AZ.s 			page 10


  49:src/thread.cpp ****     running = Scheduler::get();
 354              		.loc 1 49 24 discriminator 1
  49:src/thread.cpp ****     running = Scheduler::get();
 355              		.loc 1 49 38 is_stmt 0 discriminator 1
 356 01f4 13850400 		mv	a0,s1
 357 01f8 97000000 		call	_ZN9Scheduler3putEP3Nit@plt
 357      E7800000 
 358              	.LVL27:
 359 0200 6FF0DFFA 		j	.L19
 360              		.cfi_endproc
 361              	.LFE16:
 363              		.align	2
 364              		.globl	_ZN3Nit5pomocEv
 366              	_ZN3Nit5pomocEv:
 367              	.LFB17:
  63:src/thread.cpp **** 
  64:src/thread.cpp **** void Nit::pomoc() {
 368              		.loc 1 64 19 is_stmt 1
 369              		.cfi_startproc
 370 0204 130101FE 		addi	sp,sp,-32
 371              		.cfi_def_cfa_offset 32
 372 0208 233C8100 		sd	s0,24(sp)
 373              		.cfi_offset 8, -8
 374 020c 13040102 		addi	s0,sp,32
 375              		.cfi_def_cfa 8, 0
  65:src/thread.cpp ****     uint64 volatile sstatus;
 376              		.loc 1 65 5
  66:src/thread.cpp ****     __asm__ volatile("csrr %0, sstatus" : "=r" (sstatus));
 377              		.loc 1 66 5
 378              		.loc 1 66 58 is_stmt 0
 379              	#APP
 380              	# 66 "src/thread.cpp" 1
  67              	    sstatus&=~256;
 381              		csrr a5, sstatus
 382              	# 0 "" 2
 383              	#NO_APP
 384 0214 2334F4FE 		sd	a5,-24(s0)
 385              		.loc 1 67 5 is_stmt 1
 386              		.loc 1 67 12 is_stmt 0
 387 0218 833784FE 		ld	a5,-24(s0)
 388 021c 93F7F7EF 		andi	a5,a5,-257
 389 0220 2334F4FE 		sd	a5,-24(s0)
  68:src/thread.cpp ****     __asm__ volatile("csrw sstatus, %0"::"r" (sstatus));
 390              		.loc 1 68 5 is_stmt 1
 391              		.loc 1 68 47 is_stmt 0
 392 0224 833784FE 		ld	a5,-24(s0)
 393              		.loc 1 68 56
 394              	#APP
 395              	# 68 "src/thread.cpp" 1
  69              	
  70:src/thread.cpp ****     __asm__ volatile("csrw sepc, ra");
 396              		csrw sstatus, a5
 397              	# 0 "" 2
 398              		.loc 1 70 5 is_stmt 1
 399              		.loc 1 70 38 is_stmt 0
 400              	# 70 "src/thread.cpp" 1
  71              	    __asm__ volatile("sret");
GAS LISTING /tmp/ccuHi8AZ.s 			page 11


 401              		csrw sepc, ra
 402              	# 0 "" 2
 403              		.loc 1 71 5 is_stmt 1
 404              		.loc 1 71 29 is_stmt 0
 405              	# 71 "src/thread.cpp" 1
  72              	}
 406              		sret
 407              	# 0 "" 2
 408              		.loc 1 72 1
 409              	#NO_APP
 410 0234 03348101 		ld	s0,24(sp)
 411              		.cfi_restore 8
 412              		.cfi_def_cfa 2, 32
 413 0238 13010102 		addi	sp,sp,32
 414              		.cfi_def_cfa_offset 0
 415 023c 67800000 		jr	ra
 416              		.cfi_endproc
 417              	.LFE17:
 419              		.align	2
 420              		.globl	_ZN3Nit6omotacEv
 422              	_ZN3Nit6omotacEv:
 423              	.LFB18:
  73:src/thread.cpp **** 
  74:src/thread.cpp **** void Nit::omotac() {
 424              		.loc 1 74 20 is_stmt 1
 425              		.cfi_startproc
 426 0240 130101FE 		addi	sp,sp,-32
 427              		.cfi_def_cfa_offset 32
 428 0244 233C1100 		sd	ra,24(sp)
 429 0248 23388100 		sd	s0,16(sp)
 430 024c 23349100 		sd	s1,8(sp)
 431              		.cfi_offset 1, -8
 432              		.cfi_offset 8, -16
 433              		.cfi_offset 9, -24
 434 0250 13040102 		addi	s0,sp,32
 435              		.cfi_def_cfa 8, 0
  75:src/thread.cpp ****     Nit::pomoc();
 436              		.loc 1 75 5
 437              		.loc 1 75 15 is_stmt 0
 438 0254 97000000 		call	_ZN3Nit5pomocEv
 438      E7800000 
 439              	.LVL28:
  76:src/thread.cpp ****     running->funkcija(Nit::running->arg);
 440              		.loc 1 76 5 is_stmt 1
 441              		.loc 1 76 14 is_stmt 0
 442 025c 97040000 		lla	s1,.LANCHOR0
 442      93840400 
 443 0264 83B78400 		ld	a5,8(s1)
 444 0268 03B70703 		ld	a4,48(a5)
 445              		.loc 1 76 22
 446 026c 03B50701 		ld	a0,16(a5)
 447 0270 E7000700 		jalr	a4
 448              	.LVL29:
  77:src/thread.cpp ****     running->finished=true;
 449              		.loc 1 77 5 is_stmt 1
 450              		.loc 1 77 14 is_stmt 0
 451 0274 83B78400 		ld	a5,8(s1)
GAS LISTING /tmp/ccuHi8AZ.s 			page 12


 452              		.loc 1 77 22
 453 0278 13071000 		li	a4,1
 454 027c 2384E700 		sb	a4,8(a5)
  78:src/thread.cpp ****     thread_dispatch();
 455              		.loc 1 78 5 is_stmt 1
 456              		.loc 1 78 20 is_stmt 0
 457 0280 97000000 		call	_Z15thread_dispatchv@plt
 457      E7800000 
 458              	.LVL30:
  79:src/thread.cpp **** }
 459              		.loc 1 79 1
 460 0288 83308101 		ld	ra,24(sp)
 461              		.cfi_restore 1
 462 028c 03340101 		ld	s0,16(sp)
 463              		.cfi_restore 8
 464              		.cfi_def_cfa 2, 32
 465 0290 83348100 		ld	s1,8(sp)
 466              		.cfi_restore 9
 467 0294 13010102 		addi	sp,sp,32
 468              		.cfi_def_cfa_offset 0
 469 0298 67800000 		jr	ra
 470              		.cfi_endproc
 471              	.LFE18:
 473              		.globl	_ZN3Nit7runningE
 474              		.globl	_ZN3Nit6tajmerE
 475              		.globl	_ZN3Nit3IDDE
 476              		.bss
 477              		.align	3
 478              		.set	.LANCHOR0,. + 0
 481              	_ZN3Nit3IDDE:
 482 0000 00000000 		.zero	4
 483 0004 00000000 		.zero	4
 486              	_ZN3Nit7runningE:
 487 0008 00000000 		.zero	8
 487      00000000 
 490              	_ZN3Nit6tajmerE:
 491 0010 00000000 		.zero	4
 492              		.text
 493              	.Letext0:
 494              		.file 3 "src/../h/../lib/hw.h"
 495              		.file 4 "src/../h/../h/memorija.h"
 496              		.file 5 "src/../h/scheduler.h"
 497              		.file 6 "src/../h/syscall_c.h"
 498              		.file 7 "src/../h/../h/print.h"
 499              		.file 8 "<built-in>"
 2969              		.align	3
 2972              	DW.ref.__gxx_personality_v0:
 2973 0000 00000000 		.dword	__gxx_personality_v0
 2973      00000000 
 2974              		.ident	"GCC: (Ubuntu 9.4.0-1ubuntu1~20.04) 9.4.0"
 2975              		.section	.note.GNU-stack,"",@progbits
GAS LISTING /tmp/ccuHi8AZ.s 			page 13


DEFINED SYMBOLS
                            *ABS*:0000000000000000 thread.cpp
     /tmp/ccuHi8AZ.s:14     .text:0000000000000000 _ZN3Nit6stampaEv
     /tmp/ccuHi8AZ.s:18     .text:0000000000000000 .L0 
     /tmp/ccuHi8AZ.s:20     .text:0000000000000000 .L0 
     /tmp/ccuHi8AZ.s:21     .text:0000000000000004 .L0 
     /tmp/ccuHi8AZ.s:25     .text:0000000000000010 .L0 
     /tmp/ccuHi8AZ.s:26     .text:0000000000000010 .L0 
     /tmp/ccuHi8AZ.s:27     .text:0000000000000010 .L0 
     /tmp/ccuHi8AZ.s:29     .text:0000000000000014 .L0 
     /tmp/ccuHi8AZ.s:32     .text:0000000000000018 .L0 
     /tmp/ccuHi8AZ.s:33     .text:0000000000000018 .L0 
     /tmp/ccuHi8AZ.s:38     .text:0000000000000028 .L0 
     /tmp/ccuHi8AZ.s:39     .text:0000000000000028 .L0 
     /tmp/ccuHi8AZ.s:43     .text:0000000000000034 .L0 
     /tmp/ccuHi8AZ.s:44     .text:0000000000000038 .L0 
     /tmp/ccuHi8AZ.s:46     .text:000000000000003c .L0 
     /tmp/ccuHi8AZ.s:47     .text:000000000000003c .L0 
     /tmp/ccuHi8AZ.s:49     .text:0000000000000040 .L0 
     /tmp/ccuHi8AZ.s:52     .text:0000000000000044 .L0 
     /tmp/ccuHi8AZ.s:54     .text:0000000000000048 .L0 
     /tmp/ccuHi8AZ.s:60     .text:0000000000000048 _ZN3Nit11konstruktorEPFvPvES0_i
     /tmp/ccuHi8AZ.s:63     .text:0000000000000048 .L0 
     /tmp/ccuHi8AZ.s:2972   .data.rel.local.DW.ref.__gxx_personality_v0:0000000000000000 DW.ref.__gxx_personality_v0
     /tmp/ccuHi8AZ.s:67     .text:0000000000000048 .L0 
     /tmp/ccuHi8AZ.s:68     .text:000000000000004c .L0 
     /tmp/ccuHi8AZ.s:75     .text:0000000000000064 .L0 
     /tmp/ccuHi8AZ.s:76     .text:0000000000000064 .L0 
     /tmp/ccuHi8AZ.s:77     .text:0000000000000064 .L0 
     /tmp/ccuHi8AZ.s:78     .text:0000000000000064 .L0 
     /tmp/ccuHi8AZ.s:79     .text:0000000000000064 .L0 
     /tmp/ccuHi8AZ.s:80     .text:0000000000000064 .L0 
     /tmp/ccuHi8AZ.s:82     .text:0000000000000068 .L0 
     /tmp/ccuHi8AZ.s:91     .text:0000000000000074 .L0 
     /tmp/ccuHi8AZ.s:92     .text:0000000000000074 .L0 
     /tmp/ccuHi8AZ.s:93     .text:0000000000000074 .L0 
     /tmp/ccuHi8AZ.s:106    .text:0000000000000084 .L0 
     /tmp/ccuHi8AZ.s:114    .text:00000000000000a4 .L0 
     /tmp/ccuHi8AZ.s:115    .text:00000000000000a4 .L0 
     /tmp/ccuHi8AZ.s:117    .text:00000000000000a8 .L0 
     /tmp/ccuHi8AZ.s:118    .text:00000000000000a8 .L0 
     /tmp/ccuHi8AZ.s:120    .text:00000000000000ac .L0 
     /tmp/ccuHi8AZ.s:121    .text:00000000000000ac .L0 
     /tmp/ccuHi8AZ.s:123    .text:00000000000000b0 .L0 
     /tmp/ccuHi8AZ.s:422    .text:0000000000000240 _ZN3Nit6omotacEv
     /tmp/ccuHi8AZ.s:124    .text:00000000000000b0 .L0 
     /tmp/ccuHi8AZ.s:127    .text:00000000000000bc .L0 
     /tmp/ccuHi8AZ.s:129    .text:00000000000000c0 .L0 
     /tmp/ccuHi8AZ.s:130    .text:00000000000000c0 .L0 
     /tmp/ccuHi8AZ.s:136    .text:00000000000000cc .L0 
     /tmp/ccuHi8AZ.s:139    .text:00000000000000d0 .L0 
     /tmp/ccuHi8AZ.s:141    .text:00000000000000d4 .L0 
     /tmp/ccuHi8AZ.s:142    .text:00000000000000d4 .L0 
     /tmp/ccuHi8AZ.s:144    .text:00000000000000d8 .L0 
     /tmp/ccuHi8AZ.s:147    .text:00000000000000e0 .L0 
     /tmp/ccuHi8AZ.s:150    .text:00000000000000e4 .L0 
     /tmp/ccuHi8AZ.s:152    .text:00000000000000e8 .L0 
GAS LISTING /tmp/ccuHi8AZ.s 			page 14


     /tmp/ccuHi8AZ.s:153    .text:00000000000000e8 .L0 
     /tmp/ccuHi8AZ.s:160    .text:00000000000000f0 .L0 
     /tmp/ccuHi8AZ.s:161    .text:00000000000000f0 .L0 
     /tmp/ccuHi8AZ.s:163    .text:00000000000000f8 .L0 
     /tmp/ccuHi8AZ.s:165    .text:00000000000000fc .L0 
     /tmp/ccuHi8AZ.s:168    .text:0000000000000100 .L0 
     /tmp/ccuHi8AZ.s:170    .text:0000000000000108 .L0 
     /tmp/ccuHi8AZ.s:171    .text:0000000000000108 .L0 
     /tmp/ccuHi8AZ.s:173    .text:000000000000010c .L0 
     /tmp/ccuHi8AZ.s:174    .text:000000000000010c .L0 
     /tmp/ccuHi8AZ.s:176    .text:0000000000000110 .L0 
     /tmp/ccuHi8AZ.s:179    .text:0000000000000114 .L0 
     /tmp/ccuHi8AZ.s:182    .text:0000000000000118 .L0 
     /tmp/ccuHi8AZ.s:185    .text:000000000000011c .L0 
     /tmp/ccuHi8AZ.s:187    .text:0000000000000120 .L0 
     /tmp/ccuHi8AZ.s:191    .text:0000000000000124 .L0 
     /tmp/ccuHi8AZ.s:193    .text:0000000000000124 .L0 
     /tmp/ccuHi8AZ.s:194    .text:0000000000000124 .L0 
     /tmp/ccuHi8AZ.s:196    .text:000000000000012c .L0 
     /tmp/ccuHi8AZ.s:197    .text:000000000000012c .L0 
     /tmp/ccuHi8AZ.s:200    .text:0000000000000130 .L0 
     /tmp/ccuHi8AZ.s:201    .text:0000000000000130 .L0 
     /tmp/ccuHi8AZ.s:214    .text:0000000000000144 .L0 
     /tmp/ccuHi8AZ.s:215    .text:0000000000000144 .L0 
     /tmp/ccuHi8AZ.s:225    .text:000000000000015c .L0 
     /tmp/ccuHi8AZ.s:255    .text:000000000000015c _ZN3Nit5yeildEv
     /tmp/ccuHi8AZ.s:258    .text:000000000000015c .L0 
     /tmp/ccuHi8AZ.s:259    .text:000000000000015c .L0 
     /tmp/ccuHi8AZ.s:260    .text:0000000000000160 .L0 
     /tmp/ccuHi8AZ.s:263    .text:0000000000000168 .L0 
     /tmp/ccuHi8AZ.s:264    .text:0000000000000168 .L0 
     /tmp/ccuHi8AZ.s:266    .text:000000000000016c .L0 
     /tmp/ccuHi8AZ.s:268    .text:000000000000016c .L0 
     /tmp/ccuHi8AZ.s:269    .text:000000000000016c .L0 
     /tmp/ccuHi8AZ.s:272    .text:0000000000000174 .L0 
     /tmp/ccuHi8AZ.s:273    .text:0000000000000178 .L0 
     /tmp/ccuHi8AZ.s:275    .text:000000000000017c .L0 
     /tmp/ccuHi8AZ.s:276    .text:000000000000017c .L0 
     /tmp/ccuHi8AZ.s:278    .text:0000000000000180 .L0 
     /tmp/ccuHi8AZ.s:280    .text:0000000000000184 .L0 
     /tmp/ccuHi8AZ.s:291    .text:0000000000000184 _ZN3Nit8dispatchEv
     /tmp/ccuHi8AZ.s:294    .text:0000000000000184 .L0 
     /tmp/ccuHi8AZ.s:295    .text:0000000000000184 .L0 
     /tmp/ccuHi8AZ.s:296    .text:0000000000000188 .L0 
     /tmp/ccuHi8AZ.s:300    .text:0000000000000194 .L0 
     /tmp/ccuHi8AZ.s:301    .text:0000000000000194 .L0 
     /tmp/ccuHi8AZ.s:302    .text:0000000000000194 .L0 
     /tmp/ccuHi8AZ.s:304    .text:0000000000000198 .L0 
     /tmp/ccuHi8AZ.s:306    .text:0000000000000198 .L0 
     /tmp/ccuHi8AZ.s:307    .text:0000000000000198 .L0 
     /tmp/ccuHi8AZ.s:309    .text:00000000000001a0 .L0 
     /tmp/ccuHi8AZ.s:312    .text:00000000000001a4 .L0 
     /tmp/ccuHi8AZ.s:313    .text:00000000000001a4 .L0 
     /tmp/ccuHi8AZ.s:314    .text:00000000000001a4 .L0 
     /tmp/ccuHi8AZ.s:316    .text:00000000000001a8 .L0 
     /tmp/ccuHi8AZ.s:319    .text:00000000000001ac .L0 
     /tmp/ccuHi8AZ.s:320    .text:00000000000001ac .L0 
GAS LISTING /tmp/ccuHi8AZ.s 			page 15


     /tmp/ccuHi8AZ.s:323    .text:00000000000001b4 .L0 
     /tmp/ccuHi8AZ.s:325    .text:00000000000001bc .L0 
     /tmp/ccuHi8AZ.s:326    .text:00000000000001bc .L0 
     /tmp/ccuHi8AZ.s:332    .text:00000000000001cc .L0 
     /tmp/ccuHi8AZ.s:333    .text:00000000000001d0 .L0 
     /tmp/ccuHi8AZ.s:334    .text:00000000000001d0 .L0 
     /tmp/ccuHi8AZ.s:336    .text:00000000000001d4 .L0 
     /tmp/ccuHi8AZ.s:337    .text:00000000000001d4 .L0 
     /tmp/ccuHi8AZ.s:339    .text:00000000000001d8 .L0 
     /tmp/ccuHi8AZ.s:341    .text:00000000000001dc .L0 
     /tmp/ccuHi8AZ.s:344    .text:00000000000001e0 .L0 
     /tmp/ccuHi8AZ.s:346    .text:00000000000001e0 .L0 
     /tmp/ccuHi8AZ.s:347    .text:00000000000001e0 .L0 
     /tmp/ccuHi8AZ.s:351    .text:00000000000001f0 .L0 
     /tmp/ccuHi8AZ.s:355    .text:00000000000001f4 .L0 
     /tmp/ccuHi8AZ.s:356    .text:00000000000001f4 .L0 
     /tmp/ccuHi8AZ.s:360    .text:0000000000000204 .L0 
     /tmp/ccuHi8AZ.s:366    .text:0000000000000204 _ZN3Nit5pomocEv
     /tmp/ccuHi8AZ.s:369    .text:0000000000000204 .L0 
     /tmp/ccuHi8AZ.s:370    .text:0000000000000204 .L0 
     /tmp/ccuHi8AZ.s:371    .text:0000000000000208 .L0 
     /tmp/ccuHi8AZ.s:373    .text:000000000000020c .L0 
     /tmp/ccuHi8AZ.s:375    .text:0000000000000210 .L0 
     /tmp/ccuHi8AZ.s:377    .text:0000000000000210 .L0 
     /tmp/ccuHi8AZ.s:378    .text:0000000000000210 .L0 
      src/thread.cpp:66     .text:0000000000000210 .L0 
     /tmp/ccuHi8AZ.s:386    .text:0000000000000218 .L0 
     /tmp/ccuHi8AZ.s:387    .text:0000000000000218 .L0 
     /tmp/ccuHi8AZ.s:391    .text:0000000000000224 .L0 
     /tmp/ccuHi8AZ.s:392    .text:0000000000000224 .L0 
      src/thread.cpp:68     .text:0000000000000228 .L0 
     /tmp/ccuHi8AZ.s:399    .text:000000000000022c .L0 
      src/thread.cpp:70     .text:000000000000022c .L0 
     /tmp/ccuHi8AZ.s:404    .text:0000000000000230 .L0 
      src/thread.cpp:71     .text:0000000000000230 .L0 
     /tmp/ccuHi8AZ.s:410    .text:0000000000000234 .L0 
     /tmp/ccuHi8AZ.s:411    .text:0000000000000238 .L0 
     /tmp/ccuHi8AZ.s:412    .text:0000000000000238 .L0 
     /tmp/ccuHi8AZ.s:414    .text:000000000000023c .L0 
     /tmp/ccuHi8AZ.s:416    .text:0000000000000240 .L0 
     /tmp/ccuHi8AZ.s:425    .text:0000000000000240 .L0 
     /tmp/ccuHi8AZ.s:426    .text:0000000000000240 .L0 
     /tmp/ccuHi8AZ.s:427    .text:0000000000000244 .L0 
     /tmp/ccuHi8AZ.s:431    .text:0000000000000250 .L0 
     /tmp/ccuHi8AZ.s:432    .text:0000000000000250 .L0 
     /tmp/ccuHi8AZ.s:433    .text:0000000000000250 .L0 
     /tmp/ccuHi8AZ.s:435    .text:0000000000000254 .L0 
     /tmp/ccuHi8AZ.s:437    .text:0000000000000254 .L0 
     /tmp/ccuHi8AZ.s:438    .text:0000000000000254 .L0 
     /tmp/ccuHi8AZ.s:441    .text:000000000000025c .L0 
     /tmp/ccuHi8AZ.s:442    .text:000000000000025c .L0 
     /tmp/ccuHi8AZ.s:446    .text:000000000000026c .L0 
     /tmp/ccuHi8AZ.s:450    .text:0000000000000274 .L0 
     /tmp/ccuHi8AZ.s:451    .text:0000000000000274 .L0 
     /tmp/ccuHi8AZ.s:453    .text:0000000000000278 .L0 
     /tmp/ccuHi8AZ.s:456    .text:0000000000000280 .L0 
     /tmp/ccuHi8AZ.s:457    .text:0000000000000280 .L0 
GAS LISTING /tmp/ccuHi8AZ.s 			page 16


     /tmp/ccuHi8AZ.s:460    .text:0000000000000288 .L0 
     /tmp/ccuHi8AZ.s:461    .text:000000000000028c .L0 
     /tmp/ccuHi8AZ.s:463    .text:0000000000000290 .L0 
     /tmp/ccuHi8AZ.s:464    .text:0000000000000290 .L0 
     /tmp/ccuHi8AZ.s:466    .text:0000000000000294 .L0 
     /tmp/ccuHi8AZ.s:468    .text:0000000000000298 .L0 
     /tmp/ccuHi8AZ.s:470    .text:000000000000029c .L0 
     /tmp/ccuHi8AZ.s:486    .bss:0000000000000008 _ZN3Nit7runningE
     /tmp/ccuHi8AZ.s:490    .bss:0000000000000010 _ZN3Nit6tajmerE
     /tmp/ccuHi8AZ.s:481    .bss:0000000000000000 _ZN3Nit3IDDE
     /tmp/ccuHi8AZ.s:478    .bss:0000000000000000 .LANCHOR0
     /tmp/ccuHi8AZ.s:500    .text:000000000000029c .L0 
     /tmp/ccuHi8AZ.s:8      .rodata.str1.8:0000000000000000 .LC0
     /tmp/ccuHi8AZ.s:33     .text:0000000000000018 .L0 
     /tmp/ccuHi8AZ.s:107    .text:0000000000000088 .L0 
     /tmp/ccuHi8AZ.s:124    .text:00000000000000b0 .L0 
     /tmp/ccuHi8AZ.s:161    .text:00000000000000f0 .L0 
     /tmp/ccuHi8AZ.s:194    .text:0000000000000124 .L0 
     /tmp/ccuHi8AZ.s:307    .text:0000000000000198 .L0 
     /tmp/ccuHi8AZ.s:323    .text:00000000000001b4 .L0 
     /tmp/ccuHi8AZ.s:285    .rodata.str1.8:0000000000000008 .LC1
     /tmp/ccuHi8AZ.s:347    .text:00000000000001e0 .L0 
     /tmp/ccuHi8AZ.s:442    .text:000000000000025c .L0 
     /tmp/ccuHi8AZ.s:137    .text:00000000000000d0 .L4
     /tmp/ccuHi8AZ.s:148    .text:00000000000000e4 .L5
     /tmp/ccuHi8AZ.s:155    .text:00000000000000f0 .L6
     /tmp/ccuHi8AZ.s:190    .text:0000000000000124 .L12
     /tmp/ccuHi8AZ.s:198    .text:0000000000000130 .L13
     /tmp/ccuHi8AZ.s:166    .text:0000000000000100 .L3
     /tmp/ccuHi8AZ.s:343    .text:00000000000001e0 .L21
     /tmp/ccuHi8AZ.s:353    .text:00000000000001f4 .L22
     /tmp/ccuHi8AZ.s:330    .text:00000000000001cc .L16
     /tmp/ccuHi8AZ.s:317    .text:00000000000001ac .L19
     /tmp/ccuHi8AZ.s:95     .text:0000000000000078 .LEHB0
     /tmp/ccuHi8AZ.s:61     .text:0000000000000048 .LFB14
     /tmp/ccuHi8AZ.s:98     .text:0000000000000080 .LEHE0
     /tmp/ccuHi8AZ.s:131    .text:00000000000000c4 .LEHB1
     /tmp/ccuHi8AZ.s:134    .text:00000000000000cc .LEHE1
     /tmp/ccuHi8AZ.s:208    .text:0000000000000140 .L10
     /tmp/ccuHi8AZ.s:202    .text:0000000000000134 .LEHB2
     /tmp/ccuHi8AZ.s:205    .text:000000000000013c .LEHE2
     /tmp/ccuHi8AZ.s:219    .text:0000000000000154 .LEHB3
     /tmp/ccuHi8AZ.s:222    .text:000000000000015c .LEHE3
     /tmp/ccuHi8AZ.s:1532   .debug_abbrev:0000000000000000 .Ldebug_abbrev0
     /tmp/ccuHi8AZ.s:2930   .debug_str:000000000000049c .LASF87
     /tmp/ccuHi8AZ.s:2794   .debug_str:00000000000000d4 .LASF88
     /tmp/ccuHi8AZ.s:2792   .debug_str:00000000000000b9 .LASF89
     /tmp/ccuHi8AZ.s:5      .text:0000000000000000 .Ltext0
     /tmp/ccuHi8AZ.s:493    .text:000000000000029c .Letext0
     /tmp/ccuHi8AZ.s:2766   .debug_line:0000000000000000 .Ldebug_line0
     /tmp/ccuHi8AZ.s:2882   .debug_str:000000000000034f .LASF0
     /tmp/ccuHi8AZ.s:2892   .debug_str:000000000000039b .LASF1
     /tmp/ccuHi8AZ.s:2868   .debug_str:00000000000002ed .LASF2
     /tmp/ccuHi8AZ.s:2848   .debug_str:0000000000000258 .LASF4
     /tmp/ccuHi8AZ.s:2916   .debug_str:0000000000000449 .LASF3
     /tmp/ccuHi8AZ.s:2788   .debug_str:00000000000000a5 .LASF5
     /tmp/ccuHi8AZ.s:2894   .debug_str:00000000000003ae .LASF6
GAS LISTING /tmp/ccuHi8AZ.s 			page 17


     /tmp/ccuHi8AZ.s:2880   .debug_str:000000000000033c .LASF7
     /tmp/ccuHi8AZ.s:2940   .debug_str:000000000000059a .LASF8
     /tmp/ccuHi8AZ.s:2838   .debug_str:000000000000020e .LASF9
     /tmp/ccuHi8AZ.s:2902   .debug_str:00000000000003de .LASF10
     /tmp/ccuHi8AZ.s:2934   .debug_str:0000000000000566 .LASF11
     /tmp/ccuHi8AZ.s:2862   .debug_str:00000000000002be .LASF12
     /tmp/ccuHi8AZ.s:2774   .debug_str:0000000000000031 .LASF13
     /tmp/ccuHi8AZ.s:2800   .debug_str:0000000000000101 .LASF14
     /tmp/ccuHi8AZ.s:2912   .debug_str:000000000000042c .LASF15
     /tmp/ccuHi8AZ.s:2810   .debug_str:0000000000000143 .LASF16
     /tmp/ccuHi8AZ.s:2804   .debug_str:000000000000011d .LASF24
     /tmp/ccuHi8AZ.s:2874   .debug_str:0000000000000317 .LASF61
     /tmp/ccuHi8AZ.s:2962   .debug_str:0000000000000616 .LASF17
     /tmp/ccuHi8AZ.s:2950   .debug_str:00000000000005e3 .LASF18
     /tmp/ccuHi8AZ.s:2924   .debug_str:0000000000000484 .LASF19
     /tmp/ccuHi8AZ.s:2820   .debug_str:000000000000018e .LASF20
     /tmp/ccuHi8AZ.s:2772   .debug_str:0000000000000013 .LASF22
     /tmp/ccuHi8AZ.s:2948   .debug_str:00000000000005d9 .LASF21
     /tmp/ccuHi8AZ.s:2888   .debug_str:0000000000000374 .LASF23
     /tmp/ccuHi8AZ.s:2832   .debug_str:00000000000001d9 .LASF32
     /tmp/ccuHi8AZ.s:2878   .debug_str:0000000000000327 .LASF34
     /tmp/ccuHi8AZ.s:2884   .debug_str:000000000000035c .LASF49
     /tmp/ccuHi8AZ.s:2812   .debug_str:0000000000000159 .LASF51
     /tmp/ccuHi8AZ.s:2814   .debug_str:0000000000000178 .LASF25
     /tmp/ccuHi8AZ.s:2914   .debug_str:0000000000000442 .LASF26
     /tmp/ccuHi8AZ.s:2830   .debug_str:00000000000001d2 .LASF27
     /tmp/ccuHi8AZ.s:2778   .debug_str:0000000000000061 .LASF90
     /tmp/ccuHi8AZ.s:2904   .debug_str:00000000000003ed .LASF91
     /tmp/ccuHi8AZ.s:2770   .debug_str:000000000000000c .LASF28
     /tmp/ccuHi8AZ.s:2798   .debug_str:00000000000000f0 .LASF29
     /tmp/ccuHi8AZ.s:2956   .debug_str:00000000000005f5 .LASF30
     /tmp/ccuHi8AZ.s:2776   .debug_str:0000000000000041 .LASF31
     /tmp/ccuHi8AZ.s:2854   .debug_str:0000000000000280 .LASF92
     /tmp/ccuHi8AZ.s:2886   .debug_str:000000000000036b .LASF33
     /tmp/ccuHi8AZ.s:2866   .debug_str:00000000000002da .LASF35
     /tmp/ccuHi8AZ.s:2818   .debug_str:0000000000000188 .LASF36
     /tmp/ccuHi8AZ.s:2782   .debug_str:000000000000006f .LASF37
     /tmp/ccuHi8AZ.s:2852   .debug_str:0000000000000277 .LASF38
     /tmp/ccuHi8AZ.s:2822   .debug_str:000000000000019b .LASF39
     /tmp/ccuHi8AZ.s:2864   .debug_str:00000000000002ce .LASF62
     /tmp/ccuHi8AZ.s:2796   .debug_str:00000000000000e3 .LASF40
     /tmp/ccuHi8AZ.s:2928   .debug_str:0000000000000490 .LASF41
     /tmp/ccuHi8AZ.s:2834   .debug_str:00000000000001df .LASF42
     /tmp/ccuHi8AZ.s:2840   .debug_str:000000000000021c .LASF43
     /tmp/ccuHi8AZ.s:2918   .debug_str:000000000000045b .LASF44
     /tmp/ccuHi8AZ.s:2846   .debug_str:000000000000024b .LASF46
     /tmp/ccuHi8AZ.s:2920   .debug_str:000000000000046b .LASF45
     /tmp/ccuHi8AZ.s:2960   .debug_str:0000000000000609 .LASF47
     /tmp/ccuHi8AZ.s:2816   .debug_str:000000000000017d .LASF48
     /tmp/ccuHi8AZ.s:2942   .debug_str:00000000000005aa .LASF93
     /tmp/ccuHi8AZ.s:2870   .debug_str:00000000000002fb .LASF50
     /tmp/ccuHi8AZ.s:2946   .debug_str:00000000000005c9 .LASF52
     /tmp/ccuHi8AZ.s:2926   .debug_str:0000000000000489 .LASF53
     /tmp/ccuHi8AZ.s:2910   .debug_str:000000000000041b .LASF54
     /tmp/ccuHi8AZ.s:2944   .debug_str:00000000000005be .LASF55
     /tmp/ccuHi8AZ.s:2900   .debug_str:00000000000003d5 .LASF56
     /tmp/ccuHi8AZ.s:2954   .debug_str:00000000000005f0 .LASF57
GAS LISTING /tmp/ccuHi8AZ.s 			page 18


     /tmp/ccuHi8AZ.s:2824   .debug_str:00000000000001a3 .LASF58
     /tmp/ccuHi8AZ.s:2780   .debug_str:000000000000006a .LASF59
     /tmp/ccuHi8AZ.s:2898   .debug_str:00000000000003cb .LASF60
     /tmp/ccuHi8AZ.s:2850   .debug_str:000000000000025f .LASF63
     /tmp/ccuHi8AZ.s:2844   .debug_str:0000000000000237 .LASF94
     /tmp/ccuHi8AZ.s:2890   .debug_str:000000000000038d .LASF64
     /tmp/ccuHi8AZ.s:2836   .debug_str:00000000000001ef .LASF65
     /tmp/ccuHi8AZ.s:2768   .debug_str:0000000000000000 .LASF66
     /tmp/ccuHi8AZ.s:2858   .debug_str:0000000000000295 .LASF67
     /tmp/ccuHi8AZ.s:2872   .debug_str:0000000000000301 .LASF68
     /tmp/ccuHi8AZ.s:2964   .debug_str:000000000000061b .LASF69
     /tmp/ccuHi8AZ.s:2784   .debug_str:000000000000007f .LASF71
     /tmp/ccuHi8AZ.s:2952   .debug_str:00000000000005e8 .LASF70
     /tmp/ccuHi8AZ.s:2938   .debug_str:0000000000000582 .LASF72
     /tmp/ccuHi8AZ.s:2922   .debug_str:000000000000047e .LASF73
     /tmp/ccuHi8AZ.s:2932   .debug_str:0000000000000560 .LASF74
     /tmp/ccuHi8AZ.s:2790   .debug_str:00000000000000ac .LASF75
     /tmp/ccuHi8AZ.s:2936   .debug_str:0000000000000575 .LASF76
     /tmp/ccuHi8AZ.s:2856   .debug_str:0000000000000285 .LASF77
     /tmp/ccuHi8AZ.s:2908   .debug_str:000000000000040a .LASF78
     /tmp/ccuHi8AZ.s:423    .text:0000000000000240 .LFB18
     /tmp/ccuHi8AZ.s:471    .text:000000000000029c .LFE18
     /tmp/ccuHi8AZ.s:439    .text:000000000000025c .LVL28
     /tmp/ccuHi8AZ.s:458    .text:0000000000000288 .LVL30
     /tmp/ccuHi8AZ.s:367    .text:0000000000000204 .LFB17
     /tmp/ccuHi8AZ.s:417    .text:0000000000000240 .LFE17
     /tmp/ccuHi8AZ.s:2958   .debug_str:0000000000000601 .LASF79
     /tmp/ccuHi8AZ.s:292    .text:0000000000000184 .LFB16
     /tmp/ccuHi8AZ.s:361    .text:0000000000000204 .LFE16
     /tmp/ccuHi8AZ.s:2588   .debug_loc:0000000000000000 .LLST10
     /tmp/ccuHi8AZ.s:321    .text:00000000000001b4 .LVL23
     /tmp/ccuHi8AZ.s:329    .text:00000000000001cc .LVL24
     /tmp/ccuHi8AZ.s:349    .text:00000000000001f0 .LVL25
     /tmp/ccuHi8AZ.s:358    .text:0000000000000200 .LVL27
     /tmp/ccuHi8AZ.s:256    .text:000000000000015c .LFB15
     /tmp/ccuHi8AZ.s:281    .text:0000000000000184 .LFE15
     /tmp/ccuHi8AZ.s:270    .text:0000000000000174 .LVL21
     /tmp/ccuHi8AZ.s:226    .text:000000000000015c .LFE14
     /tmp/ccuHi8AZ.s:2599   .debug_loc:0000000000000036 .LLST1
     /tmp/ccuHi8AZ.s:2628   .debug_loc:00000000000000ab .LLST2
     /tmp/ccuHi8AZ.s:2650   .debug_loc:000000000000010a .LLST3
     /tmp/ccuHi8AZ.s:2664   .debug_loc:0000000000000143 .LLST4
     /tmp/ccuHi8AZ.s:88     .text:0000000000000074 .LBB13
     /tmp/ccuHi8AZ.s:102    .text:0000000000000084 .LBE13
     /tmp/ccuHi8AZ.s:2679   .debug_loc:000000000000018c .LLST5
     /tmp/ccuHi8AZ.s:97     .text:0000000000000080 .LVL8
     /tmp/ccuHi8AZ.s:103    .text:0000000000000084 .LBB15
     /tmp/ccuHi8AZ.s:158    .text:00000000000000f0 .LBE15
     /tmp/ccuHi8AZ.s:2688   .debug_loc:00000000000001b1 .LLST6
     /tmp/ccuHi8AZ.s:2699   .debug_loc:00000000000001e7 .LLST7
     /tmp/ccuHi8AZ.s:2717   .debug_loc:0000000000000233 .LLST8
     /tmp/ccuHi8AZ.s:133    .text:00000000000000cc .LVL10
     /tmp/ccuHi8AZ.s:211    .text:0000000000000144 .LBB17
     /tmp/ccuHi8AZ.s:224    .text:000000000000015c .LBE17
     /tmp/ccuHi8AZ.s:2728   .debug_loc:0000000000000269 .LLST9
     /tmp/ccuHi8AZ.s:217    .text:0000000000000150 .LVL19
     /tmp/ccuHi8AZ.s:204    .text:000000000000013c .LVL16
GAS LISTING /tmp/ccuHi8AZ.s 			page 19


     /tmp/ccuHi8AZ.s:221    .text:000000000000015c .LVL20
     /tmp/ccuHi8AZ.s:15     .text:0000000000000000 .LFB13
     /tmp/ccuHi8AZ.s:55     .text:0000000000000048 .LFE13
     /tmp/ccuHi8AZ.s:2808   .debug_str:000000000000013e .LASF95
     /tmp/ccuHi8AZ.s:2735   .debug_loc:000000000000028c .LLST0
     /tmp/ccuHi8AZ.s:36     .text:0000000000000028 .LVL2
     /tmp/ccuHi8AZ.s:41     .text:0000000000000034 .LVL3
     /tmp/ccuHi8AZ.s:2906   .debug_str:0000000000000400 .LASF80
     /tmp/ccuHi8AZ.s:2828   .debug_str:00000000000001be .LASF96
     /tmp/ccuHi8AZ.s:2826   .debug_str:00000000000001a9 .LASF81
     /tmp/ccuHi8AZ.s:2802   .debug_str:000000000000010d .LASF83
     /tmp/ccuHi8AZ.s:2786   .debug_str:0000000000000097 .LASF82
     /tmp/ccuHi8AZ.s:2860   .debug_str:00000000000002b2 .LASF84
     /tmp/ccuHi8AZ.s:2876   .debug_str:0000000000000321 .LASF85
     /tmp/ccuHi8AZ.s:2842   .debug_str:0000000000000228 .LASF97
     /tmp/ccuHi8AZ.s:2806   .debug_str:0000000000000126 .LASF98
     /tmp/ccuHi8AZ.s:2896   .debug_str:00000000000003c1 .LASF86
     /tmp/ccuHi8AZ.s:311    .text:00000000000001a4 .LVL22
     /tmp/ccuHi8AZ.s:352    .text:00000000000001f4 .LVL26
     /tmp/ccuHi8AZ.s:66     .text:0000000000000048 .LVL5
     /tmp/ccuHi8AZ.s:94     .text:0000000000000078 .LVL7
     /tmp/ccuHi8AZ.s:180    .text:0000000000000114 .LVL13
     /tmp/ccuHi8AZ.s:189    .text:0000000000000124 .LVL15
     /tmp/ccuHi8AZ.s:210    .text:0000000000000144 .LVL18
     /tmp/ccuHi8AZ.s:183    .text:0000000000000118 .LVL14
     /tmp/ccuHi8AZ.s:156    .text:00000000000000f0 .LVL11
     /tmp/ccuHi8AZ.s:177    .text:0000000000000110 .LVL12
     /tmp/ccuHi8AZ.s:207    .text:0000000000000140 .LVL17
     /tmp/ccuHi8AZ.s:87     .text:0000000000000074 .LVL6
     /tmp/ccuHi8AZ.s:100    .text:0000000000000084 .LVL9
     /tmp/ccuHi8AZ.s:19     .text:0000000000000000 .LVL0
     /tmp/ccuHi8AZ.s:34     .text:0000000000000020 .LVL1
     /tmp/ccuHi8AZ.s:50     .text:0000000000000040 .LVL4
     /tmp/ccuHi8AZ.s:501    .debug_info:0000000000000000 .Ldebug_info0
     /tmp/ccuHi8AZ.s:229    .gcc_except_table:0000000000000000 .LLSDA14

UNDEFINED SYMBOLS
_Z5printPKc
_Z5printi
_ZN8Memorija9alokacijaEm
_ZN9Scheduler3putEP3Nit
_ZN8Memorija12oslobadjanjeEPv
_Unwind_Resume
__gxx_personality_v0
_Z15thread_dispatchv
_ZN9Scheduler3getEv
contextSwitch
