GAS LISTING /tmp/ccMeUcYP.s 			page 1


   1              		.file	"userMain.cpp"
   2              		.option pic
   3              		.option norelax
   4              		.text
   5              	.Ltext0:
   6              		.section	.text._ZN7WorkerAD2Ev,"axG",@progbits,_ZN7WorkerAD5Ev,comdat
   7              		.align	2
   8              		.weak	_ZN7WorkerAD2Ev
  10              	_ZN7WorkerAD2Ev:
  11              	.LFB153:
  12              		.file 1 "src/../h/Threads_CPP_API_test.h"
   1:src/../h/Threads_CPP_API_test.h **** #ifndef XV6_THREADS_CPP_API_TEST_HPP
   2:src/../h/Threads_CPP_API_test.h **** #define XV6_THREADS_CPP_API_TEST_HPP
   3:src/../h/Threads_CPP_API_test.h **** 
   4:src/../h/Threads_CPP_API_test.h **** #include "../h/syscall_cpp.h"
   5:src/../h/Threads_CPP_API_test.h **** 
   6:src/../h/Threads_CPP_API_test.h **** #include "printing.h"
   7:src/../h/Threads_CPP_API_test.h **** 
   8:src/../h/Threads_CPP_API_test.h **** bool finishedA = false;
   9:src/../h/Threads_CPP_API_test.h **** bool finishedB = false;
  10:src/../h/Threads_CPP_API_test.h **** bool finishedC = false;
  11:src/../h/Threads_CPP_API_test.h **** bool finishedD = false;
  12:src/../h/Threads_CPP_API_test.h **** 
  13:src/../h/Threads_CPP_API_test.h **** uint64 fibonacci(uint64 n) {
  14:src/../h/Threads_CPP_API_test.h ****     if (n == 0 || n == 1) { return n; }
  15:src/../h/Threads_CPP_API_test.h ****     if (n % 10 == 0) { thread_dispatch(); }
  16:src/../h/Threads_CPP_API_test.h ****     return fibonacci(n - 1) + fibonacci(n - 2);
  17:src/../h/Threads_CPP_API_test.h **** }
  18:src/../h/Threads_CPP_API_test.h **** 
  19:src/../h/Threads_CPP_API_test.h **** class WorkerA: public Thread {
  13              		.loc 1 19 7
  14              		.cfi_startproc
  15              	.LVL0:
  16 0000 130101FF 		addi	sp,sp,-16
  17              		.cfi_def_cfa_offset 16
  18 0004 23341100 		sd	ra,8(sp)
  19 0008 23308100 		sd	s0,0(sp)
  20              		.cfi_offset 1, -8
  21              		.cfi_offset 8, -16
  22 000c 13040101 		addi	s0,sp,16
  23              		.cfi_def_cfa 8, 0
  24              	.LBB136:
  25              		.loc 1 19 7 is_stmt 0
  26 0010 97070000 		lla	a5,_ZTV7WorkerA+16
  26      93870700 
  27 0018 2330F500 		sd	a5,0(a0)
  28 001c 97000000 		call	_ZN6ThreadD2Ev@plt
  28      E7800000 
  29              	.LVL1:
  30              	.LBE136:
  31 0024 83308100 		ld	ra,8(sp)
  32              		.cfi_restore 1
  33 0028 03340100 		ld	s0,0(sp)
  34              		.cfi_restore 8
  35              		.cfi_def_cfa 2, 16
  36 002c 13010101 		addi	sp,sp,16
  37              		.cfi_def_cfa_offset 0
GAS LISTING /tmp/ccMeUcYP.s 			page 2


  38 0030 67800000 		jr	ra
  39              		.cfi_endproc
  40              	.LFE153:
  42              		.weak	_ZN7WorkerAD1Ev
  43              		.set	_ZN7WorkerAD1Ev,_ZN7WorkerAD2Ev
  44              		.section	.text._ZN7WorkerAD0Ev,"axG",@progbits,_ZN7WorkerAD5Ev,comdat
  45              		.align	2
  46              		.weak	_ZN7WorkerAD0Ev
  48              	_ZN7WorkerAD0Ev:
  49              	.LFB155:
  50              		.loc 1 19 7 is_stmt 1
  51              		.cfi_startproc
  52              	.LVL2:
  53 0000 130101FE 		addi	sp,sp,-32
  54              		.cfi_def_cfa_offset 32
  55 0004 233C1100 		sd	ra,24(sp)
  56 0008 23388100 		sd	s0,16(sp)
  57 000c 23349100 		sd	s1,8(sp)
  58              		.cfi_offset 1, -8
  59              		.cfi_offset 8, -16
  60              		.cfi_offset 9, -24
  61 0010 13040102 		addi	s0,sp,32
  62              		.cfi_def_cfa 8, 0
  63 0014 93040500 		mv	s1,a0
  64              	.LVL3:
  65              	.LBB137:
  66              	.LBB138:
  67              		.loc 1 19 7 is_stmt 0
  68 0018 97070000 		lla	a5,_ZTV7WorkerA+16
  68      93870700 
  69 0020 2330F500 		sd	a5,0(a0)
  70 0024 97000000 		call	_ZN6ThreadD2Ev@plt
  70      E7800000 
  71              	.LVL4:
  72              	.LBE138:
  73              	.LBE137:
  74 002c 13850400 		mv	a0,s1
  75 0030 97000000 		call	_ZdlPv@plt
  75      E7800000 
  76              	.LVL5:
  77 0038 83308101 		ld	ra,24(sp)
  78              		.cfi_restore 1
  79 003c 03340101 		ld	s0,16(sp)
  80              		.cfi_restore 8
  81              		.cfi_def_cfa 2, 32
  82 0040 83348100 		ld	s1,8(sp)
  83              		.cfi_restore 9
  84              	.LVL6:
  85 0044 13010102 		addi	sp,sp,32
  86              		.cfi_def_cfa_offset 0
  87 0048 67800000 		jr	ra
  88              		.cfi_endproc
  89              	.LFE155:
  91              		.section	.text._ZN7WorkerBD2Ev,"axG",@progbits,_ZN7WorkerBD5Ev,comdat
  92              		.align	2
  93              		.weak	_ZN7WorkerBD2Ev
  95              	_ZN7WorkerBD2Ev:
GAS LISTING /tmp/ccMeUcYP.s 			page 3


  96              	.LFB149:
  20:src/../h/Threads_CPP_API_test.h ****     void workerBodyA(void* arg);
  21:src/../h/Threads_CPP_API_test.h **** public:
  22:src/../h/Threads_CPP_API_test.h ****     WorkerA():Thread() {}
  23:src/../h/Threads_CPP_API_test.h **** 
  24:src/../h/Threads_CPP_API_test.h ****     void run() override {
  25:src/../h/Threads_CPP_API_test.h ****         workerBodyA(nullptr);
  26:src/../h/Threads_CPP_API_test.h ****     }
  27:src/../h/Threads_CPP_API_test.h **** };
  28:src/../h/Threads_CPP_API_test.h **** 
  29:src/../h/Threads_CPP_API_test.h **** class WorkerB: public Thread {
  97              		.loc 1 29 7 is_stmt 1
  98              		.cfi_startproc
  99              	.LVL7:
 100 0000 130101FF 		addi	sp,sp,-16
 101              		.cfi_def_cfa_offset 16
 102 0004 23341100 		sd	ra,8(sp)
 103 0008 23308100 		sd	s0,0(sp)
 104              		.cfi_offset 1, -8
 105              		.cfi_offset 8, -16
 106 000c 13040101 		addi	s0,sp,16
 107              		.cfi_def_cfa 8, 0
 108              	.LBB139:
 109              		.loc 1 29 7 is_stmt 0
 110 0010 97070000 		lla	a5,_ZTV7WorkerB+16
 110      93870700 
 111 0018 2330F500 		sd	a5,0(a0)
 112 001c 97000000 		call	_ZN6ThreadD2Ev@plt
 112      E7800000 
 113              	.LVL8:
 114              	.LBE139:
 115 0024 83308100 		ld	ra,8(sp)
 116              		.cfi_restore 1
 117 0028 03340100 		ld	s0,0(sp)
 118              		.cfi_restore 8
 119              		.cfi_def_cfa 2, 16
 120 002c 13010101 		addi	sp,sp,16
 121              		.cfi_def_cfa_offset 0
 122 0030 67800000 		jr	ra
 123              		.cfi_endproc
 124              	.LFE149:
 126              		.weak	_ZN7WorkerBD1Ev
 127              		.set	_ZN7WorkerBD1Ev,_ZN7WorkerBD2Ev
 128              		.section	.text._ZN7WorkerBD0Ev,"axG",@progbits,_ZN7WorkerBD5Ev,comdat
 129              		.align	2
 130              		.weak	_ZN7WorkerBD0Ev
 132              	_ZN7WorkerBD0Ev:
 133              	.LFB151:
 134              		.loc 1 29 7 is_stmt 1
 135              		.cfi_startproc
 136              	.LVL9:
 137 0000 130101FE 		addi	sp,sp,-32
 138              		.cfi_def_cfa_offset 32
 139 0004 233C1100 		sd	ra,24(sp)
 140 0008 23388100 		sd	s0,16(sp)
 141 000c 23349100 		sd	s1,8(sp)
 142              		.cfi_offset 1, -8
GAS LISTING /tmp/ccMeUcYP.s 			page 4


 143              		.cfi_offset 8, -16
 144              		.cfi_offset 9, -24
 145 0010 13040102 		addi	s0,sp,32
 146              		.cfi_def_cfa 8, 0
 147 0014 93040500 		mv	s1,a0
 148              	.LVL10:
 149              	.LBB140:
 150              	.LBB141:
 151              		.loc 1 29 7 is_stmt 0
 152 0018 97070000 		lla	a5,_ZTV7WorkerB+16
 152      93870700 
 153 0020 2330F500 		sd	a5,0(a0)
 154 0024 97000000 		call	_ZN6ThreadD2Ev@plt
 154      E7800000 
 155              	.LVL11:
 156              	.LBE141:
 157              	.LBE140:
 158 002c 13850400 		mv	a0,s1
 159 0030 97000000 		call	_ZdlPv@plt
 159      E7800000 
 160              	.LVL12:
 161 0038 83308101 		ld	ra,24(sp)
 162              		.cfi_restore 1
 163 003c 03340101 		ld	s0,16(sp)
 164              		.cfi_restore 8
 165              		.cfi_def_cfa 2, 32
 166 0040 83348100 		ld	s1,8(sp)
 167              		.cfi_restore 9
 168              	.LVL13:
 169 0044 13010102 		addi	sp,sp,32
 170              		.cfi_def_cfa_offset 0
 171 0048 67800000 		jr	ra
 172              		.cfi_endproc
 173              	.LFE151:
 175              		.section	.text._ZN7WorkerCD2Ev,"axG",@progbits,_ZN7WorkerCD5Ev,comdat
 176              		.align	2
 177              		.weak	_ZN7WorkerCD2Ev
 179              	_ZN7WorkerCD2Ev:
 180              	.LFB145:
  30:src/../h/Threads_CPP_API_test.h ****     void workerBodyB(void* arg);
  31:src/../h/Threads_CPP_API_test.h **** public:
  32:src/../h/Threads_CPP_API_test.h ****     WorkerB():Thread() {}
  33:src/../h/Threads_CPP_API_test.h **** 
  34:src/../h/Threads_CPP_API_test.h ****     void run() override {
  35:src/../h/Threads_CPP_API_test.h ****         workerBodyB(nullptr);
  36:src/../h/Threads_CPP_API_test.h ****     }
  37:src/../h/Threads_CPP_API_test.h **** };
  38:src/../h/Threads_CPP_API_test.h **** 
  39:src/../h/Threads_CPP_API_test.h **** class WorkerC: public Thread {
 181              		.loc 1 39 7 is_stmt 1
 182              		.cfi_startproc
 183              	.LVL14:
 184 0000 130101FF 		addi	sp,sp,-16
 185              		.cfi_def_cfa_offset 16
 186 0004 23341100 		sd	ra,8(sp)
 187 0008 23308100 		sd	s0,0(sp)
 188              		.cfi_offset 1, -8
GAS LISTING /tmp/ccMeUcYP.s 			page 5


 189              		.cfi_offset 8, -16
 190 000c 13040101 		addi	s0,sp,16
 191              		.cfi_def_cfa 8, 0
 192              	.LBB142:
 193              		.loc 1 39 7 is_stmt 0
 194 0010 97070000 		lla	a5,_ZTV7WorkerC+16
 194      93870700 
 195 0018 2330F500 		sd	a5,0(a0)
 196 001c 97000000 		call	_ZN6ThreadD2Ev@plt
 196      E7800000 
 197              	.LVL15:
 198              	.LBE142:
 199 0024 83308100 		ld	ra,8(sp)
 200              		.cfi_restore 1
 201 0028 03340100 		ld	s0,0(sp)
 202              		.cfi_restore 8
 203              		.cfi_def_cfa 2, 16
 204 002c 13010101 		addi	sp,sp,16
 205              		.cfi_def_cfa_offset 0
 206 0030 67800000 		jr	ra
 207              		.cfi_endproc
 208              	.LFE145:
 210              		.weak	_ZN7WorkerCD1Ev
 211              		.set	_ZN7WorkerCD1Ev,_ZN7WorkerCD2Ev
 212              		.section	.text._ZN7WorkerCD0Ev,"axG",@progbits,_ZN7WorkerCD5Ev,comdat
 213              		.align	2
 214              		.weak	_ZN7WorkerCD0Ev
 216              	_ZN7WorkerCD0Ev:
 217              	.LFB147:
 218              		.loc 1 39 7 is_stmt 1
 219              		.cfi_startproc
 220              	.LVL16:
 221 0000 130101FE 		addi	sp,sp,-32
 222              		.cfi_def_cfa_offset 32
 223 0004 233C1100 		sd	ra,24(sp)
 224 0008 23388100 		sd	s0,16(sp)
 225 000c 23349100 		sd	s1,8(sp)
 226              		.cfi_offset 1, -8
 227              		.cfi_offset 8, -16
 228              		.cfi_offset 9, -24
 229 0010 13040102 		addi	s0,sp,32
 230              		.cfi_def_cfa 8, 0
 231 0014 93040500 		mv	s1,a0
 232              	.LVL17:
 233              	.LBB143:
 234              	.LBB144:
 235              		.loc 1 39 7 is_stmt 0
 236 0018 97070000 		lla	a5,_ZTV7WorkerC+16
 236      93870700 
 237 0020 2330F500 		sd	a5,0(a0)
 238 0024 97000000 		call	_ZN6ThreadD2Ev@plt
 238      E7800000 
 239              	.LVL18:
 240              	.LBE144:
 241              	.LBE143:
 242 002c 13850400 		mv	a0,s1
 243 0030 97000000 		call	_ZdlPv@plt
GAS LISTING /tmp/ccMeUcYP.s 			page 6


 243      E7800000 
 244              	.LVL19:
 245 0038 83308101 		ld	ra,24(sp)
 246              		.cfi_restore 1
 247 003c 03340101 		ld	s0,16(sp)
 248              		.cfi_restore 8
 249              		.cfi_def_cfa 2, 32
 250 0040 83348100 		ld	s1,8(sp)
 251              		.cfi_restore 9
 252              	.LVL20:
 253 0044 13010102 		addi	sp,sp,32
 254              		.cfi_def_cfa_offset 0
 255 0048 67800000 		jr	ra
 256              		.cfi_endproc
 257              	.LFE147:
 259              		.section	.text._ZN7WorkerDD2Ev,"axG",@progbits,_ZN7WorkerDD5Ev,comdat
 260              		.align	2
 261              		.weak	_ZN7WorkerDD2Ev
 263              	_ZN7WorkerDD2Ev:
 264              	.LFB141:
  40:src/../h/Threads_CPP_API_test.h ****     void workerBodyC(void* arg);
  41:src/../h/Threads_CPP_API_test.h **** public:
  42:src/../h/Threads_CPP_API_test.h ****     WorkerC():Thread() {}
  43:src/../h/Threads_CPP_API_test.h **** 
  44:src/../h/Threads_CPP_API_test.h ****     void run() override {
  45:src/../h/Threads_CPP_API_test.h ****         workerBodyC(nullptr);
  46:src/../h/Threads_CPP_API_test.h ****     }
  47:src/../h/Threads_CPP_API_test.h **** };
  48:src/../h/Threads_CPP_API_test.h **** 
  49:src/../h/Threads_CPP_API_test.h **** class WorkerD: public Thread {
 265              		.loc 1 49 7 is_stmt 1
 266              		.cfi_startproc
 267              	.LVL21:
 268 0000 130101FF 		addi	sp,sp,-16
 269              		.cfi_def_cfa_offset 16
 270 0004 23341100 		sd	ra,8(sp)
 271 0008 23308100 		sd	s0,0(sp)
 272              		.cfi_offset 1, -8
 273              		.cfi_offset 8, -16
 274 000c 13040101 		addi	s0,sp,16
 275              		.cfi_def_cfa 8, 0
 276              	.LBB145:
 277              		.loc 1 49 7 is_stmt 0
 278 0010 97070000 		lla	a5,_ZTV7WorkerD+16
 278      93870700 
 279 0018 2330F500 		sd	a5,0(a0)
 280 001c 97000000 		call	_ZN6ThreadD2Ev@plt
 280      E7800000 
 281              	.LVL22:
 282              	.LBE145:
 283 0024 83308100 		ld	ra,8(sp)
 284              		.cfi_restore 1
 285 0028 03340100 		ld	s0,0(sp)
 286              		.cfi_restore 8
 287              		.cfi_def_cfa 2, 16
 288 002c 13010101 		addi	sp,sp,16
 289              		.cfi_def_cfa_offset 0
GAS LISTING /tmp/ccMeUcYP.s 			page 7


 290 0030 67800000 		jr	ra
 291              		.cfi_endproc
 292              	.LFE141:
 294              		.weak	_ZN7WorkerDD1Ev
 295              		.set	_ZN7WorkerDD1Ev,_ZN7WorkerDD2Ev
 296              		.section	.text._ZN7WorkerDD0Ev,"axG",@progbits,_ZN7WorkerDD5Ev,comdat
 297              		.align	2
 298              		.weak	_ZN7WorkerDD0Ev
 300              	_ZN7WorkerDD0Ev:
 301              	.LFB143:
 302              		.loc 1 49 7 is_stmt 1
 303              		.cfi_startproc
 304              	.LVL23:
 305 0000 130101FE 		addi	sp,sp,-32
 306              		.cfi_def_cfa_offset 32
 307 0004 233C1100 		sd	ra,24(sp)
 308 0008 23388100 		sd	s0,16(sp)
 309 000c 23349100 		sd	s1,8(sp)
 310              		.cfi_offset 1, -8
 311              		.cfi_offset 8, -16
 312              		.cfi_offset 9, -24
 313 0010 13040102 		addi	s0,sp,32
 314              		.cfi_def_cfa 8, 0
 315 0014 93040500 		mv	s1,a0
 316              	.LVL24:
 317              	.LBB146:
 318              	.LBB147:
 319              		.loc 1 49 7 is_stmt 0
 320 0018 97070000 		lla	a5,_ZTV7WorkerD+16
 320      93870700 
 321 0020 2330F500 		sd	a5,0(a0)
 322 0024 97000000 		call	_ZN6ThreadD2Ev@plt
 322      E7800000 
 323              	.LVL25:
 324              	.LBE147:
 325              	.LBE146:
 326 002c 13850400 		mv	a0,s1
 327 0030 97000000 		call	_ZdlPv@plt
 327      E7800000 
 328              	.LVL26:
 329 0038 83308101 		ld	ra,24(sp)
 330              		.cfi_restore 1
 331 003c 03340101 		ld	s0,16(sp)
 332              		.cfi_restore 8
 333              		.cfi_def_cfa 2, 32
 334 0040 83348100 		ld	s1,8(sp)
 335              		.cfi_restore 9
 336              	.LVL27:
 337 0044 13010102 		addi	sp,sp,32
 338              		.cfi_def_cfa_offset 0
 339 0048 67800000 		jr	ra
 340              		.cfi_endproc
 341              	.LFE143:
 343              		.section	.text._ZN8ConsumerD2Ev,"axG",@progbits,_ZN8ConsumerD5Ev,comdat
 344              		.align	2
 345              		.weak	_ZN8ConsumerD2Ev
 347              	_ZN8ConsumerD2Ev:
GAS LISTING /tmp/ccMeUcYP.s 			page 8


 348              	.LFB129:
 349              		.file 2 "src/../h/ConsumerProducer_CPP_Sync_API_test.h"
   1:src/../h/ConsumerProducer_CPP_Sync_API_test.h **** //
   2:src/../h/ConsumerProducer_CPP_Sync_API_test.h **** // Created by os on 4/17/22.
   3:src/../h/ConsumerProducer_CPP_Sync_API_test.h **** //
   4:src/../h/ConsumerProducer_CPP_Sync_API_test.h **** 
   5:src/../h/ConsumerProducer_CPP_Sync_API_test.h **** #ifndef XV6_CONSUMERPRODUCER_CPP_Sync_API_TEST_H
   6:src/../h/ConsumerProducer_CPP_Sync_API_test.h **** #define XV6_CONSUMERPRODUCER_CPP_Sync_API_TEST_H
   7:src/../h/ConsumerProducer_CPP_Sync_API_test.h **** 
   8:src/../h/ConsumerProducer_CPP_Sync_API_test.h **** #include "../h/syscall_cpp.h"
   9:src/../h/ConsumerProducer_CPP_Sync_API_test.h **** #include "buffer_CPP_API.hpp"
  10:src/../h/ConsumerProducer_CPP_Sync_API_test.h **** 
  11:src/../h/ConsumerProducer_CPP_Sync_API_test.h **** Semaphore* waitForAll;
  12:src/../h/ConsumerProducer_CPP_Sync_API_test.h **** 
  13:src/../h/ConsumerProducer_CPP_Sync_API_test.h **** struct thread_data {
  14:src/../h/ConsumerProducer_CPP_Sync_API_test.h ****     int id;
  15:src/../h/ConsumerProducer_CPP_Sync_API_test.h ****     BufferCPP *buffer;
  16:src/../h/ConsumerProducer_CPP_Sync_API_test.h ****     Semaphore* wait;
  17:src/../h/ConsumerProducer_CPP_Sync_API_test.h **** };
  18:src/../h/ConsumerProducer_CPP_Sync_API_test.h **** 
  19:src/../h/ConsumerProducer_CPP_Sync_API_test.h **** volatile int threadEnd = 0;
  20:src/../h/ConsumerProducer_CPP_Sync_API_test.h **** 
  21:src/../h/ConsumerProducer_CPP_Sync_API_test.h **** class ProducerKeyboard:public Thread {
  22:src/../h/ConsumerProducer_CPP_Sync_API_test.h ****     thread_data* td;
  23:src/../h/ConsumerProducer_CPP_Sync_API_test.h ****     void producerKeyboard(void *arg);
  24:src/../h/ConsumerProducer_CPP_Sync_API_test.h **** public:
  25:src/../h/ConsumerProducer_CPP_Sync_API_test.h ****     ProducerKeyboard(thread_data* _td):Thread(), td(_td) {}
  26:src/../h/ConsumerProducer_CPP_Sync_API_test.h **** 
  27:src/../h/ConsumerProducer_CPP_Sync_API_test.h ****     void run() override {
  28:src/../h/ConsumerProducer_CPP_Sync_API_test.h ****         producerKeyboard(td);
  29:src/../h/ConsumerProducer_CPP_Sync_API_test.h ****     }
  30:src/../h/ConsumerProducer_CPP_Sync_API_test.h **** };
  31:src/../h/ConsumerProducer_CPP_Sync_API_test.h **** 
  32:src/../h/ConsumerProducer_CPP_Sync_API_test.h **** void ProducerKeyboard::producerKeyboard(void *arg) {
  33:src/../h/ConsumerProducer_CPP_Sync_API_test.h ****     struct thread_data *data = (struct thread_data *) arg;
  34:src/../h/ConsumerProducer_CPP_Sync_API_test.h **** 
  35:src/../h/ConsumerProducer_CPP_Sync_API_test.h ****     int key;
  36:src/../h/ConsumerProducer_CPP_Sync_API_test.h ****     int i = 0;
  37:src/../h/ConsumerProducer_CPP_Sync_API_test.h ****     while ((key = getc()) != 0x1b) {
  38:src/../h/ConsumerProducer_CPP_Sync_API_test.h ****         data->buffer->put(key);
  39:src/../h/ConsumerProducer_CPP_Sync_API_test.h ****         i++;
  40:src/../h/ConsumerProducer_CPP_Sync_API_test.h **** 
  41:src/../h/ConsumerProducer_CPP_Sync_API_test.h ****         if (i % (10 * data->id) == 0) {
  42:src/../h/ConsumerProducer_CPP_Sync_API_test.h ****             Thread::dispatch();
  43:src/../h/ConsumerProducer_CPP_Sync_API_test.h ****         }
  44:src/../h/ConsumerProducer_CPP_Sync_API_test.h ****     }
  45:src/../h/ConsumerProducer_CPP_Sync_API_test.h **** 
  46:src/../h/ConsumerProducer_CPP_Sync_API_test.h ****     threadEnd = 1;
  47:src/../h/ConsumerProducer_CPP_Sync_API_test.h ****     td->buffer->put('!');
  48:src/../h/ConsumerProducer_CPP_Sync_API_test.h **** 
  49:src/../h/ConsumerProducer_CPP_Sync_API_test.h ****     data->wait->signal();
  50:src/../h/ConsumerProducer_CPP_Sync_API_test.h **** }
  51:src/../h/ConsumerProducer_CPP_Sync_API_test.h **** 
  52:src/../h/ConsumerProducer_CPP_Sync_API_test.h **** class Producer:public Thread {
  53:src/../h/ConsumerProducer_CPP_Sync_API_test.h ****     thread_data* td;
  54:src/../h/ConsumerProducer_CPP_Sync_API_test.h ****     void producer(void *arg);
  55:src/../h/ConsumerProducer_CPP_Sync_API_test.h **** public:
GAS LISTING /tmp/ccMeUcYP.s 			page 9


  56:src/../h/ConsumerProducer_CPP_Sync_API_test.h ****     Producer(thread_data* _td):Thread(), td(_td) {}
  57:src/../h/ConsumerProducer_CPP_Sync_API_test.h **** 
  58:src/../h/ConsumerProducer_CPP_Sync_API_test.h ****     void run() override {
  59:src/../h/ConsumerProducer_CPP_Sync_API_test.h ****         producer(td);
  60:src/../h/ConsumerProducer_CPP_Sync_API_test.h ****     }
  61:src/../h/ConsumerProducer_CPP_Sync_API_test.h **** };
  62:src/../h/ConsumerProducer_CPP_Sync_API_test.h **** 
  63:src/../h/ConsumerProducer_CPP_Sync_API_test.h **** void Producer::producer(void *arg) {
  64:src/../h/ConsumerProducer_CPP_Sync_API_test.h ****     struct thread_data *data = (struct thread_data *) arg;
  65:src/../h/ConsumerProducer_CPP_Sync_API_test.h **** 
  66:src/../h/ConsumerProducer_CPP_Sync_API_test.h ****     int i = 0;
  67:src/../h/ConsumerProducer_CPP_Sync_API_test.h ****     while (!threadEnd) {
  68:src/../h/ConsumerProducer_CPP_Sync_API_test.h ****         data->buffer->put(data->id + '0');
  69:src/../h/ConsumerProducer_CPP_Sync_API_test.h ****         i++;
  70:src/../h/ConsumerProducer_CPP_Sync_API_test.h **** 
  71:src/../h/ConsumerProducer_CPP_Sync_API_test.h ****         if (i % (10 * data->id) == 0) {
  72:src/../h/ConsumerProducer_CPP_Sync_API_test.h ****             Thread::dispatch();
  73:src/../h/ConsumerProducer_CPP_Sync_API_test.h ****         }
  74:src/../h/ConsumerProducer_CPP_Sync_API_test.h ****     }
  75:src/../h/ConsumerProducer_CPP_Sync_API_test.h **** 
  76:src/../h/ConsumerProducer_CPP_Sync_API_test.h ****     data->wait->signal();
  77:src/../h/ConsumerProducer_CPP_Sync_API_test.h **** }
  78:src/../h/ConsumerProducer_CPP_Sync_API_test.h **** 
  79:src/../h/ConsumerProducer_CPP_Sync_API_test.h **** class Consumer:public Thread {
 350              		.loc 2 79 7 is_stmt 1
 351              		.cfi_startproc
 352              	.LVL28:
 353 0000 130101FF 		addi	sp,sp,-16
 354              		.cfi_def_cfa_offset 16
 355 0004 23341100 		sd	ra,8(sp)
 356 0008 23308100 		sd	s0,0(sp)
 357              		.cfi_offset 1, -8
 358              		.cfi_offset 8, -16
 359 000c 13040101 		addi	s0,sp,16
 360              		.cfi_def_cfa 8, 0
 361              	.LBB148:
 362              		.loc 2 79 7 is_stmt 0
 363 0010 97070000 		lla	a5,_ZTV8Consumer+16
 363      93870700 
 364 0018 2330F500 		sd	a5,0(a0)
 365 001c 97000000 		call	_ZN6ThreadD2Ev@plt
 365      E7800000 
 366              	.LVL29:
 367              	.LBE148:
 368 0024 83308100 		ld	ra,8(sp)
 369              		.cfi_restore 1
 370 0028 03340100 		ld	s0,0(sp)
 371              		.cfi_restore 8
 372              		.cfi_def_cfa 2, 16
 373 002c 13010101 		addi	sp,sp,16
 374              		.cfi_def_cfa_offset 0
 375 0030 67800000 		jr	ra
 376              		.cfi_endproc
 377              	.LFE129:
 379              		.weak	_ZN8ConsumerD1Ev
 380              		.set	_ZN8ConsumerD1Ev,_ZN8ConsumerD2Ev
 381              		.section	.text._ZN8ConsumerD0Ev,"axG",@progbits,_ZN8ConsumerD5Ev,comdat
GAS LISTING /tmp/ccMeUcYP.s 			page 10


 382              		.align	2
 383              		.weak	_ZN8ConsumerD0Ev
 385              	_ZN8ConsumerD0Ev:
 386              	.LFB131:
 387              		.loc 2 79 7 is_stmt 1
 388              		.cfi_startproc
 389              	.LVL30:
 390 0000 130101FE 		addi	sp,sp,-32
 391              		.cfi_def_cfa_offset 32
 392 0004 233C1100 		sd	ra,24(sp)
 393 0008 23388100 		sd	s0,16(sp)
 394 000c 23349100 		sd	s1,8(sp)
 395              		.cfi_offset 1, -8
 396              		.cfi_offset 8, -16
 397              		.cfi_offset 9, -24
 398 0010 13040102 		addi	s0,sp,32
 399              		.cfi_def_cfa 8, 0
 400 0014 93040500 		mv	s1,a0
 401              	.LVL31:
 402              	.LBB149:
 403              	.LBB150:
 404              		.loc 2 79 7 is_stmt 0
 405 0018 97070000 		lla	a5,_ZTV8Consumer+16
 405      93870700 
 406 0020 2330F500 		sd	a5,0(a0)
 407 0024 97000000 		call	_ZN6ThreadD2Ev@plt
 407      E7800000 
 408              	.LVL32:
 409              	.LBE150:
 410              	.LBE149:
 411 002c 13850400 		mv	a0,s1
 412 0030 97000000 		call	_ZdlPv@plt
 412      E7800000 
 413              	.LVL33:
 414 0038 83308101 		ld	ra,24(sp)
 415              		.cfi_restore 1
 416 003c 03340101 		ld	s0,16(sp)
 417              		.cfi_restore 8
 418              		.cfi_def_cfa 2, 32
 419 0040 83348100 		ld	s1,8(sp)
 420              		.cfi_restore 9
 421              	.LVL34:
 422 0044 13010102 		addi	sp,sp,32
 423              		.cfi_def_cfa_offset 0
 424 0048 67800000 		jr	ra
 425              		.cfi_endproc
 426              	.LFE131:
 428              		.section	.text._ZN8ProducerD2Ev,"axG",@progbits,_ZN8ProducerD5Ev,comdat
 429              		.align	2
 430              		.weak	_ZN8ProducerD2Ev
 432              	_ZN8ProducerD2Ev:
 433              	.LFB133:
  52:src/../h/ConsumerProducer_CPP_Sync_API_test.h ****     thread_data* td;
 434              		.loc 2 52 7 is_stmt 1
 435              		.cfi_startproc
 436              	.LVL35:
 437 0000 130101FF 		addi	sp,sp,-16
GAS LISTING /tmp/ccMeUcYP.s 			page 11


 438              		.cfi_def_cfa_offset 16
 439 0004 23341100 		sd	ra,8(sp)
 440 0008 23308100 		sd	s0,0(sp)
 441              		.cfi_offset 1, -8
 442              		.cfi_offset 8, -16
 443 000c 13040101 		addi	s0,sp,16
 444              		.cfi_def_cfa 8, 0
 445              	.LBB151:
  52:src/../h/ConsumerProducer_CPP_Sync_API_test.h ****     thread_data* td;
 446              		.loc 2 52 7 is_stmt 0
 447 0010 97070000 		lla	a5,_ZTV8Producer+16
 447      93870700 
 448 0018 2330F500 		sd	a5,0(a0)
 449 001c 97000000 		call	_ZN6ThreadD2Ev@plt
 449      E7800000 
 450              	.LVL36:
 451              	.LBE151:
 452 0024 83308100 		ld	ra,8(sp)
 453              		.cfi_restore 1
 454 0028 03340100 		ld	s0,0(sp)
 455              		.cfi_restore 8
 456              		.cfi_def_cfa 2, 16
 457 002c 13010101 		addi	sp,sp,16
 458              		.cfi_def_cfa_offset 0
 459 0030 67800000 		jr	ra
 460              		.cfi_endproc
 461              	.LFE133:
 463              		.weak	_ZN8ProducerD1Ev
 464              		.set	_ZN8ProducerD1Ev,_ZN8ProducerD2Ev
 465              		.section	.text._ZN8ProducerD0Ev,"axG",@progbits,_ZN8ProducerD5Ev,comdat
 466              		.align	2
 467              		.weak	_ZN8ProducerD0Ev
 469              	_ZN8ProducerD0Ev:
 470              	.LFB135:
  52:src/../h/ConsumerProducer_CPP_Sync_API_test.h ****     thread_data* td;
 471              		.loc 2 52 7 is_stmt 1
 472              		.cfi_startproc
 473              	.LVL37:
 474 0000 130101FE 		addi	sp,sp,-32
 475              		.cfi_def_cfa_offset 32
 476 0004 233C1100 		sd	ra,24(sp)
 477 0008 23388100 		sd	s0,16(sp)
 478 000c 23349100 		sd	s1,8(sp)
 479              		.cfi_offset 1, -8
 480              		.cfi_offset 8, -16
 481              		.cfi_offset 9, -24
 482 0010 13040102 		addi	s0,sp,32
 483              		.cfi_def_cfa 8, 0
 484 0014 93040500 		mv	s1,a0
 485              	.LVL38:
 486              	.LBB152:
 487              	.LBB153:
  52:src/../h/ConsumerProducer_CPP_Sync_API_test.h ****     thread_data* td;
 488              		.loc 2 52 7 is_stmt 0
 489 0018 97070000 		lla	a5,_ZTV8Producer+16
 489      93870700 
 490 0020 2330F500 		sd	a5,0(a0)
GAS LISTING /tmp/ccMeUcYP.s 			page 12


 491 0024 97000000 		call	_ZN6ThreadD2Ev@plt
 491      E7800000 
 492              	.LVL39:
 493              	.LBE153:
 494              	.LBE152:
 495 002c 13850400 		mv	a0,s1
 496 0030 97000000 		call	_ZdlPv@plt
 496      E7800000 
 497              	.LVL40:
 498 0038 83308101 		ld	ra,24(sp)
 499              		.cfi_restore 1
 500 003c 03340101 		ld	s0,16(sp)
 501              		.cfi_restore 8
 502              		.cfi_def_cfa 2, 32
 503 0040 83348100 		ld	s1,8(sp)
 504              		.cfi_restore 9
 505              	.LVL41:
 506 0044 13010102 		addi	sp,sp,32
 507              		.cfi_def_cfa_offset 0
 508 0048 67800000 		jr	ra
 509              		.cfi_endproc
 510              	.LFE135:
 512              		.section	.text._ZN16ProducerKeyboardD2Ev,"axG",@progbits,_ZN16ProducerKeyboardD5Ev,comdat
 513              		.align	2
 514              		.weak	_ZN16ProducerKeyboardD2Ev
 516              	_ZN16ProducerKeyboardD2Ev:
 517              	.LFB137:
  21:src/../h/ConsumerProducer_CPP_Sync_API_test.h ****     thread_data* td;
 518              		.loc 2 21 7 is_stmt 1
 519              		.cfi_startproc
 520              	.LVL42:
 521 0000 130101FF 		addi	sp,sp,-16
 522              		.cfi_def_cfa_offset 16
 523 0004 23341100 		sd	ra,8(sp)
 524 0008 23308100 		sd	s0,0(sp)
 525              		.cfi_offset 1, -8
 526              		.cfi_offset 8, -16
 527 000c 13040101 		addi	s0,sp,16
 528              		.cfi_def_cfa 8, 0
 529              	.LBB154:
  21:src/../h/ConsumerProducer_CPP_Sync_API_test.h ****     thread_data* td;
 530              		.loc 2 21 7 is_stmt 0
 531 0010 97070000 		lla	a5,_ZTV16ProducerKeyboard+16
 531      93870700 
 532 0018 2330F500 		sd	a5,0(a0)
 533 001c 97000000 		call	_ZN6ThreadD2Ev@plt
 533      E7800000 
 534              	.LVL43:
 535              	.LBE154:
 536 0024 83308100 		ld	ra,8(sp)
 537              		.cfi_restore 1
 538 0028 03340100 		ld	s0,0(sp)
 539              		.cfi_restore 8
 540              		.cfi_def_cfa 2, 16
 541 002c 13010101 		addi	sp,sp,16
 542              		.cfi_def_cfa_offset 0
 543 0030 67800000 		jr	ra
GAS LISTING /tmp/ccMeUcYP.s 			page 13


 544              		.cfi_endproc
 545              	.LFE137:
 547              		.weak	_ZN16ProducerKeyboardD1Ev
 548              		.set	_ZN16ProducerKeyboardD1Ev,_ZN16ProducerKeyboardD2Ev
 549              		.section	.text._ZN16ProducerKeyboardD0Ev,"axG",@progbits,_ZN16ProducerKeyboardD5Ev,comdat
 550              		.align	2
 551              		.weak	_ZN16ProducerKeyboardD0Ev
 553              	_ZN16ProducerKeyboardD0Ev:
 554              	.LFB139:
  21:src/../h/ConsumerProducer_CPP_Sync_API_test.h ****     thread_data* td;
 555              		.loc 2 21 7 is_stmt 1
 556              		.cfi_startproc
 557              	.LVL44:
 558 0000 130101FE 		addi	sp,sp,-32
 559              		.cfi_def_cfa_offset 32
 560 0004 233C1100 		sd	ra,24(sp)
 561 0008 23388100 		sd	s0,16(sp)
 562 000c 23349100 		sd	s1,8(sp)
 563              		.cfi_offset 1, -8
 564              		.cfi_offset 8, -16
 565              		.cfi_offset 9, -24
 566 0010 13040102 		addi	s0,sp,32
 567              		.cfi_def_cfa 8, 0
 568 0014 93040500 		mv	s1,a0
 569              	.LVL45:
 570              	.LBB155:
 571              	.LBB156:
  21:src/../h/ConsumerProducer_CPP_Sync_API_test.h ****     thread_data* td;
 572              		.loc 2 21 7 is_stmt 0
 573 0018 97070000 		lla	a5,_ZTV16ProducerKeyboard+16
 573      93870700 
 574 0020 2330F500 		sd	a5,0(a0)
 575 0024 97000000 		call	_ZN6ThreadD2Ev@plt
 575      E7800000 
 576              	.LVL46:
 577              	.LBE156:
 578              	.LBE155:
 579 002c 13850400 		mv	a0,s1
 580 0030 97000000 		call	_ZdlPv@plt
 580      E7800000 
 581              	.LVL47:
 582 0038 83308101 		ld	ra,24(sp)
 583              		.cfi_restore 1
 584 003c 03340101 		ld	s0,16(sp)
 585              		.cfi_restore 8
 586              		.cfi_def_cfa 2, 32
 587 0040 83348100 		ld	s1,8(sp)
 588              		.cfi_restore 9
 589              	.LVL48:
 590 0044 13010102 		addi	sp,sp,32
 591              		.cfi_def_cfa_offset 0
 592 0048 67800000 		jr	ra
 593              		.cfi_endproc
 594              	.LFE139:
 596              		.section	.text._ZN19ConsumerProducerCPP8ConsumerD2Ev,"axG",@progbits,_ZN19ConsumerProducerCPP8Cons
 597              		.align	2
 598              		.weak	_ZN19ConsumerProducerCPP8ConsumerD2Ev
GAS LISTING /tmp/ccMeUcYP.s 			page 14


 600              	_ZN19ConsumerProducerCPP8ConsumerD2Ev:
 601              	.LFB117:
 602              		.file 3 "src/../h/ConsumerProducer_CPP_API_test.h"
   1:src/../h/ConsumerProducer_CPP_API_test.h **** //
   2:src/../h/ConsumerProducer_CPP_API_test.h **** // Created by os on 4/17/22.
   3:src/../h/ConsumerProducer_CPP_API_test.h **** //
   4:src/../h/ConsumerProducer_CPP_API_test.h **** 
   5:src/../h/ConsumerProducer_CPP_API_test.h **** #ifndef XV6_CONSUMERPRODUCER_CPP_API_TEST_HPP
   6:src/../h/ConsumerProducer_CPP_API_test.h **** #define XV6_CONSUMERPRODUCER_CPP_API_TEST_HPP
   7:src/../h/ConsumerProducer_CPP_API_test.h **** 
   8:src/../h/ConsumerProducer_CPP_API_test.h **** #include "../h/syscall_cpp.h"
   9:src/../h/ConsumerProducer_CPP_API_test.h **** 
  10:src/../h/ConsumerProducer_CPP_API_test.h **** #include "buffer_CPP_API.hpp"
  11:src/../h/ConsumerProducer_CPP_API_test.h **** #include "printing.h"
  12:src/../h/ConsumerProducer_CPP_API_test.h **** 
  13:src/../h/ConsumerProducer_CPP_API_test.h **** namespace ConsumerProducerCPP {
  14:src/../h/ConsumerProducer_CPP_API_test.h **** 
  15:src/../h/ConsumerProducer_CPP_API_test.h ****     Semaphore *waitForAll;
  16:src/../h/ConsumerProducer_CPP_API_test.h **** 
  17:src/../h/ConsumerProducer_CPP_API_test.h ****     struct thread_data {
  18:src/../h/ConsumerProducer_CPP_API_test.h ****         int id;
  19:src/../h/ConsumerProducer_CPP_API_test.h ****         BufferCPP *buffer;
  20:src/../h/ConsumerProducer_CPP_API_test.h ****         Semaphore *sem;
  21:src/../h/ConsumerProducer_CPP_API_test.h ****     };
  22:src/../h/ConsumerProducer_CPP_API_test.h **** 
  23:src/../h/ConsumerProducer_CPP_API_test.h ****     volatile int threadEnd = 0;
  24:src/../h/ConsumerProducer_CPP_API_test.h **** 
  25:src/../h/ConsumerProducer_CPP_API_test.h ****     class ProducerKeyborad : public Thread {
  26:src/../h/ConsumerProducer_CPP_API_test.h ****         thread_data *td;
  27:src/../h/ConsumerProducer_CPP_API_test.h ****     public:
  28:src/../h/ConsumerProducer_CPP_API_test.h ****         ProducerKeyborad(thread_data *_td) : Thread(), td(_td) {}
  29:src/../h/ConsumerProducer_CPP_API_test.h **** 
  30:src/../h/ConsumerProducer_CPP_API_test.h ****         void run() override {
  31:src/../h/ConsumerProducer_CPP_API_test.h ****             int key;
  32:src/../h/ConsumerProducer_CPP_API_test.h ****             int i = 0;
  33:src/../h/ConsumerProducer_CPP_API_test.h ****             while ((key = getc()) != 0x1b) {
  34:src/../h/ConsumerProducer_CPP_API_test.h ****                 td->buffer->put(key);
  35:src/../h/ConsumerProducer_CPP_API_test.h ****                 i++;
  36:src/../h/ConsumerProducer_CPP_API_test.h ****             }
  37:src/../h/ConsumerProducer_CPP_API_test.h **** 
  38:src/../h/ConsumerProducer_CPP_API_test.h ****             threadEnd = 1;
  39:src/../h/ConsumerProducer_CPP_API_test.h ****             td->buffer->put('!');
  40:src/../h/ConsumerProducer_CPP_API_test.h **** 
  41:src/../h/ConsumerProducer_CPP_API_test.h ****             td->sem->signal();
  42:src/../h/ConsumerProducer_CPP_API_test.h ****         }
  43:src/../h/ConsumerProducer_CPP_API_test.h ****     };
  44:src/../h/ConsumerProducer_CPP_API_test.h **** 
  45:src/../h/ConsumerProducer_CPP_API_test.h ****     class Producer : public Thread {
  46:src/../h/ConsumerProducer_CPP_API_test.h ****         thread_data *td;
  47:src/../h/ConsumerProducer_CPP_API_test.h ****     public:
  48:src/../h/ConsumerProducer_CPP_API_test.h ****         Producer(thread_data *_td) : Thread(), td(_td) {}
  49:src/../h/ConsumerProducer_CPP_API_test.h **** 
  50:src/../h/ConsumerProducer_CPP_API_test.h ****         void run() override {
  51:src/../h/ConsumerProducer_CPP_API_test.h ****             int i = 0;
  52:src/../h/ConsumerProducer_CPP_API_test.h ****             while (!threadEnd) {
  53:src/../h/ConsumerProducer_CPP_API_test.h ****                 td->buffer->put(td->id + '0');
  54:src/../h/ConsumerProducer_CPP_API_test.h ****                 i++;
GAS LISTING /tmp/ccMeUcYP.s 			page 15


  55:src/../h/ConsumerProducer_CPP_API_test.h ****                 Thread::sleep((i+td->id)%5);
  56:src/../h/ConsumerProducer_CPP_API_test.h ****             }
  57:src/../h/ConsumerProducer_CPP_API_test.h **** 
  58:src/../h/ConsumerProducer_CPP_API_test.h ****             td->sem->signal();
  59:src/../h/ConsumerProducer_CPP_API_test.h ****         }
  60:src/../h/ConsumerProducer_CPP_API_test.h ****     };
  61:src/../h/ConsumerProducer_CPP_API_test.h **** 
  62:src/../h/ConsumerProducer_CPP_API_test.h ****     class Consumer : public Thread {
 603              		.loc 3 62 11 is_stmt 1
 604              		.cfi_startproc
 605              	.LVL49:
 606 0000 130101FF 		addi	sp,sp,-16
 607              		.cfi_def_cfa_offset 16
 608 0004 23341100 		sd	ra,8(sp)
 609 0008 23308100 		sd	s0,0(sp)
 610              		.cfi_offset 1, -8
 611              		.cfi_offset 8, -16
 612 000c 13040101 		addi	s0,sp,16
 613              		.cfi_def_cfa 8, 0
 614              	.LBB157:
 615              		.loc 3 62 11 is_stmt 0
 616 0010 97070000 		lla	a5,_ZTVN19ConsumerProducerCPP8ConsumerE+16
 616      93870700 
 617 0018 2330F500 		sd	a5,0(a0)
 618 001c 97000000 		call	_ZN6ThreadD2Ev@plt
 618      E7800000 
 619              	.LVL50:
 620              	.LBE157:
 621 0024 83308100 		ld	ra,8(sp)
 622              		.cfi_restore 1
 623 0028 03340100 		ld	s0,0(sp)
 624              		.cfi_restore 8
 625              		.cfi_def_cfa 2, 16
 626 002c 13010101 		addi	sp,sp,16
 627              		.cfi_def_cfa_offset 0
 628 0030 67800000 		jr	ra
 629              		.cfi_endproc
 630              	.LFE117:
 632              		.weak	_ZN19ConsumerProducerCPP8ConsumerD1Ev
 633              		.set	_ZN19ConsumerProducerCPP8ConsumerD1Ev,_ZN19ConsumerProducerCPP8ConsumerD2Ev
 634              		.section	.text._ZN19ConsumerProducerCPP8ConsumerD0Ev,"axG",@progbits,_ZN19ConsumerProducerCPP8Cons
 635              		.align	2
 636              		.weak	_ZN19ConsumerProducerCPP8ConsumerD0Ev
 638              	_ZN19ConsumerProducerCPP8ConsumerD0Ev:
 639              	.LFB119:
 640              		.loc 3 62 11 is_stmt 1
 641              		.cfi_startproc
 642              	.LVL51:
 643 0000 130101FE 		addi	sp,sp,-32
 644              		.cfi_def_cfa_offset 32
 645 0004 233C1100 		sd	ra,24(sp)
 646 0008 23388100 		sd	s0,16(sp)
 647 000c 23349100 		sd	s1,8(sp)
 648              		.cfi_offset 1, -8
 649              		.cfi_offset 8, -16
 650              		.cfi_offset 9, -24
 651 0010 13040102 		addi	s0,sp,32
GAS LISTING /tmp/ccMeUcYP.s 			page 16


 652              		.cfi_def_cfa 8, 0
 653 0014 93040500 		mv	s1,a0
 654              	.LVL52:
 655              	.LBB158:
 656              	.LBB159:
 657              		.loc 3 62 11 is_stmt 0
 658 0018 97070000 		lla	a5,_ZTVN19ConsumerProducerCPP8ConsumerE+16
 658      93870700 
 659 0020 2330F500 		sd	a5,0(a0)
 660 0024 97000000 		call	_ZN6ThreadD2Ev@plt
 660      E7800000 
 661              	.LVL53:
 662              	.LBE159:
 663              	.LBE158:
 664 002c 13850400 		mv	a0,s1
 665 0030 97000000 		call	_ZdlPv@plt
 665      E7800000 
 666              	.LVL54:
 667 0038 83308101 		ld	ra,24(sp)
 668              		.cfi_restore 1
 669 003c 03340101 		ld	s0,16(sp)
 670              		.cfi_restore 8
 671              		.cfi_def_cfa 2, 32
 672 0040 83348100 		ld	s1,8(sp)
 673              		.cfi_restore 9
 674              	.LVL55:
 675 0044 13010102 		addi	sp,sp,32
 676              		.cfi_def_cfa_offset 0
 677 0048 67800000 		jr	ra
 678              		.cfi_endproc
 679              	.LFE119:
 681              		.section	.text._ZN19ConsumerProducerCPP16ProducerKeyboradD2Ev,"axG",@progbits,_ZN19ConsumerProduce
 682              		.align	2
 683              		.weak	_ZN19ConsumerProducerCPP16ProducerKeyboradD2Ev
 685              	_ZN19ConsumerProducerCPP16ProducerKeyboradD2Ev:
 686              	.LFB125:
  25:src/../h/ConsumerProducer_CPP_API_test.h ****         thread_data *td;
 687              		.loc 3 25 11 is_stmt 1
 688              		.cfi_startproc
 689              	.LVL56:
 690 0000 130101FF 		addi	sp,sp,-16
 691              		.cfi_def_cfa_offset 16
 692 0004 23341100 		sd	ra,8(sp)
 693 0008 23308100 		sd	s0,0(sp)
 694              		.cfi_offset 1, -8
 695              		.cfi_offset 8, -16
 696 000c 13040101 		addi	s0,sp,16
 697              		.cfi_def_cfa 8, 0
 698              	.LBB160:
  25:src/../h/ConsumerProducer_CPP_API_test.h ****         thread_data *td;
 699              		.loc 3 25 11 is_stmt 0
 700 0010 97070000 		lla	a5,_ZTVN19ConsumerProducerCPP16ProducerKeyboradE+16
 700      93870700 
 701 0018 2330F500 		sd	a5,0(a0)
 702 001c 97000000 		call	_ZN6ThreadD2Ev@plt
 702      E7800000 
 703              	.LVL57:
GAS LISTING /tmp/ccMeUcYP.s 			page 17


 704              	.LBE160:
 705 0024 83308100 		ld	ra,8(sp)
 706              		.cfi_restore 1
 707 0028 03340100 		ld	s0,0(sp)
 708              		.cfi_restore 8
 709              		.cfi_def_cfa 2, 16
 710 002c 13010101 		addi	sp,sp,16
 711              		.cfi_def_cfa_offset 0
 712 0030 67800000 		jr	ra
 713              		.cfi_endproc
 714              	.LFE125:
 716              		.weak	_ZN19ConsumerProducerCPP16ProducerKeyboradD1Ev
 717              		.set	_ZN19ConsumerProducerCPP16ProducerKeyboradD1Ev,_ZN19ConsumerProducerCPP16ProducerKeyboradD2Ev
 718              		.section	.text._ZN19ConsumerProducerCPP16ProducerKeyboradD0Ev,"axG",@progbits,_ZN19ConsumerProduce
 719              		.align	2
 720              		.weak	_ZN19ConsumerProducerCPP16ProducerKeyboradD0Ev
 722              	_ZN19ConsumerProducerCPP16ProducerKeyboradD0Ev:
 723              	.LFB127:
  25:src/../h/ConsumerProducer_CPP_API_test.h ****         thread_data *td;
 724              		.loc 3 25 11 is_stmt 1
 725              		.cfi_startproc
 726              	.LVL58:
 727 0000 130101FE 		addi	sp,sp,-32
 728              		.cfi_def_cfa_offset 32
 729 0004 233C1100 		sd	ra,24(sp)
 730 0008 23388100 		sd	s0,16(sp)
 731 000c 23349100 		sd	s1,8(sp)
 732              		.cfi_offset 1, -8
 733              		.cfi_offset 8, -16
 734              		.cfi_offset 9, -24
 735 0010 13040102 		addi	s0,sp,32
 736              		.cfi_def_cfa 8, 0
 737 0014 93040500 		mv	s1,a0
 738              	.LVL59:
 739              	.LBB161:
 740              	.LBB162:
  25:src/../h/ConsumerProducer_CPP_API_test.h ****         thread_data *td;
 741              		.loc 3 25 11 is_stmt 0
 742 0018 97070000 		lla	a5,_ZTVN19ConsumerProducerCPP16ProducerKeyboradE+16
 742      93870700 
 743 0020 2330F500 		sd	a5,0(a0)
 744 0024 97000000 		call	_ZN6ThreadD2Ev@plt
 744      E7800000 
 745              	.LVL60:
 746              	.LBE162:
 747              	.LBE161:
 748 002c 13850400 		mv	a0,s1
 749 0030 97000000 		call	_ZdlPv@plt
 749      E7800000 
 750              	.LVL61:
 751 0038 83308101 		ld	ra,24(sp)
 752              		.cfi_restore 1
 753 003c 03340101 		ld	s0,16(sp)
 754              		.cfi_restore 8
 755              		.cfi_def_cfa 2, 32
 756 0040 83348100 		ld	s1,8(sp)
 757              		.cfi_restore 9
GAS LISTING /tmp/ccMeUcYP.s 			page 18


 758              	.LVL62:
 759 0044 13010102 		addi	sp,sp,32
 760              		.cfi_def_cfa_offset 0
 761 0048 67800000 		jr	ra
 762              		.cfi_endproc
 763              	.LFE127:
 765              		.section	.text._ZN19ConsumerProducerCPP8ProducerD2Ev,"axG",@progbits,_ZN19ConsumerProducerCPP8Prod
 766              		.align	2
 767              		.weak	_ZN19ConsumerProducerCPP8ProducerD2Ev
 769              	_ZN19ConsumerProducerCPP8ProducerD2Ev:
 770              	.LFB121:
  45:src/../h/ConsumerProducer_CPP_API_test.h ****         thread_data *td;
 771              		.loc 3 45 11 is_stmt 1
 772              		.cfi_startproc
 773              	.LVL63:
 774 0000 130101FF 		addi	sp,sp,-16
 775              		.cfi_def_cfa_offset 16
 776 0004 23341100 		sd	ra,8(sp)
 777 0008 23308100 		sd	s0,0(sp)
 778              		.cfi_offset 1, -8
 779              		.cfi_offset 8, -16
 780 000c 13040101 		addi	s0,sp,16
 781              		.cfi_def_cfa 8, 0
 782              	.LBB163:
  45:src/../h/ConsumerProducer_CPP_API_test.h ****         thread_data *td;
 783              		.loc 3 45 11 is_stmt 0
 784 0010 97070000 		lla	a5,_ZTVN19ConsumerProducerCPP8ProducerE+16
 784      93870700 
 785 0018 2330F500 		sd	a5,0(a0)
 786 001c 97000000 		call	_ZN6ThreadD2Ev@plt
 786      E7800000 
 787              	.LVL64:
 788              	.LBE163:
 789 0024 83308100 		ld	ra,8(sp)
 790              		.cfi_restore 1
 791 0028 03340100 		ld	s0,0(sp)
 792              		.cfi_restore 8
 793              		.cfi_def_cfa 2, 16
 794 002c 13010101 		addi	sp,sp,16
 795              		.cfi_def_cfa_offset 0
 796 0030 67800000 		jr	ra
 797              		.cfi_endproc
 798              	.LFE121:
 800              		.weak	_ZN19ConsumerProducerCPP8ProducerD1Ev
 801              		.set	_ZN19ConsumerProducerCPP8ProducerD1Ev,_ZN19ConsumerProducerCPP8ProducerD2Ev
 802              		.section	.text._ZN19ConsumerProducerCPP8ProducerD0Ev,"axG",@progbits,_ZN19ConsumerProducerCPP8Prod
 803              		.align	2
 804              		.weak	_ZN19ConsumerProducerCPP8ProducerD0Ev
 806              	_ZN19ConsumerProducerCPP8ProducerD0Ev:
 807              	.LFB123:
  45:src/../h/ConsumerProducer_CPP_API_test.h ****         thread_data *td;
 808              		.loc 3 45 11 is_stmt 1
 809              		.cfi_startproc
 810              	.LVL65:
 811 0000 130101FE 		addi	sp,sp,-32
 812              		.cfi_def_cfa_offset 32
 813 0004 233C1100 		sd	ra,24(sp)
GAS LISTING /tmp/ccMeUcYP.s 			page 19


 814 0008 23388100 		sd	s0,16(sp)
 815 000c 23349100 		sd	s1,8(sp)
 816              		.cfi_offset 1, -8
 817              		.cfi_offset 8, -16
 818              		.cfi_offset 9, -24
 819 0010 13040102 		addi	s0,sp,32
 820              		.cfi_def_cfa 8, 0
 821 0014 93040500 		mv	s1,a0
 822              	.LVL66:
 823              	.LBB164:
 824              	.LBB165:
  45:src/../h/ConsumerProducer_CPP_API_test.h ****         thread_data *td;
 825              		.loc 3 45 11 is_stmt 0
 826 0018 97070000 		lla	a5,_ZTVN19ConsumerProducerCPP8ProducerE+16
 826      93870700 
 827 0020 2330F500 		sd	a5,0(a0)
 828 0024 97000000 		call	_ZN6ThreadD2Ev@plt
 828      E7800000 
 829              	.LVL67:
 830              	.LBE165:
 831              	.LBE164:
 832 002c 13850400 		mv	a0,s1
 833 0030 97000000 		call	_ZdlPv@plt
 833      E7800000 
 834              	.LVL68:
 835 0038 83308101 		ld	ra,24(sp)
 836              		.cfi_restore 1
 837 003c 03340101 		ld	s0,16(sp)
 838              		.cfi_restore 8
 839              		.cfi_def_cfa 2, 32
 840 0040 83348100 		ld	s1,8(sp)
 841              		.cfi_restore 9
 842              	.LVL69:
 843 0044 13010102 		addi	sp,sp,32
 844              		.cfi_def_cfa_offset 0
 845 0048 67800000 		jr	ra
 846              		.cfi_endproc
 847              	.LFE123:
 849              		.section	.text._ZN3AAAD2Ev,"axG",@progbits,_ZN3AAAD5Ev,comdat
 850              		.align	2
 851              		.weak	_ZN3AAAD2Ev
 853              	_ZN3AAAD2Ev:
 854              	.LFB113:
 855              		.file 4 "src/userMain.cpp"
   1:src/userMain.cpp **** //#include "../h/Threads_C_API_test.h" // zadatak 2, niti C API i sinhrona promena konteksta
   2:src/userMain.cpp **** #include "../h/Threads_CPP_API_test.h" // zadatak 2., niti CPP API i sinhrona promena konteksta
   3:src/userMain.cpp **** 
   4:src/userMain.cpp **** //#include "../h/ConsumerProducer_C_API_test.h" // zadatak 3., kompletan C API sa semaforima, sinhr
   5:src/userMain.cpp **** #include "../h/ConsumerProducer_CPP_Sync_API_test.h" // zadatak 3., kompletan CPP API sa semaforima
   6:src/userMain.cpp **** 
   7:src/userMain.cpp **** #include "../h/ThreadSleep_C_API_test.h" // thread_sleep test C API
   8:src/userMain.cpp **** #include "../h/ConsumerProducer_CPP_API_test.h" // zadatak 4. CPP API i asinhrona promena konteksta
   9:src/userMain.cpp **** 
  10:src/userMain.cpp **** #include "../h/list.h"
  11:src/userMain.cpp **** 
  12:src/userMain.cpp **** ///--------------------------------------------------------------------------
  13:src/userMain.cpp **** 
GAS LISTING /tmp/ccMeUcYP.s 			page 20


  14:src/userMain.cpp **** #include "../h/Bafer.h"
  15:src/userMain.cpp **** #include "../h/scheduler.h"
  16:src/userMain.cpp **** #include "../h/syscall_cpp.h"
  17:src/userMain.cpp **** 
  18:src/userMain.cpp **** //testovi za alokaciju preko klase Memorija kernela
  19:src/userMain.cpp **** int KlasaMemorija() {
  20:src/userMain.cpp ****     Memorija::Print();
  21:src/userMain.cpp ****     void* b=Memorija::alokacija(100);
  22:src/userMain.cpp ****     Memorija::Print();
  23:src/userMain.cpp ****     void* c=Memorija::alokacija(20);
  24:src/userMain.cpp ****     Memorija::Print();
  25:src/userMain.cpp ****     void* d=Memorija::alokacija(50);
  26:src/userMain.cpp ****     Memorija::Print();
  27:src/userMain.cpp ****     void* e=Memorija::alokacija(50);
  28:src/userMain.cpp ****     Memorija::Print();
  29:src/userMain.cpp ****     print(Memorija::oslobadjanje(c));
  30:src/userMain.cpp ****     Memorija::Print();
  31:src/userMain.cpp ****     print(Memorija::oslobadjanje(e));
  32:src/userMain.cpp ****     Memorija::Print();
  33:src/userMain.cpp ****     print(Memorija::oslobadjanje(d));
  34:src/userMain.cpp ****     Memorija::Print();
  35:src/userMain.cpp ****     print(Memorija::oslobadjanje(b));
  36:src/userMain.cpp ****     Memorija::Print();
  37:src/userMain.cpp **** 
  38:src/userMain.cpp ****     putc('-');
  39:src/userMain.cpp ****     putc('\n');
  40:src/userMain.cpp ****     print((size_t)HEAP_START_ADDR);
  41:src/userMain.cpp ****     print((size_t)b);
  42:src/userMain.cpp ****     print((size_t)c);
  43:src/userMain.cpp ****     print((size_t)d);
  44:src/userMain.cpp ****     print((size_t)e);
  45:src/userMain.cpp **** 
  46:src/userMain.cpp ****     return 0;
  47:src/userMain.cpp **** }
  48:src/userMain.cpp **** 
  49:src/userMain.cpp **** //testovi za alokaciju preko prekidne rutine
  50:src/userMain.cpp **** int PrekidnaMemorija(){
  51:src/userMain.cpp ****     Memorija::Print();
  52:src/userMain.cpp ****     putc('\n');
  53:src/userMain.cpp ****     void* b=mem_alloc(20);
  54:src/userMain.cpp ****     Memorija::Print();
  55:src/userMain.cpp ****     void* c=mem_alloc(20);
  56:src/userMain.cpp ****     Memorija::Print();
  57:src/userMain.cpp ****     mem_alloc(54);
  58:src/userMain.cpp ****     Memorija::Print();
  59:src/userMain.cpp ****     mem_free(c);
  60:src/userMain.cpp ****     Memorija::Print();
  61:src/userMain.cpp ****     mem_free(b);
  62:src/userMain.cpp ****     print((size_t)b - (size_t)HEAP_START_ADDR);
  63:src/userMain.cpp ****     print((size_t)c - (size_t)HEAP_START_ADDR);
  64:src/userMain.cpp **** 
  65:src/userMain.cpp ****     return 0;
  66:src/userMain.cpp **** }
  67:src/userMain.cpp **** 
  68:src/userMain.cpp **** //testovi za scheduler, testira da li radi ulancavanje thredova
  69:src/userMain.cpp **** int SchedulerTest(){
  70:src/userMain.cpp ****     Nit *t1 = new Nit();
GAS LISTING /tmp/ccMeUcYP.s 			page 21


  71:src/userMain.cpp ****     Nit *t2 = new Nit();
  72:src/userMain.cpp ****     Nit *t3 = new Nit();
  73:src/userMain.cpp ****     Nit *t4 = new Nit();
  74:src/userMain.cpp **** 
  75:src/userMain.cpp ****     //print("Memorija:\n");
  76:src/userMain.cpp ****     //Memorija::Print();
  77:src/userMain.cpp ****     Scheduler::put(t1);
  78:src/userMain.cpp ****     Scheduler::Print();
  79:src/userMain.cpp ****     Scheduler::put(t2);
  80:src/userMain.cpp ****     Scheduler::Print();
  81:src/userMain.cpp ****     Scheduler::put(t3);
  82:src/userMain.cpp ****     Scheduler::Print();
  83:src/userMain.cpp ****     Scheduler::put(t4);
  84:src/userMain.cpp ****     Scheduler::Print();
  85:src/userMain.cpp ****     //print("Memorija:\n");
  86:src/userMain.cpp ****     //Memorija::Print();
  87:src/userMain.cpp ****     Scheduler::get();
  88:src/userMain.cpp ****     Scheduler::Print();
  89:src/userMain.cpp ****     Scheduler::get();
  90:src/userMain.cpp ****     Scheduler::Print();
  91:src/userMain.cpp ****     Scheduler::get();
  92:src/userMain.cpp ****     //print("Memorija:\n");
  93:src/userMain.cpp ****     //Memorija::Print();
  94:src/userMain.cpp ****     Scheduler::Print();
  95:src/userMain.cpp ****     Scheduler::get();
  96:src/userMain.cpp ****     Scheduler::Print();
  97:src/userMain.cpp ****     Scheduler::get();
  98:src/userMain.cpp ****     Scheduler::Print();
  99:src/userMain.cpp ****     Scheduler::put(t1);
 100:src/userMain.cpp ****     Scheduler::Print();
 101:src/userMain.cpp ****     Scheduler::get();
 102:src/userMain.cpp ****     Scheduler::Print();
 103:src/userMain.cpp **** 
 104:src/userMain.cpp **** 
 105:src/userMain.cpp ****     return 0;
 106:src/userMain.cpp **** }
 107:src/userMain.cpp **** 
 108:src/userMain.cpp **** //test za semafore i za sleep i sta sve ne
 109:src/userMain.cpp **** Semafor *s;
 110:src/userMain.cpp **** void f1(void* a){
 111:src/userMain.cpp ****     print("funkcija1A\n");
 112:src/userMain.cpp ****     Nit::yeild();
 113:src/userMain.cpp ****     //while(1)
 114:src/userMain.cpp ****     print("funkcija1B\n");
 115:src/userMain.cpp ****     //Scheduler::threadsleep(50);
 116:src/userMain.cpp ****     sem_wait(s);
 117:src/userMain.cpp ****     Nit::yeild();
 118:src/userMain.cpp ****     print("funkcija1C\n");
 119:src/userMain.cpp ****     Nit::yeild();
 120:src/userMain.cpp ****     print("funkcija1D\n");
 121:src/userMain.cpp ****     Nit::yeild();
 122:src/userMain.cpp ****     print("funkcija1E\n");
 123:src/userMain.cpp ****     //sem_close();
 124:src/userMain.cpp **** }
 125:src/userMain.cpp **** void f2(void* a){
 126:src/userMain.cpp ****     //Scheduler::threadsleep(50);
 127:src/userMain.cpp ****     print("funkcija2A\n");
GAS LISTING /tmp/ccMeUcYP.s 			page 22


 128:src/userMain.cpp ****     Nit::yeild();
 129:src/userMain.cpp ****     print("funkcija2B\n");
 130:src/userMain.cpp ****     Nit::yeild();
 131:src/userMain.cpp ****     print("funkcija2C\n");
 132:src/userMain.cpp ****     Nit::yeild();
 133:src/userMain.cpp ****     print("funkcija2D\n");
 134:src/userMain.cpp ****     Nit::yeild();
 135:src/userMain.cpp ****     print("funkcija2E\n");
 136:src/userMain.cpp ****     print(sem_close(s));
 137:src/userMain.cpp **** 
 138:src/userMain.cpp ****     //Thread *t;
 139:src/userMain.cpp ****     //thread_create(&t,&f1,nullptr);
 140:src/userMain.cpp **** }
 141:src/userMain.cpp **** void f3(void* a){
 142:src/userMain.cpp ****     print("funkcija3A\n");
 143:src/userMain.cpp ****     Nit::yeild();
 144:src/userMain.cpp ****     print(sem_wait(s));
 145:src/userMain.cpp ****     print("funkcija3B\n");
 146:src/userMain.cpp ****     Nit::yeild();
 147:src/userMain.cpp ****     print("funkcija3C\n");
 148:src/userMain.cpp ****     Nit::yeild();
 149:src/userMain.cpp ****     print("funkcija3D\n");
 150:src/userMain.cpp ****     Nit::yeild();
 151:src/userMain.cpp ****     print("funkcija3E\n");
 152:src/userMain.cpp **** }
 153:src/userMain.cpp **** void mojtest(){
 154:src/userMain.cpp ****     Nit *t1,*t2,*t3;
 155:src/userMain.cpp **** 
 156:src/userMain.cpp ****     thread_create(&t1,&f1,nullptr);
 157:src/userMain.cpp ****     thread_create(&t2,&f2,nullptr);
 158:src/userMain.cpp ****     thread_create(&t3,&f3,nullptr);
 159:src/userMain.cpp **** 
 160:src/userMain.cpp ****     Scheduler::Print();
 161:src/userMain.cpp **** 
 162:src/userMain.cpp ****     sem_open(&s,0);
 163:src/userMain.cpp **** 
 164:src/userMain.cpp ****     while(Scheduler::imaniti());
 165:src/userMain.cpp **** 
 166:src/userMain.cpp **** }
 167:src/userMain.cpp **** 
 168:src/userMain.cpp **** //test za bafer
 169:src/userMain.cpp **** void bafer1(void* a){
 170:src/userMain.cpp ****     for(int i=0;i<30;i++){
 171:src/userMain.cpp ****         putc(i+'a');
 172:src/userMain.cpp ****         time_sleep((i+1)*5);
 173:src/userMain.cpp ****     }
 174:src/userMain.cpp **** }
 175:src/userMain.cpp **** void bafer2(void* a){
 176:src/userMain.cpp ****     for(int i=0;i<30;i++){
 177:src/userMain.cpp ****         int g=getc();
 178:src/userMain.cpp ****         if(g!=-1){
 179:src/userMain.cpp ****             print(g);
 180:src/userMain.cpp ****             //b->Print();
 181:src/userMain.cpp ****         }
 182:src/userMain.cpp ****         time_sleep(20);
 183:src/userMain.cpp ****     }
 184:src/userMain.cpp **** }
GAS LISTING /tmp/ccMeUcYP.s 			page 23


 185:src/userMain.cpp **** void testbafer(){
 186:src/userMain.cpp **** 
 187:src/userMain.cpp ****     putc('b');
 188:src/userMain.cpp ****     Bafer B(20);
 189:src/userMain.cpp **** 
 190:src/userMain.cpp ****     Nit *t1,*t2;
 191:src/userMain.cpp ****     thread_create(&t1,bafer1,&B);
 192:src/userMain.cpp ****     thread_create(&t2,bafer2,&B);
 193:src/userMain.cpp **** 
 194:src/userMain.cpp ****     Scheduler::Print();
 195:src/userMain.cpp **** 
 196:src/userMain.cpp ****     while(Scheduler::imaniti()){
 197:src/userMain.cpp ****         //Scheduler::Print();
 198:src/userMain.cpp ****         //print('a');
 199:src/userMain.cpp ****     }
 200:src/userMain.cpp **** }
 201:src/userMain.cpp **** 
 202:src/userMain.cpp **** void alo(){
 203:src/userMain.cpp ****     printInt(10);
 204:src/userMain.cpp **** }
 205:src/userMain.cpp **** 
 206:src/userMain.cpp **** class AAA:public PeriodicThread{
 856              		.loc 4 206 7 is_stmt 1
 857              		.cfi_startproc
 858              	.LVL70:
 859 0000 130101FF 		addi	sp,sp,-16
 860              		.cfi_def_cfa_offset 16
 861 0004 23341100 		sd	ra,8(sp)
 862 0008 23308100 		sd	s0,0(sp)
 863              		.cfi_offset 1, -8
 864              		.cfi_offset 8, -16
 865 000c 13040101 		addi	s0,sp,16
 866              		.cfi_def_cfa 8, 0
 867              	.LVL71:
 868              	.LBB166:
 869              	.LBB167:
 870              		.file 5 "src/../h/../h/syscall_cpp.h"
   1:src/../h/../h/syscall_cpp.h **** 
   2:src/../h/../h/syscall_cpp.h **** #ifndef _syscall_cpp
   3:src/../h/../h/syscall_cpp.h **** #define _syscall_cpp
   4:src/../h/../h/syscall_cpp.h **** 
   5:src/../h/../h/syscall_cpp.h **** #include "syscall_c.h"
   6:src/../h/../h/syscall_cpp.h **** #include "../h/print.h"
   7:src/../h/../h/syscall_cpp.h **** void* operator new (size_t);
   8:src/../h/../h/syscall_cpp.h **** void operator delete (void*);
   9:src/../h/../h/syscall_cpp.h **** 
  10:src/../h/../h/syscall_cpp.h **** class Thread {
  11:src/../h/../h/syscall_cpp.h **** public:
  12:src/../h/../h/syscall_cpp.h ****     Thread (void (*body)(void*), void* arg);
  13:src/../h/../h/syscall_cpp.h ****     virtual ~Thread ();
  14:src/../h/../h/syscall_cpp.h ****     int start ();
  15:src/../h/../h/syscall_cpp.h ****     static void dispatch ();
  16:src/../h/../h/syscall_cpp.h ****     static int sleep (time_t);
  17:src/../h/../h/syscall_cpp.h **** protected:
  18:src/../h/../h/syscall_cpp.h ****     Thread ();
  19:src/../h/../h/syscall_cpp.h ****     virtual void run () {}
  20:src/../h/../h/syscall_cpp.h **** private:
GAS LISTING /tmp/ccMeUcYP.s 			page 24


  21:src/../h/../h/syscall_cpp.h ****     static void omotac(void*);
  22:src/../h/../h/syscall_cpp.h ****     thread_t myHandle;
  23:src/../h/../h/syscall_cpp.h **** };
  24:src/../h/../h/syscall_cpp.h **** class Semaphore {
  25:src/../h/../h/syscall_cpp.h **** public:
  26:src/../h/../h/syscall_cpp.h ****     Semaphore (unsigned init = 1);
  27:src/../h/../h/syscall_cpp.h ****     virtual ~Semaphore ();
  28:src/../h/../h/syscall_cpp.h ****     int wait ();
  29:src/../h/../h/syscall_cpp.h ****     int signal ();
  30:src/../h/../h/syscall_cpp.h **** private:
  31:src/../h/../h/syscall_cpp.h ****     sem_t myHandle;
  32:src/../h/../h/syscall_cpp.h **** };
  33:src/../h/../h/syscall_cpp.h **** class PeriodicThread : public Thread {
 871              		.loc 5 33 7 is_stmt 0
 872 0010 97070000 		la	a5,_ZTV14PeriodicThread
 872      83B70700 
 873 0018 93870701 		addi	a5,a5,16
 874 001c 2330F500 		sd	a5,0(a0)
 875 0020 97000000 		call	_ZN6ThreadD2Ev@plt
 875      E7800000 
 876              	.LVL72:
 877              	.LBE167:
 878              	.LBE166:
 879              		.loc 4 206 7
 880 0028 83308100 		ld	ra,8(sp)
 881              		.cfi_restore 1
 882 002c 03340100 		ld	s0,0(sp)
 883              		.cfi_restore 8
 884              		.cfi_def_cfa 2, 16
 885 0030 13010101 		addi	sp,sp,16
 886              		.cfi_def_cfa_offset 0
 887 0034 67800000 		jr	ra
 888              		.cfi_endproc
 889              	.LFE113:
 891              		.weak	_ZN3AAAD1Ev
 892              		.set	_ZN3AAAD1Ev,_ZN3AAAD2Ev
 893              		.section	.text._ZN3AAAD0Ev,"axG",@progbits,_ZN3AAAD5Ev,comdat
 894              		.align	2
 895              		.weak	_ZN3AAAD0Ev
 897              	_ZN3AAAD0Ev:
 898              	.LFB115:
 899              		.loc 4 206 7 is_stmt 1
 900              		.cfi_startproc
 901              	.LVL73:
 902 0000 130101FE 		addi	sp,sp,-32
 903              		.cfi_def_cfa_offset 32
 904 0004 233C1100 		sd	ra,24(sp)
 905 0008 23388100 		sd	s0,16(sp)
 906 000c 23349100 		sd	s1,8(sp)
 907              		.cfi_offset 1, -8
 908              		.cfi_offset 8, -16
 909              		.cfi_offset 9, -24
 910 0010 13040102 		addi	s0,sp,32
 911              		.cfi_def_cfa 8, 0
 912 0014 93040500 		mv	s1,a0
 913              	.LVL74:
 914              	.LBB168:
GAS LISTING /tmp/ccMeUcYP.s 			page 25


 915              	.LBB169:
 916              	.LBB170:
 917              		.loc 5 33 7 is_stmt 0
 918 0018 97070000 		la	a5,_ZTV14PeriodicThread
 918      83B70700 
 919 0020 93870701 		addi	a5,a5,16
 920 0024 2330F500 		sd	a5,0(a0)
 921 0028 97000000 		call	_ZN6ThreadD2Ev@plt
 921      E7800000 
 922              	.LVL75:
 923              	.LBE170:
 924              	.LBE169:
 925              	.LBE168:
 926              		.loc 4 206 7
 927 0030 13850400 		mv	a0,s1
 928 0034 97000000 		call	_ZdlPv@plt
 928      E7800000 
 929              	.LVL76:
 930 003c 83308101 		ld	ra,24(sp)
 931              		.cfi_restore 1
 932 0040 03340101 		ld	s0,16(sp)
 933              		.cfi_restore 8
 934              		.cfi_def_cfa 2, 32
 935 0044 83348100 		ld	s1,8(sp)
 936              		.cfi_restore 9
 937              	.LVL77:
 938 0048 13010102 		addi	sp,sp,32
 939              		.cfi_def_cfa_offset 0
 940 004c 67800000 		jr	ra
 941              		.cfi_endproc
 942              	.LFE115:
 944              		.section	.text._ZN19ConsumerProducerCPP16ProducerKeyborad3runEv,"axG",@progbits,_ZN19ConsumerProdu
 945              		.align	2
 946              		.weak	_ZN19ConsumerProducerCPP16ProducerKeyborad3runEv
 948              	_ZN19ConsumerProducerCPP16ProducerKeyborad3runEv:
 949              	.LFB45:
  30:src/../h/ConsumerProducer_CPP_API_test.h ****             int key;
 950              		.loc 3 30 14 is_stmt 1
 951              		.cfi_startproc
 952              	.LVL78:
 953 0000 130101FE 		addi	sp,sp,-32
 954              		.cfi_def_cfa_offset 32
 955 0004 233C1100 		sd	ra,24(sp)
 956 0008 23388100 		sd	s0,16(sp)
 957 000c 23349100 		sd	s1,8(sp)
 958              		.cfi_offset 1, -8
 959              		.cfi_offset 8, -16
 960              		.cfi_offset 9, -24
 961 0010 13040102 		addi	s0,sp,32
 962              		.cfi_def_cfa 8, 0
 963 0014 93040500 		mv	s1,a0
  31:src/../h/ConsumerProducer_CPP_API_test.h ****             int i = 0;
 964              		.loc 3 31 13
  32:src/../h/ConsumerProducer_CPP_API_test.h ****             while ((key = getc()) != 0x1b) {
 965              		.loc 3 32 13
 966              	.LVL79:
 967              	.L47:
GAS LISTING /tmp/ccMeUcYP.s 			page 26


  33:src/../h/ConsumerProducer_CPP_API_test.h ****                 td->buffer->put(key);
 968              		.loc 3 33 13
  33:src/../h/ConsumerProducer_CPP_API_test.h ****                 td->buffer->put(key);
 969              		.loc 3 33 35
  33:src/../h/ConsumerProducer_CPP_API_test.h ****                 td->buffer->put(key);
 970              		.loc 3 33 31 is_stmt 0
 971 0018 97000000 		call	_Z4getcv@plt
 971      E7800000 
 972              	.LVL80:
  33:src/../h/ConsumerProducer_CPP_API_test.h ****                 td->buffer->put(key);
 973              		.loc 3 33 25
 974 0020 9B050500 		sext.w	a1,a0
 975              	.LVL81:
  33:src/../h/ConsumerProducer_CPP_API_test.h ****                 td->buffer->put(key);
 976              		.loc 3 33 35
 977 0024 9307B001 		li	a5,27
 978 0028 638CF500 		beq	a1,a5,.L46
  34:src/../h/ConsumerProducer_CPP_API_test.h ****                 i++;
 979              		.loc 3 34 17 is_stmt 1
 980 002c 83B70401 		ld	a5,16(s1)
  34:src/../h/ConsumerProducer_CPP_API_test.h ****                 i++;
 981              		.loc 3 34 32 is_stmt 0
 982 0030 03B58700 		ld	a0,8(a5)
 983 0034 97000000 		call	_ZN9BufferCPP3putEi@plt
 983      E7800000 
 984              	.LVL82:
  35:src/../h/ConsumerProducer_CPP_API_test.h ****             }
 985              		.loc 3 35 17 is_stmt 1
  33:src/../h/ConsumerProducer_CPP_API_test.h ****                 td->buffer->put(key);
 986              		.loc 3 33 13 is_stmt 0
 987 003c 6FF0DFFD 		j	.L47
 988              	.LVL83:
 989              	.L46:
  38:src/../h/ConsumerProducer_CPP_API_test.h ****             td->buffer->put('!');
 990              		.loc 3 38 13 is_stmt 1
  38:src/../h/ConsumerProducer_CPP_API_test.h ****             td->buffer->put('!');
 991              		.loc 3 38 23 is_stmt 0
 992 0040 93071000 		li	a5,1
 993 0044 17070000 		sw	a5,.LANCHOR0,a4
 993      2320F700 
  39:src/../h/ConsumerProducer_CPP_API_test.h **** 
 994              		.loc 3 39 13 is_stmt 1
 995 004c 83B70401 		ld	a5,16(s1)
  39:src/../h/ConsumerProducer_CPP_API_test.h **** 
 996              		.loc 3 39 28 is_stmt 0
 997 0050 93051002 		li	a1,33
 998              	.LVL84:
 999 0054 03B58700 		ld	a0,8(a5)
 1000              	.LVL85:
 1001 0058 97000000 		call	_ZN9BufferCPP3putEi@plt
 1001      E7800000 
 1002              	.LVL86:
  41:src/../h/ConsumerProducer_CPP_API_test.h ****         }
 1003              		.loc 3 41 13 is_stmt 1
 1004 0060 83B70401 		ld	a5,16(s1)
  41:src/../h/ConsumerProducer_CPP_API_test.h ****         }
 1005              		.loc 3 41 28 is_stmt 0
GAS LISTING /tmp/ccMeUcYP.s 			page 27


 1006 0064 03B50701 		ld	a0,16(a5)
 1007 0068 97000000 		call	_ZN9Semaphore6signalEv@plt
 1007      E7800000 
 1008              	.LVL87:
  42:src/../h/ConsumerProducer_CPP_API_test.h ****     };
 1009              		.loc 3 42 9
 1010 0070 83308101 		ld	ra,24(sp)
 1011              		.cfi_restore 1
 1012 0074 03340101 		ld	s0,16(sp)
 1013              		.cfi_restore 8
 1014              		.cfi_def_cfa 2, 32
 1015 0078 83348100 		ld	s1,8(sp)
 1016              		.cfi_restore 9
 1017              	.LVL88:
 1018 007c 13010102 		addi	sp,sp,32
 1019              		.cfi_def_cfa_offset 0
 1020 0080 67800000 		jr	ra
 1021              		.cfi_endproc
 1022              	.LFE45:
 1024              		.section	.text._ZN19ConsumerProducerCPP8Consumer3runEv,"axG",@progbits,_ZN19ConsumerProducerCPP8Co
 1025              		.align	2
 1026              		.weak	_ZN19ConsumerProducerCPP8Consumer3runEv
 1028              	_ZN19ConsumerProducerCPP8Consumer3runEv:
 1029              	.LFB53:
  63:src/../h/ConsumerProducer_CPP_API_test.h ****         thread_data *td;
  64:src/../h/ConsumerProducer_CPP_API_test.h ****     public:
  65:src/../h/ConsumerProducer_CPP_API_test.h ****         Consumer(thread_data *_td) : Thread(), td(_td) {}
  66:src/../h/ConsumerProducer_CPP_API_test.h **** 
  67:src/../h/ConsumerProducer_CPP_API_test.h ****         void run() override {
 1030              		.loc 3 67 14 is_stmt 1
 1031              		.cfi_startproc
 1032              	.LVL89:
 1033 0000 130101FD 		addi	sp,sp,-48
 1034              		.cfi_def_cfa_offset 48
 1035 0004 23341102 		sd	ra,40(sp)
 1036 0008 23308102 		sd	s0,32(sp)
 1037 000c 233C9100 		sd	s1,24(sp)
 1038 0010 23382101 		sd	s2,16(sp)
 1039 0014 23343101 		sd	s3,8(sp)
 1040              		.cfi_offset 1, -8
 1041              		.cfi_offset 8, -16
 1042              		.cfi_offset 9, -24
 1043              		.cfi_offset 18, -32
 1044              		.cfi_offset 19, -40
 1045 0018 13040103 		addi	s0,sp,48
 1046              		.cfi_def_cfa 8, 0
 1047 001c 13090500 		mv	s2,a0
  68:src/../h/ConsumerProducer_CPP_API_test.h ****             int i = 0;
 1048              		.loc 3 68 13
 1049              	.LVL90:
 1050              		.loc 3 68 17 is_stmt 0
 1051 0020 93090000 		li	s3,0
 1052 0024 6F000001 		j	.L50
 1053              	.LVL91:
 1054              	.L55:
 1055              	.LBB171:
  69:src/../h/ConsumerProducer_CPP_API_test.h ****             while (!threadEnd) {
GAS LISTING /tmp/ccMeUcYP.s 			page 28


  70:src/../h/ConsumerProducer_CPP_API_test.h ****                 int key = td->buffer->get();
  71:src/../h/ConsumerProducer_CPP_API_test.h ****                 i++;
  72:src/../h/ConsumerProducer_CPP_API_test.h **** 
  73:src/../h/ConsumerProducer_CPP_API_test.h ****                 Console::putc(key);
  74:src/../h/ConsumerProducer_CPP_API_test.h **** 
  75:src/../h/ConsumerProducer_CPP_API_test.h ****                 if (i % 80 == 0) {
  76:src/../h/ConsumerProducer_CPP_API_test.h ****                     Console::putc('\n');
 1056              		.loc 3 76 21 is_stmt 1
 1057              		.loc 3 76 34 is_stmt 0
 1058 0028 1305A000 		li	a0,10
 1059 002c 97000000 		call	_ZN7Console4putcEc@plt
 1059      E7800000 
 1060              	.LVL92:
 1061              	.L50:
 1062              	.LBE171:
  69:src/../h/ConsumerProducer_CPP_API_test.h ****             while (!threadEnd) {
 1063              		.loc 3 69 13 is_stmt 1
  69:src/../h/ConsumerProducer_CPP_API_test.h ****             while (!threadEnd) {
 1064              		.loc 3 69 20
 1065 0034 97070000 		lw	a5,.LANCHOR0
 1065      83A70700 
 1066 003c 639A0704 		bnez	a5,.L51
 1067              	.LBB172:
  70:src/../h/ConsumerProducer_CPP_API_test.h ****                 i++;
 1068              		.loc 3 70 17
  70:src/../h/ConsumerProducer_CPP_API_test.h ****                 i++;
 1069              		.loc 3 70 27 is_stmt 0
 1070 0040 83370901 		ld	a5,16(s2)
  70:src/../h/ConsumerProducer_CPP_API_test.h ****                 i++;
 1071              		.loc 3 70 42
 1072 0044 03B58700 		ld	a0,8(a5)
 1073 0048 97000000 		call	_ZN9BufferCPP3getEv@plt
 1073      E7800000 
 1074              	.LVL93:
  71:src/../h/ConsumerProducer_CPP_API_test.h **** 
 1075              		.loc 3 71 17 is_stmt 1
  71:src/../h/ConsumerProducer_CPP_API_test.h **** 
 1076              		.loc 3 71 18 is_stmt 0
 1077 0050 9B841900 		addiw	s1,s3,1
 1078 0054 9B890400 		sext.w	s3,s1
 1079              	.LVL94:
  73:src/../h/ConsumerProducer_CPP_API_test.h **** 
 1080              		.loc 3 73 17 is_stmt 1
  73:src/../h/ConsumerProducer_CPP_API_test.h **** 
 1081              		.loc 3 73 30 is_stmt 0
 1082 0058 1375F50F 		andi	a0,a0,0xff
 1083              	.LVL95:
 1084 005c 97000000 		call	_ZN7Console4putcEc@plt
 1084      E7800000 
 1085              	.LVL96:
  75:src/../h/ConsumerProducer_CPP_API_test.h ****                     Console::putc('\n');
 1086              		.loc 3 75 17 is_stmt 1
  75:src/../h/ConsumerProducer_CPP_API_test.h ****                     Console::putc('\n');
 1087              		.loc 3 75 23 is_stmt 0
 1088 0064 93070005 		li	a5,80
 1089 0068 BBE4F402 		remw	s1,s1,a5
 1090              	.LVL97:
GAS LISTING /tmp/ccMeUcYP.s 			page 29


  75:src/../h/ConsumerProducer_CPP_API_test.h ****                     Console::putc('\n');
 1091              		.loc 3 75 17
 1092 006c E39404FC 		bnez	s1,.L50
 1093 0070 6FF09FFB 		j	.L55
 1094              	.L56:
 1095              	.LBE172:
 1096              	.LBB173:
  77:src/../h/ConsumerProducer_CPP_API_test.h ****                 }
  78:src/../h/ConsumerProducer_CPP_API_test.h ****             }
  79:src/../h/ConsumerProducer_CPP_API_test.h **** 
  80:src/../h/ConsumerProducer_CPP_API_test.h ****             while (td->buffer->getCnt() > 0) {
  81:src/../h/ConsumerProducer_CPP_API_test.h ****                 int key = td->buffer->get();
 1097              		.loc 3 81 17 is_stmt 1
 1098              		.loc 3 81 27 is_stmt 0
 1099 0074 83370901 		ld	a5,16(s2)
 1100              		.loc 3 81 42
 1101 0078 03B58700 		ld	a0,8(a5)
 1102 007c 97000000 		call	_ZN9BufferCPP3getEv@plt
 1102      E7800000 
 1103              	.LVL98:
  82:src/../h/ConsumerProducer_CPP_API_test.h ****                 Console::putc(key);
 1104              		.loc 3 82 17 is_stmt 1
 1105              		.loc 3 82 30 is_stmt 0
 1106 0084 1375F50F 		andi	a0,a0,0xff
 1107              	.LVL99:
 1108 0088 97000000 		call	_ZN7Console4putcEc@plt
 1108      E7800000 
 1109              	.LVL100:
 1110              	.L51:
 1111              	.LBE173:
  80:src/../h/ConsumerProducer_CPP_API_test.h ****                 int key = td->buffer->get();
 1112              		.loc 3 80 13 is_stmt 1
  80:src/../h/ConsumerProducer_CPP_API_test.h ****                 int key = td->buffer->get();
 1113              		.loc 3 80 41
  80:src/../h/ConsumerProducer_CPP_API_test.h ****                 int key = td->buffer->get();
 1114              		.loc 3 80 20 is_stmt 0
 1115 0090 83370901 		ld	a5,16(s2)
  80:src/../h/ConsumerProducer_CPP_API_test.h ****                 int key = td->buffer->get();
 1116              		.loc 3 80 38
 1117 0094 03B58700 		ld	a0,8(a5)
 1118 0098 97000000 		call	_ZN9BufferCPP6getCntEv@plt
 1118      E7800000 
 1119              	.LVL101:
  80:src/../h/ConsumerProducer_CPP_API_test.h ****                 int key = td->buffer->get();
 1120              		.loc 3 80 41
 1121 00a0 E34AA0FC 		bgtz	a0,.L56
  83:src/../h/ConsumerProducer_CPP_API_test.h ****             }
  84:src/../h/ConsumerProducer_CPP_API_test.h **** 
  85:src/../h/ConsumerProducer_CPP_API_test.h ****             td->sem->signal();
 1122              		.loc 3 85 13 is_stmt 1
 1123 00a4 83370901 		ld	a5,16(s2)
 1124              		.loc 3 85 28 is_stmt 0
 1125 00a8 03B50701 		ld	a0,16(a5)
 1126 00ac 97000000 		call	_ZN9Semaphore6signalEv@plt
 1126      E7800000 
 1127              	.LVL102:
  86:src/../h/ConsumerProducer_CPP_API_test.h ****         }
GAS LISTING /tmp/ccMeUcYP.s 			page 30


 1128              		.loc 3 86 9
 1129 00b4 83308102 		ld	ra,40(sp)
 1130              		.cfi_restore 1
 1131 00b8 03340102 		ld	s0,32(sp)
 1132              		.cfi_restore 8
 1133              		.cfi_def_cfa 2, 48
 1134 00bc 83348101 		ld	s1,24(sp)
 1135              		.cfi_restore 9
 1136 00c0 03390101 		ld	s2,16(sp)
 1137              		.cfi_restore 18
 1138              	.LVL103:
 1139 00c4 83398100 		ld	s3,8(sp)
 1140              		.cfi_restore 19
 1141              	.LVL104:
 1142 00c8 13010103 		addi	sp,sp,48
 1143              		.cfi_def_cfa_offset 0
 1144 00cc 67800000 		jr	ra
 1145              		.cfi_endproc
 1146              	.LFE53:
 1148              		.section	.rodata.str1.8,"aMS",@progbits,1
 1149              		.align	3
 1150              	.LC0:
 1151 0000 48656C6C 		.string	"Hello "
 1151      6F2000
 1152 0007 00       		.align	3
 1153              	.LC1:
 1154 0008 20210A00 		.string	" !\n"
 1155              		.text
 1156              		.align	2
 1157              		.globl	_Z9sleepyRunPv
 1159              	_Z9sleepyRunPv:
 1160              	.LFB40:
 1161              		.file 6 "src/../h/ThreadSleep_C_API_test.h"
   1:src/../h/ThreadSleep_C_API_test.h **** //
   2:src/../h/ThreadSleep_C_API_test.h **** // Created by os on 4/17/22.
   3:src/../h/ThreadSleep_C_API_test.h **** //
   4:src/../h/ThreadSleep_C_API_test.h **** 
   5:src/../h/ThreadSleep_C_API_test.h **** #ifndef XV6_THREADSLEEP_C_API_TEST_HPP
   6:src/../h/ThreadSleep_C_API_test.h **** #define XV6_THREADSLEEP_C_API_TEST_HPP
   7:src/../h/ThreadSleep_C_API_test.h **** 
   8:src/../h/ThreadSleep_C_API_test.h **** #include "../h/syscall_c.h"
   9:src/../h/ThreadSleep_C_API_test.h **** 
  10:src/../h/ThreadSleep_C_API_test.h **** #include "printing.h"
  11:src/../h/ThreadSleep_C_API_test.h **** 
  12:src/../h/ThreadSleep_C_API_test.h **** bool finished[2];
  13:src/../h/ThreadSleep_C_API_test.h **** 
  14:src/../h/ThreadSleep_C_API_test.h **** void sleepyRun(void *arg) {
 1162              		.loc 6 14 27 is_stmt 1
 1163              		.cfi_startproc
 1164              	.LVL105:
 1165 0000 130101FE 		addi	sp,sp,-32
 1166              		.cfi_def_cfa_offset 32
 1167 0004 233C1100 		sd	ra,24(sp)
 1168 0008 23388100 		sd	s0,16(sp)
 1169 000c 23349100 		sd	s1,8(sp)
 1170 0010 23302101 		sd	s2,0(sp)
 1171              		.cfi_offset 1, -8
GAS LISTING /tmp/ccMeUcYP.s 			page 31


 1172              		.cfi_offset 8, -16
 1173              		.cfi_offset 9, -24
 1174              		.cfi_offset 18, -32
 1175 0014 13040102 		addi	s0,sp,32
 1176              		.cfi_def_cfa 8, 0
  15:src/../h/ThreadSleep_C_API_test.h ****     time_t sleep_time = *((time_t *) arg);
 1177              		.loc 6 15 5
 1178              		.loc 6 15 12 is_stmt 0
 1179 0018 03390500 		ld	s2,0(a0)
 1180              	.LVL106:
  16:src/../h/ThreadSleep_C_API_test.h ****     int i = 6;
 1181              		.loc 6 16 5 is_stmt 1
 1182              		.loc 6 16 9 is_stmt 0
 1183 001c 93046000 		li	s1,6
 1184              	.LVL107:
 1185              	.L59:
  17:src/../h/ThreadSleep_C_API_test.h ****     while (--i > 0) {
 1186              		.loc 6 17 5 is_stmt 1
 1187              		.loc 6 17 16
 1188 0020 9B84F4FF 		addiw	s1,s1,-1
 1189              	.LVL108:
 1190 0024 63549004 		blez	s1,.L58
  18:src/../h/ThreadSleep_C_API_test.h **** 
  19:src/../h/ThreadSleep_C_API_test.h ****         printString("Hello ");
 1191              		.loc 6 19 9
 1192              		.loc 6 19 20 is_stmt 0
 1193 0028 17050000 		lla	a0,.LC0
 1193      13050500 
 1194 0030 97000000 		call	_Z11printStringPKc@plt
 1194      E7800000 
 1195              	.LVL109:
  20:src/../h/ThreadSleep_C_API_test.h ****         printInt(sleep_time);
 1196              		.loc 6 20 9 is_stmt 1
 1197              		.loc 6 20 17 is_stmt 0
 1198 0038 13060000 		li	a2,0
 1199 003c 9305A000 		li	a1,10
 1200 0040 1B050900 		sext.w	a0,s2
 1201 0044 97000000 		call	_Z8printIntiii@plt
 1201      E7800000 
 1202              	.LVL110:
  21:src/../h/ThreadSleep_C_API_test.h ****         printString(" !\n");
 1203              		.loc 6 21 9 is_stmt 1
 1204              		.loc 6 21 20 is_stmt 0
 1205 004c 17050000 		lla	a0,.LC1
 1205      13050500 
 1206 0054 97000000 		call	_Z11printStringPKc@plt
 1206      E7800000 
 1207              	.LVL111:
  22:src/../h/ThreadSleep_C_API_test.h ****         time_sleep(sleep_time);
 1208              		.loc 6 22 9 is_stmt 1
 1209              		.loc 6 22 19 is_stmt 0
 1210 005c 13050900 		mv	a0,s2
 1211 0060 97000000 		call	_Z10time_sleepm@plt
 1211      E7800000 
 1212              	.LVL112:
  17:src/../h/ThreadSleep_C_API_test.h **** 
 1213              		.loc 6 17 5
GAS LISTING /tmp/ccMeUcYP.s 			page 32


 1214 0068 6FF09FFB 		j	.L59
 1215              	.L58:
  23:src/../h/ThreadSleep_C_API_test.h ****     }
  24:src/../h/ThreadSleep_C_API_test.h ****     finished[sleep_time/10-1] = true;
 1216              		.loc 6 24 5 is_stmt 1
 1217              		.loc 6 24 24 is_stmt 0
 1218 006c 9307A000 		li	a5,10
 1219 0070 3359F902 		divu	s2,s2,a5
 1220              	.LVL113:
 1221              		.loc 6 24 27
 1222 0074 1309F9FF 		addi	s2,s2,-1
 1223              		.loc 6 24 31
 1224 0078 97070000 		lla	a5,.LANCHOR0
 1224      93870700 
 1225 0080 33892701 		add	s2,a5,s2
 1226 0084 93071000 		li	a5,1
 1227 0088 2304F900 		sb	a5,8(s2)
  25:src/../h/ThreadSleep_C_API_test.h **** }
 1228              		.loc 6 25 1
 1229 008c 83308101 		ld	ra,24(sp)
 1230              		.cfi_restore 1
 1231 0090 03340101 		ld	s0,16(sp)
 1232              		.cfi_restore 8
 1233              		.cfi_def_cfa 2, 32
 1234 0094 83348100 		ld	s1,8(sp)
 1235              		.cfi_restore 9
 1236 0098 03390100 		ld	s2,0(sp)
 1237              		.cfi_restore 18
 1238 009c 13010102 		addi	sp,sp,32
 1239              		.cfi_def_cfa_offset 0
 1240 00a0 67800000 		jr	ra
 1241              		.cfi_endproc
 1242              	.LFE40:
 1244              		.align	2
 1245              		.globl	_Z6bafer1Pv
 1247              	_Z6bafer1Pv:
 1248              	.LFB90:
 169:src/userMain.cpp ****     for(int i=0;i<30;i++){
 1249              		.loc 4 169 21 is_stmt 1
 1250              		.cfi_startproc
 1251              	.LVL114:
 1252 00a4 130101FE 		addi	sp,sp,-32
 1253              		.cfi_def_cfa_offset 32
 1254 00a8 233C1100 		sd	ra,24(sp)
 1255 00ac 23388100 		sd	s0,16(sp)
 1256 00b0 23349100 		sd	s1,8(sp)
 1257              		.cfi_offset 1, -8
 1258              		.cfi_offset 8, -16
 1259              		.cfi_offset 9, -24
 1260 00b4 13040102 		addi	s0,sp,32
 1261              		.cfi_def_cfa 8, 0
 170:src/userMain.cpp ****         putc(i+'a');
 1262              		.loc 4 170 5
 1263              	.LVL115:
 1264              	.LBB174:
 170:src/userMain.cpp ****         putc(i+'a');
 1265              		.loc 4 170 13 is_stmt 0
GAS LISTING /tmp/ccMeUcYP.s 			page 33


 1266 00b8 93040000 		li	s1,0
 1267 00bc 6F00C002 		j	.L63
 1268              	.LVL116:
 1269              	.L65:
 171:src/userMain.cpp ****         time_sleep((i+1)*5);
 1270              		.loc 4 171 9 is_stmt 1 discriminator 2
 171:src/userMain.cpp ****         time_sleep((i+1)*5);
 1271              		.loc 4 171 13 is_stmt 0 discriminator 2
 1272 00c0 1B851406 		addiw	a0,s1,97
 1273 00c4 1375F50F 		andi	a0,a0,0xff
 1274 00c8 97000000 		call	_Z4putcc@plt
 1274      E7800000 
 1275              	.LVL117:
 172:src/userMain.cpp ****     }
 1276              		.loc 4 172 9 is_stmt 1 discriminator 2
 172:src/userMain.cpp ****     }
 1277              		.loc 4 172 22 is_stmt 0 discriminator 2
 1278 00d0 9B871400 		addiw	a5,s1,1
 1279 00d4 9B840700 		sext.w	s1,a5
 1280              	.LVL118:
 172:src/userMain.cpp ****     }
 1281              		.loc 4 172 25 discriminator 2
 1282 00d8 1B952700 		slliw	a0,a5,2
 172:src/userMain.cpp ****     }
 1283              		.loc 4 172 19 discriminator 2
 1284 00dc 3B05F500 		addw	a0,a0,a5
 1285 00e0 97000000 		call	_Z10time_sleepm@plt
 1285      E7800000 
 1286              	.LVL119:
 170:src/userMain.cpp ****         putc(i+'a');
 1287              		.loc 4 170 5 is_stmt 1 discriminator 2
 1288              	.L63:
 170:src/userMain.cpp ****         putc(i+'a');
 1289              		.loc 4 170 18 discriminator 3
 1290 00e8 9307D001 		li	a5,29
 1291 00ec E3DA97FC 		ble	s1,a5,.L65
 1292              	.LBE174:
 174:src/userMain.cpp **** void bafer2(void* a){
 1293              		.loc 4 174 1 is_stmt 0
 1294 00f0 83308101 		ld	ra,24(sp)
 1295              		.cfi_restore 1
 1296 00f4 03340101 		ld	s0,16(sp)
 1297              		.cfi_restore 8
 1298              		.cfi_def_cfa 2, 32
 1299 00f8 83348100 		ld	s1,8(sp)
 1300              		.cfi_restore 9
 1301              	.LVL120:
 1302 00fc 13010102 		addi	sp,sp,32
 1303              		.cfi_def_cfa_offset 0
 1304 0100 67800000 		jr	ra
 1305              		.cfi_endproc
 1306              	.LFE90:
 1308              		.section	.text._ZN19ConsumerProducerCPP8Producer3runEv,"axG",@progbits,_ZN19ConsumerProducerCPP8Pr
 1309              		.align	2
 1310              		.weak	_ZN19ConsumerProducerCPP8Producer3runEv
 1312              	_ZN19ConsumerProducerCPP8Producer3runEv:
 1313              	.LFB49:
GAS LISTING /tmp/ccMeUcYP.s 			page 34


  50:src/../h/ConsumerProducer_CPP_API_test.h ****             int i = 0;
 1314              		.loc 3 50 14 is_stmt 1
 1315              		.cfi_startproc
 1316              	.LVL121:
 1317 0000 130101FE 		addi	sp,sp,-32
 1318              		.cfi_def_cfa_offset 32
 1319 0004 233C1100 		sd	ra,24(sp)
 1320 0008 23388100 		sd	s0,16(sp)
 1321 000c 23349100 		sd	s1,8(sp)
 1322 0010 23302101 		sd	s2,0(sp)
 1323              		.cfi_offset 1, -8
 1324              		.cfi_offset 8, -16
 1325              		.cfi_offset 9, -24
 1326              		.cfi_offset 18, -32
 1327 0014 13040102 		addi	s0,sp,32
 1328              		.cfi_def_cfa 8, 0
 1329 0018 93040500 		mv	s1,a0
  51:src/../h/ConsumerProducer_CPP_API_test.h ****             while (!threadEnd) {
 1330              		.loc 3 51 13
 1331              	.LVL122:
  51:src/../h/ConsumerProducer_CPP_API_test.h ****             while (!threadEnd) {
 1332              		.loc 3 51 17 is_stmt 0
 1333 001c 13090000 		li	s2,0
 1334              	.LVL123:
 1335              	.L68:
  52:src/../h/ConsumerProducer_CPP_API_test.h ****                 td->buffer->put(td->id + '0');
 1336              		.loc 3 52 13 is_stmt 1
  52:src/../h/ConsumerProducer_CPP_API_test.h ****                 td->buffer->put(td->id + '0');
 1337              		.loc 3 52 20
 1338 0020 97070000 		lw	a5,.LANCHOR0
 1338      83A70700 
 1339 0028 63920704 		bnez	a5,.L67
  53:src/../h/ConsumerProducer_CPP_API_test.h ****                 i++;
 1340              		.loc 3 53 17
 1341 002c 83B70401 		ld	a5,16(s1)
  53:src/../h/ConsumerProducer_CPP_API_test.h ****                 i++;
 1342              		.loc 3 53 37 is_stmt 0
 1343 0030 83A50700 		lw	a1,0(a5)
  53:src/../h/ConsumerProducer_CPP_API_test.h ****                 i++;
 1344              		.loc 3 53 32
 1345 0034 9B850503 		addiw	a1,a1,48
 1346 0038 03B58700 		ld	a0,8(a5)
 1347 003c 97000000 		call	_ZN9BufferCPP3putEi@plt
 1347      E7800000 
 1348              	.LVL124:
  54:src/../h/ConsumerProducer_CPP_API_test.h ****                 Thread::sleep((i+td->id)%5);
 1349              		.loc 3 54 17 is_stmt 1
  54:src/../h/ConsumerProducer_CPP_API_test.h ****                 Thread::sleep((i+td->id)%5);
 1350              		.loc 3 54 18 is_stmt 0
 1351 0044 1B071900 		addiw	a4,s2,1
 1352 0048 1B090700 		sext.w	s2,a4
 1353              	.LVL125:
  55:src/../h/ConsumerProducer_CPP_API_test.h ****             }
 1354              		.loc 3 55 17 is_stmt 1
  55:src/../h/ConsumerProducer_CPP_API_test.h ****             }
 1355              		.loc 3 55 34 is_stmt 0
 1356 004c 83B70401 		ld	a5,16(s1)
GAS LISTING /tmp/ccMeUcYP.s 			page 35


  55:src/../h/ConsumerProducer_CPP_API_test.h ****             }
 1357              		.loc 3 55 38
 1358 0050 83A70700 		lw	a5,0(a5)
  55:src/../h/ConsumerProducer_CPP_API_test.h ****             }
 1359              		.loc 3 55 33
 1360 0054 BB87E700 		addw	a5,a5,a4
  55:src/../h/ConsumerProducer_CPP_API_test.h ****             }
 1361              		.loc 3 55 30
 1362 0058 13055000 		li	a0,5
 1363 005c 3BE5A702 		remw	a0,a5,a0
 1364 0060 97000000 		call	_ZN6Thread5sleepEm@plt
 1364      E7800000 
 1365              	.LVL126:
  52:src/../h/ConsumerProducer_CPP_API_test.h ****                 td->buffer->put(td->id + '0');
 1366              		.loc 3 52 13
 1367 0068 6FF09FFB 		j	.L68
 1368              	.L67:
  58:src/../h/ConsumerProducer_CPP_API_test.h ****         }
 1369              		.loc 3 58 13 is_stmt 1
 1370 006c 83B70401 		ld	a5,16(s1)
  58:src/../h/ConsumerProducer_CPP_API_test.h ****         }
 1371              		.loc 3 58 28 is_stmt 0
 1372 0070 03B50701 		ld	a0,16(a5)
 1373 0074 97000000 		call	_ZN9Semaphore6signalEv@plt
 1373      E7800000 
 1374              	.LVL127:
  59:src/../h/ConsumerProducer_CPP_API_test.h ****     };
 1375              		.loc 3 59 9
 1376 007c 83308101 		ld	ra,24(sp)
 1377              		.cfi_restore 1
 1378 0080 03340101 		ld	s0,16(sp)
 1379              		.cfi_restore 8
 1380              		.cfi_def_cfa 2, 32
 1381 0084 83348100 		ld	s1,8(sp)
 1382              		.cfi_restore 9
 1383              	.LVL128:
 1384 0088 03390100 		ld	s2,0(sp)
 1385              		.cfi_restore 18
 1386              	.LVL129:
 1387 008c 13010102 		addi	sp,sp,32
 1388              		.cfi_def_cfa_offset 0
 1389 0090 67800000 		jr	ra
 1390              		.cfi_endproc
 1391              	.LFE49:
 1393              		.text
 1394              		.align	2
 1395              		.globl	_Z6bafer2Pv
 1397              	_Z6bafer2Pv:
 1398              	.LFB91:
 175:src/userMain.cpp ****     for(int i=0;i<30;i++){
 1399              		.loc 4 175 21 is_stmt 1
 1400              		.cfi_startproc
 1401              	.LVL130:
 1402 0104 130101FE 		addi	sp,sp,-32
 1403              		.cfi_def_cfa_offset 32
 1404 0108 233C1100 		sd	ra,24(sp)
 1405 010c 23388100 		sd	s0,16(sp)
GAS LISTING /tmp/ccMeUcYP.s 			page 36


 1406 0110 23349100 		sd	s1,8(sp)
 1407              		.cfi_offset 1, -8
 1408              		.cfi_offset 8, -16
 1409              		.cfi_offset 9, -24
 1410 0114 13040102 		addi	s0,sp,32
 1411              		.cfi_def_cfa 8, 0
 176:src/userMain.cpp ****         int g=getc();
 1412              		.loc 4 176 5
 1413              	.LVL131:
 1414              	.LBB175:
 176:src/userMain.cpp ****         int g=getc();
 1415              		.loc 4 176 13 is_stmt 0
 1416 0118 93040000 		li	s1,0
 1417 011c 6F008002 		j	.L72
 1418              	.LVL132:
 1419              	.L74:
 1420              	.LBB176:
 177:src/userMain.cpp ****         if(g!=-1){
 1421              		.loc 4 177 9 is_stmt 1
 177:src/userMain.cpp ****         if(g!=-1){
 1422              		.loc 4 177 19 is_stmt 0
 1423 0120 97000000 		call	_Z4getcv@plt
 1423      E7800000 
 1424              	.LVL133:
 178:src/userMain.cpp ****             print(g);
 1425              		.loc 4 178 9 is_stmt 1
 179:src/userMain.cpp ****             //b->Print();
 1426              		.loc 4 179 13
 179:src/userMain.cpp ****             //b->Print();
 1427              		.loc 4 179 18 is_stmt 0
 1428 0128 1B050500 		sext.w	a0,a0
 1429 012c 97000000 		call	_Z5printi@plt
 1429      E7800000 
 1430              	.LVL134:
 182:src/userMain.cpp ****     }
 1431              		.loc 4 182 9 is_stmt 1
 182:src/userMain.cpp ****     }
 1432              		.loc 4 182 19 is_stmt 0
 1433 0134 13054001 		li	a0,20
 1434 0138 97000000 		call	_Z10time_sleepm@plt
 1434      E7800000 
 1435              	.LVL135:
 1436              	.LBE176:
 176:src/userMain.cpp ****         int g=getc();
 1437              		.loc 4 176 5 is_stmt 1
 1438 0140 9B841400 		addiw	s1,s1,1
 1439              	.LVL136:
 1440              	.L72:
 176:src/userMain.cpp ****         int g=getc();
 1441              		.loc 4 176 18 discriminator 1
 1442 0144 9307D001 		li	a5,29
 1443 0148 E3DC97FC 		ble	s1,a5,.L74
 1444              	.LBE175:
 184:src/userMain.cpp **** void testbafer(){
 1445              		.loc 4 184 1 is_stmt 0
 1446 014c 83308101 		ld	ra,24(sp)
 1447              		.cfi_restore 1
GAS LISTING /tmp/ccMeUcYP.s 			page 37


 1448 0150 03340101 		ld	s0,16(sp)
 1449              		.cfi_restore 8
 1450              		.cfi_def_cfa 2, 32
 1451 0154 83348100 		ld	s1,8(sp)
 1452              		.cfi_restore 9
 1453              	.LVL137:
 1454 0158 13010102 		addi	sp,sp,32
 1455              		.cfi_def_cfa_offset 0
 1456 015c 67800000 		jr	ra
 1457              		.cfi_endproc
 1458              	.LFE91:
 1460              		.section	.rodata.str1.8
 1461 000c 00000000 		.align	3
 1462              	.LC2:
 1463 0010 66756E6B 		.string	"funkcija1A\n"
 1463      63696A61 
 1463      31410A00 
 1464 001c 00000000 		.align	3
 1465              	.LC3:
 1466 0020 66756E6B 		.string	"funkcija1B\n"
 1466      63696A61 
 1466      31420A00 
 1467 002c 00000000 		.align	3
 1468              	.LC4:
 1469 0030 66756E6B 		.string	"funkcija1C\n"
 1469      63696A61 
 1469      31430A00 
 1470 003c 00000000 		.align	3
 1471              	.LC5:
 1472 0040 66756E6B 		.string	"funkcija1D\n"
 1472      63696A61 
 1472      31440A00 
 1473 004c 00000000 		.align	3
 1474              	.LC6:
 1475 0050 66756E6B 		.string	"funkcija1E\n"
 1475      63696A61 
 1475      31450A00 
 1476              		.text
 1477              		.align	2
 1478              		.globl	_Z2f1Pv
 1480              	_Z2f1Pv:
 1481              	.LFB86:
 110:src/userMain.cpp ****     print("funkcija1A\n");
 1482              		.loc 4 110 17 is_stmt 1
 1483              		.cfi_startproc
 1484              	.LVL138:
 1485 0160 130101FF 		addi	sp,sp,-16
 1486              		.cfi_def_cfa_offset 16
 1487 0164 23341100 		sd	ra,8(sp)
 1488 0168 23308100 		sd	s0,0(sp)
 1489              		.cfi_offset 1, -8
 1490              		.cfi_offset 8, -16
 1491 016c 13040101 		addi	s0,sp,16
 1492              		.cfi_def_cfa 8, 0
 111:src/userMain.cpp ****     Nit::yeild();
 1493              		.loc 4 111 5
 111:src/userMain.cpp ****     Nit::yeild();
GAS LISTING /tmp/ccMeUcYP.s 			page 38


 1494              		.loc 4 111 10 is_stmt 0
 1495 0170 17050000 		lla	a0,.LC2
 1495      13050500 
 1496              	.LVL139:
 1497 0178 97000000 		call	_Z5printPKc@plt
 1497      E7800000 
 1498              	.LVL140:
 112:src/userMain.cpp ****     //while(1)
 1499              		.loc 4 112 5 is_stmt 1
 112:src/userMain.cpp ****     //while(1)
 1500              		.loc 4 112 15 is_stmt 0
 1501 0180 97000000 		call	_ZN3Nit5yeildEv@plt
 1501      E7800000 
 1502              	.LVL141:
 114:src/userMain.cpp ****     //Scheduler::threadsleep(50);
 1503              		.loc 4 114 5 is_stmt 1
 114:src/userMain.cpp ****     //Scheduler::threadsleep(50);
 1504              		.loc 4 114 10 is_stmt 0
 1505 0188 17050000 		lla	a0,.LC3
 1505      13050500 
 1506 0190 97000000 		call	_Z5printPKc@plt
 1506      E7800000 
 1507              	.LVL142:
 116:src/userMain.cpp ****     Nit::yeild();
 1508              		.loc 4 116 5 is_stmt 1
 116:src/userMain.cpp ****     Nit::yeild();
 1509              		.loc 4 116 13 is_stmt 0
 1510 0198 17050000 		ld	a0,.LANCHOR0+16
 1510      03350500 
 1511 01a0 97000000 		call	_Z8sem_waitP7Semafor@plt
 1511      E7800000 
 1512              	.LVL143:
 117:src/userMain.cpp ****     print("funkcija1C\n");
 1513              		.loc 4 117 5 is_stmt 1
 117:src/userMain.cpp ****     print("funkcija1C\n");
 1514              		.loc 4 117 15 is_stmt 0
 1515 01a8 97000000 		call	_ZN3Nit5yeildEv@plt
 1515      E7800000 
 1516              	.LVL144:
 118:src/userMain.cpp ****     Nit::yeild();
 1517              		.loc 4 118 5 is_stmt 1
 118:src/userMain.cpp ****     Nit::yeild();
 1518              		.loc 4 118 10 is_stmt 0
 1519 01b0 17050000 		lla	a0,.LC4
 1519      13050500 
 1520 01b8 97000000 		call	_Z5printPKc@plt
 1520      E7800000 
 1521              	.LVL145:
 119:src/userMain.cpp ****     print("funkcija1D\n");
 1522              		.loc 4 119 5 is_stmt 1
 119:src/userMain.cpp ****     print("funkcija1D\n");
 1523              		.loc 4 119 15 is_stmt 0
 1524 01c0 97000000 		call	_ZN3Nit5yeildEv@plt
 1524      E7800000 
 1525              	.LVL146:
 120:src/userMain.cpp ****     Nit::yeild();
 1526              		.loc 4 120 5 is_stmt 1
GAS LISTING /tmp/ccMeUcYP.s 			page 39


 120:src/userMain.cpp ****     Nit::yeild();
 1527              		.loc 4 120 10 is_stmt 0
 1528 01c8 17050000 		lla	a0,.LC5
 1528      13050500 
 1529 01d0 97000000 		call	_Z5printPKc@plt
 1529      E7800000 
 1530              	.LVL147:
 121:src/userMain.cpp ****     print("funkcija1E\n");
 1531              		.loc 4 121 5 is_stmt 1
 121:src/userMain.cpp ****     print("funkcija1E\n");
 1532              		.loc 4 121 15 is_stmt 0
 1533 01d8 97000000 		call	_ZN3Nit5yeildEv@plt
 1533      E7800000 
 1534              	.LVL148:
 122:src/userMain.cpp ****     //sem_close();
 1535              		.loc 4 122 5 is_stmt 1
 122:src/userMain.cpp ****     //sem_close();
 1536              		.loc 4 122 10 is_stmt 0
 1537 01e0 17050000 		lla	a0,.LC6
 1537      13050500 
 1538 01e8 97000000 		call	_Z5printPKc@plt
 1538      E7800000 
 1539              	.LVL149:
 124:src/userMain.cpp **** void f2(void* a){
 1540              		.loc 4 124 1
 1541 01f0 83308100 		ld	ra,8(sp)
 1542              		.cfi_restore 1
 1543 01f4 03340100 		ld	s0,0(sp)
 1544              		.cfi_restore 8
 1545              		.cfi_def_cfa 2, 16
 1546 01f8 13010101 		addi	sp,sp,16
 1547              		.cfi_def_cfa_offset 0
 1548 01fc 67800000 		jr	ra
 1549              		.cfi_endproc
 1550              	.LFE86:
 1552              		.section	.rodata.str1.8
 1553 005c 00000000 		.align	3
 1554              	.LC7:
 1555 0060 66756E6B 		.string	"funkcija3A\n"
 1555      63696A61 
 1555      33410A00 
 1556 006c 00000000 		.align	3
 1557              	.LC8:
 1558 0070 66756E6B 		.string	"funkcija3B\n"
 1558      63696A61 
 1558      33420A00 
 1559 007c 00000000 		.align	3
 1560              	.LC9:
 1561 0080 66756E6B 		.string	"funkcija3C\n"
 1561      63696A61 
 1561      33430A00 
 1562 008c 00000000 		.align	3
 1563              	.LC10:
 1564 0090 66756E6B 		.string	"funkcija3D\n"
 1564      63696A61 
 1564      33440A00 
 1565 009c 00000000 		.align	3
GAS LISTING /tmp/ccMeUcYP.s 			page 40


 1566              	.LC11:
 1567 00a0 66756E6B 		.string	"funkcija3E\n"
 1567      63696A61 
 1567      33450A00 
 1568              		.text
 1569              		.align	2
 1570              		.globl	_Z2f3Pv
 1572              	_Z2f3Pv:
 1573              	.LFB88:
 141:src/userMain.cpp ****     print("funkcija3A\n");
 1574              		.loc 4 141 17 is_stmt 1
 1575              		.cfi_startproc
 1576              	.LVL150:
 1577 0200 130101FF 		addi	sp,sp,-16
 1578              		.cfi_def_cfa_offset 16
 1579 0204 23341100 		sd	ra,8(sp)
 1580 0208 23308100 		sd	s0,0(sp)
 1581              		.cfi_offset 1, -8
 1582              		.cfi_offset 8, -16
 1583 020c 13040101 		addi	s0,sp,16
 1584              		.cfi_def_cfa 8, 0
 142:src/userMain.cpp ****     Nit::yeild();
 1585              		.loc 4 142 5
 142:src/userMain.cpp ****     Nit::yeild();
 1586              		.loc 4 142 10 is_stmt 0
 1587 0210 17050000 		lla	a0,.LC7
 1587      13050500 
 1588              	.LVL151:
 1589 0218 97000000 		call	_Z5printPKc@plt
 1589      E7800000 
 1590              	.LVL152:
 143:src/userMain.cpp ****     print(sem_wait(s));
 1591              		.loc 4 143 5 is_stmt 1
 143:src/userMain.cpp ****     print(sem_wait(s));
 1592              		.loc 4 143 15 is_stmt 0
 1593 0220 97000000 		call	_ZN3Nit5yeildEv@plt
 1593      E7800000 
 1594              	.LVL153:
 144:src/userMain.cpp ****     print("funkcija3B\n");
 1595              		.loc 4 144 5 is_stmt 1
 144:src/userMain.cpp ****     print("funkcija3B\n");
 1596              		.loc 4 144 10 is_stmt 0
 1597 0228 17050000 		ld	a0,.LANCHOR0+16
 1597      03350500 
 1598 0230 97000000 		call	_Z8sem_waitP7Semafor@plt
 1598      E7800000 
 1599              	.LVL154:
 1600 0238 97000000 		call	_Z5printi@plt
 1600      E7800000 
 1601              	.LVL155:
 145:src/userMain.cpp ****     Nit::yeild();
 1602              		.loc 4 145 5 is_stmt 1
 145:src/userMain.cpp ****     Nit::yeild();
 1603              		.loc 4 145 10 is_stmt 0
 1604 0240 17050000 		lla	a0,.LC8
 1604      13050500 
 1605 0248 97000000 		call	_Z5printPKc@plt
GAS LISTING /tmp/ccMeUcYP.s 			page 41


 1605      E7800000 
 1606              	.LVL156:
 146:src/userMain.cpp ****     print("funkcija3C\n");
 1607              		.loc 4 146 5 is_stmt 1
 146:src/userMain.cpp ****     print("funkcija3C\n");
 1608              		.loc 4 146 15 is_stmt 0
 1609 0250 97000000 		call	_ZN3Nit5yeildEv@plt
 1609      E7800000 
 1610              	.LVL157:
 147:src/userMain.cpp ****     Nit::yeild();
 1611              		.loc 4 147 5 is_stmt 1
 147:src/userMain.cpp ****     Nit::yeild();
 1612              		.loc 4 147 10 is_stmt 0
 1613 0258 17050000 		lla	a0,.LC9
 1613      13050500 
 1614 0260 97000000 		call	_Z5printPKc@plt
 1614      E7800000 
 1615              	.LVL158:
 148:src/userMain.cpp ****     print("funkcija3D\n");
 1616              		.loc 4 148 5 is_stmt 1
 148:src/userMain.cpp ****     print("funkcija3D\n");
 1617              		.loc 4 148 15 is_stmt 0
 1618 0268 97000000 		call	_ZN3Nit5yeildEv@plt
 1618      E7800000 
 1619              	.LVL159:
 149:src/userMain.cpp ****     Nit::yeild();
 1620              		.loc 4 149 5 is_stmt 1
 149:src/userMain.cpp ****     Nit::yeild();
 1621              		.loc 4 149 10 is_stmt 0
 1622 0270 17050000 		lla	a0,.LC10
 1622      13050500 
 1623 0278 97000000 		call	_Z5printPKc@plt
 1623      E7800000 
 1624              	.LVL160:
 150:src/userMain.cpp ****     print("funkcija3E\n");
 1625              		.loc 4 150 5 is_stmt 1
 150:src/userMain.cpp ****     print("funkcija3E\n");
 1626              		.loc 4 150 15 is_stmt 0
 1627 0280 97000000 		call	_ZN3Nit5yeildEv@plt
 1627      E7800000 
 1628              	.LVL161:
 151:src/userMain.cpp **** }
 1629              		.loc 4 151 5 is_stmt 1
 151:src/userMain.cpp **** }
 1630              		.loc 4 151 10 is_stmt 0
 1631 0288 17050000 		lla	a0,.LC11
 1631      13050500 
 1632 0290 97000000 		call	_Z5printPKc@plt
 1632      E7800000 
 1633              	.LVL162:
 152:src/userMain.cpp **** void mojtest(){
 1634              		.loc 4 152 1
 1635 0298 83308100 		ld	ra,8(sp)
 1636              		.cfi_restore 1
 1637 029c 03340100 		ld	s0,0(sp)
 1638              		.cfi_restore 8
 1639              		.cfi_def_cfa 2, 16
GAS LISTING /tmp/ccMeUcYP.s 			page 42


 1640 02a0 13010101 		addi	sp,sp,16
 1641              		.cfi_def_cfa_offset 0
 1642 02a4 67800000 		jr	ra
 1643              		.cfi_endproc
 1644              	.LFE88:
 1646              		.section	.rodata.str1.8
 1647 00ac 00000000 		.align	3
 1648              	.LC12:
 1649 00b0 66756E6B 		.string	"funkcija2A\n"
 1649      63696A61 
 1649      32410A00 
 1650 00bc 00000000 		.align	3
 1651              	.LC13:
 1652 00c0 66756E6B 		.string	"funkcija2B\n"
 1652      63696A61 
 1652      32420A00 
 1653 00cc 00000000 		.align	3
 1654              	.LC14:
 1655 00d0 66756E6B 		.string	"funkcija2C\n"
 1655      63696A61 
 1655      32430A00 
 1656 00dc 00000000 		.align	3
 1657              	.LC15:
 1658 00e0 66756E6B 		.string	"funkcija2D\n"
 1658      63696A61 
 1658      32440A00 
 1659 00ec 00000000 		.align	3
 1660              	.LC16:
 1661 00f0 66756E6B 		.string	"funkcija2E\n"
 1661      63696A61 
 1661      32450A00 
 1662              		.text
 1663              		.align	2
 1664              		.globl	_Z2f2Pv
 1666              	_Z2f2Pv:
 1667              	.LFB87:
 125:src/userMain.cpp ****     //Scheduler::threadsleep(50);
 1668              		.loc 4 125 17 is_stmt 1
 1669              		.cfi_startproc
 1670              	.LVL163:
 1671 02a8 130101FF 		addi	sp,sp,-16
 1672              		.cfi_def_cfa_offset 16
 1673 02ac 23341100 		sd	ra,8(sp)
 1674 02b0 23308100 		sd	s0,0(sp)
 1675              		.cfi_offset 1, -8
 1676              		.cfi_offset 8, -16
 1677 02b4 13040101 		addi	s0,sp,16
 1678              		.cfi_def_cfa 8, 0
 127:src/userMain.cpp ****     Nit::yeild();
 1679              		.loc 4 127 5
 127:src/userMain.cpp ****     Nit::yeild();
 1680              		.loc 4 127 10 is_stmt 0
 1681 02b8 17050000 		lla	a0,.LC12
 1681      13050500 
 1682              	.LVL164:
 1683 02c0 97000000 		call	_Z5printPKc@plt
 1683      E7800000 
GAS LISTING /tmp/ccMeUcYP.s 			page 43


 1684              	.LVL165:
 128:src/userMain.cpp ****     print("funkcija2B\n");
 1685              		.loc 4 128 5 is_stmt 1
 128:src/userMain.cpp ****     print("funkcija2B\n");
 1686              		.loc 4 128 15 is_stmt 0
 1687 02c8 97000000 		call	_ZN3Nit5yeildEv@plt
 1687      E7800000 
 1688              	.LVL166:
 129:src/userMain.cpp ****     Nit::yeild();
 1689              		.loc 4 129 5 is_stmt 1
 129:src/userMain.cpp ****     Nit::yeild();
 1690              		.loc 4 129 10 is_stmt 0
 1691 02d0 17050000 		lla	a0,.LC13
 1691      13050500 
 1692 02d8 97000000 		call	_Z5printPKc@plt
 1692      E7800000 
 1693              	.LVL167:
 130:src/userMain.cpp ****     print("funkcija2C\n");
 1694              		.loc 4 130 5 is_stmt 1
 130:src/userMain.cpp ****     print("funkcija2C\n");
 1695              		.loc 4 130 15 is_stmt 0
 1696 02e0 97000000 		call	_ZN3Nit5yeildEv@plt
 1696      E7800000 
 1697              	.LVL168:
 131:src/userMain.cpp ****     Nit::yeild();
 1698              		.loc 4 131 5 is_stmt 1
 131:src/userMain.cpp ****     Nit::yeild();
 1699              		.loc 4 131 10 is_stmt 0
 1700 02e8 17050000 		lla	a0,.LC14
 1700      13050500 
 1701 02f0 97000000 		call	_Z5printPKc@plt
 1701      E7800000 
 1702              	.LVL169:
 132:src/userMain.cpp ****     print("funkcija2D\n");
 1703              		.loc 4 132 5 is_stmt 1
 132:src/userMain.cpp ****     print("funkcija2D\n");
 1704              		.loc 4 132 15 is_stmt 0
 1705 02f8 97000000 		call	_ZN3Nit5yeildEv@plt
 1705      E7800000 
 1706              	.LVL170:
 133:src/userMain.cpp ****     Nit::yeild();
 1707              		.loc 4 133 5 is_stmt 1
 133:src/userMain.cpp ****     Nit::yeild();
 1708              		.loc 4 133 10 is_stmt 0
 1709 0300 17050000 		lla	a0,.LC15
 1709      13050500 
 1710 0308 97000000 		call	_Z5printPKc@plt
 1710      E7800000 
 1711              	.LVL171:
 134:src/userMain.cpp ****     print("funkcija2E\n");
 1712              		.loc 4 134 5 is_stmt 1
 134:src/userMain.cpp ****     print("funkcija2E\n");
 1713              		.loc 4 134 15 is_stmt 0
 1714 0310 97000000 		call	_ZN3Nit5yeildEv@plt
 1714      E7800000 
 1715              	.LVL172:
 135:src/userMain.cpp ****     print(sem_close(s));
GAS LISTING /tmp/ccMeUcYP.s 			page 44


 1716              		.loc 4 135 5 is_stmt 1
 135:src/userMain.cpp ****     print(sem_close(s));
 1717              		.loc 4 135 10 is_stmt 0
 1718 0318 17050000 		lla	a0,.LC16
 1718      13050500 
 1719 0320 97000000 		call	_Z5printPKc@plt
 1719      E7800000 
 1720              	.LVL173:
 136:src/userMain.cpp **** 
 1721              		.loc 4 136 5 is_stmt 1
 136:src/userMain.cpp **** 
 1722              		.loc 4 136 10 is_stmt 0
 1723 0328 17050000 		ld	a0,.LANCHOR0+16
 1723      03350500 
 1724 0330 97000000 		call	_Z9sem_closeP7Semafor@plt
 1724      E7800000 
 1725              	.LVL174:
 1726 0338 97000000 		call	_Z5printi@plt
 1726      E7800000 
 1727              	.LVL175:
 140:src/userMain.cpp **** void f3(void* a){
 1728              		.loc 4 140 1
 1729 0340 83308100 		ld	ra,8(sp)
 1730              		.cfi_restore 1
 1731 0344 03340100 		ld	s0,0(sp)
 1732              		.cfi_restore 8
 1733              		.cfi_def_cfa 2, 16
 1734 0348 13010101 		addi	sp,sp,16
 1735              		.cfi_def_cfa_offset 0
 1736 034c 67800000 		jr	ra
 1737              		.cfi_endproc
 1738              	.LFE87:
 1740              		.align	2
 1741              		.globl	_Z9fibonaccim
 1743              	_Z9fibonaccim:
 1744              	.LFB2:
  13:src/../h/Threads_CPP_API_test.h ****     if (n == 0 || n == 1) { return n; }
 1745              		.loc 1 13 28 is_stmt 1
 1746              		.cfi_startproc
 1747              	.LVL176:
 1748 0350 130101FE 		addi	sp,sp,-32
 1749              		.cfi_def_cfa_offset 32
 1750 0354 233C1100 		sd	ra,24(sp)
 1751 0358 23388100 		sd	s0,16(sp)
 1752 035c 23349100 		sd	s1,8(sp)
 1753 0360 23302101 		sd	s2,0(sp)
 1754              		.cfi_offset 1, -8
 1755              		.cfi_offset 8, -16
 1756              		.cfi_offset 9, -24
 1757              		.cfi_offset 18, -32
 1758 0364 13040102 		addi	s0,sp,32
 1759              		.cfi_def_cfa 8, 0
 1760 0368 93040500 		mv	s1,a0
  14:src/../h/Threads_CPP_API_test.h ****     if (n % 10 == 0) { thread_dispatch(); }
 1761              		.loc 1 14 5
 1762 036c 93071000 		li	a5,1
 1763 0370 63F8A702 		bleu	a0,a5,.L81
GAS LISTING /tmp/ccMeUcYP.s 			page 45


  15:src/../h/Threads_CPP_API_test.h ****     return fibonacci(n - 1) + fibonacci(n - 2);
 1764              		.loc 1 15 5
  15:src/../h/Threads_CPP_API_test.h ****     return fibonacci(n - 1) + fibonacci(n - 2);
 1765              		.loc 1 15 11 is_stmt 0
 1766 0374 9307A000 		li	a5,10
 1767 0378 B377F502 		remu	a5,a0,a5
  15:src/../h/Threads_CPP_API_test.h ****     return fibonacci(n - 1) + fibonacci(n - 2);
 1768              		.loc 1 15 5
 1769 037c 638E0702 		beqz	a5,.L86
 1770              	.LVL177:
 1771              	.L83:
  16:src/../h/Threads_CPP_API_test.h **** }
 1772              		.loc 1 16 5 is_stmt 1
  16:src/../h/Threads_CPP_API_test.h **** }
 1773              		.loc 1 16 21 is_stmt 0
 1774 0380 1385F4FF 		addi	a0,s1,-1
 1775 0384 97000000 		call	_Z9fibonaccim
 1775      E7800000 
 1776              	.LVL178:
 1777 038c 13090500 		mv	s2,a0
  16:src/../h/Threads_CPP_API_test.h **** }
 1778              		.loc 1 16 40
 1779 0390 1385E4FF 		addi	a0,s1,-2
 1780 0394 97000000 		call	_Z9fibonaccim
 1780      E7800000 
 1781              	.LVL179:
  16:src/../h/Threads_CPP_API_test.h **** }
 1782              		.loc 1 16 46
 1783 039c 3305A900 		add	a0,s2,a0
 1784              	.L81:
  17:src/../h/Threads_CPP_API_test.h **** 
 1785              		.loc 1 17 1
 1786 03a0 83308101 		ld	ra,24(sp)
 1787              		.cfi_remember_state
 1788              		.cfi_restore 1
 1789 03a4 03340101 		ld	s0,16(sp)
 1790              		.cfi_restore 8
 1791              		.cfi_def_cfa 2, 32
 1792 03a8 83348100 		ld	s1,8(sp)
 1793              		.cfi_restore 9
 1794              	.LVL180:
 1795 03ac 03390100 		ld	s2,0(sp)
 1796              		.cfi_restore 18
 1797 03b0 13010102 		addi	sp,sp,32
 1798              		.cfi_def_cfa_offset 0
 1799 03b4 67800000 		jr	ra
 1800              	.LVL181:
 1801              	.L86:
 1802              		.cfi_restore_state
  15:src/../h/Threads_CPP_API_test.h ****     return fibonacci(n - 1) + fibonacci(n - 2);
 1803              		.loc 1 15 24 is_stmt 1 discriminator 1
  15:src/../h/Threads_CPP_API_test.h ****     return fibonacci(n - 1) + fibonacci(n - 2);
 1804              		.loc 1 15 39 is_stmt 0 discriminator 1
 1805 03b8 97000000 		call	_Z15thread_dispatchv@plt
 1805      E7800000 
 1806              	.LVL182:
 1807 03c0 6FF01FFC 		j	.L83
GAS LISTING /tmp/ccMeUcYP.s 			page 46


 1808              		.cfi_endproc
 1809              	.LFE2:
 1811              		.section	.rodata.str1.8
 1812 00fc 00000000 		.align	3
 1813              	.LC17:
 1814 0100 413A2069 		.string	"A: i="
 1814      3D00
 1815 0106 0000     		.align	3
 1816              	.LC18:
 1817 0108 0A00     		.string	"\n"
 1818 010a 00000000 		.align	3
 1818      0000
 1819              	.LC19:
 1820 0110 41206669 		.string	"A finished!\n"
 1820      6E697368 
 1820      6564210A 
 1820      00
 1821              		.text
 1822              		.align	2
 1823              		.globl	_ZN7WorkerA11workerBodyAEPv
 1825              	_ZN7WorkerA11workerBodyAEPv:
 1826              	.LFB19:
  50:src/../h/Threads_CPP_API_test.h ****     void workerBodyD(void* arg);
  51:src/../h/Threads_CPP_API_test.h **** public:
  52:src/../h/Threads_CPP_API_test.h ****     WorkerD():Thread() {}
  53:src/../h/Threads_CPP_API_test.h **** 
  54:src/../h/Threads_CPP_API_test.h ****     void run() override {
  55:src/../h/Threads_CPP_API_test.h ****         workerBodyD(nullptr);
  56:src/../h/Threads_CPP_API_test.h ****     }
  57:src/../h/Threads_CPP_API_test.h **** };
  58:src/../h/Threads_CPP_API_test.h **** 
  59:src/../h/Threads_CPP_API_test.h **** void WorkerA::workerBodyA(void *arg) {
 1827              		.loc 1 59 38 is_stmt 1
 1828              		.cfi_startproc
 1829              	.LVL183:
 1830 03c4 130101FE 		addi	sp,sp,-32
 1831              		.cfi_def_cfa_offset 32
 1832 03c8 233C1100 		sd	ra,24(sp)
 1833 03cc 23388100 		sd	s0,16(sp)
 1834 03d0 23349100 		sd	s1,8(sp)
 1835 03d4 23302101 		sd	s2,0(sp)
 1836              		.cfi_offset 1, -8
 1837              		.cfi_offset 8, -16
 1838              		.cfi_offset 9, -24
 1839              		.cfi_offset 18, -32
 1840 03d8 13040102 		addi	s0,sp,32
 1841              		.cfi_def_cfa 8, 0
  60:src/../h/Threads_CPP_API_test.h ****     for (uint64 i = 0; i < 10; i++) {
 1842              		.loc 1 60 5
 1843              	.LVL184:
 1844              	.LBB177:
 1845              		.loc 1 60 17 is_stmt 0
 1846 03dc 13090000 		li	s2,0
 1847 03e0 6F008003 		j	.L93
 1848              	.LVL185:
 1849              	.L90:
 1850              	.LBB178:
GAS LISTING /tmp/ccMeUcYP.s 			page 47


 1851              	.LBB179:
 1852              	.LBB180:
  61:src/../h/Threads_CPP_API_test.h ****         printString("A: i="); printInt(i); printString("\n");
  62:src/../h/Threads_CPP_API_test.h ****         for (uint64 j = 0; j < 10000; j++) {
  63:src/../h/Threads_CPP_API_test.h ****             for (uint64 k = 0; k < 30000; k++) { /* busy wait */ }
  64:src/../h/Threads_CPP_API_test.h ****             thread_dispatch();
 1853              		.loc 1 64 13 is_stmt 1 discriminator 2
 1854              		.loc 1 64 28 is_stmt 0 discriminator 2
 1855 03e4 97000000 		call	_Z15thread_dispatchv@plt
 1855      E7800000 
 1856              	.LVL186:
 1857              	.LBE180:
  62:src/../h/Threads_CPP_API_test.h ****             for (uint64 k = 0; k < 30000; k++) { /* busy wait */ }
 1858              		.loc 1 62 9 is_stmt 1 discriminator 2
 1859 03ec 93841400 		addi	s1,s1,1
 1860              	.LVL187:
 1861              	.L92:
  62:src/../h/Threads_CPP_API_test.h ****             for (uint64 k = 0; k < 30000; k++) { /* busy wait */ }
 1862              		.loc 1 62 30 discriminator 1
 1863 03f0 B7270000 		li	a5,8192
 1864 03f4 9387F770 		addi	a5,a5,1807
 1865 03f8 63EE9700 		bgtu	s1,a5,.L89
 1866              	.LBB182:
 1867              	.LBB181:
  63:src/../h/Threads_CPP_API_test.h ****             thread_dispatch();
 1868              		.loc 1 63 25 is_stmt 0
 1869 03fc 13070000 		li	a4,0
 1870              	.L91:
 1871              	.LVL188:
  63:src/../h/Threads_CPP_API_test.h ****             thread_dispatch();
 1872              		.loc 1 63 34 is_stmt 1 discriminator 3
 1873 0400 B7770000 		li	a5,28672
 1874 0404 9387F752 		addi	a5,a5,1327
 1875 0408 E3EEE7FC 		bgtu	a4,a5,.L90
  63:src/../h/Threads_CPP_API_test.h ****             thread_dispatch();
 1876              		.loc 1 63 13 discriminator 2
 1877 040c 13071700 		addi	a4,a4,1
 1878              	.LVL189:
 1879 0410 6FF01FFF 		j	.L91
 1880              	.LVL190:
 1881              	.L89:
 1882              	.LBE181:
 1883              	.LBE182:
 1884              	.LBE179:
 1885              	.LBE178:
  60:src/../h/Threads_CPP_API_test.h ****         printString("A: i="); printInt(i); printString("\n");
 1886              		.loc 1 60 5 discriminator 2
 1887 0414 13091900 		addi	s2,s2,1
 1888              	.LVL191:
 1889              	.L93:
  60:src/../h/Threads_CPP_API_test.h ****         printString("A: i="); printInt(i); printString("\n");
 1890              		.loc 1 60 26 discriminator 1
 1891 0418 93079000 		li	a5,9
 1892 041c 63E02705 		bgtu	s2,a5,.L88
 1893              	.LBB184:
  61:src/../h/Threads_CPP_API_test.h ****         for (uint64 j = 0; j < 10000; j++) {
 1894              		.loc 1 61 9
GAS LISTING /tmp/ccMeUcYP.s 			page 48


  61:src/../h/Threads_CPP_API_test.h ****         for (uint64 j = 0; j < 10000; j++) {
 1895              		.loc 1 61 20 is_stmt 0
 1896 0420 17050000 		lla	a0,.LC17
 1896      13050500 
 1897 0428 97000000 		call	_Z11printStringPKc@plt
 1897      E7800000 
 1898              	.LVL192:
  61:src/../h/Threads_CPP_API_test.h ****         for (uint64 j = 0; j < 10000; j++) {
 1899              		.loc 1 61 31 is_stmt 1
  61:src/../h/Threads_CPP_API_test.h ****         for (uint64 j = 0; j < 10000; j++) {
 1900              		.loc 1 61 39 is_stmt 0
 1901 0430 13060000 		li	a2,0
 1902 0434 9305A000 		li	a1,10
 1903 0438 1B050900 		sext.w	a0,s2
 1904 043c 97000000 		call	_Z8printIntiii@plt
 1904      E7800000 
 1905              	.LVL193:
  61:src/../h/Threads_CPP_API_test.h ****         for (uint64 j = 0; j < 10000; j++) {
 1906              		.loc 1 61 44 is_stmt 1
  61:src/../h/Threads_CPP_API_test.h ****         for (uint64 j = 0; j < 10000; j++) {
 1907              		.loc 1 61 55 is_stmt 0
 1908 0444 17050000 		lla	a0,.LC18
 1908      13050500 
 1909 044c 97000000 		call	_Z11printStringPKc@plt
 1909      E7800000 
 1910              	.LVL194:
  62:src/../h/Threads_CPP_API_test.h ****             for (uint64 k = 0; k < 30000; k++) { /* busy wait */ }
 1911              		.loc 1 62 9 is_stmt 1
 1912              	.LBB183:
  62:src/../h/Threads_CPP_API_test.h ****             for (uint64 k = 0; k < 30000; k++) { /* busy wait */ }
 1913              		.loc 1 62 21 is_stmt 0
 1914 0454 93040000 		li	s1,0
 1915 0458 6FF09FF9 		j	.L92
 1916              	.LVL195:
 1917              	.L88:
 1918              	.LBE183:
 1919              	.LBE184:
 1920              	.LBE177:
  65:src/../h/Threads_CPP_API_test.h ****         }
  66:src/../h/Threads_CPP_API_test.h ****     }
  67:src/../h/Threads_CPP_API_test.h ****     printString("A finished!\n");
 1921              		.loc 1 67 5 is_stmt 1
 1922              		.loc 1 67 16 is_stmt 0
 1923 045c 17050000 		lla	a0,.LC19
 1923      13050500 
 1924 0464 97000000 		call	_Z11printStringPKc@plt
 1924      E7800000 
 1925              	.LVL196:
  68:src/../h/Threads_CPP_API_test.h ****     finishedA = true;
 1926              		.loc 1 68 5 is_stmt 1
 1927              		.loc 1 68 15 is_stmt 0
 1928 046c 93071000 		li	a5,1
 1929 0470 17070000 		sb	a5,.LANCHOR0+24,a4
 1929      2300F700 
  69:src/../h/Threads_CPP_API_test.h **** }
 1930              		.loc 1 69 1
 1931 0478 83308101 		ld	ra,24(sp)
GAS LISTING /tmp/ccMeUcYP.s 			page 49


 1932              		.cfi_restore 1
 1933 047c 03340101 		ld	s0,16(sp)
 1934              		.cfi_restore 8
 1935              		.cfi_def_cfa 2, 32
 1936 0480 83348100 		ld	s1,8(sp)
 1937              		.cfi_restore 9
 1938 0484 03390100 		ld	s2,0(sp)
 1939              		.cfi_restore 18
 1940              	.LVL197:
 1941 0488 13010102 		addi	sp,sp,32
 1942              		.cfi_def_cfa_offset 0
 1943 048c 67800000 		jr	ra
 1944              		.cfi_endproc
 1945              	.LFE19:
 1947              		.section	.text._ZN7WorkerA3runEv,"axG",@progbits,_ZN7WorkerA3runEv,comdat
 1948              		.align	2
 1949              		.weak	_ZN7WorkerA3runEv
 1951              	_ZN7WorkerA3runEv:
 1952              	.LFB6:
  24:src/../h/Threads_CPP_API_test.h ****         workerBodyA(nullptr);
 1953              		.loc 1 24 10 is_stmt 1
 1954              		.cfi_startproc
 1955              	.LVL198:
 1956 0000 130101FF 		addi	sp,sp,-16
 1957              		.cfi_def_cfa_offset 16
 1958 0004 23341100 		sd	ra,8(sp)
 1959 0008 23308100 		sd	s0,0(sp)
 1960              		.cfi_offset 1, -8
 1961              		.cfi_offset 8, -16
 1962 000c 13040101 		addi	s0,sp,16
 1963              		.cfi_def_cfa 8, 0
  25:src/../h/Threads_CPP_API_test.h ****     }
 1964              		.loc 1 25 9
  25:src/../h/Threads_CPP_API_test.h ****     }
 1965              		.loc 1 25 20 is_stmt 0
 1966 0010 93050000 		li	a1,0
 1967 0014 97000000 		call	_ZN7WorkerA11workerBodyAEPv
 1967      E7800000 
 1968              	.LVL199:
  26:src/../h/Threads_CPP_API_test.h **** };
 1969              		.loc 1 26 5
 1970 001c 83308100 		ld	ra,8(sp)
 1971              		.cfi_restore 1
 1972 0020 03340100 		ld	s0,0(sp)
 1973              		.cfi_restore 8
 1974              		.cfi_def_cfa 2, 16
 1975 0024 13010101 		addi	sp,sp,16
 1976              		.cfi_def_cfa_offset 0
 1977 0028 67800000 		jr	ra
 1978              		.cfi_endproc
 1979              	.LFE6:
 1981              		.section	.rodata.str1.8
 1982 011d 000000   		.align	3
 1983              	.LC20:
 1984 0120 423A2069 		.string	"B: i="
 1984      3D00
 1985 0126 0000     		.align	3
GAS LISTING /tmp/ccMeUcYP.s 			page 50


 1986              	.LC21:
 1987 0128 42206669 		.string	"B finished!\n"
 1987      6E697368 
 1987      6564210A 
 1987      00
 1988              		.text
 1989              		.align	2
 1990              		.globl	_ZN7WorkerB11workerBodyBEPv
 1992              	_ZN7WorkerB11workerBodyBEPv:
 1993              	.LFB20:
  70:src/../h/Threads_CPP_API_test.h **** 
  71:src/../h/Threads_CPP_API_test.h **** void WorkerB::workerBodyB(void *arg) {
 1994              		.loc 1 71 38 is_stmt 1
 1995              		.cfi_startproc
 1996              	.LVL200:
 1997 0490 130101FE 		addi	sp,sp,-32
 1998              		.cfi_def_cfa_offset 32
 1999 0494 233C1100 		sd	ra,24(sp)
 2000 0498 23388100 		sd	s0,16(sp)
 2001 049c 23349100 		sd	s1,8(sp)
 2002 04a0 23302101 		sd	s2,0(sp)
 2003              		.cfi_offset 1, -8
 2004              		.cfi_offset 8, -16
 2005              		.cfi_offset 9, -24
 2006              		.cfi_offset 18, -32
 2007 04a4 13040102 		addi	s0,sp,32
 2008              		.cfi_def_cfa 8, 0
  72:src/../h/Threads_CPP_API_test.h ****     for (uint64 i = 0; i < 16; i++) {
 2009              		.loc 1 72 5
 2010              	.LVL201:
 2011              	.LBB185:
 2012              		.loc 1 72 17 is_stmt 0
 2013 04a8 13090000 		li	s2,0
 2014 04ac 6F008003 		j	.L103
 2015              	.LVL202:
 2016              	.L100:
 2017              	.LBB186:
 2018              	.LBB187:
 2019              	.LBB188:
  73:src/../h/Threads_CPP_API_test.h ****         printString("B: i="); printInt(i); printString("\n");
  74:src/../h/Threads_CPP_API_test.h ****         for (uint64 j = 0; j < 10000; j++) {
  75:src/../h/Threads_CPP_API_test.h ****             for (uint64 k = 0; k < 30000; k++) { /* busy wait */ }
  76:src/../h/Threads_CPP_API_test.h ****             thread_dispatch();
 2020              		.loc 1 76 13 is_stmt 1 discriminator 2
 2021              		.loc 1 76 28 is_stmt 0 discriminator 2
 2022 04b0 97000000 		call	_Z15thread_dispatchv@plt
 2022      E7800000 
 2023              	.LVL203:
 2024              	.LBE188:
  74:src/../h/Threads_CPP_API_test.h ****             for (uint64 k = 0; k < 30000; k++) { /* busy wait */ }
 2025              		.loc 1 74 9 is_stmt 1 discriminator 2
 2026 04b8 93841400 		addi	s1,s1,1
 2027              	.LVL204:
 2028              	.L102:
  74:src/../h/Threads_CPP_API_test.h ****             for (uint64 k = 0; k < 30000; k++) { /* busy wait */ }
 2029              		.loc 1 74 30 discriminator 1
 2030 04bc B7270000 		li	a5,8192
GAS LISTING /tmp/ccMeUcYP.s 			page 51


 2031 04c0 9387F770 		addi	a5,a5,1807
 2032 04c4 63EE9700 		bgtu	s1,a5,.L99
 2033              	.LBB190:
 2034              	.LBB189:
  75:src/../h/Threads_CPP_API_test.h ****             thread_dispatch();
 2035              		.loc 1 75 25 is_stmt 0
 2036 04c8 13070000 		li	a4,0
 2037              	.L101:
 2038              	.LVL205:
  75:src/../h/Threads_CPP_API_test.h ****             thread_dispatch();
 2039              		.loc 1 75 34 is_stmt 1 discriminator 3
 2040 04cc B7770000 		li	a5,28672
 2041 04d0 9387F752 		addi	a5,a5,1327
 2042 04d4 E3EEE7FC 		bgtu	a4,a5,.L100
  75:src/../h/Threads_CPP_API_test.h ****             thread_dispatch();
 2043              		.loc 1 75 13 discriminator 2
 2044 04d8 13071700 		addi	a4,a4,1
 2045              	.LVL206:
 2046 04dc 6FF01FFF 		j	.L101
 2047              	.LVL207:
 2048              	.L99:
 2049              	.LBE189:
 2050              	.LBE190:
 2051              	.LBE187:
 2052              	.LBE186:
  72:src/../h/Threads_CPP_API_test.h ****         printString("B: i="); printInt(i); printString("\n");
 2053              		.loc 1 72 5 discriminator 2
 2054 04e0 13091900 		addi	s2,s2,1
 2055              	.LVL208:
 2056              	.L103:
  72:src/../h/Threads_CPP_API_test.h ****         printString("B: i="); printInt(i); printString("\n");
 2057              		.loc 1 72 26 discriminator 1
 2058 04e4 9307F000 		li	a5,15
 2059 04e8 63E02705 		bgtu	s2,a5,.L98
 2060              	.LBB192:
  73:src/../h/Threads_CPP_API_test.h ****         for (uint64 j = 0; j < 10000; j++) {
 2061              		.loc 1 73 9
  73:src/../h/Threads_CPP_API_test.h ****         for (uint64 j = 0; j < 10000; j++) {
 2062              		.loc 1 73 20 is_stmt 0
 2063 04ec 17050000 		lla	a0,.LC20
 2063      13050500 
 2064 04f4 97000000 		call	_Z11printStringPKc@plt
 2064      E7800000 
 2065              	.LVL209:
  73:src/../h/Threads_CPP_API_test.h ****         for (uint64 j = 0; j < 10000; j++) {
 2066              		.loc 1 73 31 is_stmt 1
  73:src/../h/Threads_CPP_API_test.h ****         for (uint64 j = 0; j < 10000; j++) {
 2067              		.loc 1 73 39 is_stmt 0
 2068 04fc 13060000 		li	a2,0
 2069 0500 9305A000 		li	a1,10
 2070 0504 1B050900 		sext.w	a0,s2
 2071 0508 97000000 		call	_Z8printIntiii@plt
 2071      E7800000 
 2072              	.LVL210:
  73:src/../h/Threads_CPP_API_test.h ****         for (uint64 j = 0; j < 10000; j++) {
 2073              		.loc 1 73 44 is_stmt 1
  73:src/../h/Threads_CPP_API_test.h ****         for (uint64 j = 0; j < 10000; j++) {
GAS LISTING /tmp/ccMeUcYP.s 			page 52


 2074              		.loc 1 73 55 is_stmt 0
 2075 0510 17050000 		lla	a0,.LC18
 2075      13050500 
 2076 0518 97000000 		call	_Z11printStringPKc@plt
 2076      E7800000 
 2077              	.LVL211:
  74:src/../h/Threads_CPP_API_test.h ****             for (uint64 k = 0; k < 30000; k++) { /* busy wait */ }
 2078              		.loc 1 74 9 is_stmt 1
 2079              	.LBB191:
  74:src/../h/Threads_CPP_API_test.h ****             for (uint64 k = 0; k < 30000; k++) { /* busy wait */ }
 2080              		.loc 1 74 21 is_stmt 0
 2081 0520 93040000 		li	s1,0
 2082 0524 6FF09FF9 		j	.L102
 2083              	.LVL212:
 2084              	.L98:
 2085              	.LBE191:
 2086              	.LBE192:
 2087              	.LBE185:
  77:src/../h/Threads_CPP_API_test.h ****         }
  78:src/../h/Threads_CPP_API_test.h ****     }
  79:src/../h/Threads_CPP_API_test.h ****     printString("B finished!\n");
 2088              		.loc 1 79 5 is_stmt 1
 2089              		.loc 1 79 16 is_stmt 0
 2090 0528 17050000 		lla	a0,.LC21
 2090      13050500 
 2091 0530 97000000 		call	_Z11printStringPKc@plt
 2091      E7800000 
 2092              	.LVL213:
  80:src/../h/Threads_CPP_API_test.h ****     finishedB = true;
 2093              		.loc 1 80 5 is_stmt 1
 2094              		.loc 1 80 15 is_stmt 0
 2095 0538 93071000 		li	a5,1
 2096 053c 17070000 		sb	a5,.LANCHOR0+25,a4
 2096      2300F700 
  81:src/../h/Threads_CPP_API_test.h ****     thread_dispatch();
 2097              		.loc 1 81 5 is_stmt 1
 2098              		.loc 1 81 20 is_stmt 0
 2099 0544 97000000 		call	_Z15thread_dispatchv@plt
 2099      E7800000 
 2100              	.LVL214:
  82:src/../h/Threads_CPP_API_test.h **** }
 2101              		.loc 1 82 1
 2102 054c 83308101 		ld	ra,24(sp)
 2103              		.cfi_restore 1
 2104 0550 03340101 		ld	s0,16(sp)
 2105              		.cfi_restore 8
 2106              		.cfi_def_cfa 2, 32
 2107 0554 83348100 		ld	s1,8(sp)
 2108              		.cfi_restore 9
 2109 0558 03390100 		ld	s2,0(sp)
 2110              		.cfi_restore 18
 2111              	.LVL215:
 2112 055c 13010102 		addi	sp,sp,32
 2113              		.cfi_def_cfa_offset 0
 2114 0560 67800000 		jr	ra
 2115              		.cfi_endproc
 2116              	.LFE20:
GAS LISTING /tmp/ccMeUcYP.s 			page 53


 2118              		.section	.text._ZN7WorkerB3runEv,"axG",@progbits,_ZN7WorkerB3runEv,comdat
 2119              		.align	2
 2120              		.weak	_ZN7WorkerB3runEv
 2122              	_ZN7WorkerB3runEv:
 2123              	.LFB10:
  34:src/../h/Threads_CPP_API_test.h ****         workerBodyB(nullptr);
 2124              		.loc 1 34 10 is_stmt 1
 2125              		.cfi_startproc
 2126              	.LVL216:
 2127 0000 130101FF 		addi	sp,sp,-16
 2128              		.cfi_def_cfa_offset 16
 2129 0004 23341100 		sd	ra,8(sp)
 2130 0008 23308100 		sd	s0,0(sp)
 2131              		.cfi_offset 1, -8
 2132              		.cfi_offset 8, -16
 2133 000c 13040101 		addi	s0,sp,16
 2134              		.cfi_def_cfa 8, 0
  35:src/../h/Threads_CPP_API_test.h ****     }
 2135              		.loc 1 35 9
  35:src/../h/Threads_CPP_API_test.h ****     }
 2136              		.loc 1 35 20 is_stmt 0
 2137 0010 93050000 		li	a1,0
 2138 0014 97000000 		call	_ZN7WorkerB11workerBodyBEPv
 2138      E7800000 
 2139              	.LVL217:
  36:src/../h/Threads_CPP_API_test.h **** };
 2140              		.loc 1 36 5
 2141 001c 83308100 		ld	ra,8(sp)
 2142              		.cfi_restore 1
 2143 0020 03340100 		ld	s0,0(sp)
 2144              		.cfi_restore 8
 2145              		.cfi_def_cfa 2, 16
 2146 0024 13010101 		addi	sp,sp,16
 2147              		.cfi_def_cfa_offset 0
 2148 0028 67800000 		jr	ra
 2149              		.cfi_endproc
 2150              	.LFE10:
 2152              		.section	.rodata.str1.8
 2153 0135 000000   		.align	3
 2154              	.LC22:
 2155 0138 433A2069 		.string	"C: i="
 2155      3D00
 2156 013e 0000     		.align	3
 2157              	.LC23:
 2158 0140 433A2064 		.string	"C: dispatch\n"
 2158      69737061 
 2158      7463680A 
 2158      00
 2159 014d 000000   		.align	3
 2160              	.LC24:
 2161 0150 433A2074 		.string	"C: t1="
 2161      313D00
 2162 0157 00       		.align	3
 2163              	.LC25:
 2164 0158 433A2066 		.string	"C: fibonaci="
 2164      69626F6E 
 2164      6163693D 
GAS LISTING /tmp/ccMeUcYP.s 			page 54


 2164      00
 2165              		.text
 2166              		.align	2
 2167              		.globl	_ZN7WorkerC11workerBodyCEPv
 2169              	_ZN7WorkerC11workerBodyCEPv:
 2170              	.LFB21:
  83:src/../h/Threads_CPP_API_test.h **** 
  84:src/../h/Threads_CPP_API_test.h **** void WorkerC::workerBodyC(void *arg) {
 2171              		.loc 1 84 38 is_stmt 1
 2172              		.cfi_startproc
 2173              	.LVL218:
 2174 0564 130101FE 		addi	sp,sp,-32
 2175              		.cfi_def_cfa_offset 32
 2176 0568 233C1100 		sd	ra,24(sp)
 2177 056c 23388100 		sd	s0,16(sp)
 2178 0570 23349100 		sd	s1,8(sp)
 2179 0574 23302101 		sd	s2,0(sp)
 2180              		.cfi_offset 1, -8
 2181              		.cfi_offset 8, -16
 2182              		.cfi_offset 9, -24
 2183              		.cfi_offset 18, -32
 2184 0578 13040102 		addi	s0,sp,32
 2185              		.cfi_def_cfa 8, 0
  85:src/../h/Threads_CPP_API_test.h ****     uint8 i = 0;
 2186              		.loc 1 85 5
 2187              	.LVL219:
 2188              		.loc 1 85 11 is_stmt 0
 2189 057c 93040000 		li	s1,0
 2190 0580 6F000004 		j	.L109
 2191              	.LVL220:
 2192              	.L113:
  86:src/../h/Threads_CPP_API_test.h ****     for (; i < 3; i++) {
  87:src/../h/Threads_CPP_API_test.h ****         printString("C: i="); printInt(i); printString("\n");
 2193              		.loc 1 87 9 is_stmt 1 discriminator 1
 2194              		.loc 1 87 20 is_stmt 0 discriminator 1
 2195 0584 17050000 		lla	a0,.LC22
 2195      13050500 
 2196 058c 97000000 		call	_Z11printStringPKc@plt
 2196      E7800000 
 2197              	.LVL221:
 2198              		.loc 1 87 31 is_stmt 1 discriminator 1
 2199              		.loc 1 87 39 is_stmt 0 discriminator 1
 2200 0594 13060000 		li	a2,0
 2201 0598 9305A000 		li	a1,10
 2202 059c 13850400 		mv	a0,s1
 2203 05a0 97000000 		call	_Z8printIntiii@plt
 2203      E7800000 
 2204              	.LVL222:
 2205              		.loc 1 87 44 is_stmt 1 discriminator 1
 2206              		.loc 1 87 55 is_stmt 0 discriminator 1
 2207 05a8 17050000 		lla	a0,.LC18
 2207      13050500 
 2208 05b0 97000000 		call	_Z11printStringPKc@plt
 2208      E7800000 
 2209              	.LVL223:
  86:src/../h/Threads_CPP_API_test.h ****     for (; i < 3; i++) {
 2210              		.loc 1 86 5 is_stmt 1 discriminator 1
GAS LISTING /tmp/ccMeUcYP.s 			page 55


 2211 05b8 9B841400 		addiw	s1,s1,1
 2212              	.LVL224:
 2213 05bc 93F4F40F 		andi	s1,s1,0xff
 2214              	.LVL225:
 2215              	.L109:
  86:src/../h/Threads_CPP_API_test.h ****     for (; i < 3; i++) {
 2216              		.loc 1 86 5 discriminator 2
  86:src/../h/Threads_CPP_API_test.h ****     for (; i < 3; i++) {
 2217              		.loc 1 86 14 discriminator 2
 2218 05c0 93072000 		li	a5,2
 2219 05c4 E3F097FC 		bleu	s1,a5,.L113
  88:src/../h/Threads_CPP_API_test.h ****     }
  89:src/../h/Threads_CPP_API_test.h **** 
  90:src/../h/Threads_CPP_API_test.h ****     printString("C: dispatch\n");
 2220              		.loc 1 90 5
 2221              		.loc 1 90 16 is_stmt 0
 2222 05c8 17050000 		lla	a0,.LC23
 2222      13050500 
 2223 05d0 97000000 		call	_Z11printStringPKc@plt
 2223      E7800000 
 2224              	.LVL226:
  91:src/../h/Threads_CPP_API_test.h ****     __asm__ ("li t1, 7");
 2225              		.loc 1 91 5 is_stmt 1
 2226              		.loc 1 91 25 is_stmt 0
 2227              	#APP
 2228              	# 91 "src/../h/Threads_CPP_API_test.h" 1
  92              	    thread_dispatch();
 2229              		li t1, 7
 2230              	# 0 "" 2
 2231              		.loc 1 92 5 is_stmt 1
 2232              		.loc 1 92 20 is_stmt 0
 2233              	#NO_APP
 2234 05dc 97000000 		call	_Z15thread_dispatchv@plt
 2234      E7800000 
 2235              	.LVL227:
  93:src/../h/Threads_CPP_API_test.h **** 
  94:src/../h/Threads_CPP_API_test.h ****     uint64 t1 = 0;
 2236              		.loc 1 94 5 is_stmt 1
  95:src/../h/Threads_CPP_API_test.h ****     __asm__ ("mv %[t1], t1" : [t1] "=r"(t1));
 2237              		.loc 1 95 5
 2238              		.loc 1 95 45 is_stmt 0
 2239              	#APP
 2240              	# 95 "src/../h/Threads_CPP_API_test.h" 1
  96              	
 2241              		mv s2, t1
 2242              	# 0 "" 2
 2243              	.LVL228:
  97:src/../h/Threads_CPP_API_test.h ****     printString("C: t1="); printInt(t1); printString("\n");
 2244              		.loc 1 97 5 is_stmt 1
 2245              		.loc 1 97 16 is_stmt 0
 2246              	#NO_APP
 2247 05e8 17050000 		lla	a0,.LC24
 2247      13050500 
 2248 05f0 97000000 		call	_Z11printStringPKc@plt
 2248      E7800000 
 2249              	.LVL229:
 2250              		.loc 1 97 28 is_stmt 1
GAS LISTING /tmp/ccMeUcYP.s 			page 56


 2251              		.loc 1 97 36 is_stmt 0
 2252 05f8 13060000 		li	a2,0
 2253 05fc 9305A000 		li	a1,10
 2254 0600 1B050900 		sext.w	a0,s2
 2255 0604 97000000 		call	_Z8printIntiii@plt
 2255      E7800000 
 2256              	.LVL230:
 2257              		.loc 1 97 42 is_stmt 1
 2258              		.loc 1 97 53 is_stmt 0
 2259 060c 17050000 		lla	a0,.LC18
 2259      13050500 
 2260 0614 97000000 		call	_Z11printStringPKc@plt
 2260      E7800000 
 2261              	.LVL231:
  98:src/../h/Threads_CPP_API_test.h **** 
  99:src/../h/Threads_CPP_API_test.h ****     uint64 result = fibonacci(12);
 2262              		.loc 1 99 5 is_stmt 1
 2263              		.loc 1 99 30 is_stmt 0
 2264 061c 1305C000 		li	a0,12
 2265 0620 97000000 		call	_Z9fibonaccim
 2265      E7800000 
 2266              	.LVL232:
 2267 0628 13090500 		mv	s2,a0
 2268              	.LVL233:
 100:src/../h/Threads_CPP_API_test.h ****     printString("C: fibonaci="); printInt(result); printString("\n");
 2269              		.loc 1 100 5 is_stmt 1
 2270              		.loc 1 100 16 is_stmt 0
 2271 062c 17050000 		lla	a0,.LC25
 2271      13050500 
 2272              	.LVL234:
 2273 0634 97000000 		call	_Z11printStringPKc@plt
 2273      E7800000 
 2274              	.LVL235:
 2275              		.loc 1 100 34 is_stmt 1
 2276              		.loc 1 100 42 is_stmt 0
 2277 063c 13060000 		li	a2,0
 2278 0640 9305A000 		li	a1,10
 2279 0644 1B050900 		sext.w	a0,s2
 2280 0648 97000000 		call	_Z8printIntiii@plt
 2280      E7800000 
 2281              	.LVL236:
 2282              		.loc 1 100 52 is_stmt 1
 2283              		.loc 1 100 63 is_stmt 0
 2284 0650 17050000 		lla	a0,.LC18
 2284      13050500 
 2285 0658 97000000 		call	_Z11printStringPKc@plt
 2285      E7800000 
 2286              	.LVL237:
 2287 0660 6F000004 		j	.L111
 2288              	.L114:
 101:src/../h/Threads_CPP_API_test.h **** 
 102:src/../h/Threads_CPP_API_test.h ****     for (; i < 6; i++) {
 103:src/../h/Threads_CPP_API_test.h ****         printString("C: i="); printInt(i); printString("\n");
 2289              		.loc 1 103 9 is_stmt 1 discriminator 1
 2290              		.loc 1 103 20 is_stmt 0 discriminator 1
 2291 0664 17050000 		lla	a0,.LC22
 2291      13050500 
GAS LISTING /tmp/ccMeUcYP.s 			page 57


 2292 066c 97000000 		call	_Z11printStringPKc@plt
 2292      E7800000 
 2293              	.LVL238:
 2294              		.loc 1 103 31 is_stmt 1 discriminator 1
 2295              		.loc 1 103 39 is_stmt 0 discriminator 1
 2296 0674 13060000 		li	a2,0
 2297 0678 9305A000 		li	a1,10
 2298 067c 13850400 		mv	a0,s1
 2299 0680 97000000 		call	_Z8printIntiii@plt
 2299      E7800000 
 2300              	.LVL239:
 2301              		.loc 1 103 44 is_stmt 1 discriminator 1
 2302              		.loc 1 103 55 is_stmt 0 discriminator 1
 2303 0688 17050000 		lla	a0,.LC18
 2303      13050500 
 2304 0690 97000000 		call	_Z11printStringPKc@plt
 2304      E7800000 
 2305              	.LVL240:
 102:src/../h/Threads_CPP_API_test.h ****         printString("C: i="); printInt(i); printString("\n");
 2306              		.loc 1 102 5 is_stmt 1 discriminator 1
 2307 0698 9B841400 		addiw	s1,s1,1
 2308              	.LVL241:
 2309 069c 93F4F40F 		andi	s1,s1,0xff
 2310              	.LVL242:
 2311              	.L111:
 102:src/../h/Threads_CPP_API_test.h ****         printString("C: i="); printInt(i); printString("\n");
 2312              		.loc 1 102 5 discriminator 2
 102:src/../h/Threads_CPP_API_test.h ****         printString("C: i="); printInt(i); printString("\n");
 2313              		.loc 1 102 14 discriminator 2
 2314 06a0 93075000 		li	a5,5
 2315 06a4 E3F097FC 		bleu	s1,a5,.L114
 104:src/../h/Threads_CPP_API_test.h ****     }
 105:src/../h/Threads_CPP_API_test.h **** 
 106:src/../h/Threads_CPP_API_test.h ****     printString("A finished!\n");
 2316              		.loc 1 106 5
 2317              		.loc 1 106 16 is_stmt 0
 2318 06a8 17050000 		lla	a0,.LC19
 2318      13050500 
 2319 06b0 97000000 		call	_Z11printStringPKc@plt
 2319      E7800000 
 2320              	.LVL243:
 107:src/../h/Threads_CPP_API_test.h ****     finishedC = true;
 2321              		.loc 1 107 5 is_stmt 1
 2322              		.loc 1 107 15 is_stmt 0
 2323 06b8 93071000 		li	a5,1
 2324 06bc 17070000 		sb	a5,.LANCHOR0+26,a4
 2324      2300F700 
 108:src/../h/Threads_CPP_API_test.h ****     thread_dispatch();
 2325              		.loc 1 108 5 is_stmt 1
 2326              		.loc 1 108 20 is_stmt 0
 2327 06c4 97000000 		call	_Z15thread_dispatchv@plt
 2327      E7800000 
 2328              	.LVL244:
 109:src/../h/Threads_CPP_API_test.h **** }
 2329              		.loc 1 109 1
 2330 06cc 83308101 		ld	ra,24(sp)
 2331              		.cfi_restore 1
GAS LISTING /tmp/ccMeUcYP.s 			page 58


 2332 06d0 03340101 		ld	s0,16(sp)
 2333              		.cfi_restore 8
 2334              		.cfi_def_cfa 2, 32
 2335 06d4 83348100 		ld	s1,8(sp)
 2336              		.cfi_restore 9
 2337              	.LVL245:
 2338 06d8 03390100 		ld	s2,0(sp)
 2339              		.cfi_restore 18
 2340              	.LVL246:
 2341 06dc 13010102 		addi	sp,sp,32
 2342              		.cfi_def_cfa_offset 0
 2343 06e0 67800000 		jr	ra
 2344              		.cfi_endproc
 2345              	.LFE21:
 2347              		.section	.text._ZN7WorkerC3runEv,"axG",@progbits,_ZN7WorkerC3runEv,comdat
 2348              		.align	2
 2349              		.weak	_ZN7WorkerC3runEv
 2351              	_ZN7WorkerC3runEv:
 2352              	.LFB14:
  44:src/../h/Threads_CPP_API_test.h ****         workerBodyC(nullptr);
 2353              		.loc 1 44 10 is_stmt 1
 2354              		.cfi_startproc
 2355              	.LVL247:
 2356 0000 130101FF 		addi	sp,sp,-16
 2357              		.cfi_def_cfa_offset 16
 2358 0004 23341100 		sd	ra,8(sp)
 2359 0008 23308100 		sd	s0,0(sp)
 2360              		.cfi_offset 1, -8
 2361              		.cfi_offset 8, -16
 2362 000c 13040101 		addi	s0,sp,16
 2363              		.cfi_def_cfa 8, 0
  45:src/../h/Threads_CPP_API_test.h ****     }
 2364              		.loc 1 45 9
  45:src/../h/Threads_CPP_API_test.h ****     }
 2365              		.loc 1 45 20 is_stmt 0
 2366 0010 93050000 		li	a1,0
 2367 0014 97000000 		call	_ZN7WorkerC11workerBodyCEPv
 2367      E7800000 
 2368              	.LVL248:
  46:src/../h/Threads_CPP_API_test.h **** };
 2369              		.loc 1 46 5
 2370 001c 83308100 		ld	ra,8(sp)
 2371              		.cfi_restore 1
 2372 0020 03340100 		ld	s0,0(sp)
 2373              		.cfi_restore 8
 2374              		.cfi_def_cfa 2, 16
 2375 0024 13010101 		addi	sp,sp,16
 2376              		.cfi_def_cfa_offset 0
 2377 0028 67800000 		jr	ra
 2378              		.cfi_endproc
 2379              	.LFE14:
 2381              		.section	.rodata.str1.8
 2382 0165 000000   		.align	3
 2383              	.LC26:
 2384 0168 443A2069 		.string	"D: i="
 2384      3D00
 2385 016e 0000     		.align	3
GAS LISTING /tmp/ccMeUcYP.s 			page 59


 2386              	.LC27:
 2387 0170 443A2064 		.string	"D: dispatch\n"
 2387      69737061 
 2387      7463680A 
 2387      00
 2388 017d 000000   		.align	3
 2389              	.LC28:
 2390 0180 443A2066 		.string	"D: fibonaci="
 2390      69626F6E 
 2390      6163693D 
 2390      00
 2391 018d 000000   		.align	3
 2392              	.LC29:
 2393 0190 44206669 		.string	"D finished!\n"
 2393      6E697368 
 2393      6564210A 
 2393      00
 2394              		.text
 2395              		.align	2
 2396              		.globl	_ZN7WorkerD11workerBodyDEPv
 2398              	_ZN7WorkerD11workerBodyDEPv:
 2399              	.LFB22:
 110:src/../h/Threads_CPP_API_test.h **** 
 111:src/../h/Threads_CPP_API_test.h **** void WorkerD::workerBodyD(void* arg) {
 2400              		.loc 1 111 38 is_stmt 1
 2401              		.cfi_startproc
 2402              	.LVL249:
 2403 06e4 130101FE 		addi	sp,sp,-32
 2404              		.cfi_def_cfa_offset 32
 2405 06e8 233C1100 		sd	ra,24(sp)
 2406 06ec 23388100 		sd	s0,16(sp)
 2407 06f0 23349100 		sd	s1,8(sp)
 2408 06f4 23302101 		sd	s2,0(sp)
 2409              		.cfi_offset 1, -8
 2410              		.cfi_offset 8, -16
 2411              		.cfi_offset 9, -24
 2412              		.cfi_offset 18, -32
 2413 06f8 13040102 		addi	s0,sp,32
 2414              		.cfi_def_cfa 8, 0
 112:src/../h/Threads_CPP_API_test.h ****     uint8 i = 10;
 2415              		.loc 1 112 5
 2416              	.LVL250:
 2417              		.loc 1 112 11 is_stmt 0
 2418 06fc 9304A000 		li	s1,10
 2419 0700 6F000004 		j	.L119
 2420              	.LVL251:
 2421              	.L123:
 113:src/../h/Threads_CPP_API_test.h ****     for (; i < 13; i++) {
 114:src/../h/Threads_CPP_API_test.h ****         printString("D: i="); printInt(i); printString("\n");
 2422              		.loc 1 114 9 is_stmt 1 discriminator 1
 2423              		.loc 1 114 20 is_stmt 0 discriminator 1
 2424 0704 17050000 		lla	a0,.LC26
 2424      13050500 
 2425 070c 97000000 		call	_Z11printStringPKc@plt
 2425      E7800000 
 2426              	.LVL252:
 2427              		.loc 1 114 31 is_stmt 1 discriminator 1
GAS LISTING /tmp/ccMeUcYP.s 			page 60


 2428              		.loc 1 114 39 is_stmt 0 discriminator 1
 2429 0714 13060000 		li	a2,0
 2430 0718 9305A000 		li	a1,10
 2431 071c 13850400 		mv	a0,s1
 2432 0720 97000000 		call	_Z8printIntiii@plt
 2432      E7800000 
 2433              	.LVL253:
 2434              		.loc 1 114 44 is_stmt 1 discriminator 1
 2435              		.loc 1 114 55 is_stmt 0 discriminator 1
 2436 0728 17050000 		lla	a0,.LC18
 2436      13050500 
 2437 0730 97000000 		call	_Z11printStringPKc@plt
 2437      E7800000 
 2438              	.LVL254:
 113:src/../h/Threads_CPP_API_test.h ****     for (; i < 13; i++) {
 2439              		.loc 1 113 5 is_stmt 1 discriminator 1
 2440 0738 9B841400 		addiw	s1,s1,1
 2441              	.LVL255:
 2442 073c 93F4F40F 		andi	s1,s1,0xff
 2443              	.LVL256:
 2444              	.L119:
 113:src/../h/Threads_CPP_API_test.h ****     for (; i < 13; i++) {
 2445              		.loc 1 113 5 discriminator 2
 113:src/../h/Threads_CPP_API_test.h ****     for (; i < 13; i++) {
 2446              		.loc 1 113 14 discriminator 2
 2447 0740 9307C000 		li	a5,12
 2448 0744 E3F097FC 		bleu	s1,a5,.L123
 115:src/../h/Threads_CPP_API_test.h ****     }
 116:src/../h/Threads_CPP_API_test.h **** 
 117:src/../h/Threads_CPP_API_test.h ****     printString("D: dispatch\n");
 2449              		.loc 1 117 5
 2450              		.loc 1 117 16 is_stmt 0
 2451 0748 17050000 		lla	a0,.LC27
 2451      13050500 
 2452 0750 97000000 		call	_Z11printStringPKc@plt
 2452      E7800000 
 2453              	.LVL257:
 118:src/../h/Threads_CPP_API_test.h ****     __asm__ ("li t1, 5");
 2454              		.loc 1 118 5 is_stmt 1
 2455              		.loc 1 118 25 is_stmt 0
 2456              	#APP
 2457              	# 118 "src/../h/Threads_CPP_API_test.h" 1
 119              	    thread_dispatch();
 2458              		li t1, 5
 2459              	# 0 "" 2
 2460              		.loc 1 119 5 is_stmt 1
 2461              		.loc 1 119 20 is_stmt 0
 2462              	#NO_APP
 2463 075c 97000000 		call	_Z15thread_dispatchv@plt
 2463      E7800000 
 2464              	.LVL258:
 120:src/../h/Threads_CPP_API_test.h **** 
 121:src/../h/Threads_CPP_API_test.h ****     uint64 result = fibonacci(16);
 2465              		.loc 1 121 5 is_stmt 1
 2466              		.loc 1 121 30 is_stmt 0
 2467 0764 13050001 		li	a0,16
 2468 0768 97000000 		call	_Z9fibonaccim
GAS LISTING /tmp/ccMeUcYP.s 			page 61


 2468      E7800000 
 2469              	.LVL259:
 2470 0770 13090500 		mv	s2,a0
 2471              	.LVL260:
 122:src/../h/Threads_CPP_API_test.h ****     printString("D: fibonaci="); printInt(result); printString("\n");
 2472              		.loc 1 122 5 is_stmt 1
 2473              		.loc 1 122 16 is_stmt 0
 2474 0774 17050000 		lla	a0,.LC28
 2474      13050500 
 2475              	.LVL261:
 2476 077c 97000000 		call	_Z11printStringPKc@plt
 2476      E7800000 
 2477              	.LVL262:
 2478              		.loc 1 122 34 is_stmt 1
 2479              		.loc 1 122 42 is_stmt 0
 2480 0784 13060000 		li	a2,0
 2481 0788 9305A000 		li	a1,10
 2482 078c 1B050900 		sext.w	a0,s2
 2483 0790 97000000 		call	_Z8printIntiii@plt
 2483      E7800000 
 2484              	.LVL263:
 2485              		.loc 1 122 52 is_stmt 1
 2486              		.loc 1 122 63 is_stmt 0
 2487 0798 17050000 		lla	a0,.LC18
 2487      13050500 
 2488 07a0 97000000 		call	_Z11printStringPKc@plt
 2488      E7800000 
 2489              	.LVL264:
 2490 07a8 6F000004 		j	.L121
 2491              	.L124:
 123:src/../h/Threads_CPP_API_test.h **** 
 124:src/../h/Threads_CPP_API_test.h ****     for (; i < 16; i++) {
 125:src/../h/Threads_CPP_API_test.h ****         printString("D: i="); printInt(i); printString("\n");
 2492              		.loc 1 125 9 is_stmt 1 discriminator 1
 2493              		.loc 1 125 20 is_stmt 0 discriminator 1
 2494 07ac 17050000 		lla	a0,.LC26
 2494      13050500 
 2495 07b4 97000000 		call	_Z11printStringPKc@plt
 2495      E7800000 
 2496              	.LVL265:
 2497              		.loc 1 125 31 is_stmt 1 discriminator 1
 2498              		.loc 1 125 39 is_stmt 0 discriminator 1
 2499 07bc 13060000 		li	a2,0
 2500 07c0 9305A000 		li	a1,10
 2501 07c4 13850400 		mv	a0,s1
 2502 07c8 97000000 		call	_Z8printIntiii@plt
 2502      E7800000 
 2503              	.LVL266:
 2504              		.loc 1 125 44 is_stmt 1 discriminator 1
 2505              		.loc 1 125 55 is_stmt 0 discriminator 1
 2506 07d0 17050000 		lla	a0,.LC18
 2506      13050500 
 2507 07d8 97000000 		call	_Z11printStringPKc@plt
 2507      E7800000 
 2508              	.LVL267:
 124:src/../h/Threads_CPP_API_test.h ****         printString("D: i="); printInt(i); printString("\n");
 2509              		.loc 1 124 5 is_stmt 1 discriminator 1
GAS LISTING /tmp/ccMeUcYP.s 			page 62


 2510 07e0 9B841400 		addiw	s1,s1,1
 2511              	.LVL268:
 2512 07e4 93F4F40F 		andi	s1,s1,0xff
 2513              	.LVL269:
 2514              	.L121:
 124:src/../h/Threads_CPP_API_test.h ****         printString("D: i="); printInt(i); printString("\n");
 2515              		.loc 1 124 5 discriminator 2
 124:src/../h/Threads_CPP_API_test.h ****         printString("D: i="); printInt(i); printString("\n");
 2516              		.loc 1 124 14 discriminator 2
 2517 07e8 9307F000 		li	a5,15
 2518 07ec E3F097FC 		bleu	s1,a5,.L124
 126:src/../h/Threads_CPP_API_test.h ****     }
 127:src/../h/Threads_CPP_API_test.h **** 
 128:src/../h/Threads_CPP_API_test.h ****     printString("D finished!\n");
 2519              		.loc 1 128 5
 2520              		.loc 1 128 16 is_stmt 0
 2521 07f0 17050000 		lla	a0,.LC29
 2521      13050500 
 2522 07f8 97000000 		call	_Z11printStringPKc@plt
 2522      E7800000 
 2523              	.LVL270:
 129:src/../h/Threads_CPP_API_test.h ****     finishedD = true;
 2524              		.loc 1 129 5 is_stmt 1
 2525              		.loc 1 129 15 is_stmt 0
 2526 0800 93071000 		li	a5,1
 2527 0804 17070000 		sb	a5,.LANCHOR0+27,a4
 2527      2300F700 
 130:src/../h/Threads_CPP_API_test.h ****     thread_dispatch();
 2528              		.loc 1 130 5 is_stmt 1
 2529              		.loc 1 130 20 is_stmt 0
 2530 080c 97000000 		call	_Z15thread_dispatchv@plt
 2530      E7800000 
 2531              	.LVL271:
 131:src/../h/Threads_CPP_API_test.h **** }
 2532              		.loc 1 131 1
 2533 0814 83308101 		ld	ra,24(sp)
 2534              		.cfi_restore 1
 2535 0818 03340101 		ld	s0,16(sp)
 2536              		.cfi_restore 8
 2537              		.cfi_def_cfa 2, 32
 2538 081c 83348100 		ld	s1,8(sp)
 2539              		.cfi_restore 9
 2540              	.LVL272:
 2541 0820 03390100 		ld	s2,0(sp)
 2542              		.cfi_restore 18
 2543              	.LVL273:
 2544 0824 13010102 		addi	sp,sp,32
 2545              		.cfi_def_cfa_offset 0
 2546 0828 67800000 		jr	ra
 2547              		.cfi_endproc
 2548              	.LFE22:
 2550              		.section	.text._ZN7WorkerD3runEv,"axG",@progbits,_ZN7WorkerD3runEv,comdat
 2551              		.align	2
 2552              		.weak	_ZN7WorkerD3runEv
 2554              	_ZN7WorkerD3runEv:
 2555              	.LFB18:
  54:src/../h/Threads_CPP_API_test.h ****         workerBodyD(nullptr);
GAS LISTING /tmp/ccMeUcYP.s 			page 63


 2556              		.loc 1 54 10 is_stmt 1
 2557              		.cfi_startproc
 2558              	.LVL274:
 2559 0000 130101FF 		addi	sp,sp,-16
 2560              		.cfi_def_cfa_offset 16
 2561 0004 23341100 		sd	ra,8(sp)
 2562 0008 23308100 		sd	s0,0(sp)
 2563              		.cfi_offset 1, -8
 2564              		.cfi_offset 8, -16
 2565 000c 13040101 		addi	s0,sp,16
 2566              		.cfi_def_cfa 8, 0
  55:src/../h/Threads_CPP_API_test.h ****     }
 2567              		.loc 1 55 9
  55:src/../h/Threads_CPP_API_test.h ****     }
 2568              		.loc 1 55 20 is_stmt 0
 2569 0010 93050000 		li	a1,0
 2570 0014 97000000 		call	_ZN7WorkerD11workerBodyDEPv
 2570      E7800000 
 2571              	.LVL275:
  56:src/../h/Threads_CPP_API_test.h **** };
 2572              		.loc 1 56 5
 2573 001c 83308100 		ld	ra,8(sp)
 2574              		.cfi_restore 1
 2575 0020 03340100 		ld	s0,0(sp)
 2576              		.cfi_restore 8
 2577              		.cfi_def_cfa 2, 16
 2578 0024 13010101 		addi	sp,sp,16
 2579              		.cfi_def_cfa_offset 0
 2580 0028 67800000 		jr	ra
 2581              		.cfi_endproc
 2582              	.LFE18:
 2584              		.section	.rodata.str1.8
 2585 019d 000000   		.align	3
 2586              	.LC30:
 2587 01a0 54687265 		.string	"ThreadA created\n"
 2587      61644120 
 2587      63726561 
 2587      7465640A 
 2587      00
 2588 01b1 00000000 		.align	3
 2588      000000
 2589              	.LC31:
 2590 01b8 54687265 		.string	"ThreadB created\n"
 2590      61644220 
 2590      63726561 
 2590      7465640A 
 2590      00
 2591 01c9 00000000 		.align	3
 2591      000000
 2592              	.LC32:
 2593 01d0 54687265 		.string	"ThreadC created\n"
 2593      61644320 
 2593      63726561 
 2593      7465640A 
 2593      00
 2594 01e1 00000000 		.align	3
 2594      000000
GAS LISTING /tmp/ccMeUcYP.s 			page 64


 2595              	.LC33:
 2596 01e8 54687265 		.string	"ThreadD created\n"
 2596      61644420 
 2596      63726561 
 2596      7465640A 
 2596      00
 2597              		.text
 2598              		.align	2
 2599              		.globl	_Z20Threads_CPP_API_testv
 2601              	_Z20Threads_CPP_API_testv:
 2602              	.LFB23:
 132:src/../h/Threads_CPP_API_test.h **** 
 133:src/../h/Threads_CPP_API_test.h **** 
 134:src/../h/Threads_CPP_API_test.h **** void Threads_CPP_API_test() {
 2603              		.loc 1 134 29 is_stmt 1
 2604              		.cfi_startproc
 2605              		.cfi_personality 0x9b,DW.ref.__gxx_personality_v0
 2606              		.cfi_lsda 0x1b,.LLSDA23
 2607 082c 130101FC 		addi	sp,sp,-64
 2608              		.cfi_def_cfa_offset 64
 2609 0830 233C1102 		sd	ra,56(sp)
 2610 0834 23388102 		sd	s0,48(sp)
 2611 0838 23349102 		sd	s1,40(sp)
 2612 083c 23302103 		sd	s2,32(sp)
 2613              		.cfi_offset 1, -8
 2614              		.cfi_offset 8, -16
 2615              		.cfi_offset 9, -24
 2616              		.cfi_offset 18, -32
 2617 0840 13040104 		addi	s0,sp,64
 2618              		.cfi_def_cfa 8, 0
 135:src/../h/Threads_CPP_API_test.h ****     Thread* threads[4];
 2619              		.loc 1 135 5
 136:src/../h/Threads_CPP_API_test.h **** 
 137:src/../h/Threads_CPP_API_test.h ****     threads[0] = new WorkerA();
 2620              		.loc 1 137 5
 2621              		.loc 1 137 30 is_stmt 0
 2622 0844 13050001 		li	a0,16
 2623              	.LEHB0:
 2624 0848 97000000 		call	_Znwm@plt
 2624      E7800000 
 2625              	.LVL276:
 2626              	.LEHE0:
 2627 0850 93040500 		mv	s1,a0
 2628              	.LVL277:
 2629              	.LEHB1:
 2630              	.LBB193:
 2631              	.LBB194:
  22:src/../h/Threads_CPP_API_test.h **** 
 2632              		.loc 1 22 22
 2633 0854 97000000 		call	_ZN6ThreadC2Ev@plt
 2633      E7800000 
 2634              	.LVL278:
 2635              	.LEHE1:
 2636 085c 97070000 		lla	a5,_ZTV7WorkerA+16
 2636      93870700 
 2637 0864 23B0F400 		sd	a5,0(s1)
 2638              	.LVL279:
GAS LISTING /tmp/ccMeUcYP.s 			page 65


 2639              	.LBE194:
 2640              	.LBE193:
 2641              		.loc 1 137 16
 2642 0868 233094FC 		sd	s1,-64(s0)
 138:src/../h/Threads_CPP_API_test.h ****     printString("ThreadA created\n");
 2643              		.loc 1 138 5 is_stmt 1
 2644              		.loc 1 138 16 is_stmt 0
 2645 086c 17050000 		lla	a0,.LC30
 2645      13050500 
 2646              	.LEHB2:
 2647 0874 97000000 		call	_Z11printStringPKc@plt
 2647      E7800000 
 2648              	.LVL280:
 139:src/../h/Threads_CPP_API_test.h **** 
 140:src/../h/Threads_CPP_API_test.h ****     threads[1] = new WorkerB();
 2649              		.loc 1 140 5 is_stmt 1
 2650              		.loc 1 140 30 is_stmt 0
 2651 087c 13050001 		li	a0,16
 2652 0880 97000000 		call	_Znwm@plt
 2652      E7800000 
 2653              	.LVL281:
 2654              	.LEHE2:
 2655 0888 93040500 		mv	s1,a0
 2656              	.LVL282:
 2657              	.LEHB3:
 2658              	.LBB195:
 2659              	.LBB196:
  32:src/../h/Threads_CPP_API_test.h **** 
 2660              		.loc 1 32 22
 2661 088c 97000000 		call	_ZN6ThreadC2Ev@plt
 2661      E7800000 
 2662              	.LVL283:
 2663              	.LEHE3:
 2664 0894 97070000 		lla	a5,_ZTV7WorkerB+16
 2664      93870700 
 2665 089c 23B0F400 		sd	a5,0(s1)
 2666              	.LVL284:
 2667              	.LBE196:
 2668              	.LBE195:
 2669              		.loc 1 140 16
 2670 08a0 233494FC 		sd	s1,-56(s0)
 141:src/../h/Threads_CPP_API_test.h ****     printString("ThreadB created\n");
 2671              		.loc 1 141 5 is_stmt 1
 2672              		.loc 1 141 16 is_stmt 0
 2673 08a4 17050000 		lla	a0,.LC31
 2673      13050500 
 2674              	.LEHB4:
 2675 08ac 97000000 		call	_Z11printStringPKc@plt
 2675      E7800000 
 2676              	.LVL285:
 142:src/../h/Threads_CPP_API_test.h **** 
 143:src/../h/Threads_CPP_API_test.h ****     threads[2] = new WorkerC();
 2677              		.loc 1 143 5 is_stmt 1
 2678              		.loc 1 143 30 is_stmt 0
 2679 08b4 13050001 		li	a0,16
 2680 08b8 97000000 		call	_Znwm@plt
 2680      E7800000 
GAS LISTING /tmp/ccMeUcYP.s 			page 66


 2681              	.LVL286:
 2682              	.LEHE4:
 2683 08c0 93040500 		mv	s1,a0
 2684              	.LVL287:
 2685              	.LEHB5:
 2686              	.LBB197:
 2687              	.LBB198:
  42:src/../h/Threads_CPP_API_test.h **** 
 2688              		.loc 1 42 22
 2689 08c4 97000000 		call	_ZN6ThreadC2Ev@plt
 2689      E7800000 
 2690              	.LVL288:
 2691              	.LEHE5:
 2692 08cc 97070000 		lla	a5,_ZTV7WorkerC+16
 2692      93870700 
 2693 08d4 23B0F400 		sd	a5,0(s1)
 2694              	.LVL289:
 2695              	.LBE198:
 2696              	.LBE197:
 2697              		.loc 1 143 16
 2698 08d8 233894FC 		sd	s1,-48(s0)
 144:src/../h/Threads_CPP_API_test.h ****     printString("ThreadC created\n");
 2699              		.loc 1 144 5 is_stmt 1
 2700              		.loc 1 144 16 is_stmt 0
 2701 08dc 17050000 		lla	a0,.LC32
 2701      13050500 
 2702              	.LEHB6:
 2703 08e4 97000000 		call	_Z11printStringPKc@plt
 2703      E7800000 
 2704              	.LVL290:
 145:src/../h/Threads_CPP_API_test.h **** 
 146:src/../h/Threads_CPP_API_test.h ****     threads[3] = new WorkerD();
 2705              		.loc 1 146 5 is_stmt 1
 2706              		.loc 1 146 30 is_stmt 0
 2707 08ec 13050001 		li	a0,16
 2708 08f0 97000000 		call	_Znwm@plt
 2708      E7800000 
 2709              	.LVL291:
 2710              	.LEHE6:
 2711 08f8 93040500 		mv	s1,a0
 2712              	.LVL292:
 2713              	.LEHB7:
 2714              	.LBB199:
 2715              	.LBB200:
  52:src/../h/Threads_CPP_API_test.h **** 
 2716              		.loc 1 52 22
 2717 08fc 97000000 		call	_ZN6ThreadC2Ev@plt
 2717      E7800000 
 2718              	.LVL293:
 2719              	.LEHE7:
 2720 0904 97070000 		lla	a5,_ZTV7WorkerD+16
 2720      93870700 
 2721 090c 23B0F400 		sd	a5,0(s1)
 2722              	.LVL294:
 2723              	.LBE200:
 2724              	.LBE199:
 2725              		.loc 1 146 16
GAS LISTING /tmp/ccMeUcYP.s 			page 67


 2726 0910 233C94FC 		sd	s1,-40(s0)
 147:src/../h/Threads_CPP_API_test.h ****     printString("ThreadD created\n");
 2727              		.loc 1 147 5 is_stmt 1
 2728              		.loc 1 147 16 is_stmt 0
 2729 0914 17050000 		lla	a0,.LC33
 2729      13050500 
 2730              	.LEHB8:
 2731 091c 97000000 		call	_Z11printStringPKc@plt
 2731      E7800000 
 2732              	.LVL295:
 2733              	.LBB201:
 148:src/../h/Threads_CPP_API_test.h **** 
 149:src/../h/Threads_CPP_API_test.h ****     for(int i=0; i<4; i++) {
 2734              		.loc 1 149 13
 2735 0924 93040000 		li	s1,0
 2736              	.L129:
 2737              	.LVL296:
 2738              		.loc 1 149 19 is_stmt 1 discriminator 1
 2739 0928 93073000 		li	a5,3
 2740 092c 63C69702 		bgt	s1,a5,.L128
 150:src/../h/Threads_CPP_API_test.h ****         threads[i]->start();
 2741              		.loc 1 150 9
 2742              		.loc 1 150 18 is_stmt 0
 2743 0930 93973400 		slli	a5,s1,3
 2744 0934 130704FE 		addi	a4,s0,-32
 2745 0938 B307F700 		add	a5,a4,a5
 2746              		.loc 1 150 26
 2747 093c 03B507FE 		ld	a0,-32(a5)
 2748 0940 97000000 		call	_ZN6Thread5startEv@plt
 2748      E7800000 
 2749              	.LVL297:
 149:src/../h/Threads_CPP_API_test.h ****         threads[i]->start();
 2750              		.loc 1 149 5 is_stmt 1
 2751 0948 9B841400 		addiw	s1,s1,1
 2752              	.LVL298:
 2753 094c 6FF0DFFD 		j	.L129
 2754              	.LVL299:
 2755              	.L130:
 2756              	.LBE201:
 151:src/../h/Threads_CPP_API_test.h ****     }
 152:src/../h/Threads_CPP_API_test.h **** 
 153:src/../h/Threads_CPP_API_test.h ****     while (!(finishedA && finishedB && finishedC && finishedD)) {
 154:src/../h/Threads_CPP_API_test.h ****         Thread::dispatch();
 2757              		.loc 1 154 9
 2758              		.loc 1 154 25 is_stmt 0
 2759 0950 97000000 		call	_ZN6Thread8dispatchEv@plt
 2759      E7800000 
 2760              	.LVL300:
 2761              	.LEHE8:
 2762              	.L128:
 153:src/../h/Threads_CPP_API_test.h ****         Thread::dispatch();
 2763              		.loc 1 153 5 is_stmt 1
 153:src/../h/Threads_CPP_API_test.h ****         Thread::dispatch();
 2764              		.loc 1 153 12
 2765 0958 97070000 		lbu	a5,.LANCHOR0+24
 2765      83C70700 
 2766 0960 E38807FE 		beqz	a5,.L130
GAS LISTING /tmp/ccMeUcYP.s 			page 68


 153:src/../h/Threads_CPP_API_test.h ****         Thread::dispatch();
 2767              		.loc 1 153 24 is_stmt 0 discriminator 1
 2768 0964 97070000 		lbu	a5,.LANCHOR0+25
 2768      83C70700 
 2769 096c E38207FE 		beqz	a5,.L130
 153:src/../h/Threads_CPP_API_test.h ****         Thread::dispatch();
 2770              		.loc 1 153 37 discriminator 2
 2771 0970 97070000 		lbu	a5,.LANCHOR0+26
 2771      83C70700 
 2772 0978 E38C07FC 		beqz	a5,.L130
 153:src/../h/Threads_CPP_API_test.h ****         Thread::dispatch();
 2773              		.loc 1 153 12 discriminator 3
 2774 097c 97070000 		lbu	a5,.LANCHOR0+27
 2774      83C70700 
 2775 0984 E38607FC 		beqz	a5,.L130
 2776              	.LBB202:
 155:src/../h/Threads_CPP_API_test.h ****     }
 156:src/../h/Threads_CPP_API_test.h **** 
 157:src/../h/Threads_CPP_API_test.h ****     for (auto thread: threads) { delete thread; }
 2777              		.loc 1 157 23
 2778 0988 930404FC 		addi	s1,s0,-64
 2779              	.LVL301:
 2780 098c 6F008000 		j	.L131
 2781              	.LVL302:
 2782              	.L133:
 2783              		.loc 1 157 5 is_stmt 1 discriminator 5
 2784 0990 93848400 		addi	s1,s1,8
 2785              	.LVL303:
 2786              	.L131:
 2787              		.loc 1 157 23 discriminator 6
 2788 0994 930704FE 		addi	a5,s0,-32
 2789 0998 6386F408 		beq	s1,a5,.L127
 2790              		.loc 1 157 15 is_stmt 0 discriminator 2
 2791 099c 03B50400 		ld	a0,0(s1)
 2792              	.LVL304:
 2793              		.loc 1 157 34 is_stmt 1 discriminator 2
 2794              		.loc 1 157 47 is_stmt 0 discriminator 2
 2795 09a0 E30805FE 		beqz	a0,.L133
 2796              		.loc 1 157 41 discriminator 3
 2797 09a4 83370500 		ld	a5,0(a0)
 2798 09a8 83B78700 		ld	a5,8(a5)
 2799 09ac E7800700 		jalr	a5
 2800              	.LVL305:
 2801 09b0 6FF01FFE 		j	.L133
 2802              	.LVL306:
 2803              	.L139:
 2804 09b4 13090500 		mv	s2,a0
 2805              	.LBE202:
 137:src/../h/Threads_CPP_API_test.h ****     printString("ThreadA created\n");
 2806              		.loc 1 137 30
 2807 09b8 13850400 		mv	a0,s1
 2808 09bc 97000000 		call	_ZdlPv@plt
 2808      E7800000 
 2809              	.LVL307:
 2810 09c4 13050900 		mv	a0,s2
 2811              	.LEHB9:
 2812 09c8 97000000 		call	_Unwind_Resume@plt
GAS LISTING /tmp/ccMeUcYP.s 			page 69


 2812      E7800000 
 2813              	.LVL308:
 2814              	.LEHE9:
 2815              	.L140:
 2816 09d0 13090500 		mv	s2,a0
 140:src/../h/Threads_CPP_API_test.h ****     printString("ThreadB created\n");
 2817              		.loc 1 140 30
 2818 09d4 13850400 		mv	a0,s1
 2819 09d8 97000000 		call	_ZdlPv@plt
 2819      E7800000 
 2820              	.LVL309:
 2821 09e0 13050900 		mv	a0,s2
 2822              	.LEHB10:
 2823 09e4 97000000 		call	_Unwind_Resume@plt
 2823      E7800000 
 2824              	.LVL310:
 2825              	.LEHE10:
 2826              	.L141:
 2827 09ec 13090500 		mv	s2,a0
 143:src/../h/Threads_CPP_API_test.h ****     printString("ThreadC created\n");
 2828              		.loc 1 143 30
 2829 09f0 13850400 		mv	a0,s1
 2830 09f4 97000000 		call	_ZdlPv@plt
 2830      E7800000 
 2831              	.LVL311:
 2832 09fc 13050900 		mv	a0,s2
 2833              	.LEHB11:
 2834 0a00 97000000 		call	_Unwind_Resume@plt
 2834      E7800000 
 2835              	.LVL312:
 2836              	.LEHE11:
 2837              	.L142:
 2838 0a08 13090500 		mv	s2,a0
 146:src/../h/Threads_CPP_API_test.h ****     printString("ThreadD created\n");
 2839              		.loc 1 146 30
 2840 0a0c 13850400 		mv	a0,s1
 2841 0a10 97000000 		call	_ZdlPv@plt
 2841      E7800000 
 2842              	.LVL313:
 2843 0a18 13050900 		mv	a0,s2
 2844              	.LEHB12:
 2845 0a1c 97000000 		call	_Unwind_Resume@plt
 2845      E7800000 
 2846              	.LVL314:
 2847              	.LEHE12:
 2848              	.L127:
 158:src/../h/Threads_CPP_API_test.h **** }
 2849              		.loc 1 158 1
 2850 0a24 83308103 		ld	ra,56(sp)
 2851              		.cfi_restore 1
 2852 0a28 03340103 		ld	s0,48(sp)
 2853              		.cfi_restore 8
 2854              		.cfi_def_cfa 2, 64
 2855 0a2c 83348102 		ld	s1,40(sp)
 2856              		.cfi_restore 9
 2857              	.LVL315:
 2858 0a30 03390102 		ld	s2,32(sp)
GAS LISTING /tmp/ccMeUcYP.s 			page 70


 2859              		.cfi_restore 18
 2860 0a34 13010104 		addi	sp,sp,64
 2861              		.cfi_def_cfa_offset 0
 2862 0a38 67800000 		jr	ra
 2863              		.cfi_endproc
 2864              	.LFE23:
 2865              		.globl	__gxx_personality_v0
 2866              		.section	.gcc_except_table,"a",@progbits
 2867              	.LLSDA23:
 2868 0000 FF       		.byte	0xff
 2869 0001 FF       		.byte	0xff
 2870 0002 03       		.byte	0x3
 2871 0003 A901     		.byte	0xa9,0x1
 2872 0005 00000000 		.4byte	.LEHB0-.LFB23
 2873 0009 00000000 		.4byte	.LEHE0-.LEHB0
 2874 000d 00000000 		.4byte	0
 2875 0011 00       		.byte	0
 2876 0012 00000000 		.4byte	.LEHB1-.LFB23
 2877 0016 00000000 		.4byte	.LEHE1-.LEHB1
 2878 001a 00000000 		.4byte	.L139-.LFB23
 2879 001e 00       		.byte	0
 2880 001f 00000000 		.4byte	.LEHB2-.LFB23
 2881 0023 00000000 		.4byte	.LEHE2-.LEHB2
 2882 0027 00000000 		.4byte	0
 2883 002b 00       		.byte	0
 2884 002c 00000000 		.4byte	.LEHB3-.LFB23
 2885 0030 00000000 		.4byte	.LEHE3-.LEHB3
 2886 0034 00000000 		.4byte	.L140-.LFB23
 2887 0038 00       		.byte	0
 2888 0039 00000000 		.4byte	.LEHB4-.LFB23
 2889 003d 00000000 		.4byte	.LEHE4-.LEHB4
 2890 0041 00000000 		.4byte	0
 2891 0045 00       		.byte	0
 2892 0046 00000000 		.4byte	.LEHB5-.LFB23
 2893 004a 00000000 		.4byte	.LEHE5-.LEHB5
 2894 004e 00000000 		.4byte	.L141-.LFB23
 2895 0052 00       		.byte	0
 2896 0053 00000000 		.4byte	.LEHB6-.LFB23
 2897 0057 00000000 		.4byte	.LEHE6-.LEHB6
 2898 005b 00000000 		.4byte	0
 2899 005f 00       		.byte	0
 2900 0060 00000000 		.4byte	.LEHB7-.LFB23
 2901 0064 00000000 		.4byte	.LEHE7-.LEHB7
 2902 0068 00000000 		.4byte	.L142-.LFB23
 2903 006c 00       		.byte	0
 2904 006d 00000000 		.4byte	.LEHB8-.LFB23
 2905 0071 00000000 		.4byte	.LEHE8-.LEHB8
 2906 0075 00000000 		.4byte	0
 2907 0079 00       		.byte	0
 2908 007a 00000000 		.4byte	.LEHB9-.LFB23
 2909 007e 00000000 		.4byte	.LEHE9-.LEHB9
 2910 0082 00000000 		.4byte	0
 2911 0086 00       		.byte	0
 2912 0087 00000000 		.4byte	.LEHB10-.LFB23
 2913 008b 00000000 		.4byte	.LEHE10-.LEHB10
 2914 008f 00000000 		.4byte	0
 2915 0093 00       		.byte	0
GAS LISTING /tmp/ccMeUcYP.s 			page 71


 2916 0094 00000000 		.4byte	.LEHB11-.LFB23
 2917 0098 00000000 		.4byte	.LEHE11-.LEHB11
 2918 009c 00000000 		.4byte	0
 2919 00a0 00       		.byte	0
 2920 00a1 00000000 		.4byte	.LEHB12-.LFB23
 2921 00a5 00000000 		.4byte	.LEHE12-.LEHB12
 2922 00a9 00000000 		.4byte	0
 2923 00ad 00       		.byte	0
 2924              		.text
 2926              		.align	2
 2927              		.globl	_ZN16ProducerKeyboard16producerKeyboardEPv
 2929              	_ZN16ProducerKeyboard16producerKeyboardEPv:
 2930              	.LFB28:
  32:src/../h/ConsumerProducer_CPP_Sync_API_test.h ****     struct thread_data *data = (struct thread_data *) arg;
 2931              		.loc 2 32 52 is_stmt 1
 2932              		.cfi_startproc
 2933              	.LVL316:
 2934 0a3c 130101FD 		addi	sp,sp,-48
 2935              		.cfi_def_cfa_offset 48
 2936 0a40 23341102 		sd	ra,40(sp)
 2937 0a44 23308102 		sd	s0,32(sp)
 2938 0a48 233C9100 		sd	s1,24(sp)
 2939 0a4c 23382101 		sd	s2,16(sp)
 2940 0a50 23343101 		sd	s3,8(sp)
 2941              		.cfi_offset 1, -8
 2942              		.cfi_offset 8, -16
 2943              		.cfi_offset 9, -24
 2944              		.cfi_offset 18, -32
 2945              		.cfi_offset 19, -40
 2946 0a54 13040103 		addi	s0,sp,48
 2947              		.cfi_def_cfa 8, 0
 2948 0a58 93090500 		mv	s3,a0
 2949 0a5c 93840500 		mv	s1,a1
  33:src/../h/ConsumerProducer_CPP_Sync_API_test.h **** 
 2950              		.loc 2 33 5
 2951              	.LVL317:
  35:src/../h/ConsumerProducer_CPP_Sync_API_test.h ****     int i = 0;
 2952              		.loc 2 35 5
  36:src/../h/ConsumerProducer_CPP_Sync_API_test.h ****     while ((key = getc()) != 0x1b) {
 2953              		.loc 2 36 5
  36:src/../h/ConsumerProducer_CPP_Sync_API_test.h ****     while ((key = getc()) != 0x1b) {
 2954              		.loc 2 36 9 is_stmt 0
 2955 0a60 13090000 		li	s2,0
 2956 0a64 6F00C000 		j	.L145
 2957              	.LVL318:
 2958              	.L149:
  42:src/../h/ConsumerProducer_CPP_Sync_API_test.h ****         }
 2959              		.loc 2 42 13 is_stmt 1
  42:src/../h/ConsumerProducer_CPP_Sync_API_test.h ****         }
 2960              		.loc 2 42 29 is_stmt 0
 2961 0a68 97000000 		call	_ZN6Thread8dispatchEv@plt
 2961      E7800000 
 2962              	.LVL319:
 2963              	.L145:
  37:src/../h/ConsumerProducer_CPP_Sync_API_test.h ****         data->buffer->put(key);
 2964              		.loc 2 37 5 is_stmt 1
  37:src/../h/ConsumerProducer_CPP_Sync_API_test.h ****         data->buffer->put(key);
GAS LISTING /tmp/ccMeUcYP.s 			page 72


 2965              		.loc 2 37 27
  37:src/../h/ConsumerProducer_CPP_Sync_API_test.h ****         data->buffer->put(key);
 2966              		.loc 2 37 23 is_stmt 0
 2967 0a70 97000000 		call	_Z4getcv@plt
 2967      E7800000 
 2968              	.LVL320:
  37:src/../h/ConsumerProducer_CPP_Sync_API_test.h ****         data->buffer->put(key);
 2969              		.loc 2 37 17
 2970 0a78 9B050500 		sext.w	a1,a0
 2971              	.LVL321:
  37:src/../h/ConsumerProducer_CPP_Sync_API_test.h ****         data->buffer->put(key);
 2972              		.loc 2 37 27
 2973 0a7c 9307B001 		li	a5,27
 2974 0a80 638AF502 		beq	a1,a5,.L146
  38:src/../h/ConsumerProducer_CPP_Sync_API_test.h ****         i++;
 2975              		.loc 2 38 9 is_stmt 1
  38:src/../h/ConsumerProducer_CPP_Sync_API_test.h ****         i++;
 2976              		.loc 2 38 26 is_stmt 0
 2977 0a84 03B58400 		ld	a0,8(s1)
 2978 0a88 97000000 		call	_ZN9BufferCPP3putEi@plt
 2978      E7800000 
 2979              	.LVL322:
  39:src/../h/ConsumerProducer_CPP_Sync_API_test.h **** 
 2980              		.loc 2 39 9 is_stmt 1
  39:src/../h/ConsumerProducer_CPP_Sync_API_test.h **** 
 2981              		.loc 2 39 10 is_stmt 0
 2982 0a90 1B071900 		addiw	a4,s2,1
 2983 0a94 1B090700 		sext.w	s2,a4
 2984              	.LVL323:
  41:src/../h/ConsumerProducer_CPP_Sync_API_test.h ****             Thread::dispatch();
 2985              		.loc 2 41 9 is_stmt 1
  41:src/../h/ConsumerProducer_CPP_Sync_API_test.h ****             Thread::dispatch();
 2986              		.loc 2 41 29 is_stmt 0
 2987 0a98 83A60400 		lw	a3,0(s1)
  41:src/../h/ConsumerProducer_CPP_Sync_API_test.h ****             Thread::dispatch();
 2988              		.loc 2 41 21
 2989 0a9c 9B972600 		slliw	a5,a3,2
 2990 0aa0 BB87D700 		addw	a5,a5,a3
 2991 0aa4 9B971700 		slliw	a5,a5,1
  41:src/../h/ConsumerProducer_CPP_Sync_API_test.h ****             Thread::dispatch();
 2992              		.loc 2 41 15
 2993 0aa8 BB67F702 		remw	a5,a4,a5
  41:src/../h/ConsumerProducer_CPP_Sync_API_test.h ****             Thread::dispatch();
 2994              		.loc 2 41 9
 2995 0aac E39207FC 		bnez	a5,.L145
 2996 0ab0 6FF09FFB 		j	.L149
 2997              	.LVL324:
 2998              	.L146:
  46:src/../h/ConsumerProducer_CPP_Sync_API_test.h ****     td->buffer->put('!');
 2999              		.loc 2 46 5 is_stmt 1
  46:src/../h/ConsumerProducer_CPP_Sync_API_test.h ****     td->buffer->put('!');
 3000              		.loc 2 46 15 is_stmt 0
 3001 0ab4 93071000 		li	a5,1
 3002 0ab8 17070000 		sw	a5,.LANCHOR0+28,a4
 3002      2320F700 
  47:src/../h/ConsumerProducer_CPP_Sync_API_test.h **** 
 3003              		.loc 2 47 5 is_stmt 1
GAS LISTING /tmp/ccMeUcYP.s 			page 73


 3004 0ac0 83B70901 		ld	a5,16(s3)
  47:src/../h/ConsumerProducer_CPP_Sync_API_test.h **** 
 3005              		.loc 2 47 20 is_stmt 0
 3006 0ac4 93051002 		li	a1,33
 3007              	.LVL325:
 3008 0ac8 03B58700 		ld	a0,8(a5)
 3009              	.LVL326:
 3010 0acc 97000000 		call	_ZN9BufferCPP3putEi@plt
 3010      E7800000 
 3011              	.LVL327:
  49:src/../h/ConsumerProducer_CPP_Sync_API_test.h **** }
 3012              		.loc 2 49 5 is_stmt 1
  49:src/../h/ConsumerProducer_CPP_Sync_API_test.h **** }
 3013              		.loc 2 49 23 is_stmt 0
 3014 0ad4 03B50401 		ld	a0,16(s1)
 3015 0ad8 97000000 		call	_ZN9Semaphore6signalEv@plt
 3015      E7800000 
 3016              	.LVL328:
  50:src/../h/ConsumerProducer_CPP_Sync_API_test.h **** 
 3017              		.loc 2 50 1
 3018 0ae0 83308102 		ld	ra,40(sp)
 3019              		.cfi_restore 1
 3020 0ae4 03340102 		ld	s0,32(sp)
 3021              		.cfi_restore 8
 3022              		.cfi_def_cfa 2, 48
 3023 0ae8 83348101 		ld	s1,24(sp)
 3024              		.cfi_restore 9
 3025              	.LVL329:
 3026 0aec 03390101 		ld	s2,16(sp)
 3027              		.cfi_restore 18
 3028              	.LVL330:
 3029 0af0 83398100 		ld	s3,8(sp)
 3030              		.cfi_restore 19
 3031              	.LVL331:
 3032 0af4 13010103 		addi	sp,sp,48
 3033              		.cfi_def_cfa_offset 0
 3034 0af8 67800000 		jr	ra
 3035              		.cfi_endproc
 3036              	.LFE28:
 3038              		.section	.text._ZN16ProducerKeyboard3runEv,"axG",@progbits,_ZN16ProducerKeyboard3runEv,comdat
 3039              		.align	2
 3040              		.weak	_ZN16ProducerKeyboard3runEv
 3042              	_ZN16ProducerKeyboard3runEv:
 3043              	.LFB27:
  27:src/../h/ConsumerProducer_CPP_Sync_API_test.h ****         producerKeyboard(td);
 3044              		.loc 2 27 10 is_stmt 1
 3045              		.cfi_startproc
 3046              	.LVL332:
 3047 0000 130101FF 		addi	sp,sp,-16
 3048              		.cfi_def_cfa_offset 16
 3049 0004 23341100 		sd	ra,8(sp)
 3050 0008 23308100 		sd	s0,0(sp)
 3051              		.cfi_offset 1, -8
 3052              		.cfi_offset 8, -16
 3053 000c 13040101 		addi	s0,sp,16
 3054              		.cfi_def_cfa 8, 0
  28:src/../h/ConsumerProducer_CPP_Sync_API_test.h ****     }
GAS LISTING /tmp/ccMeUcYP.s 			page 74


 3055              		.loc 2 28 9
  28:src/../h/ConsumerProducer_CPP_Sync_API_test.h ****     }
 3056              		.loc 2 28 25 is_stmt 0
 3057 0010 83350501 		ld	a1,16(a0)
 3058 0014 97000000 		call	_ZN16ProducerKeyboard16producerKeyboardEPv
 3058      E7800000 
 3059              	.LVL333:
  29:src/../h/ConsumerProducer_CPP_Sync_API_test.h **** };
 3060              		.loc 2 29 5
 3061 001c 83308100 		ld	ra,8(sp)
 3062              		.cfi_restore 1
 3063 0020 03340100 		ld	s0,0(sp)
 3064              		.cfi_restore 8
 3065              		.cfi_def_cfa 2, 16
 3066 0024 13010101 		addi	sp,sp,16
 3067              		.cfi_def_cfa_offset 0
 3068 0028 67800000 		jr	ra
 3069              		.cfi_endproc
 3070              	.LFE27:
 3072              		.text
 3073              		.align	2
 3074              		.globl	_ZN8Producer8producerEPv
 3076              	_ZN8Producer8producerEPv:
 3077              	.LFB33:
  63:src/../h/ConsumerProducer_CPP_Sync_API_test.h ****     struct thread_data *data = (struct thread_data *) arg;
 3078              		.loc 2 63 36 is_stmt 1
 3079              		.cfi_startproc
 3080              	.LVL334:
 3081 0afc 130101FE 		addi	sp,sp,-32
 3082              		.cfi_def_cfa_offset 32
 3083 0b00 233C1100 		sd	ra,24(sp)
 3084 0b04 23388100 		sd	s0,16(sp)
 3085 0b08 23349100 		sd	s1,8(sp)
 3086 0b0c 23302101 		sd	s2,0(sp)
 3087              		.cfi_offset 1, -8
 3088              		.cfi_offset 8, -16
 3089              		.cfi_offset 9, -24
 3090              		.cfi_offset 18, -32
 3091 0b10 13040102 		addi	s0,sp,32
 3092              		.cfi_def_cfa 8, 0
 3093 0b14 93840500 		mv	s1,a1
  64:src/../h/ConsumerProducer_CPP_Sync_API_test.h **** 
 3094              		.loc 2 64 5
 3095              	.LVL335:
  66:src/../h/ConsumerProducer_CPP_Sync_API_test.h ****     while (!threadEnd) {
 3096              		.loc 2 66 5
  66:src/../h/ConsumerProducer_CPP_Sync_API_test.h ****     while (!threadEnd) {
 3097              		.loc 2 66 9 is_stmt 0
 3098 0b18 13090000 		li	s2,0
 3099 0b1c 6F00C000 		j	.L153
 3100              	.LVL336:
 3101              	.L157:
  72:src/../h/ConsumerProducer_CPP_Sync_API_test.h ****         }
 3102              		.loc 2 72 13 is_stmt 1
  72:src/../h/ConsumerProducer_CPP_Sync_API_test.h ****         }
 3103              		.loc 2 72 29 is_stmt 0
 3104 0b20 97000000 		call	_ZN6Thread8dispatchEv@plt
GAS LISTING /tmp/ccMeUcYP.s 			page 75


 3104      E7800000 
 3105              	.LVL337:
 3106              	.L153:
  67:src/../h/ConsumerProducer_CPP_Sync_API_test.h ****         data->buffer->put(data->id + '0');
 3107              		.loc 2 67 5 is_stmt 1
  67:src/../h/ConsumerProducer_CPP_Sync_API_test.h ****         data->buffer->put(data->id + '0');
 3108              		.loc 2 67 12
 3109 0b28 97070000 		lw	a5,.LANCHOR0+28
 3109      83A70700 
 3110 0b30 639E0702 		bnez	a5,.L154
  68:src/../h/ConsumerProducer_CPP_Sync_API_test.h ****         i++;
 3111              		.loc 2 68 9
  68:src/../h/ConsumerProducer_CPP_Sync_API_test.h ****         i++;
 3112              		.loc 2 68 33 is_stmt 0
 3113 0b34 83A50400 		lw	a1,0(s1)
  68:src/../h/ConsumerProducer_CPP_Sync_API_test.h ****         i++;
 3114              		.loc 2 68 26
 3115 0b38 9B850503 		addiw	a1,a1,48
 3116 0b3c 03B58400 		ld	a0,8(s1)
 3117 0b40 97000000 		call	_ZN9BufferCPP3putEi@plt
 3117      E7800000 
 3118              	.LVL338:
  69:src/../h/ConsumerProducer_CPP_Sync_API_test.h **** 
 3119              		.loc 2 69 9 is_stmt 1
  69:src/../h/ConsumerProducer_CPP_Sync_API_test.h **** 
 3120              		.loc 2 69 10 is_stmt 0
 3121 0b48 1B071900 		addiw	a4,s2,1
 3122 0b4c 1B090700 		sext.w	s2,a4
 3123              	.LVL339:
  71:src/../h/ConsumerProducer_CPP_Sync_API_test.h ****             Thread::dispatch();
 3124              		.loc 2 71 9 is_stmt 1
  71:src/../h/ConsumerProducer_CPP_Sync_API_test.h ****             Thread::dispatch();
 3125              		.loc 2 71 29 is_stmt 0
 3126 0b50 83A60400 		lw	a3,0(s1)
  71:src/../h/ConsumerProducer_CPP_Sync_API_test.h ****             Thread::dispatch();
 3127              		.loc 2 71 21
 3128 0b54 9B972600 		slliw	a5,a3,2
 3129 0b58 BB87D700 		addw	a5,a5,a3
 3130 0b5c 9B971700 		slliw	a5,a5,1
  71:src/../h/ConsumerProducer_CPP_Sync_API_test.h ****             Thread::dispatch();
 3131              		.loc 2 71 15
 3132 0b60 BB67F702 		remw	a5,a4,a5
  71:src/../h/ConsumerProducer_CPP_Sync_API_test.h ****             Thread::dispatch();
 3133              		.loc 2 71 9
 3134 0b64 E39207FC 		bnez	a5,.L153
 3135 0b68 6FF09FFB 		j	.L157
 3136              	.LVL340:
 3137              	.L154:
  76:src/../h/ConsumerProducer_CPP_Sync_API_test.h **** }
 3138              		.loc 2 76 5 is_stmt 1
  76:src/../h/ConsumerProducer_CPP_Sync_API_test.h **** }
 3139              		.loc 2 76 23 is_stmt 0
 3140 0b6c 03B50401 		ld	a0,16(s1)
 3141 0b70 97000000 		call	_ZN9Semaphore6signalEv@plt
 3141      E7800000 
 3142              	.LVL341:
  77:src/../h/ConsumerProducer_CPP_Sync_API_test.h **** 
GAS LISTING /tmp/ccMeUcYP.s 			page 76


 3143              		.loc 2 77 1
 3144 0b78 83308101 		ld	ra,24(sp)
 3145              		.cfi_restore 1
 3146 0b7c 03340101 		ld	s0,16(sp)
 3147              		.cfi_restore 8
 3148              		.cfi_def_cfa 2, 32
 3149 0b80 83348100 		ld	s1,8(sp)
 3150              		.cfi_restore 9
 3151              	.LVL342:
 3152 0b84 03390100 		ld	s2,0(sp)
 3153              		.cfi_restore 18
 3154              	.LVL343:
 3155 0b88 13010102 		addi	sp,sp,32
 3156              		.cfi_def_cfa_offset 0
 3157 0b8c 67800000 		jr	ra
 3158              		.cfi_endproc
 3159              	.LFE33:
 3161              		.section	.text._ZN8Producer3runEv,"axG",@progbits,_ZN8Producer3runEv,comdat
 3162              		.align	2
 3163              		.weak	_ZN8Producer3runEv
 3165              	_ZN8Producer3runEv:
 3166              	.LFB32:
  58:src/../h/ConsumerProducer_CPP_Sync_API_test.h ****         producer(td);
 3167              		.loc 2 58 10 is_stmt 1
 3168              		.cfi_startproc
 3169              	.LVL344:
 3170 0000 130101FF 		addi	sp,sp,-16
 3171              		.cfi_def_cfa_offset 16
 3172 0004 23341100 		sd	ra,8(sp)
 3173 0008 23308100 		sd	s0,0(sp)
 3174              		.cfi_offset 1, -8
 3175              		.cfi_offset 8, -16
 3176 000c 13040101 		addi	s0,sp,16
 3177              		.cfi_def_cfa 8, 0
  59:src/../h/ConsumerProducer_CPP_Sync_API_test.h ****     }
 3178              		.loc 2 59 9
  59:src/../h/ConsumerProducer_CPP_Sync_API_test.h ****     }
 3179              		.loc 2 59 17 is_stmt 0
 3180 0010 83350501 		ld	a1,16(a0)
 3181 0014 97000000 		call	_ZN8Producer8producerEPv
 3181      E7800000 
 3182              	.LVL345:
  60:src/../h/ConsumerProducer_CPP_Sync_API_test.h **** };
 3183              		.loc 2 60 5
 3184 001c 83308100 		ld	ra,8(sp)
 3185              		.cfi_restore 1
 3186 0020 03340100 		ld	s0,0(sp)
 3187              		.cfi_restore 8
 3188              		.cfi_def_cfa 2, 16
 3189 0024 13010101 		addi	sp,sp,16
 3190              		.cfi_def_cfa_offset 0
 3191 0028 67800000 		jr	ra
 3192              		.cfi_endproc
 3193              	.LFE32:
 3195              		.text
 3196              		.align	2
 3197              		.globl	_ZN8Consumer8consumerEPv
GAS LISTING /tmp/ccMeUcYP.s 			page 77


 3199              	_ZN8Consumer8consumerEPv:
 3200              	.LFB38:
  80:src/../h/ConsumerProducer_CPP_Sync_API_test.h ****     thread_data* td;
  81:src/../h/ConsumerProducer_CPP_Sync_API_test.h ****     void consumer(void *arg);
  82:src/../h/ConsumerProducer_CPP_Sync_API_test.h **** public:
  83:src/../h/ConsumerProducer_CPP_Sync_API_test.h ****     Consumer(thread_data* _td):Thread(), td(_td) {}
  84:src/../h/ConsumerProducer_CPP_Sync_API_test.h **** 
  85:src/../h/ConsumerProducer_CPP_Sync_API_test.h ****     void run() override {
  86:src/../h/ConsumerProducer_CPP_Sync_API_test.h ****         consumer(td);
  87:src/../h/ConsumerProducer_CPP_Sync_API_test.h ****     }
  88:src/../h/ConsumerProducer_CPP_Sync_API_test.h **** };
  89:src/../h/ConsumerProducer_CPP_Sync_API_test.h **** 
  90:src/../h/ConsumerProducer_CPP_Sync_API_test.h **** void Consumer::consumer(void *arg) {
 3201              		.loc 2 90 36 is_stmt 1
 3202              		.cfi_startproc
 3203              	.LVL346:
 3204 0b90 130101FD 		addi	sp,sp,-48
 3205              		.cfi_def_cfa_offset 48
 3206 0b94 23341102 		sd	ra,40(sp)
 3207 0b98 23308102 		sd	s0,32(sp)
 3208 0b9c 233C9100 		sd	s1,24(sp)
 3209 0ba0 23382101 		sd	s2,16(sp)
 3210 0ba4 23343101 		sd	s3,8(sp)
 3211 0ba8 23304101 		sd	s4,0(sp)
 3212              		.cfi_offset 1, -8
 3213              		.cfi_offset 8, -16
 3214              		.cfi_offset 9, -24
 3215              		.cfi_offset 18, -32
 3216              		.cfi_offset 19, -40
 3217              		.cfi_offset 20, -48
 3218 0bac 13040103 		addi	s0,sp,48
 3219              		.cfi_def_cfa 8, 0
 3220 0bb0 93090500 		mv	s3,a0
 3221 0bb4 13890500 		mv	s2,a1
  91:src/../h/ConsumerProducer_CPP_Sync_API_test.h ****     struct thread_data *data = (struct thread_data *) arg;
 3222              		.loc 2 91 5
 3223              	.LVL347:
  92:src/../h/ConsumerProducer_CPP_Sync_API_test.h **** 
  93:src/../h/ConsumerProducer_CPP_Sync_API_test.h ****     int i = 0;
 3224              		.loc 2 93 5
 3225              		.loc 2 93 9 is_stmt 0
 3226 0bb8 130A0000 		li	s4,0
 3227 0bbc 6F00C001 		j	.L161
 3228              	.LVL348:
 3229              	.L167:
 3230              	.LBB203:
  94:src/../h/ConsumerProducer_CPP_Sync_API_test.h ****     while (!threadEnd) {
  95:src/../h/ConsumerProducer_CPP_Sync_API_test.h ****         int key = data->buffer->get();
  96:src/../h/ConsumerProducer_CPP_Sync_API_test.h ****         i++;
  97:src/../h/ConsumerProducer_CPP_Sync_API_test.h **** 
  98:src/../h/ConsumerProducer_CPP_Sync_API_test.h ****         putc(key);
  99:src/../h/ConsumerProducer_CPP_Sync_API_test.h **** 
 100:src/../h/ConsumerProducer_CPP_Sync_API_test.h ****         if (i % (5 * data->id) == 0) {
 101:src/../h/ConsumerProducer_CPP_Sync_API_test.h ****             Thread::dispatch();
 3231              		.loc 2 101 13 is_stmt 1
 3232              		.loc 2 101 29 is_stmt 0
 3233 0bc0 97000000 		call	_ZN6Thread8dispatchEv@plt
GAS LISTING /tmp/ccMeUcYP.s 			page 78


 3233      E7800000 
 3234              	.LVL349:
 3235 0bc8 6F000005 		j	.L163
 3236              	.LVL350:
 3237              	.L168:
 102:src/../h/ConsumerProducer_CPP_Sync_API_test.h ****         }
 103:src/../h/ConsumerProducer_CPP_Sync_API_test.h **** 
 104:src/../h/ConsumerProducer_CPP_Sync_API_test.h ****         if (i % 80 == 0) {
 105:src/../h/ConsumerProducer_CPP_Sync_API_test.h ****             putc('\n');
 3238              		.loc 2 105 13 is_stmt 1
 3239              		.loc 2 105 17 is_stmt 0
 3240 0bcc 1305A000 		li	a0,10
 3241 0bd0 97000000 		call	_Z4putcc@plt
 3241      E7800000 
 3242              	.LVL351:
 3243              	.L161:
 3244              	.LBE203:
  94:src/../h/ConsumerProducer_CPP_Sync_API_test.h ****     while (!threadEnd) {
 3245              		.loc 2 94 5 is_stmt 1
  94:src/../h/ConsumerProducer_CPP_Sync_API_test.h ****     while (!threadEnd) {
 3246              		.loc 2 94 12
 3247 0bd8 97070000 		lw	a5,.LANCHOR0+28
 3247      83A70700 
 3248 0be0 63920706 		bnez	a5,.L162
 3249              	.LBB204:
  95:src/../h/ConsumerProducer_CPP_Sync_API_test.h ****         i++;
 3250              		.loc 2 95 9
  95:src/../h/ConsumerProducer_CPP_Sync_API_test.h ****         i++;
 3251              		.loc 2 95 36 is_stmt 0
 3252 0be4 03358900 		ld	a0,8(s2)
 3253 0be8 97000000 		call	_ZN9BufferCPP3getEv@plt
 3253      E7800000 
 3254              	.LVL352:
  96:src/../h/ConsumerProducer_CPP_Sync_API_test.h **** 
 3255              		.loc 2 96 9 is_stmt 1
  96:src/../h/ConsumerProducer_CPP_Sync_API_test.h **** 
 3256              		.loc 2 96 10 is_stmt 0
 3257 0bf0 9B041A00 		addiw	s1,s4,1
 3258 0bf4 1B8A0400 		sext.w	s4,s1
 3259              	.LVL353:
  98:src/../h/ConsumerProducer_CPP_Sync_API_test.h **** 
 3260              		.loc 2 98 9 is_stmt 1
  98:src/../h/ConsumerProducer_CPP_Sync_API_test.h **** 
 3261              		.loc 2 98 13 is_stmt 0
 3262 0bf8 1375F50F 		andi	a0,a0,0xff
 3263              	.LVL354:
 3264 0bfc 97000000 		call	_Z4putcc@plt
 3264      E7800000 
 3265              	.LVL355:
 100:src/../h/ConsumerProducer_CPP_Sync_API_test.h ****             Thread::dispatch();
 3266              		.loc 2 100 9 is_stmt 1
 100:src/../h/ConsumerProducer_CPP_Sync_API_test.h ****             Thread::dispatch();
 3267              		.loc 2 100 28 is_stmt 0
 3268 0c04 03270900 		lw	a4,0(s2)
 100:src/../h/ConsumerProducer_CPP_Sync_API_test.h ****             Thread::dispatch();
 3269              		.loc 2 100 20
 3270 0c08 9B172700 		slliw	a5,a4,2
GAS LISTING /tmp/ccMeUcYP.s 			page 79


 3271 0c0c BB87E700 		addw	a5,a5,a4
 100:src/../h/ConsumerProducer_CPP_Sync_API_test.h ****             Thread::dispatch();
 3272              		.loc 2 100 15
 3273 0c10 BBE7F402 		remw	a5,s1,a5
 100:src/../h/ConsumerProducer_CPP_Sync_API_test.h ****             Thread::dispatch();
 3274              		.loc 2 100 9
 3275 0c14 E38607FA 		beqz	a5,.L167
 3276              	.L163:
 104:src/../h/ConsumerProducer_CPP_Sync_API_test.h ****             putc('\n');
 3277              		.loc 2 104 9 is_stmt 1
 104:src/../h/ConsumerProducer_CPP_Sync_API_test.h ****             putc('\n');
 3278              		.loc 2 104 15 is_stmt 0
 3279 0c18 93070005 		li	a5,80
 3280 0c1c BBE4F402 		remw	s1,s1,a5
 3281              	.LVL356:
 104:src/../h/ConsumerProducer_CPP_Sync_API_test.h ****             putc('\n');
 3282              		.loc 2 104 9
 3283 0c20 E39C04FA 		bnez	s1,.L161
 3284 0c24 6FF09FFA 		j	.L168
 3285              	.L169:
 3286              	.LBE204:
 3287              	.LBB205:
 106:src/../h/ConsumerProducer_CPP_Sync_API_test.h ****         }
 107:src/../h/ConsumerProducer_CPP_Sync_API_test.h ****     }
 108:src/../h/ConsumerProducer_CPP_Sync_API_test.h **** 
 109:src/../h/ConsumerProducer_CPP_Sync_API_test.h **** 
 110:src/../h/ConsumerProducer_CPP_Sync_API_test.h ****     while (td->buffer->getCnt() > 0) {
 111:src/../h/ConsumerProducer_CPP_Sync_API_test.h ****         int key = td->buffer->get();
 3288              		.loc 2 111 9 is_stmt 1
 3289              		.loc 2 111 19 is_stmt 0
 3290 0c28 83B70901 		ld	a5,16(s3)
 3291              		.loc 2 111 34
 3292 0c2c 03B58700 		ld	a0,8(a5)
 3293 0c30 97000000 		call	_ZN9BufferCPP3getEv@plt
 3293      E7800000 
 3294              	.LVL357:
 112:src/../h/ConsumerProducer_CPP_Sync_API_test.h ****         Console::putc(key);
 3295              		.loc 2 112 9 is_stmt 1
 3296              		.loc 2 112 22 is_stmt 0
 3297 0c38 1375F50F 		andi	a0,a0,0xff
 3298              	.LVL358:
 3299 0c3c 97000000 		call	_ZN7Console4putcEc@plt
 3299      E7800000 
 3300              	.LVL359:
 3301              	.L162:
 3302              	.LBE205:
 110:src/../h/ConsumerProducer_CPP_Sync_API_test.h ****         int key = td->buffer->get();
 3303              		.loc 2 110 5 is_stmt 1
 110:src/../h/ConsumerProducer_CPP_Sync_API_test.h ****         int key = td->buffer->get();
 3304              		.loc 2 110 33
 110:src/../h/ConsumerProducer_CPP_Sync_API_test.h ****         int key = td->buffer->get();
 3305              		.loc 2 110 12 is_stmt 0
 3306 0c44 83B70901 		ld	a5,16(s3)
 110:src/../h/ConsumerProducer_CPP_Sync_API_test.h ****         int key = td->buffer->get();
 3307              		.loc 2 110 30
 3308 0c48 03B58700 		ld	a0,8(a5)
 3309 0c4c 97000000 		call	_ZN9BufferCPP6getCntEv@plt
GAS LISTING /tmp/ccMeUcYP.s 			page 80


 3309      E7800000 
 3310              	.LVL360:
 110:src/../h/ConsumerProducer_CPP_Sync_API_test.h ****         int key = td->buffer->get();
 3311              		.loc 2 110 33
 3312 0c54 E34AA0FC 		bgtz	a0,.L169
 113:src/../h/ConsumerProducer_CPP_Sync_API_test.h ****     }
 114:src/../h/ConsumerProducer_CPP_Sync_API_test.h **** 
 115:src/../h/ConsumerProducer_CPP_Sync_API_test.h ****     data->wait->signal();
 3313              		.loc 2 115 5 is_stmt 1
 3314              		.loc 2 115 23 is_stmt 0
 3315 0c58 03350901 		ld	a0,16(s2)
 3316 0c5c 97000000 		call	_ZN9Semaphore6signalEv@plt
 3316      E7800000 
 3317              	.LVL361:
 116:src/../h/ConsumerProducer_CPP_Sync_API_test.h **** }
 3318              		.loc 2 116 1
 3319 0c64 83308102 		ld	ra,40(sp)
 3320              		.cfi_restore 1
 3321 0c68 03340102 		ld	s0,32(sp)
 3322              		.cfi_restore 8
 3323              		.cfi_def_cfa 2, 48
 3324 0c6c 83348101 		ld	s1,24(sp)
 3325              		.cfi_restore 9
 3326 0c70 03390101 		ld	s2,16(sp)
 3327              		.cfi_restore 18
 3328              	.LVL362:
 3329 0c74 83398100 		ld	s3,8(sp)
 3330              		.cfi_restore 19
 3331              	.LVL363:
 3332 0c78 033A0100 		ld	s4,0(sp)
 3333              		.cfi_restore 20
 3334              	.LVL364:
 3335 0c7c 13010103 		addi	sp,sp,48
 3336              		.cfi_def_cfa_offset 0
 3337 0c80 67800000 		jr	ra
 3338              		.cfi_endproc
 3339              	.LFE38:
 3341              		.section	.text._ZN8Consumer3runEv,"axG",@progbits,_ZN8Consumer3runEv,comdat
 3342              		.align	2
 3343              		.weak	_ZN8Consumer3runEv
 3345              	_ZN8Consumer3runEv:
 3346              	.LFB37:
  85:src/../h/ConsumerProducer_CPP_Sync_API_test.h ****         consumer(td);
 3347              		.loc 2 85 10 is_stmt 1
 3348              		.cfi_startproc
 3349              	.LVL365:
 3350 0000 130101FF 		addi	sp,sp,-16
 3351              		.cfi_def_cfa_offset 16
 3352 0004 23341100 		sd	ra,8(sp)
 3353 0008 23308100 		sd	s0,0(sp)
 3354              		.cfi_offset 1, -8
 3355              		.cfi_offset 8, -16
 3356 000c 13040101 		addi	s0,sp,16
 3357              		.cfi_def_cfa 8, 0
  86:src/../h/ConsumerProducer_CPP_Sync_API_test.h ****     }
 3358              		.loc 2 86 9
  86:src/../h/ConsumerProducer_CPP_Sync_API_test.h ****     }
GAS LISTING /tmp/ccMeUcYP.s 			page 81


 3359              		.loc 2 86 17 is_stmt 0
 3360 0010 83350501 		ld	a1,16(a0)
 3361 0014 97000000 		call	_ZN8Consumer8consumerEPv
 3361      E7800000 
 3362              	.LVL366:
  87:src/../h/ConsumerProducer_CPP_Sync_API_test.h **** };
 3363              		.loc 2 87 5
 3364 001c 83308100 		ld	ra,8(sp)
 3365              		.cfi_restore 1
 3366 0020 03340100 		ld	s0,0(sp)
 3367              		.cfi_restore 8
 3368              		.cfi_def_cfa 2, 16
 3369 0024 13010101 		addi	sp,sp,16
 3370              		.cfi_def_cfa_offset 0
 3371 0028 67800000 		jr	ra
 3372              		.cfi_endproc
 3373              	.LFE37:
 3375              		.section	.rodata.str1.8
 3376 01f9 00000000 		.align	3
 3376      000000
 3377              	.LC34:
 3378 0200 556E6573 		.string	"Unesite broj proizvodjaca?\n"
 3378      69746520 
 3378      62726F6A 
 3378      2070726F 
 3378      697A766F 
 3379 021c 00000000 		.align	3
 3380              	.LC35:
 3381 0220 556E6573 		.string	"Unesite velicinu bafera?\n"
 3381      69746520 
 3381      76656C69 
 3381      63696E75 
 3381      20626166 
 3382 023a 00000000 		.align	3
 3382      0000
 3383              	.LC36:
 3384 0240 42726F6A 		.string	"Broj proizvodjaca "
 3384      2070726F 
 3384      697A766F 
 3384      646A6163 
 3384      612000
 3385 0253 00000000 		.align	3
 3385      00
 3386              	.LC37:
 3387 0258 20692076 		.string	" i velicina bafera "
 3387      656C6963 
 3387      696E6120 
 3387      62616665 
 3387      72612000 
 3388 026c 00000000 		.align	3
 3389              	.LC38:
 3390 0270 2E0A00   		.string	".\n"
 3391 0273 00000000 		.align	3
 3391      00
 3392              	.LC39:
 3393 0278 42726F6A 		.string	"Broj proizvodjaca ne sme biti manji od velicine bafera!\n"
 3393      2070726F 
GAS LISTING /tmp/ccMeUcYP.s 			page 82


 3393      697A766F 
 3393      646A6163 
 3393      61206E65 
 3394 02b1 00000000 		.align	3
 3394      000000
 3395              	.LC40:
 3396 02b8 42726F6A 		.string	"Broj proizvodjaca mora biti veci od nula!\n"
 3396      2070726F 
 3396      697A766F 
 3396      646A6163 
 3396      61206D6F 
 3397              		.text
 3398              		.align	2
 3399              		.globl	_Z29producerConsumer_CPP_Sync_APIv
 3401              	_Z29producerConsumer_CPP_Sync_APIv:
 3402              	.LFB39:
 117:src/../h/ConsumerProducer_CPP_Sync_API_test.h **** 
 118:src/../h/ConsumerProducer_CPP_Sync_API_test.h **** void producerConsumer_CPP_Sync_API() {
 3403              		.loc 2 118 38 is_stmt 1
 3404              		.cfi_startproc
 3405              		.cfi_personality 0x9b,DW.ref.__gxx_personality_v0
 3406              		.cfi_lsda 0x1b,.LLSDA39
 3407 0c84 130101F8 		addi	sp,sp,-128
 3408              		.cfi_def_cfa_offset 128
 3409 0c88 233C1106 		sd	ra,120(sp)
 3410 0c8c 23388106 		sd	s0,112(sp)
 3411 0c90 23349106 		sd	s1,104(sp)
 3412 0c94 23302107 		sd	s2,96(sp)
 3413 0c98 233C3105 		sd	s3,88(sp)
 3414 0c9c 23384105 		sd	s4,80(sp)
 3415 0ca0 23345105 		sd	s5,72(sp)
 3416 0ca4 23306105 		sd	s6,64(sp)
 3417 0ca8 233C7103 		sd	s7,56(sp)
 3418 0cac 23388103 		sd	s8,48(sp)
 3419 0cb0 23349103 		sd	s9,40(sp)
 3420              		.cfi_offset 1, -8
 3421              		.cfi_offset 8, -16
 3422              		.cfi_offset 9, -24
 3423              		.cfi_offset 18, -32
 3424              		.cfi_offset 19, -40
 3425              		.cfi_offset 20, -48
 3426              		.cfi_offset 21, -56
 3427              		.cfi_offset 22, -64
 3428              		.cfi_offset 23, -72
 3429              		.cfi_offset 24, -80
 3430              		.cfi_offset 25, -88
 3431 0cb4 13040108 		addi	s0,sp,128
 3432              		.cfi_def_cfa 8, 0
 119:src/../h/ConsumerProducer_CPP_Sync_API_test.h ****     char input[30];
 120:src/../h/ConsumerProducer_CPP_Sync_API_test.h ****     int n, threadNum;
 121:src/../h/ConsumerProducer_CPP_Sync_API_test.h **** 
 122:src/../h/ConsumerProducer_CPP_Sync_API_test.h ****     printString("Unesite broj proizvodjaca?\n");
 123:src/../h/ConsumerProducer_CPP_Sync_API_test.h ****     getString(input, 30);
 124:src/../h/ConsumerProducer_CPP_Sync_API_test.h ****     threadNum = stringToInt(input);
 125:src/../h/ConsumerProducer_CPP_Sync_API_test.h **** 
 126:src/../h/ConsumerProducer_CPP_Sync_API_test.h ****     printString("Unesite velicinu bafera?\n");
 127:src/../h/ConsumerProducer_CPP_Sync_API_test.h ****     getString(input, 30);
GAS LISTING /tmp/ccMeUcYP.s 			page 83


 128:src/../h/ConsumerProducer_CPP_Sync_API_test.h ****     n = stringToInt(input);
 129:src/../h/ConsumerProducer_CPP_Sync_API_test.h **** 
 130:src/../h/ConsumerProducer_CPP_Sync_API_test.h ****     printString("Broj proizvodjaca "); printInt(threadNum);
 131:src/../h/ConsumerProducer_CPP_Sync_API_test.h ****     printString(" i velicina bafera "); printInt(n);
 132:src/../h/ConsumerProducer_CPP_Sync_API_test.h ****     printString(".\n");
 133:src/../h/ConsumerProducer_CPP_Sync_API_test.h **** 
 134:src/../h/ConsumerProducer_CPP_Sync_API_test.h ****     if(threadNum > n) {
 135:src/../h/ConsumerProducer_CPP_Sync_API_test.h ****         printString("Broj proizvodjaca ne sme biti manji od velicine bafera!\n");
 136:src/../h/ConsumerProducer_CPP_Sync_API_test.h ****         return;
 137:src/../h/ConsumerProducer_CPP_Sync_API_test.h ****     } else if (threadNum < 1) {
 138:src/../h/ConsumerProducer_CPP_Sync_API_test.h ****         printString("Broj proizvodjaca mora biti veci od nula!\n");
 139:src/../h/ConsumerProducer_CPP_Sync_API_test.h ****         return;
 140:src/../h/ConsumerProducer_CPP_Sync_API_test.h ****     }
 141:src/../h/ConsumerProducer_CPP_Sync_API_test.h **** 
 142:src/../h/ConsumerProducer_CPP_Sync_API_test.h ****     BufferCPP *buffer = new BufferCPP(n);
 143:src/../h/ConsumerProducer_CPP_Sync_API_test.h **** 
 144:src/../h/ConsumerProducer_CPP_Sync_API_test.h ****     waitForAll = new Semaphore(0);
 145:src/../h/ConsumerProducer_CPP_Sync_API_test.h **** 
 146:src/../h/ConsumerProducer_CPP_Sync_API_test.h ****     Thread* threads[threadNum];
 147:src/../h/ConsumerProducer_CPP_Sync_API_test.h ****     Thread* consumerThread;
 148:src/../h/ConsumerProducer_CPP_Sync_API_test.h **** 
 149:src/../h/ConsumerProducer_CPP_Sync_API_test.h ****     struct thread_data data[threadNum + 1];
 150:src/../h/ConsumerProducer_CPP_Sync_API_test.h **** 
 151:src/../h/ConsumerProducer_CPP_Sync_API_test.h ****     data[threadNum].id = threadNum;
 152:src/../h/ConsumerProducer_CPP_Sync_API_test.h ****     data[threadNum].buffer = buffer;
 153:src/../h/ConsumerProducer_CPP_Sync_API_test.h ****     data[threadNum].wait = waitForAll;
 154:src/../h/ConsumerProducer_CPP_Sync_API_test.h ****     consumerThread = new Consumer(data+threadNum);
 155:src/../h/ConsumerProducer_CPP_Sync_API_test.h ****     consumerThread->start();
 156:src/../h/ConsumerProducer_CPP_Sync_API_test.h **** 
 157:src/../h/ConsumerProducer_CPP_Sync_API_test.h ****     for (int i = 0; i < threadNum; i++) {
 158:src/../h/ConsumerProducer_CPP_Sync_API_test.h ****         data[i].id = i;
 159:src/../h/ConsumerProducer_CPP_Sync_API_test.h ****         data[i].buffer = buffer;
 160:src/../h/ConsumerProducer_CPP_Sync_API_test.h ****         data[i].wait = waitForAll;
 161:src/../h/ConsumerProducer_CPP_Sync_API_test.h **** 
 162:src/../h/ConsumerProducer_CPP_Sync_API_test.h ****         if(i>0) {
 163:src/../h/ConsumerProducer_CPP_Sync_API_test.h ****             threads[i] = new Producer(data+i);
 164:src/../h/ConsumerProducer_CPP_Sync_API_test.h ****         } else {
 165:src/../h/ConsumerProducer_CPP_Sync_API_test.h ****             threads[i] = new ProducerKeyboard(data+i);
 166:src/../h/ConsumerProducer_CPP_Sync_API_test.h ****         }
 167:src/../h/ConsumerProducer_CPP_Sync_API_test.h **** 
 168:src/../h/ConsumerProducer_CPP_Sync_API_test.h ****         threads[i]->start();
 169:src/../h/ConsumerProducer_CPP_Sync_API_test.h ****     }
 170:src/../h/ConsumerProducer_CPP_Sync_API_test.h **** 
 171:src/../h/ConsumerProducer_CPP_Sync_API_test.h ****     Thread::dispatch();
 172:src/../h/ConsumerProducer_CPP_Sync_API_test.h **** 
 173:src/../h/ConsumerProducer_CPP_Sync_API_test.h ****     for (int i = 0; i <= threadNum; i++) {
 174:src/../h/ConsumerProducer_CPP_Sync_API_test.h ****         waitForAll->wait();
 175:src/../h/ConsumerProducer_CPP_Sync_API_test.h ****     }
 176:src/../h/ConsumerProducer_CPP_Sync_API_test.h **** 
 177:src/../h/ConsumerProducer_CPP_Sync_API_test.h ****     for (int i = 0; i < threadNum; i++) {
 178:src/../h/ConsumerProducer_CPP_Sync_API_test.h ****         delete threads[i];
 179:src/../h/ConsumerProducer_CPP_Sync_API_test.h ****     }
 180:src/../h/ConsumerProducer_CPP_Sync_API_test.h ****     delete consumerThread;
 181:src/../h/ConsumerProducer_CPP_Sync_API_test.h ****     delete waitForAll;
 182:src/../h/ConsumerProducer_CPP_Sync_API_test.h ****     delete buffer;
 3433              		.loc 2 182 18 is_stmt 0
 3434 0cb8 930B0100 		mv	s7,sp
GAS LISTING /tmp/ccMeUcYP.s 			page 84


 119:src/../h/ConsumerProducer_CPP_Sync_API_test.h ****     char input[30];
 3435              		.loc 2 119 5 is_stmt 1
 120:src/../h/ConsumerProducer_CPP_Sync_API_test.h **** 
 3436              		.loc 2 120 5
 122:src/../h/ConsumerProducer_CPP_Sync_API_test.h ****     getString(input, 30);
 3437              		.loc 2 122 5
 122:src/../h/ConsumerProducer_CPP_Sync_API_test.h ****     getString(input, 30);
 3438              		.loc 2 122 16 is_stmt 0
 3439 0cbc 17050000 		lla	a0,.LC34
 3439      13050500 
 3440              	.LEHB13:
 3441 0cc4 97000000 		call	_Z11printStringPKc@plt
 3441      E7800000 
 3442              	.LVL367:
 123:src/../h/ConsumerProducer_CPP_Sync_API_test.h ****     threadNum = stringToInt(input);
 3443              		.loc 2 123 5 is_stmt 1
 123:src/../h/ConsumerProducer_CPP_Sync_API_test.h ****     threadNum = stringToInt(input);
 3444              		.loc 2 123 14 is_stmt 0
 3445 0ccc 9305E001 		li	a1,30
 3446 0cd0 930404F8 		addi	s1,s0,-128
 3447 0cd4 13850400 		mv	a0,s1
 3448 0cd8 97000000 		call	_Z9getStringPci@plt
 3448      E7800000 
 3449              	.LVL368:
 124:src/../h/ConsumerProducer_CPP_Sync_API_test.h **** 
 3450              		.loc 2 124 5 is_stmt 1
 124:src/../h/ConsumerProducer_CPP_Sync_API_test.h **** 
 3451              		.loc 2 124 28 is_stmt 0
 3452 0ce0 13850400 		mv	a0,s1
 3453 0ce4 97000000 		call	_Z11stringToIntPKc@plt
 3453      E7800000 
 3454              	.LVL369:
 3455 0cec 13090500 		mv	s2,a0
 3456              	.LVL370:
 126:src/../h/ConsumerProducer_CPP_Sync_API_test.h ****     getString(input, 30);
 3457              		.loc 2 126 5 is_stmt 1
 126:src/../h/ConsumerProducer_CPP_Sync_API_test.h ****     getString(input, 30);
 3458              		.loc 2 126 16 is_stmt 0
 3459 0cf0 17050000 		lla	a0,.LC35
 3459      13050500 
 3460 0cf8 97000000 		call	_Z11printStringPKc@plt
 3460      E7800000 
 3461              	.LVL371:
 127:src/../h/ConsumerProducer_CPP_Sync_API_test.h ****     n = stringToInt(input);
 3462              		.loc 2 127 5 is_stmt 1
 127:src/../h/ConsumerProducer_CPP_Sync_API_test.h ****     n = stringToInt(input);
 3463              		.loc 2 127 14 is_stmt 0
 3464 0d00 9305E001 		li	a1,30
 3465 0d04 13850400 		mv	a0,s1
 3466 0d08 97000000 		call	_Z9getStringPci@plt
 3466      E7800000 
 3467              	.LVL372:
 128:src/../h/ConsumerProducer_CPP_Sync_API_test.h **** 
 3468              		.loc 2 128 5 is_stmt 1
 128:src/../h/ConsumerProducer_CPP_Sync_API_test.h **** 
 3469              		.loc 2 128 20 is_stmt 0
 3470 0d10 13850400 		mv	a0,s1
GAS LISTING /tmp/ccMeUcYP.s 			page 85


 3471 0d14 97000000 		call	_Z11stringToIntPKc@plt
 3471      E7800000 
 3472              	.LVL373:
 3473 0d1c 93040500 		mv	s1,a0
 3474              	.LVL374:
 130:src/../h/ConsumerProducer_CPP_Sync_API_test.h ****     printString(" i velicina bafera "); printInt(n);
 3475              		.loc 2 130 5 is_stmt 1
 130:src/../h/ConsumerProducer_CPP_Sync_API_test.h ****     printString(" i velicina bafera "); printInt(n);
 3476              		.loc 2 130 16 is_stmt 0
 3477 0d20 17050000 		lla	a0,.LC36
 3477      13050500 
 3478 0d28 97000000 		call	_Z11printStringPKc@plt
 3478      E7800000 
 3479              	.LVL375:
 130:src/../h/ConsumerProducer_CPP_Sync_API_test.h ****     printString(" i velicina bafera "); printInt(n);
 3480              		.loc 2 130 40 is_stmt 1
 130:src/../h/ConsumerProducer_CPP_Sync_API_test.h ****     printString(" i velicina bafera "); printInt(n);
 3481              		.loc 2 130 48 is_stmt 0
 3482 0d30 13060000 		li	a2,0
 3483 0d34 9305A000 		li	a1,10
 3484 0d38 13050900 		mv	a0,s2
 3485 0d3c 97000000 		call	_Z8printIntiii@plt
 3485      E7800000 
 3486              	.LVL376:
 131:src/../h/ConsumerProducer_CPP_Sync_API_test.h ****     printString(".\n");
 3487              		.loc 2 131 5 is_stmt 1
 131:src/../h/ConsumerProducer_CPP_Sync_API_test.h ****     printString(".\n");
 3488              		.loc 2 131 16 is_stmt 0
 3489 0d44 17050000 		lla	a0,.LC37
 3489      13050500 
 3490 0d4c 97000000 		call	_Z11printStringPKc@plt
 3490      E7800000 
 3491              	.LVL377:
 131:src/../h/ConsumerProducer_CPP_Sync_API_test.h ****     printString(".\n");
 3492              		.loc 2 131 41 is_stmt 1
 131:src/../h/ConsumerProducer_CPP_Sync_API_test.h ****     printString(".\n");
 3493              		.loc 2 131 49 is_stmt 0
 3494 0d54 13060000 		li	a2,0
 3495 0d58 9305A000 		li	a1,10
 3496 0d5c 13850400 		mv	a0,s1
 3497 0d60 97000000 		call	_Z8printIntiii@plt
 3497      E7800000 
 3498              	.LVL378:
 132:src/../h/ConsumerProducer_CPP_Sync_API_test.h **** 
 3499              		.loc 2 132 5 is_stmt 1
 132:src/../h/ConsumerProducer_CPP_Sync_API_test.h **** 
 3500              		.loc 2 132 16 is_stmt 0
 3501 0d68 17050000 		lla	a0,.LC38
 3501      13050500 
 3502 0d70 97000000 		call	_Z11printStringPKc@plt
 3502      E7800000 
 3503              	.LVL379:
 134:src/../h/ConsumerProducer_CPP_Sync_API_test.h ****         printString("Broj proizvodjaca ne sme biti manji od velicine bafera!\n");
 3504              		.loc 2 134 5 is_stmt 1
 3505 0d78 63C42403 		bgt	s2,s1,.L200
 137:src/../h/ConsumerProducer_CPP_Sync_API_test.h ****         printString("Broj proizvodjaca mora biti veci od nula!\n");
 3506              		.loc 2 137 12
GAS LISTING /tmp/ccMeUcYP.s 			page 86


 3507 0d7c 635C2003 		blez	s2,.L201
 142:src/../h/ConsumerProducer_CPP_Sync_API_test.h **** 
 3508              		.loc 2 142 5
 142:src/../h/ConsumerProducer_CPP_Sync_API_test.h **** 
 3509              		.loc 2 142 40 is_stmt 0
 3510 0d80 13058003 		li	a0,56
 3511 0d84 97000000 		call	_Znwm@plt
 3511      E7800000 
 3512              	.LVL380:
 3513              	.LEHE13:
 3514 0d8c 930A0500 		mv	s5,a0
 3515 0d90 93850400 		mv	a1,s1
 3516              	.LEHB14:
 3517 0d94 97000000 		call	_ZN9BufferCPPC1Ei@plt
 3517      E7800000 
 3518              	.LVL381:
 3519              	.LEHE14:
 3520 0d9c 6F000003 		j	.L202
 3521              	.L200:
 135:src/../h/ConsumerProducer_CPP_Sync_API_test.h ****         return;
 3522              		.loc 2 135 9 is_stmt 1
 135:src/../h/ConsumerProducer_CPP_Sync_API_test.h ****         return;
 3523              		.loc 2 135 20 is_stmt 0
 3524 0da0 17050000 		lla	a0,.LC39
 3524      13050500 
 3525              	.LEHB15:
 3526 0da8 97000000 		call	_Z11printStringPKc@plt
 3526      E7800000 
 3527              	.LVL382:
 136:src/../h/ConsumerProducer_CPP_Sync_API_test.h ****     } else if (threadNum < 1) {
 3528              		.loc 2 136 9 is_stmt 1
 3529 0db0 6F004001 		j	.L174
 3530              	.L201:
 138:src/../h/ConsumerProducer_CPP_Sync_API_test.h ****         return;
 3531              		.loc 2 138 9
 138:src/../h/ConsumerProducer_CPP_Sync_API_test.h ****         return;
 3532              		.loc 2 138 20 is_stmt 0
 3533 0db4 17050000 		lla	a0,.LC40
 3533      13050500 
 3534 0dbc 97000000 		call	_Z11printStringPKc@plt
 3534      E7800000 
 3535              	.LVL383:
 139:src/../h/ConsumerProducer_CPP_Sync_API_test.h ****     }
 3536              		.loc 2 139 9 is_stmt 1
 3537              	.L174:
 3538 0dc4 13810B00 		mv	sp,s7
 3539 0dc8 6F000024 		j	.L172
 3540              	.L202:
 3541              	.LVL384:
 144:src/../h/ConsumerProducer_CPP_Sync_API_test.h **** 
 3542              		.loc 2 144 5 discriminator 3
 144:src/../h/ConsumerProducer_CPP_Sync_API_test.h **** 
 3543              		.loc 2 144 33 is_stmt 0 discriminator 3
 3544 0dcc 13050001 		li	a0,16
 3545 0dd0 97000000 		call	_Znwm@plt
 3545      E7800000 
 3546              	.LVL385:
GAS LISTING /tmp/ccMeUcYP.s 			page 87


 3547              	.LEHE15:
 3548 0dd8 93040500 		mv	s1,a0
 3549              	.LVL386:
 3550 0ddc 93050000 		li	a1,0
 3551              	.LEHB16:
 3552 0de0 97000000 		call	_ZN9SemaphoreC1Ej@plt
 3552      E7800000 
 3553              	.LVL387:
 3554              	.LEHE16:
 144:src/../h/ConsumerProducer_CPP_Sync_API_test.h **** 
 3555              		.loc 2 144 16 discriminator 3
 3556 0de8 17070000 		lla	a4,.LANCHOR0
 3556      13070700 
 3557 0df0 23309702 		sd	s1,32(a4)
 146:src/../h/ConsumerProducer_CPP_Sync_API_test.h ****     Thread* consumerThread;
 3558              		.loc 2 146 5 is_stmt 1 discriminator 3
 3559              	.LVL388:
 146:src/../h/ConsumerProducer_CPP_Sync_API_test.h ****     Thread* consumerThread;
 3560              		.loc 2 146 13 is_stmt 0 discriminator 3
 3561 0df4 93173900 		slli	a5,s2,3
 3562 0df8 9387F700 		addi	a5,a5,15
 3563 0dfc 93F707FF 		andi	a5,a5,-16
 3564 0e00 3301F140 		sub	sp,sp,a5
 3565 0e04 93090100 		mv	s3,sp
 3566              	.LVL389:
 147:src/../h/ConsumerProducer_CPP_Sync_API_test.h **** 
 3567              		.loc 2 147 5 is_stmt 1 discriminator 3
 149:src/../h/ConsumerProducer_CPP_Sync_API_test.h **** 
 3568              		.loc 2 149 5 discriminator 3
 149:src/../h/ConsumerProducer_CPP_Sync_API_test.h **** 
 3569              		.loc 2 149 39 is_stmt 0 discriminator 3
 3570 0e08 9B061900 		addiw	a3,s2,1
 3571              	.LVL390:
 149:src/../h/ConsumerProducer_CPP_Sync_API_test.h **** 
 3572              		.loc 2 149 24 discriminator 3
 3573 0e0c 93971600 		slli	a5,a3,1
 3574 0e10 B387D700 		add	a5,a5,a3
 3575 0e14 93973700 		slli	a5,a5,3
 3576 0e18 9387F700 		addi	a5,a5,15
 3577 0e1c 93F707FF 		andi	a5,a5,-16
 3578 0e20 3301F140 		sub	sp,sp,a5
 3579              	.LVL391:
 3580 0e24 130A0100 		mv	s4,sp
 3581              	.LVL392:
 151:src/../h/ConsumerProducer_CPP_Sync_API_test.h ****     data[threadNum].buffer = buffer;
 3582              		.loc 2 151 5 is_stmt 1 discriminator 3
 151:src/../h/ConsumerProducer_CPP_Sync_API_test.h ****     data[threadNum].buffer = buffer;
 3583              		.loc 2 151 24 is_stmt 0 discriminator 3
 3584 0e28 93141900 		slli	s1,s2,1
 3585 0e2c B3872401 		add	a5,s1,s2
 3586 0e30 93973700 		slli	a5,a5,3
 3587 0e34 B307FA00 		add	a5,s4,a5
 3588 0e38 23A02701 		sw	s2,0(a5)
 152:src/../h/ConsumerProducer_CPP_Sync_API_test.h ****     data[threadNum].wait = waitForAll;
 3589              		.loc 2 152 5 is_stmt 1 discriminator 3
 152:src/../h/ConsumerProducer_CPP_Sync_API_test.h ****     data[threadNum].wait = waitForAll;
 3590              		.loc 2 152 28 is_stmt 0 discriminator 3
GAS LISTING /tmp/ccMeUcYP.s 			page 88


 3591 0e3c 23B45701 		sd	s5,8(a5)
 153:src/../h/ConsumerProducer_CPP_Sync_API_test.h ****     consumerThread = new Consumer(data+threadNum);
 3592              		.loc 2 153 5 is_stmt 1 discriminator 3
 153:src/../h/ConsumerProducer_CPP_Sync_API_test.h ****     consumerThread = new Consumer(data+threadNum);
 3593              		.loc 2 153 26 is_stmt 0 discriminator 3
 3594 0e40 03370702 		ld	a4,32(a4)
 3595 0e44 23B8E700 		sd	a4,16(a5)
 154:src/../h/ConsumerProducer_CPP_Sync_API_test.h ****     consumerThread->start();
 3596              		.loc 2 154 5 is_stmt 1 discriminator 3
 154:src/../h/ConsumerProducer_CPP_Sync_API_test.h ****     consumerThread->start();
 3597              		.loc 2 154 49 is_stmt 0 discriminator 3
 3598 0e48 13058001 		li	a0,24
 3599              	.LEHB17:
 3600 0e4c 97000000 		call	_Znwm@plt
 3600      E7800000 
 3601              	.LVL393:
 3602              	.LEHE17:
 3603 0e54 130B0500 		mv	s6,a0
 154:src/../h/ConsumerProducer_CPP_Sync_API_test.h ****     consumerThread->start();
 3604              		.loc 2 154 39 discriminator 3
 3605 0e58 B3842401 		add	s1,s1,s2
 3606 0e5c 93943400 		slli	s1,s1,3
 154:src/../h/ConsumerProducer_CPP_Sync_API_test.h ****     consumerThread->start();
 3607              		.loc 2 154 49 discriminator 3
 3608 0e60 B3049A00 		add	s1,s4,s1
 3609              	.LVL394:
 3610              	.LEHB18:
 3611              	.LBB206:
 3612              	.LBB207:
  83:src/../h/ConsumerProducer_CPP_Sync_API_test.h **** 
 3613              		.loc 2 83 48 discriminator 3
 3614 0e64 97000000 		call	_ZN6ThreadC2Ev@plt
 3614      E7800000 
 3615              	.LVL395:
 3616              	.LEHE18:
  83:src/../h/ConsumerProducer_CPP_Sync_API_test.h **** 
 3617              		.loc 2 83 48
 3618 0e6c 97070000 		lla	a5,_ZTV8Consumer+16
 3618      93870700 
 3619 0e74 2330FB00 		sd	a5,0(s6)
 3620 0e78 23389B00 		sd	s1,16(s6)
 3621              	.LVL396:
 3622              	.LBE207:
 3623              	.LBE206:
 155:src/../h/ConsumerProducer_CPP_Sync_API_test.h **** 
 3624              		.loc 2 155 5 is_stmt 1
 155:src/../h/ConsumerProducer_CPP_Sync_API_test.h **** 
 3625              		.loc 2 155 26 is_stmt 0
 3626 0e7c 13050B00 		mv	a0,s6
 3627              	.LEHB19:
 3628 0e80 97000000 		call	_ZN6Thread5startEv@plt
 3628      E7800000 
 3629              	.LVL397:
 3630              	.LBB208:
 157:src/../h/ConsumerProducer_CPP_Sync_API_test.h ****         data[i].id = i;
 3631              		.loc 2 157 14
 3632 0e88 93040000 		li	s1,0
GAS LISTING /tmp/ccMeUcYP.s 			page 89


 3633 0e8c 6F008003 		j	.L179
 3634              	.LVL398:
 3635              	.L203:
 3636              	.LBB209:
 3637              	.LBB210:
  56:src/../h/ConsumerProducer_CPP_Sync_API_test.h **** 
 3638              		.loc 2 56 48
 3639 0e90 97070000 		lla	a5,_ZTV8Producer+16
 3639      93870700 
 3640 0e98 23B0FC00 		sd	a5,0(s9)
 3641 0e9c 23B88C01 		sd	s8,16(s9)
 3642              	.LVL399:
 3643              	.LBE210:
 3644              	.LBE209:
 163:src/../h/ConsumerProducer_CPP_Sync_API_test.h ****         } else {
 3645              		.loc 2 163 24
 3646 0ea0 93973400 		slli	a5,s1,3
 3647 0ea4 B387F900 		add	a5,s3,a5
 3648 0ea8 23B09701 		sd	s9,0(a5)
 3649              	.L178:
 168:src/../h/ConsumerProducer_CPP_Sync_API_test.h ****     }
 3650              		.loc 2 168 9 is_stmt 1
 168:src/../h/ConsumerProducer_CPP_Sync_API_test.h ****     }
 3651              		.loc 2 168 18 is_stmt 0
 3652 0eac 93973400 		slli	a5,s1,3
 3653 0eb0 B387F900 		add	a5,s3,a5
 168:src/../h/ConsumerProducer_CPP_Sync_API_test.h ****     }
 3654              		.loc 2 168 26
 3655 0eb4 03B50700 		ld	a0,0(a5)
 3656 0eb8 97000000 		call	_ZN6Thread5startEv@plt
 3656      E7800000 
 3657              	.LVL400:
 157:src/../h/ConsumerProducer_CPP_Sync_API_test.h ****         data[i].id = i;
 3658              		.loc 2 157 5 is_stmt 1
 3659 0ec0 9B841400 		addiw	s1,s1,1
 3660              	.LVL401:
 3661              	.L179:
 157:src/../h/ConsumerProducer_CPP_Sync_API_test.h ****         data[i].id = i;
 3662              		.loc 2 157 23 discriminator 1
 3663 0ec4 63D0240B 		bge	s1,s2,.L176
 158:src/../h/ConsumerProducer_CPP_Sync_API_test.h ****         data[i].buffer = buffer;
 3664              		.loc 2 158 9
 158:src/../h/ConsumerProducer_CPP_Sync_API_test.h ****         data[i].buffer = buffer;
 3665              		.loc 2 158 20 is_stmt 0
 3666 0ec8 93971400 		slli	a5,s1,1
 3667 0ecc B3879700 		add	a5,a5,s1
 3668 0ed0 93973700 		slli	a5,a5,3
 3669 0ed4 B307FA00 		add	a5,s4,a5
 3670 0ed8 23A09700 		sw	s1,0(a5)
 159:src/../h/ConsumerProducer_CPP_Sync_API_test.h ****         data[i].wait = waitForAll;
 3671              		.loc 2 159 9 is_stmt 1
 159:src/../h/ConsumerProducer_CPP_Sync_API_test.h ****         data[i].wait = waitForAll;
 3672              		.loc 2 159 24 is_stmt 0
 3673 0edc 23B45701 		sd	s5,8(a5)
 160:src/../h/ConsumerProducer_CPP_Sync_API_test.h **** 
 3674              		.loc 2 160 9 is_stmt 1
 160:src/../h/ConsumerProducer_CPP_Sync_API_test.h **** 
GAS LISTING /tmp/ccMeUcYP.s 			page 90


 3675              		.loc 2 160 22 is_stmt 0
 3676 0ee0 17070000 		ld	a4,.LANCHOR0+32
 3676      03370700 
 3677 0ee8 23B8E700 		sd	a4,16(a5)
 162:src/../h/ConsumerProducer_CPP_Sync_API_test.h ****             threads[i] = new Producer(data+i);
 3678              		.loc 2 162 9 is_stmt 1
 3679 0eec 63589002 		blez	s1,.L177
 163:src/../h/ConsumerProducer_CPP_Sync_API_test.h ****         } else {
 3680              		.loc 2 163 13
 163:src/../h/ConsumerProducer_CPP_Sync_API_test.h ****         } else {
 3681              		.loc 2 163 45 is_stmt 0
 3682 0ef0 13058001 		li	a0,24
 3683 0ef4 97000000 		call	_Znwm@plt
 3683      E7800000 
 3684              	.LVL402:
 3685              	.LEHE19:
 3686 0efc 930C0500 		mv	s9,a0
 163:src/../h/ConsumerProducer_CPP_Sync_API_test.h ****         } else {
 3687              		.loc 2 163 43
 3688 0f00 139C1400 		slli	s8,s1,1
 3689 0f04 330C9C00 		add	s8,s8,s1
 3690 0f08 131C3C00 		slli	s8,s8,3
 163:src/../h/ConsumerProducer_CPP_Sync_API_test.h ****         } else {
 3691              		.loc 2 163 45
 3692 0f0c 330C8A01 		add	s8,s4,s8
 3693              	.LVL403:
 3694              	.LEHB20:
 3695              	.LBB212:
 3696              	.LBB211:
  56:src/../h/ConsumerProducer_CPP_Sync_API_test.h **** 
 3697              		.loc 2 56 48
 3698 0f10 97000000 		call	_ZN6ThreadC2Ev@plt
 3698      E7800000 
 3699              	.LVL404:
 3700              	.LEHE20:
 3701 0f18 6FF09FF7 		j	.L203
 3702              	.LVL405:
 3703              	.L177:
 3704              	.LBE211:
 3705              	.LBE212:
 165:src/../h/ConsumerProducer_CPP_Sync_API_test.h ****         }
 3706              		.loc 2 165 13 is_stmt 1
 165:src/../h/ConsumerProducer_CPP_Sync_API_test.h ****         }
 3707              		.loc 2 165 53 is_stmt 0
 3708 0f1c 13058001 		li	a0,24
 3709              	.LEHB21:
 3710 0f20 97000000 		call	_Znwm@plt
 3710      E7800000 
 3711              	.LVL406:
 3712              	.LEHE21:
 3713 0f28 930C0500 		mv	s9,a0
 165:src/../h/ConsumerProducer_CPP_Sync_API_test.h ****         }
 3714              		.loc 2 165 51
 3715 0f2c 139C1400 		slli	s8,s1,1
 3716 0f30 330C9C00 		add	s8,s8,s1
 3717 0f34 131C3C00 		slli	s8,s8,3
 165:src/../h/ConsumerProducer_CPP_Sync_API_test.h ****         }
GAS LISTING /tmp/ccMeUcYP.s 			page 91


 3718              		.loc 2 165 53
 3719 0f38 330C8A01 		add	s8,s4,s8
 3720              	.LVL407:
 3721              	.LEHB22:
 3722              	.LBB213:
 3723              	.LBB214:
  25:src/../h/ConsumerProducer_CPP_Sync_API_test.h **** 
 3724              		.loc 2 25 56
 3725 0f3c 97000000 		call	_ZN6ThreadC2Ev@plt
 3725      E7800000 
 3726              	.LVL408:
 3727              	.LEHE22:
 3728 0f44 97070000 		lla	a5,_ZTV16ProducerKeyboard+16
 3728      93870700 
 3729 0f4c 23B0FC00 		sd	a5,0(s9)
 3730 0f50 23B88C01 		sd	s8,16(s9)
 3731              	.LVL409:
 3732              	.LBE214:
 3733              	.LBE213:
 165:src/../h/ConsumerProducer_CPP_Sync_API_test.h ****         }
 3734              		.loc 2 165 24
 3735 0f54 93973400 		slli	a5,s1,3
 3736 0f58 B387F900 		add	a5,s3,a5
 3737 0f5c 23B09701 		sd	s9,0(a5)
 3738 0f60 6FF0DFF4 		j	.L178
 3739              	.L176:
 3740              	.LBE208:
 171:src/../h/ConsumerProducer_CPP_Sync_API_test.h **** 
 3741              		.loc 2 171 5 is_stmt 1
 3742              	.LEHB23:
 171:src/../h/ConsumerProducer_CPP_Sync_API_test.h **** 
 3743              		.loc 2 171 21 is_stmt 0
 3744 0f64 97000000 		call	_ZN6Thread8dispatchEv@plt
 3744      E7800000 
 3745              	.LVL410:
 3746              	.LBB215:
 173:src/../h/ConsumerProducer_CPP_Sync_API_test.h ****         waitForAll->wait();
 3747              		.loc 2 173 14
 3748 0f6c 93040000 		li	s1,0
 3749              	.LVL411:
 3750              	.L181:
 173:src/../h/ConsumerProducer_CPP_Sync_API_test.h ****         waitForAll->wait();
 3751              		.loc 2 173 23 is_stmt 1 discriminator 1
 3752 0f70 634E9900 		bgt	s1,s2,.L193
 174:src/../h/ConsumerProducer_CPP_Sync_API_test.h ****     }
 3753              		.loc 2 174 9
 174:src/../h/ConsumerProducer_CPP_Sync_API_test.h ****     }
 3754              		.loc 2 174 25 is_stmt 0
 3755 0f74 17050000 		ld	a0,.LANCHOR0+32
 3755      03350500 
 3756 0f7c 97000000 		call	_ZN9Semaphore4waitEv@plt
 3756      E7800000 
 3757              	.LVL412:
 173:src/../h/ConsumerProducer_CPP_Sync_API_test.h ****         waitForAll->wait();
 3758              		.loc 2 173 5 is_stmt 1
 3759 0f84 9B841400 		addiw	s1,s1,1
 3760              	.LVL413:
GAS LISTING /tmp/ccMeUcYP.s 			page 92


 3761 0f88 6FF09FFE 		j	.L181
 3762              	.LVL414:
 3763              	.L193:
 3764              	.LBE215:
 3765              	.LBB216:
 177:src/../h/ConsumerProducer_CPP_Sync_API_test.h ****         delete threads[i];
 3766              		.loc 2 177 14 is_stmt 0
 3767 0f8c 93040000 		li	s1,0
 3768              	.LVL415:
 3769 0f90 6F008000 		j	.L180
 3770              	.LVL416:
 3771              	.L183:
 177:src/../h/ConsumerProducer_CPP_Sync_API_test.h ****         delete threads[i];
 3772              		.loc 2 177 5 is_stmt 1 discriminator 2
 3773 0f94 9B841400 		addiw	s1,s1,1
 3774              	.LVL417:
 3775              	.L180:
 177:src/../h/ConsumerProducer_CPP_Sync_API_test.h ****         delete threads[i];
 3776              		.loc 2 177 23 discriminator 1
 3777 0f98 63D22403 		bge	s1,s2,.L182
 178:src/../h/ConsumerProducer_CPP_Sync_API_test.h ****     }
 3778              		.loc 2 178 9
 178:src/../h/ConsumerProducer_CPP_Sync_API_test.h ****     }
 3779              		.loc 2 178 25 is_stmt 0
 3780 0f9c 93973400 		slli	a5,s1,3
 3781 0fa0 B387F900 		add	a5,s3,a5
 3782 0fa4 03B50700 		ld	a0,0(a5)
 178:src/../h/ConsumerProducer_CPP_Sync_API_test.h ****     }
 3783              		.loc 2 178 26
 3784 0fa8 E30605FE 		beqz	a0,.L183
 178:src/../h/ConsumerProducer_CPP_Sync_API_test.h ****     }
 3785              		.loc 2 178 25 discriminator 1
 3786 0fac 83370500 		ld	a5,0(a0)
 3787 0fb0 83B78700 		ld	a5,8(a5)
 3788 0fb4 E7800700 		jalr	a5
 3789              	.LVL418:
 3790 0fb8 6FF0DFFD 		j	.L183
 3791              	.L182:
 3792              	.LBE216:
 180:src/../h/ConsumerProducer_CPP_Sync_API_test.h ****     delete waitForAll;
 3793              		.loc 2 180 5 is_stmt 1
 180:src/../h/ConsumerProducer_CPP_Sync_API_test.h ****     delete waitForAll;
 3794              		.loc 2 180 26 is_stmt 0
 3795 0fbc 630A0B00 		beqz	s6,.L184
 180:src/../h/ConsumerProducer_CPP_Sync_API_test.h ****     delete waitForAll;
 3796              		.loc 2 180 12 discriminator 1
 3797 0fc0 83370B00 		ld	a5,0(s6)
 3798 0fc4 83B78700 		ld	a5,8(a5)
 3799 0fc8 13050B00 		mv	a0,s6
 3800 0fcc E7800700 		jalr	a5
 3801              	.LVL419:
 3802              	.L184:
 181:src/../h/ConsumerProducer_CPP_Sync_API_test.h ****     delete buffer;
 3803              		.loc 2 181 5 is_stmt 1
 181:src/../h/ConsumerProducer_CPP_Sync_API_test.h ****     delete buffer;
 3804              		.loc 2 181 12 is_stmt 0
 3805 0fd0 17050000 		ld	a0,.LANCHOR0+32
GAS LISTING /tmp/ccMeUcYP.s 			page 93


 3805      03350500 
 181:src/../h/ConsumerProducer_CPP_Sync_API_test.h ****     delete buffer;
 3806              		.loc 2 181 22
 3807 0fd8 63080500 		beqz	a0,.L185
 181:src/../h/ConsumerProducer_CPP_Sync_API_test.h ****     delete buffer;
 3808              		.loc 2 181 12 discriminator 1
 3809 0fdc 83370500 		ld	a5,0(a0)
 3810 0fe0 83B78700 		ld	a5,8(a5)
 3811 0fe4 E7800700 		jalr	a5
 3812              	.LVL420:
 3813              	.L185:
 3814              		.loc 2 182 5 is_stmt 1
 3815              		.loc 2 182 18 is_stmt 0
 3816 0fe8 638E0A00 		beqz	s5,.L186
 3817              		.loc 2 182 12 discriminator 1
 3818 0fec 13850A00 		mv	a0,s5
 3819 0ff0 97000000 		call	_ZN9BufferCPPD1Ev@plt
 3819      E7800000 
 3820              	.LVL421:
 3821 0ff8 13850A00 		mv	a0,s5
 3822 0ffc 97000000 		call	_ZdlPv@plt
 3822      E7800000 
 3823              	.LVL422:
 3824              	.LEHE23:
 3825              	.L186:
 3826 1004 13810B00 		mv	sp,s7
 3827              	.LVL423:
 3828              	.L172:
 183:src/../h/ConsumerProducer_CPP_Sync_API_test.h **** 
 184:src/../h/ConsumerProducer_CPP_Sync_API_test.h **** }
 3829              		.loc 2 184 1
 3830 1008 130104F8 		addi	sp,s0,-128
 3831              		.cfi_remember_state
 3832              		.cfi_def_cfa 2, 128
 3833 100c 83308107 		ld	ra,120(sp)
 3834              		.cfi_restore 1
 3835 1010 03340107 		ld	s0,112(sp)
 3836              		.cfi_restore 8
 3837 1014 83348106 		ld	s1,104(sp)
 3838              		.cfi_restore 9
 3839 1018 03390106 		ld	s2,96(sp)
 3840              		.cfi_restore 18
 3841              	.LVL424:
 3842 101c 83398105 		ld	s3,88(sp)
 3843              		.cfi_restore 19
 3844 1020 033A0105 		ld	s4,80(sp)
 3845              		.cfi_restore 20
 3846 1024 833A8104 		ld	s5,72(sp)
 3847              		.cfi_restore 21
 3848 1028 033B0104 		ld	s6,64(sp)
 3849              		.cfi_restore 22
 3850 102c 833B8103 		ld	s7,56(sp)
 3851              		.cfi_restore 23
 3852 1030 033C0103 		ld	s8,48(sp)
 3853              		.cfi_restore 24
 3854 1034 833C8102 		ld	s9,40(sp)
 3855              		.cfi_restore 25
GAS LISTING /tmp/ccMeUcYP.s 			page 94


 3856 1038 13010108 		addi	sp,sp,128
 3857              		.cfi_def_cfa_offset 0
 3858 103c 67800000 		jr	ra
 3859              	.LVL425:
 3860              	.L194:
 3861              		.cfi_restore_state
 3862 1040 93040500 		mv	s1,a0
 3863              	.LVL426:
 142:src/../h/ConsumerProducer_CPP_Sync_API_test.h **** 
 3864              		.loc 2 142 40
 3865 1044 13850A00 		mv	a0,s5
 3866 1048 97000000 		call	_ZdlPv@plt
 3866      E7800000 
 3867              	.LVL427:
 3868 1050 13850400 		mv	a0,s1
 3869              	.LEHB24:
 3870 1054 97000000 		call	_Unwind_Resume@plt
 3870      E7800000 
 3871              	.LVL428:
 3872              	.LEHE24:
 3873              	.L195:
 3874 105c 13090500 		mv	s2,a0
 3875              	.LVL429:
 144:src/../h/ConsumerProducer_CPP_Sync_API_test.h **** 
 3876              		.loc 2 144 33
 3877 1060 13850400 		mv	a0,s1
 3878 1064 97000000 		call	_ZdlPv@plt
 3878      E7800000 
 3879              	.LVL430:
 3880 106c 13050900 		mv	a0,s2
 3881              	.LEHB25:
 3882 1070 97000000 		call	_Unwind_Resume@plt
 3882      E7800000 
 3883              	.LVL431:
 3884              	.LEHE25:
 3885              	.L196:
 3886 1078 93040500 		mv	s1,a0
 3887              	.LVL432:
 154:src/../h/ConsumerProducer_CPP_Sync_API_test.h ****     consumerThread->start();
 3888              		.loc 2 154 49
 3889 107c 13050B00 		mv	a0,s6
 3890 1080 97000000 		call	_ZdlPv@plt
 3890      E7800000 
 3891              	.LVL433:
 3892 1088 13850400 		mv	a0,s1
 3893              	.LEHB26:
 3894 108c 97000000 		call	_Unwind_Resume@plt
 3894      E7800000 
 3895              	.LVL434:
 3896              	.LEHE26:
 3897              	.L197:
 3898 1094 93040500 		mv	s1,a0
 3899              	.LVL435:
 3900              	.LBB217:
 163:src/../h/ConsumerProducer_CPP_Sync_API_test.h ****         } else {
 3901              		.loc 2 163 45
 3902 1098 13850C00 		mv	a0,s9
GAS LISTING /tmp/ccMeUcYP.s 			page 95


 3903 109c 97000000 		call	_ZdlPv@plt
 3903      E7800000 
 3904              	.LVL436:
 3905 10a4 13850400 		mv	a0,s1
 3906              	.LEHB27:
 3907 10a8 97000000 		call	_Unwind_Resume@plt
 3907      E7800000 
 3908              	.LVL437:
 3909              	.LEHE27:
 3910              	.L198:
 3911 10b0 93040500 		mv	s1,a0
 3912              	.LVL438:
 165:src/../h/ConsumerProducer_CPP_Sync_API_test.h ****         }
 3913              		.loc 2 165 53
 3914 10b4 13850C00 		mv	a0,s9
 3915 10b8 97000000 		call	_ZdlPv@plt
 3915      E7800000 
 3916              	.LVL439:
 3917 10c0 13850400 		mv	a0,s1
 3918              	.LEHB28:
 3919 10c4 97000000 		call	_Unwind_Resume@plt
 3919      E7800000 
 3920              	.LVL440:
 3921              	.LEHE28:
 3922              	.LBE217:
 3923              		.cfi_endproc
 3924              	.LFE39:
 3925              		.section	.gcc_except_table
 3926              	.LLSDA39:
 3927 00ae FF       		.byte	0xff
 3928 00af FF       		.byte	0xff
 3929 00b0 03       		.byte	0x3
 3930 00b1 D001     		.byte	0xd0,0x1
 3931 00b3 00000000 		.4byte	.LEHB13-.LFB39
 3932 00b7 00000000 		.4byte	.LEHE13-.LEHB13
 3933 00bb 00000000 		.4byte	0
 3934 00bf 00       		.byte	0
 3935 00c0 00000000 		.4byte	.LEHB14-.LFB39
 3936 00c4 00000000 		.4byte	.LEHE14-.LEHB14
 3937 00c8 00000000 		.4byte	.L194-.LFB39
 3938 00cc 00       		.byte	0
 3939 00cd 00000000 		.4byte	.LEHB15-.LFB39
 3940 00d1 00000000 		.4byte	.LEHE15-.LEHB15
 3941 00d5 00000000 		.4byte	0
 3942 00d9 00       		.byte	0
 3943 00da 00000000 		.4byte	.LEHB16-.LFB39
 3944 00de 00000000 		.4byte	.LEHE16-.LEHB16
 3945 00e2 00000000 		.4byte	.L195-.LFB39
 3946 00e6 00       		.byte	0
 3947 00e7 00000000 		.4byte	.LEHB17-.LFB39
 3948 00eb 00000000 		.4byte	.LEHE17-.LEHB17
 3949 00ef 00000000 		.4byte	0
 3950 00f3 00       		.byte	0
 3951 00f4 00000000 		.4byte	.LEHB18-.LFB39
 3952 00f8 00000000 		.4byte	.LEHE18-.LEHB18
 3953 00fc 00000000 		.4byte	.L196-.LFB39
 3954 0100 00       		.byte	0
GAS LISTING /tmp/ccMeUcYP.s 			page 96


 3955 0101 00000000 		.4byte	.LEHB19-.LFB39
 3956 0105 00000000 		.4byte	.LEHE19-.LEHB19
 3957 0109 00000000 		.4byte	0
 3958 010d 00       		.byte	0
 3959 010e 00000000 		.4byte	.LEHB20-.LFB39
 3960 0112 00000000 		.4byte	.LEHE20-.LEHB20
 3961 0116 00000000 		.4byte	.L197-.LFB39
 3962 011a 00       		.byte	0
 3963 011b 00000000 		.4byte	.LEHB21-.LFB39
 3964 011f 00000000 		.4byte	.LEHE21-.LEHB21
 3965 0123 00000000 		.4byte	0
 3966 0127 00       		.byte	0
 3967 0128 00000000 		.4byte	.LEHB22-.LFB39
 3968 012c 00000000 		.4byte	.LEHE22-.LEHB22
 3969 0130 00000000 		.4byte	.L198-.LFB39
 3970 0134 00       		.byte	0
 3971 0135 00000000 		.4byte	.LEHB23-.LFB39
 3972 0139 00000000 		.4byte	.LEHE23-.LEHB23
 3973 013d 00000000 		.4byte	0
 3974 0141 00       		.byte	0
 3975 0142 00000000 		.4byte	.LEHB24-.LFB39
 3976 0146 00000000 		.4byte	.LEHE24-.LEHB24
 3977 014a 00000000 		.4byte	0
 3978 014e 00       		.byte	0
 3979 014f 00000000 		.4byte	.LEHB25-.LFB39
 3980 0153 00000000 		.4byte	.LEHE25-.LEHB25
 3981 0157 00000000 		.4byte	0
 3982 015b 00       		.byte	0
 3983 015c 00000000 		.4byte	.LEHB26-.LFB39
 3984 0160 00000000 		.4byte	.LEHE26-.LEHB26
 3985 0164 00000000 		.4byte	0
 3986 0168 00       		.byte	0
 3987 0169 00000000 		.4byte	.LEHB27-.LFB39
 3988 016d 00000000 		.4byte	.LEHE27-.LEHB27
 3989 0171 00000000 		.4byte	0
 3990 0175 00       		.byte	0
 3991 0176 00000000 		.4byte	.LEHB28-.LFB39
 3992 017a 00000000 		.4byte	.LEHE28-.LEHB28
 3993 017e 00000000 		.4byte	0
 3994 0182 00       		.byte	0
 3995              		.text
 3997              		.align	2
 3998              		.globl	_Z12testSleepingv
 4000              	_Z12testSleepingv:
 4001              	.LFB41:
  26:src/../h/ThreadSleep_C_API_test.h **** 
  27:src/../h/ThreadSleep_C_API_test.h **** void testSleeping() {
 4002              		.loc 6 27 21 is_stmt 1
 4003              		.cfi_startproc
 4004 10cc 130101FC 		addi	sp,sp,-64
 4005              		.cfi_def_cfa_offset 64
 4006 10d0 233C1102 		sd	ra,56(sp)
 4007 10d4 23388102 		sd	s0,48(sp)
 4008 10d8 23349102 		sd	s1,40(sp)
 4009              		.cfi_offset 1, -8
 4010              		.cfi_offset 8, -16
 4011              		.cfi_offset 9, -24
GAS LISTING /tmp/ccMeUcYP.s 			page 97


 4012 10dc 13040104 		addi	s0,sp,64
 4013              		.cfi_def_cfa 8, 0
  28:src/../h/ThreadSleep_C_API_test.h ****     const int sleepy_thread_count = 2;
 4014              		.loc 6 28 5
 4015              	.LVL441:
  29:src/../h/ThreadSleep_C_API_test.h ****     time_t sleep_times[sleepy_thread_count] = {10, 20};
 4016              		.loc 6 29 5
 4017              		.loc 6 29 12 is_stmt 0
 4018 10e0 9307A000 		li	a5,10
 4019 10e4 2338F4FC 		sd	a5,-48(s0)
 4020 10e8 93074001 		li	a5,20
 4021 10ec 233CF4FC 		sd	a5,-40(s0)
  30:src/../h/ThreadSleep_C_API_test.h ****     thread_t sleepyThread[sleepy_thread_count];
 4022              		.loc 6 30 5 is_stmt 1
  31:src/../h/ThreadSleep_C_API_test.h **** 
  32:src/../h/ThreadSleep_C_API_test.h ****     for (int i = 0; i < sleepy_thread_count; i++) {
 4023              		.loc 6 32 5
 4024              	.LVL442:
 4025              	.LBB218:
 4026              		.loc 6 32 14 is_stmt 0
 4027 10f0 93040000 		li	s1,0
 4028 10f4 6F00C002 		j	.L206
 4029              	.LVL443:
 4030              	.L209:
  33:src/../h/ThreadSleep_C_API_test.h ****         thread_create(&sleepyThread[i], sleepyRun, sleep_times + i);
 4031              		.loc 6 33 9 is_stmt 1
 4032              		.loc 6 33 64 is_stmt 0
 4033 10f8 93973400 		slli	a5,s1,3
 4034              		.loc 6 33 22
 4035 10fc 130604FD 		addi	a2,s0,-48
 4036 1100 3306F600 		add	a2,a2,a5
 4037 1104 97050000 		lla	a1,_Z9sleepyRunPv
 4037      93850500 
 4038 110c 130504FC 		addi	a0,s0,-64
 4039 1110 3305F500 		add	a0,a0,a5
 4040 1114 97000000 		call	_Z13thread_createPP3NitPFvPvES2_@plt
 4040      E7800000 
 4041              	.LVL444:
  32:src/../h/ThreadSleep_C_API_test.h ****         thread_create(&sleepyThread[i], sleepyRun, sleep_times + i);
 4042              		.loc 6 32 5 is_stmt 1
 4043 111c 9B841400 		addiw	s1,s1,1
 4044              	.LVL445:
 4045              	.L206:
  32:src/../h/ThreadSleep_C_API_test.h ****         thread_create(&sleepyThread[i], sleepyRun, sleep_times + i);
 4046              		.loc 6 32 23 discriminator 1
 4047 1120 93071000 		li	a5,1
 4048 1124 E3DA97FC 		ble	s1,a5,.L209
 4049              	.L207:
 4050              	.LBE218:
  34:src/../h/ThreadSleep_C_API_test.h ****     }
  35:src/../h/ThreadSleep_C_API_test.h **** 
  36:src/../h/ThreadSleep_C_API_test.h ****     while (!(finished[0] && finished[1])) {}
 4051              		.loc 6 36 5
 4052              		.loc 6 36 12
 4053              		.loc 6 36 24 is_stmt 0
 4054 1128 97070000 		lbu	a5,.LANCHOR0+8
 4054      83C70700 
GAS LISTING /tmp/ccMeUcYP.s 			page 98


 4055              		.loc 6 36 12
 4056 1130 E38C07FE 		beqz	a5,.L207
 4057              		.loc 6 36 39 discriminator 1
 4058 1134 97070000 		lbu	a5,.LANCHOR0+9
 4058      83C70700 
 4059              		.loc 6 36 12 discriminator 1
 4060 113c E38607FE 		beqz	a5,.L207
  37:src/../h/ThreadSleep_C_API_test.h **** }
 4061              		.loc 6 37 1
 4062 1140 83308103 		ld	ra,56(sp)
 4063              		.cfi_restore 1
 4064 1144 03340103 		ld	s0,48(sp)
 4065              		.cfi_restore 8
 4066              		.cfi_def_cfa 2, 64
 4067 1148 83348102 		ld	s1,40(sp)
 4068              		.cfi_restore 9
 4069              	.LVL446:
 4070 114c 13010104 		addi	sp,sp,64
 4071              		.cfi_def_cfa_offset 0
 4072 1150 67800000 		jr	ra
 4073              		.cfi_endproc
 4074              	.LFE41:
 4076              		.align	2
 4077              		.globl	_ZN19ConsumerProducerCPP20testConsumerProducerEv
 4079              	_ZN19ConsumerProducerCPP20testConsumerProducerEv:
 4080              	.LFB54:
  87:src/../h/ConsumerProducer_CPP_API_test.h ****     };
  88:src/../h/ConsumerProducer_CPP_API_test.h **** 
  89:src/../h/ConsumerProducer_CPP_API_test.h ****     void testConsumerProducer() {
 4081              		.loc 3 89 33 is_stmt 1
 4082              		.cfi_startproc
 4083              		.cfi_personality 0x9b,DW.ref.__gxx_personality_v0
 4084              		.cfi_lsda 0x1b,.LLSDA54
 4085 1154 130101F8 		addi	sp,sp,-128
 4086              		.cfi_def_cfa_offset 128
 4087 1158 233C1106 		sd	ra,120(sp)
 4088 115c 23388106 		sd	s0,112(sp)
 4089 1160 23349106 		sd	s1,104(sp)
 4090 1164 23302107 		sd	s2,96(sp)
 4091 1168 233C3105 		sd	s3,88(sp)
 4092 116c 23384105 		sd	s4,80(sp)
 4093 1170 23345105 		sd	s5,72(sp)
 4094 1174 23306105 		sd	s6,64(sp)
 4095 1178 233C7103 		sd	s7,56(sp)
 4096 117c 23388103 		sd	s8,48(sp)
 4097 1180 23349103 		sd	s9,40(sp)
 4098              		.cfi_offset 1, -8
 4099              		.cfi_offset 8, -16
 4100              		.cfi_offset 9, -24
 4101              		.cfi_offset 18, -32
 4102              		.cfi_offset 19, -40
 4103              		.cfi_offset 20, -48
 4104              		.cfi_offset 21, -56
 4105              		.cfi_offset 22, -64
 4106              		.cfi_offset 23, -72
 4107              		.cfi_offset 24, -80
 4108              		.cfi_offset 25, -88
GAS LISTING /tmp/ccMeUcYP.s 			page 99


 4109 1184 13040108 		addi	s0,sp,128
 4110              		.cfi_def_cfa 8, 0
  90:src/../h/ConsumerProducer_CPP_API_test.h ****         char input[30];
  91:src/../h/ConsumerProducer_CPP_API_test.h ****         int n, threadNum;
  92:src/../h/ConsumerProducer_CPP_API_test.h **** 
  93:src/../h/ConsumerProducer_CPP_API_test.h ****         printString("Unesite broj proizvodjaca?\n");
  94:src/../h/ConsumerProducer_CPP_API_test.h ****         getString(input, 30);
  95:src/../h/ConsumerProducer_CPP_API_test.h ****         threadNum = stringToInt(input);
  96:src/../h/ConsumerProducer_CPP_API_test.h **** 
  97:src/../h/ConsumerProducer_CPP_API_test.h ****         printString("Unesite velicinu bafera?\n");
  98:src/../h/ConsumerProducer_CPP_API_test.h ****         getString(input, 30);
  99:src/../h/ConsumerProducer_CPP_API_test.h ****         n = stringToInt(input);
 100:src/../h/ConsumerProducer_CPP_API_test.h **** 
 101:src/../h/ConsumerProducer_CPP_API_test.h ****         printString("Broj proizvodjaca "); printInt(threadNum);
 102:src/../h/ConsumerProducer_CPP_API_test.h ****         printString(" i velicina bafera "); printInt(n);
 103:src/../h/ConsumerProducer_CPP_API_test.h ****         printString(".\n");
 104:src/../h/ConsumerProducer_CPP_API_test.h **** 
 105:src/../h/ConsumerProducer_CPP_API_test.h ****         if(threadNum > n) {
 106:src/../h/ConsumerProducer_CPP_API_test.h ****             printString("Broj proizvodjaca ne sme biti manji od velicine bafera!\n");
 107:src/../h/ConsumerProducer_CPP_API_test.h ****             return;
 108:src/../h/ConsumerProducer_CPP_API_test.h ****         } else if (threadNum < 1) {
 109:src/../h/ConsumerProducer_CPP_API_test.h ****             printString("Broj proizvodjaca mora biti veci od nula!\n");
 110:src/../h/ConsumerProducer_CPP_API_test.h ****             return;
 111:src/../h/ConsumerProducer_CPP_API_test.h ****         }
 112:src/../h/ConsumerProducer_CPP_API_test.h **** 
 113:src/../h/ConsumerProducer_CPP_API_test.h ****         BufferCPP *buffer = new BufferCPP(n);
 114:src/../h/ConsumerProducer_CPP_API_test.h **** 
 115:src/../h/ConsumerProducer_CPP_API_test.h ****         waitForAll = new Semaphore(0);
 116:src/../h/ConsumerProducer_CPP_API_test.h ****         Thread *producers[threadNum];
 117:src/../h/ConsumerProducer_CPP_API_test.h ****         thread_data threadData[threadNum + 1];
 118:src/../h/ConsumerProducer_CPP_API_test.h **** 
 119:src/../h/ConsumerProducer_CPP_API_test.h ****         threadData[threadNum].id = threadNum;
 120:src/../h/ConsumerProducer_CPP_API_test.h ****         threadData[threadNum].buffer = buffer;
 121:src/../h/ConsumerProducer_CPP_API_test.h ****         threadData[threadNum].sem = waitForAll;
 122:src/../h/ConsumerProducer_CPP_API_test.h ****         Thread *consumer = new Consumer(&threadData[threadNum]);
 123:src/../h/ConsumerProducer_CPP_API_test.h ****         consumer->start();
 124:src/../h/ConsumerProducer_CPP_API_test.h **** 
 125:src/../h/ConsumerProducer_CPP_API_test.h ****         threadData[0].id = 0;
 126:src/../h/ConsumerProducer_CPP_API_test.h ****         threadData[0].buffer = buffer;
 127:src/../h/ConsumerProducer_CPP_API_test.h ****         threadData[0].sem = waitForAll;
 128:src/../h/ConsumerProducer_CPP_API_test.h ****         producers[0] = new ProducerKeyborad(&threadData[0]);
 129:src/../h/ConsumerProducer_CPP_API_test.h ****         producers[0]->start();
 130:src/../h/ConsumerProducer_CPP_API_test.h **** 
 131:src/../h/ConsumerProducer_CPP_API_test.h ****         for (int i = 1; i < threadNum; i++) {
 132:src/../h/ConsumerProducer_CPP_API_test.h ****             threadData[i].id = i;
 133:src/../h/ConsumerProducer_CPP_API_test.h ****             threadData[i].buffer = buffer;
 134:src/../h/ConsumerProducer_CPP_API_test.h ****             threadData[i].sem = waitForAll;
 135:src/../h/ConsumerProducer_CPP_API_test.h **** 
 136:src/../h/ConsumerProducer_CPP_API_test.h ****             producers[i] = new Producer(&threadData[i]);
 137:src/../h/ConsumerProducer_CPP_API_test.h ****             producers[i]->start();
 138:src/../h/ConsumerProducer_CPP_API_test.h **** 
 139:src/../h/ConsumerProducer_CPP_API_test.h ****         }
 140:src/../h/ConsumerProducer_CPP_API_test.h **** 
 141:src/../h/ConsumerProducer_CPP_API_test.h ****         Thread::dispatch();
 142:src/../h/ConsumerProducer_CPP_API_test.h **** 
 143:src/../h/ConsumerProducer_CPP_API_test.h ****         for (int i = 0; i <= threadNum; i++) {
 144:src/../h/ConsumerProducer_CPP_API_test.h ****             waitForAll->wait();
GAS LISTING /tmp/ccMeUcYP.s 			page 100


 145:src/../h/ConsumerProducer_CPP_API_test.h ****         }
 146:src/../h/ConsumerProducer_CPP_API_test.h **** 
 147:src/../h/ConsumerProducer_CPP_API_test.h ****         delete waitForAll;
 148:src/../h/ConsumerProducer_CPP_API_test.h ****         for (int i = 0; i < threadNum; i++) {
 149:src/../h/ConsumerProducer_CPP_API_test.h ****             delete producers[i];
 150:src/../h/ConsumerProducer_CPP_API_test.h ****         }
 151:src/../h/ConsumerProducer_CPP_API_test.h ****         delete consumer;
 152:src/../h/ConsumerProducer_CPP_API_test.h ****         delete buffer;
 4111              		.loc 3 152 22 is_stmt 0
 4112 1188 130C0100 		mv	s8,sp
  90:src/../h/ConsumerProducer_CPP_API_test.h ****         char input[30];
 4113              		.loc 3 90 9 is_stmt 1
  91:src/../h/ConsumerProducer_CPP_API_test.h **** 
 4114              		.loc 3 91 9
  93:src/../h/ConsumerProducer_CPP_API_test.h ****         getString(input, 30);
 4115              		.loc 3 93 9
  93:src/../h/ConsumerProducer_CPP_API_test.h ****         getString(input, 30);
 4116              		.loc 3 93 20 is_stmt 0
 4117 118c 17050000 		lla	a0,.LC34
 4117      13050500 
 4118              	.LEHB29:
 4119 1194 97000000 		call	_Z11printStringPKc@plt
 4119      E7800000 
 4120              	.LVL447:
  94:src/../h/ConsumerProducer_CPP_API_test.h ****         threadNum = stringToInt(input);
 4121              		.loc 3 94 9 is_stmt 1
  94:src/../h/ConsumerProducer_CPP_API_test.h ****         threadNum = stringToInt(input);
 4122              		.loc 3 94 18 is_stmt 0
 4123 119c 9305E001 		li	a1,30
 4124 11a0 930404F8 		addi	s1,s0,-128
 4125 11a4 13850400 		mv	a0,s1
 4126 11a8 97000000 		call	_Z9getStringPci@plt
 4126      E7800000 
 4127              	.LVL448:
  95:src/../h/ConsumerProducer_CPP_API_test.h **** 
 4128              		.loc 3 95 9 is_stmt 1
  95:src/../h/ConsumerProducer_CPP_API_test.h **** 
 4129              		.loc 3 95 32 is_stmt 0
 4130 11b0 13850400 		mv	a0,s1
 4131 11b4 97000000 		call	_Z11stringToIntPKc@plt
 4131      E7800000 
 4132              	.LVL449:
 4133 11bc 93090500 		mv	s3,a0
 4134              	.LVL450:
  97:src/../h/ConsumerProducer_CPP_API_test.h ****         getString(input, 30);
 4135              		.loc 3 97 9 is_stmt 1
  97:src/../h/ConsumerProducer_CPP_API_test.h ****         getString(input, 30);
 4136              		.loc 3 97 20 is_stmt 0
 4137 11c0 17050000 		lla	a0,.LC35
 4137      13050500 
 4138 11c8 97000000 		call	_Z11printStringPKc@plt
 4138      E7800000 
 4139              	.LVL451:
  98:src/../h/ConsumerProducer_CPP_API_test.h ****         n = stringToInt(input);
 4140              		.loc 3 98 9 is_stmt 1
  98:src/../h/ConsumerProducer_CPP_API_test.h ****         n = stringToInt(input);
 4141              		.loc 3 98 18 is_stmt 0
GAS LISTING /tmp/ccMeUcYP.s 			page 101


 4142 11d0 9305E001 		li	a1,30
 4143 11d4 13850400 		mv	a0,s1
 4144 11d8 97000000 		call	_Z9getStringPci@plt
 4144      E7800000 
 4145              	.LVL452:
  99:src/../h/ConsumerProducer_CPP_API_test.h **** 
 4146              		.loc 3 99 9 is_stmt 1
  99:src/../h/ConsumerProducer_CPP_API_test.h **** 
 4147              		.loc 3 99 24 is_stmt 0
 4148 11e0 13850400 		mv	a0,s1
 4149 11e4 97000000 		call	_Z11stringToIntPKc@plt
 4149      E7800000 
 4150              	.LVL453:
 4151 11ec 93040500 		mv	s1,a0
 4152              	.LVL454:
 101:src/../h/ConsumerProducer_CPP_API_test.h ****         printString(" i velicina bafera "); printInt(n);
 4153              		.loc 3 101 9 is_stmt 1
 101:src/../h/ConsumerProducer_CPP_API_test.h ****         printString(" i velicina bafera "); printInt(n);
 4154              		.loc 3 101 20 is_stmt 0
 4155 11f0 17050000 		lla	a0,.LC36
 4155      13050500 
 4156 11f8 97000000 		call	_Z11printStringPKc@plt
 4156      E7800000 
 4157              	.LVL455:
 101:src/../h/ConsumerProducer_CPP_API_test.h ****         printString(" i velicina bafera "); printInt(n);
 4158              		.loc 3 101 44 is_stmt 1
 101:src/../h/ConsumerProducer_CPP_API_test.h ****         printString(" i velicina bafera "); printInt(n);
 4159              		.loc 3 101 52 is_stmt 0
 4160 1200 13060000 		li	a2,0
 4161 1204 9305A000 		li	a1,10
 4162 1208 13850900 		mv	a0,s3
 4163 120c 97000000 		call	_Z8printIntiii@plt
 4163      E7800000 
 4164              	.LVL456:
 102:src/../h/ConsumerProducer_CPP_API_test.h ****         printString(".\n");
 4165              		.loc 3 102 9 is_stmt 1
 102:src/../h/ConsumerProducer_CPP_API_test.h ****         printString(".\n");
 4166              		.loc 3 102 20 is_stmt 0
 4167 1214 17050000 		lla	a0,.LC37
 4167      13050500 
 4168 121c 97000000 		call	_Z11printStringPKc@plt
 4168      E7800000 
 4169              	.LVL457:
 102:src/../h/ConsumerProducer_CPP_API_test.h ****         printString(".\n");
 4170              		.loc 3 102 45 is_stmt 1
 102:src/../h/ConsumerProducer_CPP_API_test.h ****         printString(".\n");
 4171              		.loc 3 102 53 is_stmt 0
 4172 1224 13060000 		li	a2,0
 4173 1228 9305A000 		li	a1,10
 4174 122c 13850400 		mv	a0,s1
 4175 1230 97000000 		call	_Z8printIntiii@plt
 4175      E7800000 
 4176              	.LVL458:
 103:src/../h/ConsumerProducer_CPP_API_test.h **** 
 4177              		.loc 3 103 9 is_stmt 1
 103:src/../h/ConsumerProducer_CPP_API_test.h **** 
 4178              		.loc 3 103 20 is_stmt 0
GAS LISTING /tmp/ccMeUcYP.s 			page 102


 4179 1238 17050000 		lla	a0,.LC38
 4179      13050500 
 4180 1240 97000000 		call	_Z11printStringPKc@plt
 4180      E7800000 
 4181              	.LVL459:
 105:src/../h/ConsumerProducer_CPP_API_test.h ****             printString("Broj proizvodjaca ne sme biti manji od velicine bafera!\n");
 4182              		.loc 3 105 9 is_stmt 1
 4183 1248 63C43403 		bgt	s3,s1,.L236
 108:src/../h/ConsumerProducer_CPP_API_test.h ****             printString("Broj proizvodjaca mora biti veci od nula!\n");
 4184              		.loc 3 108 16
 4185 124c 635C3003 		blez	s3,.L237
 113:src/../h/ConsumerProducer_CPP_API_test.h **** 
 4186              		.loc 3 113 9
 113:src/../h/ConsumerProducer_CPP_API_test.h **** 
 4187              		.loc 3 113 44 is_stmt 0
 4188 1250 13058003 		li	a0,56
 4189 1254 97000000 		call	_Znwm@plt
 4189      E7800000 
 4190              	.LVL460:
 4191              	.LEHE29:
 4192 125c 930A0500 		mv	s5,a0
 4193 1260 93850400 		mv	a1,s1
 4194              	.LEHB30:
 4195 1264 97000000 		call	_ZN9BufferCPPC1Ei@plt
 4195      E7800000 
 4196              	.LVL461:
 4197              	.LEHE30:
 4198 126c 6F000003 		j	.L238
 4199              	.L236:
 106:src/../h/ConsumerProducer_CPP_API_test.h ****             return;
 4200              		.loc 3 106 13 is_stmt 1
 106:src/../h/ConsumerProducer_CPP_API_test.h ****             return;
 4201              		.loc 3 106 24 is_stmt 0
 4202 1270 17050000 		lla	a0,.LC39
 4202      13050500 
 4203              	.LEHB31:
 4204 1278 97000000 		call	_Z11printStringPKc@plt
 4204      E7800000 
 4205              	.LVL462:
 107:src/../h/ConsumerProducer_CPP_API_test.h ****         } else if (threadNum < 1) {
 4206              		.loc 3 107 13 is_stmt 1
 4207 1280 6F004001 		j	.L212
 4208              	.L237:
 109:src/../h/ConsumerProducer_CPP_API_test.h ****             return;
 4209              		.loc 3 109 13
 109:src/../h/ConsumerProducer_CPP_API_test.h ****             return;
 4210              		.loc 3 109 24 is_stmt 0
 4211 1284 17050000 		lla	a0,.LC40
 4211      13050500 
 4212 128c 97000000 		call	_Z11printStringPKc@plt
 4212      E7800000 
 4213              	.LVL463:
 110:src/../h/ConsumerProducer_CPP_API_test.h ****         }
 4214              		.loc 3 110 13 is_stmt 1
 4215              	.L212:
 4216 1294 13010C00 		mv	sp,s8
 4217 1298 6F00C021 		j	.L210
GAS LISTING /tmp/ccMeUcYP.s 			page 103


 4218              	.L238:
 4219              	.LVL464:
 115:src/../h/ConsumerProducer_CPP_API_test.h ****         Thread *producers[threadNum];
 4220              		.loc 3 115 9 discriminator 3
