GAS LISTING /tmp/ccMeUcYP.s 			page 1


   1              		.file	"userMain.cpp"
   2              		.option pic
   3              		.option norelax
   4              		.text
   5              	.Ltext0:
   6              		.section	.text._ZN7WorkerAD2Ev,"axG",@progbits,_ZN7WorkerAD5Ev,comdat
   7              		.align	2
   8              		.weak	_ZN7WorkerAD2Ev
  10              	_ZN7WorkerAD2Ev:
  11              	.LFB153:
  12              		.file 1 "src/../h/Threads_CPP_API_test.h"
   1:src/../h/Threads_CPP_API_test.h **** #ifndef XV6_THREADS_CPP_API_TEST_HPP
   2:src/../h/Threads_CPP_API_test.h **** #define XV6_THREADS_CPP_API_TEST_HPP
   3:src/../h/Threads_CPP_API_test.h **** 
   4:src/../h/Threads_CPP_API_test.h **** #include "../h/syscall_cpp.h"
   5:src/../h/Threads_CPP_API_test.h **** 
   6:src/../h/Threads_CPP_API_test.h **** #include "printing.h"
   7:src/../h/Threads_CPP_API_test.h **** 
   8:src/../h/Threads_CPP_API_test.h **** bool finishedA = false;
   9:src/../h/Threads_CPP_API_test.h **** bool finishedB = false;
  10:src/../h/Threads_CPP_API_test.h **** bool finishedC = false;
  11:src/../h/Threads_CPP_API_test.h **** bool finishedD = false;
  12:src/../h/Threads_CPP_API_test.h **** 
  13:src/../h/Threads_CPP_API_test.h **** uint64 fibonacci(uint64 n) {
  14:src/../h/Threads_CPP_API_test.h ****     if (n == 0 || n == 1) { return n; }
  15:src/../h/Threads_CPP_API_test.h ****     if (n % 10 == 0) { thread_dispatch(); }
  16:src/../h/Threads_CPP_API_test.h ****     return fibonacci(n - 1) + fibonacci(n - 2);
  17:src/../h/Threads_CPP_API_test.h **** }
  18:src/../h/Threads_CPP_API_test.h **** 
  19:src/../h/Threads_CPP_API_test.h **** class WorkerA: public Thread {
  13              		.loc 1 19 7
  14              		.cfi_startproc
  15              	.LVL0:
  16 0000 130101FF 		addi	sp,sp,-16
  17              		.cfi_def_cfa_offset 16
  18 0004 23341100 		sd	ra,8(sp)
  19 0008 23308100 		sd	s0,0(sp)
  20              		.cfi_offset 1, -8
  21              		.cfi_offset 8, -16
  22 000c 13040101 		addi	s0,sp,16
  23              		.cfi_def_cfa 8, 0
  24              	.LBB136:
  25              		.loc 1 19 7 is_stmt 0
  26 0010 97070000 		lla	a5,_ZTV7WorkerA+16
  26      93870700 
  27 0018 2330F500 		sd	a5,0(a0)
  28 001c 97000000 		call	_ZN6ThreadD2Ev@plt
  28      E7800000 
  29              	.LVL1:
  30              	.LBE136:
  31 0024 83308100 		ld	ra,8(sp)
  32              		.cfi_restore 1
  33 0028 03340100 		ld	s0,0(sp)
  34              		.cfi_restore 8
  35              		.cfi_def_cfa 2, 16
  36 002c 13010101 		addi	sp,sp,16
  37              		.cfi_def_cfa_offset 0
GAS LISTING /tmp/ccMeUcYP.s 			page 2


  38 0030 67800000 		jr	ra
  39              		.cfi_endproc
  40              	.LFE153:
  42              		.weak	_ZN7WorkerAD1Ev
  43              		.set	_ZN7WorkerAD1Ev,_ZN7WorkerAD2Ev
  44              		.section	.text._ZN7WorkerAD0Ev,"axG",@progbits,_ZN7WorkerAD5Ev,comdat
  45              		.align	2
  46              		.weak	_ZN7WorkerAD0Ev
  48              	_ZN7WorkerAD0Ev:
  49              	.LFB155:
  50              		.loc 1 19 7 is_stmt 1
  51              		.cfi_startproc
  52              	.LVL2:
  53 0000 130101FE 		addi	sp,sp,-32
  54              		.cfi_def_cfa_offset 32
  55 0004 233C1100 		sd	ra,24(sp)
  56 0008 23388100 		sd	s0,16(sp)
  57 000c 23349100 		sd	s1,8(sp)
  58              		.cfi_offset 1, -8
  59              		.cfi_offset 8, -16
  60              		.cfi_offset 9, -24
  61 0010 13040102 		addi	s0,sp,32
  62              		.cfi_def_cfa 8, 0
  63 0014 93040500 		mv	s1,a0
  64              	.LVL3:
  65              	.LBB137:
  66              	.LBB138:
  67              		.loc 1 19 7 is_stmt 0
  68 0018 97070000 		lla	a5,_ZTV7WorkerA+16
  68      93870700 
  69 0020 2330F500 		sd	a5,0(a0)
  70 0024 97000000 		call	_ZN6ThreadD2Ev@plt
  70      E7800000 
  71              	.LVL4:
  72              	.LBE138:
  73              	.LBE137:
  74 002c 13850400 		mv	a0,s1
  75 0030 97000000 		call	_ZdlPv@plt
  75      E7800000 
  76              	.LVL5:
  77 0038 83308101 		ld	ra,24(sp)
  78              		.cfi_restore 1
  79 003c 03340101 		ld	s0,16(sp)
  80              		.cfi_restore 8
  81              		.cfi_def_cfa 2, 32
  82 0040 83348100 		ld	s1,8(sp)
  83              		.cfi_restore 9
  84              	.LVL6:
  85 0044 13010102 		addi	sp,sp,32
  86              		.cfi_def_cfa_offset 0
  87 0048 67800000 		jr	ra
  88              		.cfi_endproc
  89              	.LFE155:
  91              		.section	.text._ZN7WorkerBD2Ev,"axG",@progbits,_ZN7WorkerBD5Ev,comdat
  92              		.align	2
  93              		.weak	_ZN7WorkerBD2Ev
  95              	_ZN7WorkerBD2Ev:
GAS LISTING /tmp/ccMeUcYP.s 			page 3


  96              	.LFB149:
  20:src/../h/Threads_CPP_API_test.h ****     void workerBodyA(void* arg);
  21:src/../h/Threads_CPP_API_test.h **** public:
  22:src/../h/Threads_CPP_API_test.h ****     WorkerA():Thread() {}
  23:src/../h/Threads_CPP_API_test.h **** 
  24:src/../h/Threads_CPP_API_test.h ****     void run() override {
  25:src/../h/Threads_CPP_API_test.h ****         workerBodyA(nullptr);
  26:src/../h/Threads_CPP_API_test.h ****     }
  27:src/../h/Threads_CPP_API_test.h **** };
  28:src/../h/Threads_CPP_API_test.h **** 
  29:src/../h/Threads_CPP_API_test.h **** class WorkerB: public Thread {
  97              		.loc 1 29 7 is_stmt 1
  98              		.cfi_startproc
  99              	.LVL7:
 100 0000 130101FF 		addi	sp,sp,-16
 101              		.cfi_def_cfa_offset 16
 102 0004 23341100 		sd	ra,8(sp)
 103 0008 23308100 		sd	s0,0(sp)
 104              		.cfi_offset 1, -8
 105              		.cfi_offset 8, -16
 106 000c 13040101 		addi	s0,sp,16
 107              		.cfi_def_cfa 8, 0
 108              	.LBB139:
 109              		.loc 1 29 7 is_stmt 0
 110 0010 97070000 		lla	a5,_ZTV7WorkerB+16
 110      93870700 
 111 0018 2330F500 		sd	a5,0(a0)
 112 001c 97000000 		call	_ZN6ThreadD2Ev@plt
 112      E7800000 
 113              	.LVL8:
 114              	.LBE139:
 115 0024 83308100 		ld	ra,8(sp)
 116              		.cfi_restore 1
 117 0028 03340100 		ld	s0,0(sp)
 118              		.cfi_restore 8
 119              		.cfi_def_cfa 2, 16
 120 002c 13010101 		addi	sp,sp,16
 121              		.cfi_def_cfa_offset 0
 122 0030 67800000 		jr	ra
 123              		.cfi_endproc
 124              	.LFE149:
 126              		.weak	_ZN7WorkerBD1Ev
 127              		.set	_ZN7WorkerBD1Ev,_ZN7WorkerBD2Ev
 128              		.section	.text._ZN7WorkerBD0Ev,"axG",@progbits,_ZN7WorkerBD5Ev,comdat
 129              		.align	2
 130              		.weak	_ZN7WorkerBD0Ev
 132              	_ZN7WorkerBD0Ev:
 133              	.LFB151:
 134              		.loc 1 29 7 is_stmt 1
 135              		.cfi_startproc
 136              	.LVL9:
 137 0000 130101FE 		addi	sp,sp,-32
 138              		.cfi_def_cfa_offset 32
 139 0004 233C1100 		sd	ra,24(sp)
 140 0008 23388100 		sd	s0,16(sp)
 141 000c 23349100 		sd	s1,8(sp)
 142              		.cfi_offset 1, -8
GAS LISTING /tmp/ccMeUcYP.s 			page 4


 143              		.cfi_offset 8, -16
 144              		.cfi_offset 9, -24
 145 0010 13040102 		addi	s0,sp,32
 146              		.cfi_def_cfa 8, 0
 147 0014 93040500 		mv	s1,a0
 148              	.LVL10:
 149              	.LBB140:
 150              	.LBB141:
 151              		.loc 1 29 7 is_stmt 0
 152 0018 97070000 		lla	a5,_ZTV7WorkerB+16
 152      93870700 
 153 0020 2330F500 		sd	a5,0(a0)
 154 0024 97000000 		call	_ZN6ThreadD2Ev@plt
 154      E7800000 
 155              	.LVL11:
 156              	.LBE141:
 157              	.LBE140:
 158 002c 13850400 		mv	a0,s1
 159 0030 97000000 		call	_ZdlPv@plt
 159      E7800000 
 160              	.LVL12:
 161 0038 83308101 		ld	ra,24(sp)
 162              		.cfi_restore 1
 163 003c 03340101 		ld	s0,16(sp)
 164              		.cfi_restore 8
 165              		.cfi_def_cfa 2, 32
 166 0040 83348100 		ld	s1,8(sp)
 167              		.cfi_restore 9
 168              	.LVL13:
 169 0044 13010102 		addi	sp,sp,32
 170              		.cfi_def_cfa_offset 0
 171 0048 67800000 		jr	ra
 172              		.cfi_endproc
 173              	.LFE151:
 175              		.section	.text._ZN7WorkerCD2Ev,"axG",@progbits,_ZN7WorkerCD5Ev,comdat
 176              		.align	2
 177              		.weak	_ZN7WorkerCD2Ev
 179              	_ZN7WorkerCD2Ev:
 180              	.LFB145:
  30:src/../h/Threads_CPP_API_test.h ****     void workerBodyB(void* arg);
  31:src/../h/Threads_CPP_API_test.h **** public:
  32:src/../h/Threads_CPP_API_test.h ****     WorkerB():Thread() {}
  33:src/../h/Threads_CPP_API_test.h **** 
  34:src/../h/Threads_CPP_API_test.h ****     void run() override {
  35:src/../h/Threads_CPP_API_test.h ****         workerBodyB(nullptr);
  36:src/../h/Threads_CPP_API_test.h ****     }
  37:src/../h/Threads_CPP_API_test.h **** };
  38:src/../h/Threads_CPP_API_test.h **** 
  39:src/../h/Threads_CPP_API_test.h **** class WorkerC: public Thread {
 181              		.loc 1 39 7 is_stmt 1
 182              		.cfi_startproc
 183              	.LVL14:
 184 0000 130101FF 		addi	sp,sp,-16
 185              		.cfi_def_cfa_offset 16
 186 0004 23341100 		sd	ra,8(sp)
 187 0008 23308100 		sd	s0,0(sp)
 188              		.cfi_offset 1, -8
GAS LISTING /tmp/ccMeUcYP.s 			page 5


 189              		.cfi_offset 8, -16
 190 000c 13040101 		addi	s0,sp,16
 191              		.cfi_def_cfa 8, 0
 192              	.LBB142:
 193              		.loc 1 39 7 is_stmt 0
 194 0010 97070000 		lla	a5,_ZTV7WorkerC+16
 194      93870700 
 195 0018 2330F500 		sd	a5,0(a0)
 196 001c 97000000 		call	_ZN6ThreadD2Ev@plt
 196      E7800000 
 197              	.LVL15:
 198              	.LBE142:
 199 0024 83308100 		ld	ra,8(sp)
 200              		.cfi_restore 1
 201 0028 03340100 		ld	s0,0(sp)
 202              		.cfi_restore 8
 203              		.cfi_def_cfa 2, 16
 204 002c 13010101 		addi	sp,sp,16
 205              		.cfi_def_cfa_offset 0
 206 0030 67800000 		jr	ra
 207              		.cfi_endproc
 208              	.LFE145:
 210              		.weak	_ZN7WorkerCD1Ev
 211              		.set	_ZN7WorkerCD1Ev,_ZN7WorkerCD2Ev
 212              		.section	.text._ZN7WorkerCD0Ev,"axG",@progbits,_ZN7WorkerCD5Ev,comdat
 213              		.align	2
 214              		.weak	_ZN7WorkerCD0Ev
 216              	_ZN7WorkerCD0Ev:
 217              	.LFB147:
 218              		.loc 1 39 7 is_stmt 1
 219              		.cfi_startproc
 220              	.LVL16:
 221 0000 130101FE 		addi	sp,sp,-32
 222              		.cfi_def_cfa_offset 32
 223 0004 233C1100 		sd	ra,24(sp)
 224 0008 23388100 		sd	s0,16(sp)
 225 000c 23349100 		sd	s1,8(sp)
 226              		.cfi_offset 1, -8
 227              		.cfi_offset 8, -16
 228              		.cfi_offset 9, -24
 229 0010 13040102 		addi	s0,sp,32
 230              		.cfi_def_cfa 8, 0
 231 0014 93040500 		mv	s1,a0
 232              	.LVL17:
 233              	.LBB143:
 234              	.LBB144:
 235              		.loc 1 39 7 is_stmt 0
 236 0018 97070000 		lla	a5,_ZTV7WorkerC+16
 236      93870700 
 237 0020 2330F500 		sd	a5,0(a0)
 238 0024 97000000 		call	_ZN6ThreadD2Ev@plt
 238      E7800000 
 239              	.LVL18:
 240              	.LBE144:
 241              	.LBE143:
 242 002c 13850400 		mv	a0,s1
 243 0030 97000000 		call	_ZdlPv@plt
GAS LISTING /tmp/ccMeUcYP.s 			page 6


 243      E7800000 
 244              	.LVL19:
 245 0038 83308101 		ld	ra,24(sp)
 246              		.cfi_restore 1
 247 003c 03340101 		ld	s0,16(sp)
 248              		.cfi_restore 8
 249              		.cfi_def_cfa 2, 32
 250 0040 83348100 		ld	s1,8(sp)
 251              		.cfi_restore 9
 252              	.LVL20:
 253 0044 13010102 		addi	sp,sp,32
 254              		.cfi_def_cfa_offset 0
 255 0048 67800000 		jr	ra
 256              		.cfi_endproc
 257              	.LFE147:
 259              		.section	.text._ZN7WorkerDD2Ev,"axG",@progbits,_ZN7WorkerDD5Ev,comdat
 260              		.align	2
 261              		.weak	_ZN7WorkerDD2Ev
 263              	_ZN7WorkerDD2Ev:
 264              	.LFB141:
  40:src/../h/Threads_CPP_API_test.h ****     void workerBodyC(void* arg);
  41:src/../h/Threads_CPP_API_test.h **** public:
  42:src/../h/Threads_CPP_API_test.h ****     WorkerC():Thread() {}
  43:src/../h/Threads_CPP_API_test.h **** 
  44:src/../h/Threads_CPP_API_test.h ****     void run() override {
  45:src/../h/Threads_CPP_API_test.h ****         workerBodyC(nullptr);
  46:src/../h/Threads_CPP_API_test.h ****     }
  47:src/../h/Threads_CPP_API_test.h **** };
  48:src/../h/Threads_CPP_API_test.h **** 
  49:src/../h/Threads_CPP_API_test.h **** class WorkerD: public Thread {
 265              		.loc 1 49 7 is_stmt 1
 266              		.cfi_startproc
 267              	.LVL21:
 268 0000 130101FF 		addi	sp,sp,-16
 269              		.cfi_def_cfa_offset 16
 270 0004 23341100 		sd	ra,8(sp)
 271 0008 23308100 		sd	s0,0(sp)
 272              		.cfi_offset 1, -8
 273              		.cfi_offset 8, -16
 274 000c 13040101 		addi	s0,sp,16
 275              		.cfi_def_cfa 8, 0
 276              	.LBB145:
 277              		.loc 1 49 7 is_stmt 0
 278 0010 97070000 		lla	a5,_ZTV7WorkerD+16
 278      93870700 
 279 0018 2330F500 		sd	a5,0(a0)
 280 001c 97000000 		call	_ZN6ThreadD2Ev@plt
 280      E7800000 
 281              	.LVL22:
 282              	.LBE145:
 283 0024 83308100 		ld	ra,8(sp)
 284              		.cfi_restore 1
 285 0028 03340100 		ld	s0,0(sp)
 286              		.cfi_restore 8
 287              		.cfi_def_cfa 2, 16
 288 002c 13010101 		addi	sp,sp,16
 289              		.cfi_def_cfa_offset 0
GAS LISTING /tmp/ccMeUcYP.s 			page 7


 290 0030 67800000 		jr	ra
 291              		.cfi_endproc
 292              	.LFE141:
 294              		.weak	_ZN7WorkerDD1Ev
 295              		.set	_ZN7WorkerDD1Ev,_ZN7WorkerDD2Ev
 296              		.section	.text._ZN7WorkerDD0Ev,"axG",@progbits,_ZN7WorkerDD5Ev,comdat
 297              		.align	2
 298              		.weak	_ZN7WorkerDD0Ev
 300              	_ZN7WorkerDD0Ev:
 301              	.LFB143:
 302              		.loc 1 49 7 is_stmt 1
 303              		.cfi_startproc
 304              	.LVL23:
 305 0000 130101FE 		addi	sp,sp,-32
 306              		.cfi_def_cfa_offset 32
 307 0004 233C1100 		sd	ra,24(sp)
 308 0008 23388100 		sd	s0,16(sp)
 309 000c 23349100 		sd	s1,8(sp)
 310              		.cfi_offset 1, -8
 311              		.cfi_offset 8, -16
 312              		.cfi_offset 9, -24
 313 0010 13040102 		addi	s0,sp,32
 314              		.cfi_def_cfa 8, 0
 315 0014 93040500 		mv	s1,a0
 316              	.LVL24:
 317              	.LBB146:
 318              	.LBB147:
 319              		.loc 1 49 7 is_stmt 0
 320 0018 97070000 		lla	a5,_ZTV7WorkerD+16
 320      93870700 
 321 0020 2330F500 		sd	a5,0(a0)
 322 0024 97000000 		call	_ZN6ThreadD2Ev@plt
 322      E7800000 
 323              	.LVL25:
 324              	.LBE147:
 325              	.LBE146:
 326 002c 13850400 		mv	a0,s1
 327 0030 97000000 		call	_ZdlPv@plt
 327      E7800000 
 328              	.LVL26:
 329 0038 83308101 		ld	ra,24(sp)
 330              		.cfi_restore 1
 331 003c 03340101 		ld	s0,16(sp)
 332              		.cfi_restore 8
 333              		.cfi_def_cfa 2, 32
 334 0040 83348100 		ld	s1,8(sp)
 335              		.cfi_restore 9
 336              	.LVL27:
 337 0044 13010102 		addi	sp,sp,32
 338              		.cfi_def_cfa_offset 0
 339 0048 67800000 		jr	ra
 340              		.cfi_endproc
 341              	.LFE143:
 343              		.section	.text._ZN8ConsumerD2Ev,"axG",@progbits,_ZN8ConsumerD5Ev,comdat
 344              		.align	2
 345              		.weak	_ZN8ConsumerD2Ev
 347              	_ZN8ConsumerD2Ev:
GAS LISTING /tmp/ccMeUcYP.s 			page 8


 348              	.LFB129:
 349              		.file 2 "src/../h/ConsumerProducer_CPP_Sync_API_test.h"
   1:src/../h/ConsumerProducer_CPP_Sync_API_test.h **** //
   2:src/../h/ConsumerProducer_CPP_Sync_API_test.h **** // Created by os on 4/17/22.
   3:src/../h/ConsumerProducer_CPP_Sync_API_test.h **** //
   4:src/../h/ConsumerProducer_CPP_Sync_API_test.h **** 
   5:src/../h/ConsumerProducer_CPP_Sync_API_test.h **** #ifndef XV6_CONSUMERPRODUCER_CPP_Sync_API_TEST_H
   6:src/../h/ConsumerProducer_CPP_Sync_API_test.h **** #define XV6_CONSUMERPRODUCER_CPP_Sync_API_TEST_H
   7:src/../h/ConsumerProducer_CPP_Sync_API_test.h **** 
   8:src/../h/ConsumerProducer_CPP_Sync_API_test.h **** #include "../h/syscall_cpp.h"
   9:src/../h/ConsumerProducer_CPP_Sync_API_test.h **** #include "buffer_CPP_API.hpp"
  10:src/../h/ConsumerProducer_CPP_Sync_API_test.h **** 
  11:src/../h/ConsumerProducer_CPP_Sync_API_test.h **** Semaphore* waitForAll;
  12:src/../h/ConsumerProducer_CPP_Sync_API_test.h **** 
  13:src/../h/ConsumerProducer_CPP_Sync_API_test.h **** struct thread_data {
  14:src/../h/ConsumerProducer_CPP_Sync_API_test.h ****     int id;
  15:src/../h/ConsumerProducer_CPP_Sync_API_test.h ****     BufferCPP *buffer;
  16:src/../h/ConsumerProducer_CPP_Sync_API_test.h ****     Semaphore* wait;
  17:src/../h/ConsumerProducer_CPP_Sync_API_test.h **** };
  18:src/../h/ConsumerProducer_CPP_Sync_API_test.h **** 
  19:src/../h/ConsumerProducer_CPP_Sync_API_test.h **** volatile int threadEnd = 0;
  20:src/../h/ConsumerProducer_CPP_Sync_API_test.h **** 
  21:src/../h/ConsumerProducer_CPP_Sync_API_test.h **** class ProducerKeyboard:public Thread {
  22:src/../h/ConsumerProducer_CPP_Sync_API_test.h ****     thread_data* td;
  23:src/../h/ConsumerProducer_CPP_Sync_API_test.h ****     void producerKeyboard(void *arg);
  24:src/../h/ConsumerProducer_CPP_Sync_API_test.h **** public:
  25:src/../h/ConsumerProducer_CPP_Sync_API_test.h ****     ProducerKeyboard(thread_data* _td):Thread(), td(_td) {}
  26:src/../h/ConsumerProducer_CPP_Sync_API_test.h **** 
  27:src/../h/ConsumerProducer_CPP_Sync_API_test.h ****     void run() override {
  28:src/../h/ConsumerProducer_CPP_Sync_API_test.h ****         producerKeyboard(td);
  29:src/../h/ConsumerProducer_CPP_Sync_API_test.h ****     }
  30:src/../h/ConsumerProducer_CPP_Sync_API_test.h **** };
  31:src/../h/ConsumerProducer_CPP_Sync_API_test.h **** 
  32:src/../h/ConsumerProducer_CPP_Sync_API_test.h **** void ProducerKeyboard::producerKeyboard(void *arg) {
  33:src/../h/ConsumerProducer_CPP_Sync_API_test.h ****     struct thread_data *data = (struct thread_data *) arg;
  34:src/../h/ConsumerProducer_CPP_Sync_API_test.h **** 
  35:src/../h/ConsumerProducer_CPP_Sync_API_test.h ****     int key;
  36:src/../h/ConsumerProducer_CPP_Sync_API_test.h ****     int i = 0;
  37:src/../h/ConsumerProducer_CPP_Sync_API_test.h ****     while ((key = getc()) != 0x1b) {
  38:src/../h/ConsumerProducer_CPP_Sync_API_test.h ****         data->buffer->put(key);
  39:src/../h/ConsumerProducer_CPP_Sync_API_test.h ****         i++;
  40:src/../h/ConsumerProducer_CPP_Sync_API_test.h **** 
  41:src/../h/ConsumerProducer_CPP_Sync_API_test.h ****         if (i % (10 * data->id) == 0) {
  42:src/../h/ConsumerProducer_CPP_Sync_API_test.h ****             Thread::dispatch();
  43:src/../h/ConsumerProducer_CPP_Sync_API_test.h ****         }
  44:src/../h/ConsumerProducer_CPP_Sync_API_test.h ****     }
  45:src/../h/ConsumerProducer_CPP_Sync_API_test.h **** 
  46:src/../h/ConsumerProducer_CPP_Sync_API_test.h ****     threadEnd = 1;
  47:src/../h/ConsumerProducer_CPP_Sync_API_test.h ****     td->buffer->put('!');
  48:src/../h/ConsumerProducer_CPP_Sync_API_test.h **** 
  49:src/../h/ConsumerProducer_CPP_Sync_API_test.h ****     data->wait->signal();
  50:src/../h/ConsumerProducer_CPP_Sync_API_test.h **** }
  51:src/../h/ConsumerProducer_CPP_Sync_API_test.h **** 
  52:src/../h/ConsumerProducer_CPP_Sync_API_test.h **** class Producer:public Thread {
  53:src/../h/ConsumerProducer_CPP_Sync_API_test.h ****     thread_data* td;
  54:src/../h/ConsumerProducer_CPP_Sync_API_test.h ****     void producer(void *arg);
  55:src/../h/ConsumerProducer_CPP_Sync_API_test.h **** public:
GAS LISTING /tmp/ccMeUcYP.s 			page 9


  56:src/../h/ConsumerProducer_CPP_Sync_API_test.h ****     Producer(thread_data* _td):Thread(), td(_td) {}
  57:src/../h/ConsumerProducer_CPP_Sync_API_test.h **** 
  58:src/../h/ConsumerProducer_CPP_Sync_API_test.h ****     void run() override {
  59:src/../h/ConsumerProducer_CPP_Sync_API_test.h ****         producer(td);
  60:src/../h/ConsumerProducer_CPP_Sync_API_test.h ****     }
  61:src/../h/ConsumerProducer_CPP_Sync_API_test.h **** };
  62:src/../h/ConsumerProducer_CPP_Sync_API_test.h **** 
  63:src/../h/ConsumerProducer_CPP_Sync_API_test.h **** void Producer::producer(void *arg) {
  64:src/../h/ConsumerProducer_CPP_Sync_API_test.h ****     struct thread_data *data = (struct thread_data *) arg;
  65:src/../h/ConsumerProducer_CPP_Sync_API_test.h **** 
  66:src/../h/ConsumerProducer_CPP_Sync_API_test.h ****     int i = 0;
  67:src/../h/ConsumerProducer_CPP_Sync_API_test.h ****     while (!threadEnd) {
  68:src/../h/ConsumerProducer_CPP_Sync_API_test.h ****         data->buffer->put(data->id + '0');
  69:src/../h/ConsumerProducer_CPP_Sync_API_test.h ****         i++;
  70:src/../h/ConsumerProducer_CPP_Sync_API_test.h **** 
  71:src/../h/ConsumerProducer_CPP_Sync_API_test.h ****         if (i % (10 * data->id) == 0) {
  72:src/../h/ConsumerProducer_CPP_Sync_API_test.h ****             Thread::dispatch();
  73:src/../h/ConsumerProducer_CPP_Sync_API_test.h ****         }
  74:src/../h/ConsumerProducer_CPP_Sync_API_test.h ****     }
  75:src/../h/ConsumerProducer_CPP_Sync_API_test.h **** 
  76:src/../h/ConsumerProducer_CPP_Sync_API_test.h ****     data->wait->signal();
  77:src/../h/ConsumerProducer_CPP_Sync_API_test.h **** }
  78:src/../h/ConsumerProducer_CPP_Sync_API_test.h **** 
  79:src/../h/ConsumerProducer_CPP_Sync_API_test.h **** class Consumer:public Thread {
 350              		.loc 2 79 7 is_stmt 1
 351              		.cfi_startproc
 352              	.LVL28:
 353 0000 130101FF 		addi	sp,sp,-16
 354              		.cfi_def_cfa_offset 16
 355 0004 23341100 		sd	ra,8(sp)
 356 0008 23308100 		sd	s0,0(sp)
 357              		.cfi_offset 1, -8
 358              		.cfi_offset 8, -16
 359 000c 13040101 		addi	s0,sp,16
 360              		.cfi_def_cfa 8, 0
 361              	.LBB148:
 362              		.loc 2 79 7 is_stmt 0
 363 0010 97070000 		lla	a5,_ZTV8Consumer+16
 363      93870700 
 364 0018 2330F500 		sd	a5,0(a0)
 365 001c 97000000 		call	_ZN6ThreadD2Ev@plt
 365      E7800000 
 366              	.LVL29:
 367              	.LBE148:
 368 0024 83308100 		ld	ra,8(sp)
 369              		.cfi_restore 1
 370 0028 03340100 		ld	s0,0(sp)
 371              		.cfi_restore 8
 372              		.cfi_def_cfa 2, 16
 373 002c 13010101 		addi	sp,sp,16
 374              		.cfi_def_cfa_offset 0
 375 0030 67800000 		jr	ra
 376              		.cfi_endproc
 377              	.LFE129:
 379              		.weak	_ZN8ConsumerD1Ev
 380              		.set	_ZN8ConsumerD1Ev,_ZN8ConsumerD2Ev
 381              		.section	.text._ZN8ConsumerD0Ev,"axG",@progbits,_ZN8ConsumerD5Ev,comdat
GAS LISTING /tmp/ccMeUcYP.s 			page 10


 382              		.align	2
 383              		.weak	_ZN8ConsumerD0Ev
 385              	_ZN8ConsumerD0Ev:
 386              	.LFB131:
 387              		.loc 2 79 7 is_stmt 1
 388              		.cfi_startproc
 389              	.LVL30:
 390 0000 130101FE 		addi	sp,sp,-32
 391              		.cfi_def_cfa_offset 32
 392 0004 233C1100 		sd	ra,24(sp)
 393 0008 23388100 		sd	s0,16(sp)
 394 000c 23349100 		sd	s1,8(sp)
 395              		.cfi_offset 1, -8
 396              		.cfi_offset 8, -16
 397              		.cfi_offset 9, -24
 398 0010 13040102 		addi	s0,sp,32
 399              		.cfi_def_cfa 8, 0
 400 0014 93040500 		mv	s1,a0
 401              	.LVL31:
 402              	.LBB149:
 403              	.LBB150:
 404              		.loc 2 79 7 is_stmt 0
 405 0018 97070000 		lla	a5,_ZTV8Consumer+16
 405      93870700 
 406 0020 2330F500 		sd	a5,0(a0)
 407 0024 97000000 		call	_ZN6ThreadD2Ev@plt
 407      E7800000 
 408              	.LVL32:
 409              	.LBE150:
 410              	.LBE149:
 411 002c 13850400 		mv	a0,s1
 412 0030 97000000 		call	_ZdlPv@plt
 412      E7800000 
 413              	.LVL33:
 414 0038 83308101 		ld	ra,24(sp)
 415              		.cfi_restore 1
 416 003c 03340101 		ld	s0,16(sp)
 417              		.cfi_restore 8
 418              		.cfi_def_cfa 2, 32
 419 0040 83348100 		ld	s1,8(sp)
 420              		.cfi_restore 9
 421              	.LVL34:
 422 0044 13010102 		addi	sp,sp,32
 423              		.cfi_def_cfa_offset 0
 424 0048 67800000 		jr	ra
 425              		.cfi_endproc
 426              	.LFE131:
 428              		.section	.text._ZN8ProducerD2Ev,"axG",@progbits,_ZN8ProducerD5Ev,comdat
 429              		.align	2
 430              		.weak	_ZN8ProducerD2Ev
 432              	_ZN8ProducerD2Ev:
 433              	.LFB133:
  52:src/../h/ConsumerProducer_CPP_Sync_API_test.h ****     thread_data* td;
 434              		.loc 2 52 7 is_stmt 1
 435              		.cfi_startproc
 436              	.LVL35:
 437 0000 130101FF 		addi	sp,sp,-16
GAS LISTING /tmp/ccMeUcYP.s 			page 11


 438              		.cfi_def_cfa_offset 16
 439 0004 23341100 		sd	ra,8(sp)
 440 0008 23308100 		sd	s0,0(sp)
 441              		.cfi_offset 1, -8
 442              		.cfi_offset 8, -16
 443 000c 13040101 		addi	s0,sp,16
 444              		.cfi_def_cfa 8, 0
 445              	.LBB151:
  52:src/../h/ConsumerProducer_CPP_Sync_API_test.h ****     thread_data* td;
 446              		.loc 2 52 7 is_stmt 0
 447 0010 97070000 		lla	a5,_ZTV8Producer+16
 447      93870700 
 448 0018 2330F500 		sd	a5,0(a0)
 449 001c 97000000 		call	_ZN6ThreadD2Ev@plt
 449      E7800000 
 450              	.LVL36:
 451              	.LBE151:
 452 0024 83308100 		ld	ra,8(sp)
 453              		.cfi_restore 1
 454 0028 03340100 		ld	s0,0(sp)
 455              		.cfi_restore 8
 456              		.cfi_def_cfa 2, 16
 457 002c 13010101 		addi	sp,sp,16
 458              		.cfi_def_cfa_offset 0
 459 0030 67800000 		jr	ra
 460              		.cfi_endproc
 461              	.LFE133:
 463              		.weak	_ZN8ProducerD1Ev
 464              		.set	_ZN8ProducerD1Ev,_ZN8ProducerD2Ev
 465              		.section	.text._ZN8ProducerD0Ev,"axG",@progbits,_ZN8ProducerD5Ev,comdat
 466              		.align	2
 467              		.weak	_ZN8ProducerD0Ev
 469              	_ZN8ProducerD0Ev:
 470              	.LFB135:
  52:src/../h/ConsumerProducer_CPP_Sync_API_test.h ****     thread_data* td;
 471              		.loc 2 52 7 is_stmt 1
 472              		.cfi_startproc
 473              	.LVL37:
 474 0000 130101FE 		addi	sp,sp,-32
 475              		.cfi_def_cfa_offset 32
 476 0004 233C1100 		sd	ra,24(sp)
 477 0008 23388100 		sd	s0,16(sp)
 478 000c 23349100 		sd	s1,8(sp)
 479              		.cfi_offset 1, -8
 480              		.cfi_offset 8, -16
 481              		.cfi_offset 9, -24
 482 0010 13040102 		addi	s0,sp,32
 483              		.cfi_def_cfa 8, 0
 484 0014 93040500 		mv	s1,a0
 485              	.LVL38:
 486              	.LBB152:
 487              	.LBB153:
  52:src/../h/ConsumerProducer_CPP_Sync_API_test.h ****     thread_data* td;
 488              		.loc 2 52 7 is_stmt 0
 489 0018 97070000 		lla	a5,_ZTV8Producer+16
 489      93870700 
 490 0020 2330F500 		sd	a5,0(a0)
GAS LISTING /tmp/ccMeUcYP.s 			page 12


 491 0024 97000000 		call	_ZN6ThreadD2Ev@plt
 491      E7800000 
 492              	.LVL39:
 493              	.LBE153:
 494              	.LBE152:
 495 002c 13850400 		mv	a0,s1
 496 0030 97000000 		call	_ZdlPv@plt
 496      E7800000 
 497              	.LVL40:
 498 0038 83308101 		ld	ra,24(sp)
 499              		.cfi_restore 1
 500 003c 03340101 		ld	s0,16(sp)
 501              		.cfi_restore 8
 502              		.cfi_def_cfa 2, 32
 503 0040 83348100 		ld	s1,8(sp)
 504              		.cfi_restore 9
 505              	.LVL41:
 506 0044 13010102 		addi	sp,sp,32
 507              		.cfi_def_cfa_offset 0
 508 0048 67800000 		jr	ra
 509              		.cfi_endproc
 510              	.LFE135:
 512              		.section	.text._ZN16ProducerKeyboardD2Ev,"axG",@progbits,_ZN16ProducerKeyboardD5Ev,comdat
 513              		.align	2
 514              		.weak	_ZN16ProducerKeyboardD2Ev
 516              	_ZN16ProducerKeyboardD2Ev:
 517              	.LFB137:
  21:src/../h/ConsumerProducer_CPP_Sync_API_test.h ****     thread_data* td;
 518              		.loc 2 21 7 is_stmt 1
 519              		.cfi_startproc
 520              	.LVL42:
 521 0000 130101FF 		addi	sp,sp,-16
 522              		.cfi_def_cfa_offset 16
 523 0004 23341100 		sd	ra,8(sp)
 524 0008 23308100 		sd	s0,0(sp)
 525              		.cfi_offset 1, -8
 526              		.cfi_offset 8, -16
 527 000c 13040101 		addi	s0,sp,16
 528              		.cfi_def_cfa 8, 0
 529              	.LBB154:
  21:src/../h/ConsumerProducer_CPP_Sync_API_test.h ****     thread_data* td;
 530              		.loc 2 21 7 is_stmt 0
 531 0010 97070000 		lla	a5,_ZTV16ProducerKeyboard+16
 531      93870700 
 532 0018 2330F500 		sd	a5,0(a0)
 533 001c 97000000 		call	_ZN6ThreadD2Ev@plt
 533      E7800000 
 534              	.LVL43:
 535              	.LBE154:
 536 0024 83308100 		ld	ra,8(sp)
 537              		.cfi_restore 1
 538 0028 03340100 		ld	s0,0(sp)
 539              		.cfi_restore 8
 540              		.cfi_def_cfa 2, 16
 541 002c 13010101 		addi	sp,sp,16
 542              		.cfi_def_cfa_offset 0
 543 0030 67800000 		jr	ra
GAS LISTING /tmp/ccMeUcYP.s 			page 13


 544              		.cfi_endproc
 545              	.LFE137:
 547              		.weak	_ZN16ProducerKeyboardD1Ev
 548              		.set	_ZN16ProducerKeyboardD1Ev,_ZN16ProducerKeyboardD2Ev
 549              		.section	.text._ZN16ProducerKeyboardD0Ev,"axG",@progbits,_ZN16ProducerKeyboardD5Ev,comdat
 550              		.align	2
 551              		.weak	_ZN16ProducerKeyboardD0Ev
 553              	_ZN16ProducerKeyboardD0Ev:
 554              	.LFB139:
  21:src/../h/ConsumerProducer_CPP_Sync_API_test.h ****     thread_data* td;
 555              		.loc 2 21 7 is_stmt 1
 556              		.cfi_startproc
 557              	.LVL44:
 558 0000 130101FE 		addi	sp,sp,-32
 559              		.cfi_def_cfa_offset 32
 560 0004 233C1100 		sd	ra,24(sp)
 561 0008 23388100 		sd	s0,16(sp)
 562 000c 23349100 		sd	s1,8(sp)
 563              		.cfi_offset 1, -8
 564              		.cfi_offset 8, -16
 565              		.cfi_offset 9, -24
 566 0010 13040102 		addi	s0,sp,32
 567              		.cfi_def_cfa 8, 0
 568 0014 93040500 		mv	s1,a0
 569              	.LVL45:
 570              	.LBB155:
 571              	.LBB156:
  21:src/../h/ConsumerProducer_CPP_Sync_API_test.h ****     thread_data* td;
 572              		.loc 2 21 7 is_stmt 0
 573 0018 97070000 		lla	a5,_ZTV16ProducerKeyboard+16
 573      93870700 
 574 0020 2330F500 		sd	a5,0(a0)
 575 0024 97000000 		call	_ZN6ThreadD2Ev@plt
 575      E7800000 
 576              	.LVL46:
 577              	.LBE156:
 578              	.LBE155:
 579 002c 13850400 		mv	a0,s1
 580 0030 97000000 		call	_ZdlPv@plt
 580      E7800000 
 581              	.LVL47:
 582 0038 83308101 		ld	ra,24(sp)
 583              		.cfi_restore 1
 584 003c 03340101 		ld	s0,16(sp)
 585              		.cfi_restore 8
 586              		.cfi_def_cfa 2, 32
 587 0040 83348100 		ld	s1,8(sp)
 588              		.cfi_restore 9
 589              	.LVL48:
 590 0044 13010102 		addi	sp,sp,32
 591              		.cfi_def_cfa_offset 0
 592 0048 67800000 		jr	ra
 593              		.cfi_endproc
 594              	.LFE139:
 596              		.section	.text._ZN19ConsumerProducerCPP8ConsumerD2Ev,"axG",@progbits,_ZN19ConsumerProducerCPP8Cons
 597              		.align	2
 598              		.weak	_ZN19ConsumerProducerCPP8ConsumerD2Ev
GAS LISTING /tmp/ccMeUcYP.s 			page 14


 600              	_ZN19ConsumerProducerCPP8ConsumerD2Ev:
 601              	.LFB117:
 602              		.file 3 "src/../h/ConsumerProducer_CPP_API_test.h"
   1:src/../h/ConsumerProducer_CPP_API_test.h **** //
   2:src/../h/ConsumerProducer_CPP_API_test.h **** // Created by os on 4/17/22.
   3:src/../h/ConsumerProducer_CPP_API_test.h **** //
   4:src/../h/ConsumerProducer_CPP_API_test.h **** 
   5:src/../h/ConsumerProducer_CPP_API_test.h **** #ifndef XV6_CONSUMERPRODUCER_CPP_API_TEST_HPP
   6:src/../h/ConsumerProducer_CPP_API_test.h **** #define XV6_CONSUMERPRODUCER_CPP_API_TEST_HPP
   7:src/../h/ConsumerProducer_CPP_API_test.h **** 
   8:src/../h/ConsumerProducer_CPP_API_test.h **** #include "../h/syscall_cpp.h"
   9:src/../h/ConsumerProducer_CPP_API_test.h **** 
  10:src/../h/ConsumerProducer_CPP_API_test.h **** #include "buffer_CPP_API.hpp"
  11:src/../h/ConsumerProducer_CPP_API_test.h **** #include "printing.h"
  12:src/../h/ConsumerProducer_CPP_API_test.h **** 
  13:src/../h/ConsumerProducer_CPP_API_test.h **** namespace ConsumerProducerCPP {
  14:src/../h/ConsumerProducer_CPP_API_test.h **** 
  15:src/../h/ConsumerProducer_CPP_API_test.h ****     Semaphore *waitForAll;
  16:src/../h/ConsumerProducer_CPP_API_test.h **** 
  17:src/../h/ConsumerProducer_CPP_API_test.h ****     struct thread_data {
  18:src/../h/ConsumerProducer_CPP_API_test.h ****         int id;
  19:src/../h/ConsumerProducer_CPP_API_test.h ****         BufferCPP *buffer;
  20:src/../h/ConsumerProducer_CPP_API_test.h ****         Semaphore *sem;
  21:src/../h/ConsumerProducer_CPP_API_test.h ****     };
  22:src/../h/ConsumerProducer_CPP_API_test.h **** 
  23:src/../h/ConsumerProducer_CPP_API_test.h ****     volatile int threadEnd = 0;
  24:src/../h/ConsumerProducer_CPP_API_test.h **** 
  25:src/../h/ConsumerProducer_CPP_API_test.h ****     class ProducerKeyborad : public Thread {
  26:src/../h/ConsumerProducer_CPP_API_test.h ****         thread_data *td;
  27:src/../h/ConsumerProducer_CPP_API_test.h ****     public:
  28:src/../h/ConsumerProducer_CPP_API_test.h ****         ProducerKeyborad(thread_data *_td) : Thread(), td(_td) {}
  29:src/../h/ConsumerProducer_CPP_API_test.h **** 
  30:src/../h/ConsumerProducer_CPP_API_test.h ****         void run() override {
  31:src/../h/ConsumerProducer_CPP_API_test.h ****             int key;
  32:src/../h/ConsumerProducer_CPP_API_test.h ****             int i = 0;
  33:src/../h/ConsumerProducer_CPP_API_test.h ****             while ((key = getc()) != 0x1b) {
  34:src/../h/ConsumerProducer_CPP_API_test.h ****                 td->buffer->put(key);
  35:src/../h/ConsumerProducer_CPP_API_test.h ****                 i++;
  36:src/../h/ConsumerProducer_CPP_API_test.h ****             }
  37:src/../h/ConsumerProducer_CPP_API_test.h **** 
  38:src/../h/ConsumerProducer_CPP_API_test.h ****             threadEnd = 1;
  39:src/../h/ConsumerProducer_CPP_API_test.h ****             td->buffer->put('!');
  40:src/../h/ConsumerProducer_CPP_API_test.h **** 
  41:src/../h/ConsumerProducer_CPP_API_test.h ****             td->sem->signal();
  42:src/../h/ConsumerProducer_CPP_API_test.h ****         }
  43:src/../h/ConsumerProducer_CPP_API_test.h ****     };
  44:src/../h/ConsumerProducer_CPP_API_test.h **** 
  45:src/../h/ConsumerProducer_CPP_API_test.h ****     class Producer : public Thread {
  46:src/../h/ConsumerProducer_CPP_API_test.h ****         thread_data *td;
  47:src/../h/ConsumerProducer_CPP_API_test.h ****     public:
  48:src/../h/ConsumerProducer_CPP_API_test.h ****         Producer(thread_data *_td) : Thread(), td(_td) {}
  49:src/../h/ConsumerProducer_CPP_API_test.h **** 
  50:src/../h/ConsumerProducer_CPP_API_test.h ****         void run() override {
  51:src/../h/ConsumerProducer_CPP_API_test.h ****             int i = 0;
  52:src/../h/ConsumerProducer_CPP_API_test.h ****             while (!threadEnd) {
  53:src/../h/ConsumerProducer_CPP_API_test.h ****                 td->buffer->put(td->id + '0');
  54:src/../h/ConsumerProducer_CPP_API_test.h ****                 i++;
GAS LISTING /tmp/ccMeUcYP.s 			page 15


  55:src/../h/ConsumerProducer_CPP_API_test.h ****                 Thread::sleep((i+td->id)%5);
  56:src/../h/ConsumerProducer_CPP_API_test.h ****             }
  57:src/../h/ConsumerProducer_CPP_API_test.h **** 
  58:src/../h/ConsumerProducer_CPP_API_test.h ****             td->sem->signal();
  59:src/../h/ConsumerProducer_CPP_API_test.h ****         }
  60:src/../h/ConsumerProducer_CPP_API_test.h ****     };
  61:src/../h/ConsumerProducer_CPP_API_test.h **** 
  62:src/../h/ConsumerProducer_CPP_API_test.h ****     class Consumer : public Thread {
 603              		.loc 3 62 11 is_stmt 1
 604              		.cfi_startproc
 605              	.LVL49:
 606 0000 130101FF 		addi	sp,sp,-16
 607              		.cfi_def_cfa_offset 16
 608 0004 23341100 		sd	ra,8(sp)
 609 0008 23308100 		sd	s0,0(sp)
 610              		.cfi_offset 1, -8
 611              		.cfi_offset 8, -16
 612 000c 13040101 		addi	s0,sp,16
 613              		.cfi_def_cfa 8, 0
 614              	.LBB157:
 615              		.loc 3 62 11 is_stmt 0
 616 0010 97070000 		lla	a5,_ZTVN19ConsumerProducerCPP8ConsumerE+16
 616      93870700 
 617 0018 2330F500 		sd	a5,0(a0)
 618 001c 97000000 		call	_ZN6ThreadD2Ev@plt
 618      E7800000 
 619              	.LVL50:
 620              	.LBE157:
 621 0024 83308100 		ld	ra,8(sp)
 622              		.cfi_restore 1
 623 0028 03340100 		ld	s0,0(sp)
 624              		.cfi_restore 8
 625              		.cfi_def_cfa 2, 16
 626 002c 13010101 		addi	sp,sp,16
 627              		.cfi_def_cfa_offset 0
 628 0030 67800000 		jr	ra
 629              		.cfi_endproc
 630              	.LFE117:
 632              		.weak	_ZN19ConsumerProducerCPP8ConsumerD1Ev
 633              		.set	_ZN19ConsumerProducerCPP8ConsumerD1Ev,_ZN19ConsumerProducerCPP8ConsumerD2Ev
 634              		.section	.text._ZN19ConsumerProducerCPP8ConsumerD0Ev,"axG",@progbits,_ZN19ConsumerProducerCPP8Cons
 635              		.align	2
 636              		.weak	_ZN19ConsumerProducerCPP8ConsumerD0Ev
 638              	_ZN19ConsumerProducerCPP8ConsumerD0Ev:
 639              	.LFB119:
 640              		.loc 3 62 11 is_stmt 1
 641              		.cfi_startproc
 642              	.LVL51:
 643 0000 130101FE 		addi	sp,sp,-32
 644              		.cfi_def_cfa_offset 32
 645 0004 233C1100 		sd	ra,24(sp)
 646 0008 23388100 		sd	s0,16(sp)
 647 000c 23349100 		sd	s1,8(sp)
 648              		.cfi_offset 1, -8
 649              		.cfi_offset 8, -16
 650              		.cfi_offset 9, -24
 651 0010 13040102 		addi	s0,sp,32
GAS LISTING /tmp/ccMeUcYP.s 			page 16


 652              		.cfi_def_cfa 8, 0
 653 0014 93040500 		mv	s1,a0
 654              	.LVL52:
 655              	.LBB158:
 656              	.LBB159:
 657              		.loc 3 62 11 is_stmt 0
 658 0018 97070000 		lla	a5,_ZTVN19ConsumerProducerCPP8ConsumerE+16
 658      93870700 
 659 0020 2330F500 		sd	a5,0(a0)
 660 0024 97000000 		call	_ZN6ThreadD2Ev@plt
 660      E7800000 
 661              	.LVL53:
 662              	.LBE159:
 663              	.LBE158:
 664 002c 13850400 		mv	a0,s1
 665 0030 97000000 		call	_ZdlPv@plt
 665      E7800000 
 666              	.LVL54:
 667 0038 83308101 		ld	ra,24(sp)
 668              		.cfi_restore 1
 669 003c 03340101 		ld	s0,16(sp)
 670              		.cfi_restore 8
 671              		.cfi_def_cfa 2, 32
 672 0040 83348100 		ld	s1,8(sp)
 673              		.cfi_restore 9
 674              	.LVL55:
 675 0044 13010102 		addi	sp,sp,32
 676              		.cfi_def_cfa_offset 0
 677 0048 67800000 		jr	ra
 678              		.cfi_endproc
 679              	.LFE119:
 681              		.section	.text._ZN19ConsumerProducerCPP16ProducerKeyboradD2Ev,"axG",@progbits,_ZN19ConsumerProduce
 682              		.align	2
 683              		.weak	_ZN19ConsumerProducerCPP16ProducerKeyboradD2Ev
 685              	_ZN19ConsumerProducerCPP16ProducerKeyboradD2Ev:
 686              	.LFB125:
  25:src/../h/ConsumerProducer_CPP_API_test.h ****         thread_data *td;
 687              		.loc 3 25 11 is_stmt 1
 688              		.cfi_startproc
 689              	.LVL56:
 690 0000 130101FF 		addi	sp,sp,-16
 691              		.cfi_def_cfa_offset 16
 692 0004 23341100 		sd	ra,8(sp)
 693 0008 23308100 		sd	s0,0(sp)
 694              		.cfi_offset 1, -8
 695              		.cfi_offset 8, -16
 696 000c 13040101 		addi	s0,sp,16
 697              		.cfi_def_cfa 8, 0
 698              	.LBB160:
  25:src/../h/ConsumerProducer_CPP_API_test.h ****         thread_data *td;
 699              		.loc 3 25 11 is_stmt 0
 700 0010 97070000 		lla	a5,_ZTVN19ConsumerProducerCPP16ProducerKeyboradE+16
 700      93870700 
 701 0018 2330F500 		sd	a5,0(a0)
 702 001c 97000000 		call	_ZN6ThreadD2Ev@plt
 702      E7800000 
 703              	.LVL57:
GAS LISTING /tmp/ccMeUcYP.s 			page 17


 704              	.LBE160:
 705 0024 83308100 		ld	ra,8(sp)
 706              		.cfi_restore 1
 707 0028 03340100 		ld	s0,0(sp)
 708              		.cfi_restore 8
 709              		.cfi_def_cfa 2, 16
 710 002c 13010101 		addi	sp,sp,16
 711              		.cfi_def_cfa_offset 0
 712 0030 67800000 		jr	ra
 713              		.cfi_endproc
 714              	.LFE125:
 716              		.weak	_ZN19ConsumerProducerCPP16ProducerKeyboradD1Ev
 717              		.set	_ZN19ConsumerProducerCPP16ProducerKeyboradD1Ev,_ZN19ConsumerProducerCPP16ProducerKeyboradD2Ev
 718              		.section	.text._ZN19ConsumerProducerCPP16ProducerKeyboradD0Ev,"axG",@progbits,_ZN19ConsumerProduce
 719              		.align	2
 720              		.weak	_ZN19ConsumerProducerCPP16ProducerKeyboradD0Ev
 722              	_ZN19ConsumerProducerCPP16ProducerKeyboradD0Ev:
 723              	.LFB127:
  25:src/../h/ConsumerProducer_CPP_API_test.h ****         thread_data *td;
 724              		.loc 3 25 11 is_stmt 1
 725              		.cfi_startproc
 726              	.LVL58:
 727 0000 130101FE 		addi	sp,sp,-32
 728              		.cfi_def_cfa_offset 32
 729 0004 233C1100 		sd	ra,24(sp)
 730 0008 23388100 		sd	s0,16(sp)
 731 000c 23349100 		sd	s1,8(sp)
 732              		.cfi_offset 1, -8
 733              		.cfi_offset 8, -16
 734              		.cfi_offset 9, -24
 735 0010 13040102 		addi	s0,sp,32
 736              		.cfi_def_cfa 8, 0
 737 0014 93040500 		mv	s1,a0
 738              	.LVL59:
 739              	.LBB161:
 740              	.LBB162:
  25:src/../h/ConsumerProducer_CPP_API_test.h ****         thread_data *td;
 741              		.loc 3 25 11 is_stmt 0
 742 0018 97070000 		lla	a5,_ZTVN19ConsumerProducerCPP16ProducerKeyboradE+16
 742      93870700 
 743 0020 2330F500 		sd	a5,0(a0)
 744 0024 97000000 		call	_ZN6ThreadD2Ev@plt
 744      E7800000 
 745              	.LVL60:
 746              	.LBE162:
 747              	.LBE161:
 748 002c 13850400 		mv	a0,s1
 749 0030 97000000 		call	_ZdlPv@plt
 749      E7800000 
 750              	.LVL61:
 751 0038 83308101 		ld	ra,24(sp)
 752              		.cfi_restore 1
 753 003c 03340101 		ld	s0,16(sp)
 754              		.cfi_restore 8
 755              		.cfi_def_cfa 2, 32
 756 0040 83348100 		ld	s1,8(sp)
 757              		.cfi_restore 9
GAS LISTING /tmp/ccMeUcYP.s 			page 18


 758              	.LVL62:
 759 0044 13010102 		addi	sp,sp,32
 760              		.cfi_def_cfa_offset 0
 761 0048 67800000 		jr	ra
 762              		.cfi_endproc
 763              	.LFE127:
 765              		.section	.text._ZN19ConsumerProducerCPP8ProducerD2Ev,"axG",@progbits,_ZN19ConsumerProducerCPP8Prod
 766              		.align	2
 767              		.weak	_ZN19ConsumerProducerCPP8ProducerD2Ev
 769              	_ZN19ConsumerProducerCPP8ProducerD2Ev:
 770              	.LFB121:
  45:src/../h/ConsumerProducer_CPP_API_test.h ****         thread_data *td;
 771              		.loc 3 45 11 is_stmt 1
 772              		.cfi_startproc
 773              	.LVL63:
 774 0000 130101FF 		addi	sp,sp,-16
 775              		.cfi_def_cfa_offset 16
 776 0004 23341100 		sd	ra,8(sp)
 777 0008 23308100 		sd	s0,0(sp)
 778              		.cfi_offset 1, -8
 779              		.cfi_offset 8, -16
 780 000c 13040101 		addi	s0,sp,16
 781              		.cfi_def_cfa 8, 0
 782              	.LBB163:
  45:src/../h/ConsumerProducer_CPP_API_test.h ****         thread_data *td;
 783              		.loc 3 45 11 is_stmt 0
 784 0010 97070000 		lla	a5,_ZTVN19ConsumerProducerCPP8ProducerE+16
 784      93870700 
 785 0018 2330F500 		sd	a5,0(a0)
 786 001c 97000000 		call	_ZN6ThreadD2Ev@plt
 786      E7800000 
 787              	.LVL64:
 788              	.LBE163:
 789 0024 83308100 		ld	ra,8(sp)
 790              		.cfi_restore 1
 791 0028 03340100 		ld	s0,0(sp)
 792              		.cfi_restore 8
 793              		.cfi_def_cfa 2, 16
 794 002c 13010101 		addi	sp,sp,16
 795              		.cfi_def_cfa_offset 0
 796 0030 67800000 		jr	ra
 797              		.cfi_endproc
 798              	.LFE121:
 800              		.weak	_ZN19ConsumerProducerCPP8ProducerD1Ev
 801              		.set	_ZN19ConsumerProducerCPP8ProducerD1Ev,_ZN19ConsumerProducerCPP8ProducerD2Ev
 802              		.section	.text._ZN19ConsumerProducerCPP8ProducerD0Ev,"axG",@progbits,_ZN19ConsumerProducerCPP8Prod
 803              		.align	2
 804              		.weak	_ZN19ConsumerProducerCPP8ProducerD0Ev
 806              	_ZN19ConsumerProducerCPP8ProducerD0Ev:
 807              	.LFB123:
  45:src/../h/ConsumerProducer_CPP_API_test.h ****         thread_data *td;
 808              		.loc 3 45 11 is_stmt 1
 809              		.cfi_startproc
 810              	.LVL65:
 811 0000 130101FE 		addi	sp,sp,-32
 812              		.cfi_def_cfa_offset 32
 813 0004 233C1100 		sd	ra,24(sp)
GAS LISTING /tmp/ccMeUcYP.s 			page 19


 814 0008 23388100 		sd	s0,16(sp)
 815 000c 23349100 		sd	s1,8(sp)
 816              		.cfi_offset 1, -8
 817              		.cfi_offset 8, -16
 818              		.cfi_offset 9, -24
 819 0010 13040102 		addi	s0,sp,32
 820              		.cfi_def_cfa 8, 0
 821 0014 93040500 		mv	s1,a0
 822              	.LVL66:
 823              	.LBB164:
 824              	.LBB165:
  45:src/../h/ConsumerProducer_CPP_API_test.h ****         thread_data *td;
 825              		.loc 3 45 11 is_stmt 0
 826 0018 97070000 		lla	a5,_ZTVN19ConsumerProducerCPP8ProducerE+16
 826      93870700 
 827 0020 2330F500 		sd	a5,0(a0)
 828 0024 97000000 		call	_ZN6ThreadD2Ev@plt
 828      E7800000 
 829              	.LVL67:
 830              	.LBE165:
 831              	.LBE164:
 832 002c 13850400 		mv	a0,s1
 833 0030 97000000 		call	_ZdlPv@plt
 833      E7800000 
 834              	.LVL68:
 835 0038 83308101 		ld	ra,24(sp)
 836              		.cfi_restore 1
 837 003c 03340101 		ld	s0,16(sp)
 838              		.cfi_restore 8
 839              		.cfi_def_cfa 2, 32
 840 0040 83348100 		ld	s1,8(sp)
 841              		.cfi_restore 9
 842              	.LVL69:
 843 0044 13010102 		addi	sp,sp,32
 844              		.cfi_def_cfa_offset 0
 845 0048 67800000 		jr	ra
 846              		.cfi_endproc
 847              	.LFE123:
 849              		.section	.text._ZN3AAAD2Ev,"axG",@progbits,_ZN3AAAD5Ev,comdat
 850              		.align	2
 851              		.weak	_ZN3AAAD2Ev
 853              	_ZN3AAAD2Ev:
 854              	.LFB113:
 855              		.file 4 "src/userMain.cpp"
   1:src/userMain.cpp **** //#include "../h/Threads_C_API_test.h" // zadatak 2, niti C API i sinhrona promena konteksta
   2:src/userMain.cpp **** #include "../h/Threads_CPP_API_test.h" // zadatak 2., niti CPP API i sinhrona promena konteksta
   3:src/userMain.cpp **** 
   4:src/userMain.cpp **** //#include "../h/ConsumerProducer_C_API_test.h" // zadatak 3., kompletan C API sa semaforima, sinhr
   5:src/userMain.cpp **** #include "../h/ConsumerProducer_CPP_Sync_API_test.h" // zadatak 3., kompletan CPP API sa semaforima
   6:src/userMain.cpp **** 
   7:src/userMain.cpp **** #include "../h/ThreadSleep_C_API_test.h" // thread_sleep test C API
   8:src/userMain.cpp **** #include "../h/ConsumerProducer_CPP_API_test.h" // zadatak 4. CPP API i asinhrona promena konteksta
   9:src/userMain.cpp **** 
  10:src/userMain.cpp **** #include "../h/list.h"
  11:src/userMain.cpp **** 
  12:src/userMain.cpp **** ///--------------------------------------------------------------------------
  13:src/userMain.cpp **** 
GAS LISTING /tmp/ccMeUcYP.s 			page 20


  14:src/userMain.cpp **** #include "../h/Bafer.h"
  15:src/userMain.cpp **** #include "../h/scheduler.h"
  16:src/userMain.cpp **** #include "../h/syscall_cpp.h"
  17:src/userMain.cpp **** 
  18:src/userMain.cpp **** //testovi za alokaciju preko klase Memorija kernela
  19:src/userMain.cpp **** int KlasaMemorija() {
  20:src/userMain.cpp ****     Memorija::Print();
  21:src/userMain.cpp ****     void* b=Memorija::alokacija(100);
  22:src/userMain.cpp ****     Memorija::Print();
  23:src/userMain.cpp ****     void* c=Memorija::alokacija(20);
  24:src/userMain.cpp ****     Memorija::Print();
  25:src/userMain.cpp ****     void* d=Memorija::alokacija(50);
  26:src/userMain.cpp ****     Memorija::Print();
  27:src/userMain.cpp ****     void* e=Memorija::alokacija(50);
  28:src/userMain.cpp ****     Memorija::Print();
  29:src/userMain.cpp ****     print(Memorija::oslobadjanje(c));
  30:src/userMain.cpp ****     Memorija::Print();
  31:src/userMain.cpp ****     print(Memorija::oslobadjanje(e));
  32:src/userMain.cpp ****     Memorija::Print();
  33:src/userMain.cpp ****     print(Memorija::oslobadjanje(d));
  34:src/userMain.cpp ****     Memorija::Print();
  35:src/userMain.cpp ****     print(Memorija::oslobadjanje(b));
  36:src/userMain.cpp ****     Memorija::Print();
  37:src/userMain.cpp **** 
  38:src/userMain.cpp ****     putc('-');
  39:src/userMain.cpp ****     putc('\n');
  40:src/userMain.cpp ****     print((size_t)HEAP_START_ADDR);
  41:src/userMain.cpp ****     print((size_t)b);
  42:src/userMain.cpp ****     print((size_t)c);
  43:src/userMain.cpp ****     print((size_t)d);
  44:src/userMain.cpp ****     print((size_t)e);
  45:src/userMain.cpp **** 
  46:src/userMain.cpp ****     return 0;
  47:src/userMain.cpp **** }
  48:src/userMain.cpp **** 
  49:src/userMain.cpp **** //testovi za alokaciju preko prekidne rutine
  50:src/userMain.cpp **** int PrekidnaMemorija(){
  51:src/userMain.cpp ****     Memorija::Print();
  52:src/userMain.cpp ****     putc('\n');
  53:src/userMain.cpp ****     void* b=mem_alloc(20);
  54:src/userMain.cpp ****     Memorija::Print();
  55:src/userMain.cpp ****     void* c=mem_alloc(20);
  56:src/userMain.cpp ****     Memorija::Print();
  57:src/userMain.cpp ****     mem_alloc(54);
  58:src/userMain.cpp ****     Memorija::Print();
  59:src/userMain.cpp ****     mem_free(c);
  60:src/userMain.cpp ****     Memorija::Print();
  61:src/userMain.cpp ****     mem_free(b);
  62:src/userMain.cpp ****     print((size_t)b - (size_t)HEAP_START_ADDR);
  63:src/userMain.cpp ****     print((size_t)c - (size_t)HEAP_START_ADDR);
  64:src/userMain.cpp **** 
  65:src/userMain.cpp ****     return 0;
  66:src/userMain.cpp **** }
  67:src/userMain.cpp **** 
  68:src/userMain.cpp **** //testovi za scheduler, testira da li radi ulancavanje thredova
  69:src/userMain.cpp **** int SchedulerTest(){
  70:src/userMain.cpp ****     Nit *t1 = new Nit();
GAS LISTING /tmp/ccMeUcYP.s 			page 21


  71:src/userMain.cpp ****     Nit *t2 = new Nit();
  72:src/userMain.cpp ****     Nit *t3 = new Nit();
  73:src/userMain.cpp ****     Nit *t4 = new Nit();
  74:src/userMain.cpp **** 
  75:src/userMain.cpp ****     //print("Memorija:\n");
  76:src/userMain.cpp ****     //Memorija::Print();
  77:src/userMain.cpp ****     Scheduler::put(t1);
  78:src/userMain.cpp ****     Scheduler::Print();
  79:src/userMain.cpp ****     Scheduler::put(t2);
  80:src/userMain.cpp ****     Scheduler::Print();
  81:src/userMain.cpp ****     Scheduler::put(t3);
  82:src/userMain.cpp ****     Scheduler::Print();
  83:src/userMain.cpp ****     Scheduler::put(t4);
  84:src/userMain.cpp ****     Scheduler::Print();
  85:src/userMain.cpp ****     //print("Memorija:\n");
  86:src/userMain.cpp ****     //Memorija::Print();
  87:src/userMain.cpp ****     Scheduler::get();
  88:src/userMain.cpp ****     Scheduler::Print();
  89:src/userMain.cpp ****     Scheduler::get();
  90:src/userMain.cpp ****     Scheduler::Print();
  91:src/userMain.cpp ****     Scheduler::get();
  92:src/userMain.cpp ****     //print("Memorija:\n");
  93:src/userMain.cpp ****     //Memorija::Print();
  94:src/userMain.cpp ****     Scheduler::Print();
  95:src/userMain.cpp ****     Scheduler::get();
  96:src/userMain.cpp ****     Scheduler::Print();
  97:src/userMain.cpp ****     Scheduler::get();
  98:src/userMain.cpp ****     Scheduler::Print();
  99:src/userMain.cpp ****     Scheduler::put(t1);
 100:src/userMain.cpp ****     Scheduler::Print();
 101:src/userMain.cpp ****     Scheduler::get();
 102:src/userMain.cpp ****     Scheduler::Print();
 103:src/userMain.cpp **** 
 104:src/userMain.cpp **** 
 105:src/userMain.cpp ****     return 0;
 106:src/userMain.cpp **** }
 107:src/userMain.cpp **** 
 108:src/userMain.cpp **** //test za semafore i za sleep i sta sve ne
 109:src/userMain.cpp **** Semafor *s;
 110:src/userMain.cpp **** void f1(void* a){
 111:src/userMain.cpp ****     print("funkcija1A\n");
 112:src/userMain.cpp ****     Nit::yeild();
 113:src/userMain.cpp ****     //while(1)
 114:src/userMain.cpp ****     print("funkcija1B\n");
 115:src/userMain.cpp ****     //Scheduler::threadsleep(50);
 116:src/userMain.cpp ****     sem_wait(s);
 117:src/userMain.cpp ****     Nit::yeild();
 118:src/userMain.cpp ****     print("funkcija1C\n");
 119:src/userMain.cpp ****     Nit::yeild();
 120:src/userMain.cpp ****     print("funkcija1D\n");
 121:src/userMain.cpp ****     Nit::yeild();
 122:src/userMain.cpp ****     print("funkcija1E\n");
 123:src/userMain.cpp ****     //sem_close();
 124:src/userMain.cpp **** }
 125:src/userMain.cpp **** void f2(void* a){
 126:src/userMain.cpp ****     //Scheduler::threadsleep(50);
 127:src/userMain.cpp ****     print("funkcija2A\n");
GAS LISTING /tmp/ccMeUcYP.s 			page 22


 128:src/userMain.cpp ****     Nit::yeild();
 129:src/userMain.cpp ****     print("funkcija2B\n");
 130:src/userMain.cpp ****     Nit::yeild();
 131:src/userMain.cpp ****     print("funkcija2C\n");
 132:src/userMain.cpp ****     Nit::yeild();
 133:src/userMain.cpp ****     print("funkcija2D\n");
 134:src/userMain.cpp ****     Nit::yeild();
 135:src/userMain.cpp ****     print("funkcija2E\n");
 136:src/userMain.cpp ****     print(sem_close(s));
 137:src/userMain.cpp **** 
 138:src/userMain.cpp ****     //Thread *t;
 139:src/userMain.cpp ****     //thread_create(&t,&f1,nullptr);
 140:src/userMain.cpp **** }
 141:src/userMain.cpp **** void f3(void* a){
 142:src/userMain.cpp ****     print("funkcija3A\n");
 143:src/userMain.cpp ****     Nit::yeild();
 144:src/userMain.cpp ****     print(sem_wait(s));
 145:src/userMain.cpp ****     print("funkcija3B\n");
 146:src/userMain.cpp ****     Nit::yeild();
 147:src/userMain.cpp ****     print("funkcija3C\n");
 148:src/userMain.cpp ****     Nit::yeild();
 149:src/userMain.cpp ****     print("funkcija3D\n");
 150:src/userMain.cpp ****     Nit::yeild();
 151:src/userMain.cpp ****     print("funkcija3E\n");
 152:src/userMain.cpp **** }
 153:src/userMain.cpp **** void mojtest(){
 154:src/userMain.cpp ****     Nit *t1,*t2,*t3;
 155:src/userMain.cpp **** 
 156:src/userMain.cpp ****     thread_create(&t1,&f1,nullptr);
 157:src/userMain.cpp ****     thread_create(&t2,&f2,nullptr);
 158:src/userMain.cpp ****     thread_create(&t3,&f3,nullptr);
 159:src/userMain.cpp **** 
 160:src/userMain.cpp ****     Scheduler::Print();
 161:src/userMain.cpp **** 
 162:src/userMain.cpp ****     sem_open(&s,0);
 163:src/userMain.cpp **** 
 164:src/userMain.cpp ****     while(Scheduler::imaniti());
 165:src/userMain.cpp **** 
 166:src/userMain.cpp **** }
 167:src/userMain.cpp **** 
 168:src/userMain.cpp **** //test za bafer
 169:src/userMain.cpp **** void bafer1(void* a){
 170:src/userMain.cpp ****     for(int i=0;i<30;i++){
 171:src/userMain.cpp ****         putc(i+'a');
 172:src/userMain.cpp ****         time_sleep((i+1)*5);
 173:src/userMain.cpp ****     }
 174:src/userMain.cpp **** }
 175:src/userMain.cpp **** void bafer2(void* a){
 176:src/userMain.cpp ****     for(int i=0;i<30;i++){
 177:src/userMain.cpp ****         int g=getc();
 178:src/userMain.cpp ****         if(g!=-1){
 179:src/userMain.cpp ****             print(g);
 180:src/userMain.cpp ****             //b->Print();
 181:src/userMain.cpp ****         }
 182:src/userMain.cpp ****         time_sleep(20);
 183:src/userMain.cpp ****     }
 184:src/userMain.cpp **** }
GAS LISTING /tmp/ccMeUcYP.s 			page 23


 185:src/userMain.cpp **** void testbafer(){
 186:src/userMain.cpp **** 
 187:src/userMain.cpp ****     putc('b');
 188:src/userMain.cpp ****     Bafer B(20);
 189:src/userMain.cpp **** 
 190:src/userMain.cpp ****     Nit *t1,*t2;
 191:src/userMain.cpp ****     thread_create(&t1,bafer1,&B);
 192:src/userMain.cpp ****     thread_create(&t2,bafer2,&B);
 193:src/userMain.cpp **** 
 194:src/userMain.cpp ****     Scheduler::Print();
 195:src/userMain.cpp **** 
 196:src/userMain.cpp ****     while(Scheduler::imaniti()){
 197:src/userMain.cpp ****         //Scheduler::Print();
 198:src/userMain.cpp ****         //print('a');
 199:src/userMain.cpp ****     }
 200:src/userMain.cpp **** }
 201:src/userMain.cpp **** 
 202:src/userMain.cpp **** void alo(){
 203:src/userMain.cpp ****     printInt(10);
 204:src/userMain.cpp **** }
 205:src/userMain.cpp **** 
 206:src/userMain.cpp **** class AAA:public PeriodicThread{
 856              		.loc 4 206 7 is_stmt 1
 857              		.cfi_startproc
 858              	.LVL70:
 859 0000 130101FF 		addi	sp,sp,-16
 860              		.cfi_def_cfa_offset 16
 861 0004 23341100 		sd	ra,8(sp)
 862 0008 23308100 		sd	s0,0(sp)
 863              		.cfi_offset 1, -8
 864              		.cfi_offset 8, -16
 865 000c 13040101 		addi	s0,sp,16
 866              		.cfi_def_cfa 8, 0
 867              	.LVL71:
 868              	.LBB166:
 869              	.LBB167:
 870              		.file 5 "src/../h/../h/syscall_cpp.h"
   1:src/../h/../h/syscall_cpp.h **** 
   2:src/../h/../h/syscall_cpp.h **** #ifndef _syscall_cpp
   3:src/../h/../h/syscall_cpp.h **** #define _syscall_cpp
   4:src/../h/../h/syscall_cpp.h **** 
   5:src/../h/../h/syscall_cpp.h **** #include "syscall_c.h"
   6:src/../h/../h/syscall_cpp.h **** #include "../h/print.h"
   7:src/../h/../h/syscall_cpp.h **** void* operator new (size_t);
   8:src/../h/../h/syscall_cpp.h **** void operator delete (void*);
   9:src/../h/../h/syscall_cpp.h **** 
  10:src/../h/../h/syscall_cpp.h **** class Thread {
  11:src/../h/../h/syscall_cpp.h **** public:
  12:src/../h/../h/syscall_cpp.h ****     Thread (void (*body)(void*), void* arg);
  13:src/../h/../h/syscall_cpp.h ****     virtual ~Thread ();
  14:src/../h/../h/syscall_cpp.h ****     int start ();
  15:src/../h/../h/syscall_cpp.h ****     static void dispatch ();
  16:src/../h/../h/syscall_cpp.h ****     static int sleep (time_t);
  17:src/../h/../h/syscall_cpp.h **** protected:
  18:src/../h/../h/syscall_cpp.h ****     Thread ();
  19:src/../h/../h/syscall_cpp.h ****     virtual void run () {}
  20:src/../h/../h/syscall_cpp.h **** private:
GAS LISTING /tmp/ccMeUcYP.s 			page 24


  21:src/../h/../h/syscall_cpp.h ****     static void omotac(void*);
  22:src/../h/../h/syscall_cpp.h ****     thread_t myHandle;
  23:src/../h/../h/syscall_cpp.h **** };
  24:src/../h/../h/syscall_cpp.h **** class Semaphore {
  25:src/../h/../h/syscall_cpp.h **** public:
  26:src/../h/../h/syscall_cpp.h ****     Semaphore (unsigned init = 1);
  27:src/../h/../h/syscall_cpp.h ****     virtual ~Semaphore ();
  28:src/../h/../h/syscall_cpp.h ****     int wait ();
  29:src/../h/../h/syscall_cpp.h ****     int signal ();
  30:src/../h/../h/syscall_cpp.h **** private:
  31:src/../h/../h/syscall_cpp.h ****     sem_t myHandle;
  32:src/../h/../h/syscall_cpp.h **** };
  33:src/../h/../h/syscall_cpp.h **** class PeriodicThread : public Thread {
 871              		.loc 5 33 7 is_stmt 0
 872 0010 97070000 		la	a5,_ZTV14PeriodicThread
 872      83B70700 
 873 0018 93870701 		addi	a5,a5,16
 874 001c 2330F500 		sd	a5,0(a0)
 875 0020 97000000 		call	_ZN6ThreadD2Ev@plt
 875      E7800000 
 876              	.LVL72:
 877              	.LBE167:
 878              	.LBE166:
 879              		.loc 4 206 7
 880 0028 83308100 		ld	ra,8(sp)
 881              		.cfi_restore 1
 882 002c 03340100 		ld	s0,0(sp)
 883              		.cfi_restore 8
 884              		.cfi_def_cfa 2, 16
 885 0030 13010101 		addi	sp,sp,16
 886              		.cfi_def_cfa_offset 0
 887 0034 67800000 		jr	ra
 888              		.cfi_endproc
 889              	.LFE113:
 891              		.weak	_ZN3AAAD1Ev
 892              		.set	_ZN3AAAD1Ev,_ZN3AAAD2Ev
 893              		.section	.text._ZN3AAAD0Ev,"axG",@progbits,_ZN3AAAD5Ev,comdat
 894              		.align	2
 895              		.weak	_ZN3AAAD0Ev
 897              	_ZN3AAAD0Ev:
 898              	.LFB115:
 899              		.loc 4 206 7 is_stmt 1
 900              		.cfi_startproc
 901              	.LVL73:
 902 0000 130101FE 		addi	sp,sp,-32
 903              		.cfi_def_cfa_offset 32
 904 0004 233C1100 		sd	ra,24(sp)
 905 0008 23388100 		sd	s0,16(sp)
 906 000c 23349100 		sd	s1,8(sp)
 907              		.cfi_offset 1, -8
 908              		.cfi_offset 8, -16
 909              		.cfi_offset 9, -24
 910 0010 13040102 		addi	s0,sp,32
 911              		.cfi_def_cfa 8, 0
 912 0014 93040500 		mv	s1,a0
 913              	.LVL74:
 914              	.LBB168:
GAS LISTING /tmp/ccMeUcYP.s 			page 25


 915              	.LBB169:
 916              	.LBB170:
 917              		.loc 5 33 7 is_stmt 0
 918 0018 97070000 		la	a5,_ZTV14PeriodicThread
 918      83B70700 
 919 0020 93870701 		addi	a5,a5,16
 920 0024 2330F500 		sd	a5,0(a0)
 921 0028 97000000 		call	_ZN6ThreadD2Ev@plt
 921      E7800000 
 922              	.LVL75:
 923              	.LBE170:
 924              	.LBE169:
 925              	.LBE168:
 926              		.loc 4 206 7
 927 0030 13850400 		mv	a0,s1
 928 0034 97000000 		call	_ZdlPv@plt
 928      E7800000 
 929              	.LVL76:
 930 003c 83308101 		ld	ra,24(sp)
 931              		.cfi_restore 1
 932 0040 03340101 		ld	s0,16(sp)
 933              		.cfi_restore 8
 934              		.cfi_def_cfa 2, 32
 935 0044 83348100 		ld	s1,8(sp)
 936              		.cfi_restore 9
 937              	.LVL77:
 938 0048 13010102 		addi	sp,sp,32
 939              		.cfi_def_cfa_offset 0
 940 004c 67800000 		jr	ra
 941              		.cfi_endproc
 942              	.LFE115:
 944              		.section	.text._ZN19ConsumerProducerCPP16ProducerKeyborad3runEv,"axG",@progbits,_ZN19ConsumerProdu
 945              		.align	2
 946              		.weak	_ZN19ConsumerProducerCPP16ProducerKeyborad3runEv
 948              	_ZN19ConsumerProducerCPP16ProducerKeyborad3runEv:
 949              	.LFB45:
  30:src/../h/ConsumerProducer_CPP_API_test.h ****             int key;
 950              		.loc 3 30 14 is_stmt 1
 951              		.cfi_startproc
 952              	.LVL78:
 953 0000 130101FE 		addi	sp,sp,-32
 954              		.cfi_def_cfa_offset 32
 955 0004 233C1100 		sd	ra,24(sp)
 956 0008 23388100 		sd	s0,16(sp)
 957 000c 23349100 		sd	s1,8(sp)
 958              		.cfi_offset 1, -8
 959              		.cfi_offset 8, -16
 960              		.cfi_offset 9, -24
 961 0010 13040102 		addi	s0,sp,32
 962              		.cfi_def_cfa 8, 0
 963 0014 93040500 		mv	s1,a0
  31:src/../h/ConsumerProducer_CPP_API_test.h ****             int i = 0;
 964              		.loc 3 31 13
  32:src/../h/ConsumerProducer_CPP_API_test.h ****             while ((key = getc()) != 0x1b) {
 965              		.loc 3 32 13
 966              	.LVL79:
 967              	.L47:
GAS LISTING /tmp/ccMeUcYP.s 			page 26


  33:src/../h/ConsumerProducer_CPP_API_test.h ****                 td->buffer->put(key);
 968              		.loc 3 33 13
  33:src/../h/ConsumerProducer_CPP_API_test.h ****                 td->buffer->put(key);
 969              		.loc 3 33 35
  33:src/../h/ConsumerProducer_CPP_API_test.h ****                 td->buffer->put(key);
 970              		.loc 3 33 31 is_stmt 0
 971 0018 97000000 		call	_Z4getcv@plt
 971      E7800000 
 972              	.LVL80:
  33:src/../h/ConsumerProducer_CPP_API_test.h ****                 td->buffer->put(key);
 973              		.loc 3 33 25
 974 0020 9B050500 		sext.w	a1,a0
 975              	.LVL81:
  33:src/../h/ConsumerProducer_CPP_API_test.h ****                 td->buffer->put(key);
 976              		.loc 3 33 35
 977 0024 9307B001 		li	a5,27
 978 0028 638CF500 		beq	a1,a5,.L46
  34:src/../h/ConsumerProducer_CPP_API_test.h ****                 i++;
 979              		.loc 3 34 17 is_stmt 1
 980 002c 83B70401 		ld	a5,16(s1)
  34:src/../h/ConsumerProducer_CPP_API_test.h ****                 i++;
 981              		.loc 3 34 32 is_stmt 0
 982 0030 03B58700 		ld	a0,8(a5)
 983 0034 97000000 		call	_ZN9BufferCPP3putEi@plt
 983      E7800000 
 984              	.LVL82:
  35:src/../h/ConsumerProducer_CPP_API_test.h ****             }
 985              		.loc 3 35 17 is_stmt 1
  33:src/../h/ConsumerProducer_CPP_API_test.h ****                 td->buffer->put(key);
 986              		.loc 3 33 13 is_stmt 0
 987 003c 6FF0DFFD 		j	.L47
 988              	.LVL83:
 989              	.L46:
  38:src/../h/ConsumerProducer_CPP_API_test.h ****             td->buffer->put('!');
 990              		.loc 3 38 13 is_stmt 1
  38:src/../h/ConsumerProducer_CPP_API_test.h ****             td->buffer->put('!');
 991              		.loc 3 38 23 is_stmt 0
 992 0040 93071000 		li	a5,1
 993 0044 17070000 		sw	a5,.LANCHOR0,a4
 993      2320F700 
  39:src/../h/ConsumerProducer_CPP_API_test.h **** 
 994              		.loc 3 39 13 is_stmt 1
 995 004c 83B70401 		ld	a5,16(s1)
  39:src/../h/ConsumerProducer_CPP_API_test.h **** 
 996              		.loc 3 39 28 is_stmt 0
 997 0050 93051002 		li	a1,33
 998              	.LVL84:
 999 0054 03B58700 		ld	a0,8(a5)
 1000              	.LVL85:
 1001 0058 97000000 		call	_ZN9BufferCPP3putEi@plt
 1001      E7800000 
 1002              	.LVL86:
  41:src/../h/ConsumerProducer_CPP_API_test.h ****         }
 1003              		.loc 3 41 13 is_stmt 1
 1004 0060 83B70401 		ld	a5,16(s1)
  41:src/../h/ConsumerProducer_CPP_API_test.h ****         }
 1005              		.loc 3 41 28 is_stmt 0
GAS LISTING /tmp/ccMeUcYP.s 			page 27


 1006 0064 03B50701 		ld	a0,16(a5)
 1007 0068 97000000 		call	_ZN9Semaphore6signalEv@plt
 1007      E7800000 
 1008              	.LVL87:
  42:src/../h/ConsumerProducer_CPP_API_test.h ****     };
 1009              		.loc 3 42 9
 1010 0070 83308101 		ld	ra,24(sp)
 1011              		.cfi_restore 1
 1012 0074 03340101 		ld	s0,16(sp)
 1013              		.cfi_restore 8
 1014              		.cfi_def_cfa 2, 32
 1015 0078 83348100 		ld	s1,8(sp)
 1016              		.cfi_restore 9
 1017              	.LVL88:
 1018 007c 13010102 		addi	sp,sp,32
 1019              		.cfi_def_cfa_offset 0
 1020 0080 67800000 		jr	ra
 1021              		.cfi_endproc
 1022              	.LFE45:
 1024              		.section	.text._ZN19ConsumerProducerCPP8Consumer3runEv,"axG",@progbits,_ZN19ConsumerProducerCPP8Co
 1025              		.align	2
 1026              		.weak	_ZN19ConsumerProducerCPP8Consumer3runEv
 1028              	_ZN19ConsumerProducerCPP8Consumer3runEv:
 1029              	.LFB53:
  63:src/../h/ConsumerProducer_CPP_API_test.h ****         thread_data *td;
  64:src/../h/ConsumerProducer_CPP_API_test.h ****     public:
  65:src/../h/ConsumerProducer_CPP_API_test.h ****         Consumer(thread_data *_td) : Thread(), td(_td) {}
  66:src/../h/ConsumerProducer_CPP_API_test.h **** 
  67:src/../h/ConsumerProducer_CPP_API_test.h ****         void run() override {
 1030              		.loc 3 67 14 is_stmt 1
 1031              		.cfi_startproc
 1032              	.LVL89:
 1033 0000 130101FD 		addi	sp,sp,-48
 1034              		.cfi_def_cfa_offset 48
 1035 0004 23341102 		sd	ra,40(sp)
 1036 0008 23308102 		sd	s0,32(sp)
 1037 000c 233C9100 		sd	s1,24(sp)
 1038 0010 23382101 		sd	s2,16(sp)
 1039 0014 23343101 		sd	s3,8(sp)
 1040              		.cfi_offset 1, -8
 1041              		.cfi_offset 8, -16
 1042              		.cfi_offset 9, -24
 1043              		.cfi_offset 18, -32
 1044              		.cfi_offset 19, -40
 1045 0018 13040103 		addi	s0,sp,48
 1046              		.cfi_def_cfa 8, 0
 1047 001c 13090500 		mv	s2,a0
  68:src/../h/ConsumerProducer_CPP_API_test.h ****             int i = 0;
 1048              		.loc 3 68 13
 1049              	.LVL90:
 1050              		.loc 3 68 17 is_stmt 0
 1051 0020 93090000 		li	s3,0
 1052 0024 6F000001 		j	.L50
 1053              	.LVL91:
 1054              	.L55:
 1055              	.LBB171:
  69:src/../h/ConsumerProducer_CPP_API_test.h ****             while (!threadEnd) {
GAS LISTING /tmp/ccMeUcYP.s 			page 28


  70:src/../h/ConsumerProducer_CPP_API_test.h ****                 int key = td->buffer->get();
  71:src/../h/ConsumerProducer_CPP_API_test.h ****                 i++;
  72:src/../h/ConsumerProducer_CPP_API_test.h **** 
  73:src/../h/ConsumerProducer_CPP_API_test.h ****                 Console::putc(key);
  74:src/../h/ConsumerProducer_CPP_API_test.h **** 
  75:src/../h/ConsumerProducer_CPP_API_test.h ****                 if (i % 80 == 0) {
  76:src/../h/ConsumerProducer_CPP_API_test.h ****                     Console::putc('\n');
 1056              		.loc 3 76 21 is_stmt 1
 1057              		.loc 3 76 34 is_stmt 0
 1058 0028 1305A000 		li	a0,10
 1059 002c 97000000 		call	_ZN7Console4putcEc@plt
 1059      E7800000 
 1060              	.LVL92:
 1061              	.L50:
 1062              	.LBE171:
  69:src/../h/ConsumerProducer_CPP_API_test.h ****             while (!threadEnd) {
 1063              		.loc 3 69 13 is_stmt 1
  69:src/../h/ConsumerProducer_CPP_API_test.h ****             while (!threadEnd) {
 1064              		.loc 3 69 20
 1065 0034 97070000 		lw	a5,.LANCHOR0
 1065      83A70700 
 1066 003c 639A0704 		bnez	a5,.L51
 1067              	.LBB172:
  70:src/../h/ConsumerProducer_CPP_API_test.h ****                 i++;
 1068              		.loc 3 70 17
  70:src/../h/ConsumerProducer_CPP_API_test.h ****                 i++;
 1069              		.loc 3 70 27 is_stmt 0
 1070 0040 83370901 		ld	a5,16(s2)
  70:src/../h/ConsumerProducer_CPP_API_test.h ****                 i++;
 1071              		.loc 3 70 42
 1072 0044 03B58700 		ld	a0,8(a5)
 1073 0048 97000000 		call	_ZN9BufferCPP3getEv@plt
 1073      E7800000 
 1074              	.LVL93:
  71:src/../h/ConsumerProducer_CPP_API_test.h **** 
 1075              		.loc 3 71 17 is_stmt 1
  71:src/../h/ConsumerProducer_CPP_API_test.h **** 
 1076              		.loc 3 71 18 is_stmt 0
 1077 0050 9B841900 		addiw	s1,s3,1
 1078 0054 9B890400 		sext.w	s3,s1
 1079              	.LVL94:
  73:src/../h/ConsumerProducer_CPP_API_test.h **** 
 1080              		.loc 3 73 17 is_stmt 1
  73:src/../h/ConsumerProducer_CPP_API_test.h **** 
 1081              		.loc 3 73 30 is_stmt 0
 1082 0058 1375F50F 		andi	a0,a0,0xff
 1083              	.LVL95:
 1084 005c 97000000 		call	_ZN7Console4putcEc@plt
 1084      E7800000 
 1085              	.LVL96:
  75:src/../h/ConsumerProducer_CPP_API_test.h ****                     Console::putc('\n');
 1086              		.loc 3 75 17 is_stmt 1
  75:src/../h/ConsumerProducer_CPP_API_test.h ****                     Console::putc('\n');
 1087              		.loc 3 75 23 is_stmt 0
 1088 0064 93070005 		li	a5,80
 1089 0068 BBE4F402 		remw	s1,s1,a5
 1090              	.LVL97:
GAS LISTING /tmp/ccMeUcYP.s 			page 29


  75:src/../h/ConsumerProducer_CPP_API_test.h ****                     Console::putc('\n');
 1091              		.loc 3 75 17
 1092 006c E39404FC 		bnez	s1,.L50
 1093 0070 6FF09FFB 		j	.L55
 1094              	.L56:
 1095              	.LBE172:
 1096              	.LBB173:
  77:src/../h/ConsumerProducer_CPP_API_test.h ****                 }
  78:src/../h/ConsumerProducer_CPP_API_test.h ****             }
  79:src/../h/ConsumerProducer_CPP_API_test.h **** 
  80:src/../h/ConsumerProducer_CPP_API_test.h ****             while (td->buffer->getCnt() > 0) {
  81:src/../h/ConsumerProducer_CPP_API_test.h ****                 int key = td->buffer->get();
 1097              		.loc 3 81 17 is_stmt 1
 1098              		.loc 3 81 27 is_stmt 0
 1099 0074 83370901 		ld	a5,16(s2)
 1100              		.loc 3 81 42
 1101 0078 03B58700 		ld	a0,8(a5)
 1102 007c 97000000 		call	_ZN9BufferCPP3getEv@plt
 1102      E7800000 
 1103              	.LVL98:
  82:src/../h/ConsumerProducer_CPP_API_test.h ****                 Console::putc(key);
 1104              		.loc 3 82 17 is_stmt 1
 1105              		.loc 3 82 30 is_stmt 0
 1106 0084 1375F50F 		andi	a0,a0,0xff
 1107              	.LVL99:
 1108 0088 97000000 		call	_ZN7Console4putcEc@plt
 1108      E7800000 
 1109              	.LVL100:
 1110              	.L51:
 1111              	.LBE173:
  80:src/../h/ConsumerProducer_CPP_API_test.h ****                 int key = td->buffer->get();
 1112              		.loc 3 80 13 is_stmt 1
  80:src/../h/ConsumerProducer_CPP_API_test.h ****                 int key = td->buffer->get();
 1113              		.loc 3 80 41
  80:src/../h/ConsumerProducer_CPP_API_test.h ****                 int key = td->buffer->get();
 1114              		.loc 3 80 20 is_stmt 0
 1115 0090 83370901 		ld	a5,16(s2)
  80:src/../h/ConsumerProducer_CPP_API_test.h ****                 int key = td->buffer->get();
 1116              		.loc 3 80 38
 1117 0094 03B58700 		ld	a0,8(a5)
 1118 0098 97000000 		call	_ZN9BufferCPP6getCntEv@plt
 1118      E7800000 
 1119              	.LVL101:
  80:src/../h/ConsumerProducer_CPP_API_test.h ****                 int key = td->buffer->get();
 1120              		.loc 3 80 41
 1121 00a0 E34AA0FC 		bgtz	a0,.L56
  83:src/../h/ConsumerProducer_CPP_API_test.h ****             }
  84:src/../h/ConsumerProducer_CPP_API_test.h **** 
  85:src/../h/ConsumerProducer_CPP_API_test.h ****             td->sem->signal();
 1122              		.loc 3 85 13 is_stmt 1
 1123 00a4 83370901 		ld	a5,16(s2)
 1124              		.loc 3 85 28 is_stmt 0
 1125 00a8 03B50701 		ld	a0,16(a5)
 1126 00ac 97000000 		call	_ZN9Semaphore6signalEv@plt
 1126      E7800000 
 1127              	.LVL102:
  86:src/../h/ConsumerProducer_CPP_API_test.h ****         }
GAS LISTING /tmp/ccMeUcYP.s 			page 30


 1128              		.loc 3 86 9
 1129 00b4 83308102 		ld	ra,40(sp)
 1130              		.cfi_restore 1
 1131 00b8 03340102 		ld	s0,32(sp)
 1132              		.cfi_restore 8
 1133              		.cfi_def_cfa 2, 48
 1134 00bc 83348101 		ld	s1,24(sp)
 1135              		.cfi_restore 9
 1136 00c0 03390101 		ld	s2,16(sp)
 1137              		.cfi_restore 18
 1138              	.LVL103:
 1139 00c4 83398100 		ld	s3,8(sp)
 1140              		.cfi_restore 19
 1141              	.LVL104:
 1142 00c8 13010103 		addi	sp,sp,48
 1143              		.cfi_def_cfa_offset 0
 1144 00cc 67800000 		jr	ra
 1145              		.cfi_endproc
 1146              	.LFE53:
 1148              		.section	.rodata.str1.8,"aMS",@progbits,1
 1149              		.align	3
 1150              	.LC0:
 1151 0000 48656C6C 		.string	"Hello "
 1151      6F2000
 1152 0007 00       		.align	3
 1153              	.LC1:
 1154 0008 20210A00 		.string	" !\n"
 1155              		.text
 1156              		.align	2
 1157              		.globl	_Z9sleepyRunPv
 1159              	_Z9sleepyRunPv:
 1160              	.LFB40:
 1161              		.file 6 "src/../h/ThreadSleep_C_API_test.h"
   1:src/../h/ThreadSleep_C_API_test.h **** //
   2:src/../h/ThreadSleep_C_API_test.h **** // Created by os on 4/17/22.
   3:src/../h/ThreadSleep_C_API_test.h **** //
   4:src/../h/ThreadSleep_C_API_test.h **** 
   5:src/../h/ThreadSleep_C_API_test.h **** #ifndef XV6_THREADSLEEP_C_API_TEST_HPP
   6:src/../h/ThreadSleep_C_API_test.h **** #define XV6_THREADSLEEP_C_API_TEST_HPP
   7:src/../h/ThreadSleep_C_API_test.h **** 
   8:src/../h/ThreadSleep_C_API_test.h **** #include "../h/syscall_c.h"
   9:src/../h/ThreadSleep_C_API_test.h **** 
  10:src/../h/ThreadSleep_C_API_test.h **** #include "printing.h"
  11:src/../h/ThreadSleep_C_API_test.h **** 
  12:src/../h/ThreadSleep_C_API_test.h **** bool finished[2];
  13:src/../h/ThreadSleep_C_API_test.h **** 
  14:src/../h/ThreadSleep_C_API_test.h **** void sleepyRun(void *arg) {
 1162              		.loc 6 14 27 is_stmt 1
 1163              		.cfi_startproc
 1164              	.LVL105:
 1165 0000 130101FE 		addi	sp,sp,-32
 1166              		.cfi_def_cfa_offset 32
 1167 0004 233C1100 		sd	ra,24(sp)
 1168 0008 23388100 		sd	s0,16(sp)
 1169 000c 23349100 		sd	s1,8(sp)
 1170 0010 23302101 		sd	s2,0(sp)
 1171              		.cfi_offset 1, -8
GAS LISTING /tmp/ccMeUcYP.s 			page 31


 1172              		.cfi_offset 8, -16
 1173              		.cfi_offset 9, -24
 1174              		.cfi_offset 18, -32
 1175 0014 13040102 		addi	s0,sp,32
 1176              		.cfi_def_cfa 8, 0
  15:src/../h/ThreadSleep_C_API_test.h ****     time_t sleep_time = *((time_t *) arg);
 1177              		.loc 6 15 5
 1178              		.loc 6 15 12 is_stmt 0
 1179 0018 03390500 		ld	s2,0(a0)
 1180              	.LVL106:
  16:src/../h/ThreadSleep_C_API_test.h ****     int i = 6;
 1181              		.loc 6 16 5 is_stmt 1
 1182              		.loc 6 16 9 is_stmt 0
 1183 001c 93046000 		li	s1,6
 1184              	.LVL107:
 1185              	.L59:
  17:src/../h/ThreadSleep_C_API_test.h ****     while (--i > 0) {
 1186              		.loc 6 17 5 is_stmt 1
 1187              		.loc 6 17 16
 1188 0020 9B84F4FF 		addiw	s1,s1,-1
 1189              	.LVL108:
 1190 0024 63549004 		blez	s1,.L58
  18:src/../h/ThreadSleep_C_API_test.h **** 
  19:src/../h/ThreadSleep_C_API_test.h ****         printString("Hello ");
 1191              		.loc 6 19 9
 1192              		.loc 6 19 20 is_stmt 0
 1193 0028 17050000 		lla	a0,.LC0
 1193      13050500 
 1194 0030 97000000 		call	_Z11printStringPKc@plt
 1194      E7800000 
 1195              	.LVL109:
  20:src/../h/ThreadSleep_C_API_test.h ****         printInt(sleep_time);
 1196              		.loc 6 20 9 is_stmt 1
 1197              		.loc 6 20 17 is_stmt 0
 1198 0038 13060000 		li	a2,0
 1199 003c 9305A000 		li	a1,10
 1200 0040 1B050900 		sext.w	a0,s2
 1201 0044 97000000 		call	_Z8printIntiii@plt
 1201      E7800000 
 1202              	.LVL110:
  21:src/../h/ThreadSleep_C_API_test.h ****         printString(" !\n");
 1203              		.loc 6 21 9 is_stmt 1
 1204              		.loc 6 21 20 is_stmt 0
 1205 004c 17050000 		lla	a0,.LC1
 1205      13050500 
 1206 0054 97000000 		call	_Z11printStringPKc@plt
 1206      E7800000 
 1207              	.LVL111:
  22:src/../h/ThreadSleep_C_API_test.h ****         time_sleep(sleep_time);
 1208              		.loc 6 22 9 is_stmt 1
 1209              		.loc 6 22 19 is_stmt 0
 1210 005c 13050900 		mv	a0,s2
 1211 0060 97000000 		call	_Z10time_sleepm@plt
 1211      E7800000 
 1212              	.LVL112:
  17:src/../h/ThreadSleep_C_API_test.h **** 
 1213              		.loc 6 17 5
GAS LISTING /tmp/ccMeUcYP.s 			page 32


 1214 0068 6FF09FFB 		j	.L59
 1215              	.L58:
  23:src/../h/ThreadSleep_C_API_test.h ****     }
  24:src/../h/ThreadSleep_C_API_test.h ****     finished[sleep_time/10-1] = true;
 1216              		.loc 6 24 5 is_stmt 1
 1217              		.loc 6 24 24 is_stmt 0
 1218 006c 9307A000 		li	a5,10
 1219 0070 3359F902 		divu	s2,s2,a5
 1220              	.LVL113:
 1221              		.loc 6 24 27
 1222 0074 1309F9FF 		addi	s2,s2,-1
 1223              		.loc 6 24 31
 1224 0078 97070000 		lla	a5,.LANCHOR0
 1224      93870700 
 1225 0080 33892701 		add	s2,a5,s2
 1226 0084 93071000 		li	a5,1
 1227 0088 2304F900 		sb	a5,8(s2)
  25:src/../h/ThreadSleep_C_API_test.h **** }
 1228              		.loc 6 25 1
 1229 008c 83308101 		ld	ra,24(sp)
 1230              		.cfi_restore 1
 1231 0090 03340101 		ld	s0,16(sp)
 1232              		.cfi_restore 8
 1233              		.cfi_def_cfa 2, 32
 1234 0094 83348100 		ld	s1,8(sp)
 1235              		.cfi_restore 9
 1236 0098 03390100 		ld	s2,0(sp)
 1237              		.cfi_restore 18
 1238 009c 13010102 		addi	sp,sp,32
 1239              		.cfi_def_cfa_offset 0
 1240 00a0 67800000 		jr	ra
 1241              		.cfi_endproc
 1242              	.LFE40:
 1244              		.align	2
 1245              		.globl	_Z6bafer1Pv
 1247              	_Z6bafer1Pv:
 1248              	.LFB90:
 169:src/userMain.cpp ****     for(int i=0;i<30;i++){
 1249              		.loc 4 169 21 is_stmt 1
 1250              		.cfi_startproc
 1251              	.LVL114:
 1252 00a4 130101FE 		addi	sp,sp,-32
 1253              		.cfi_def_cfa_offset 32
 1254 00a8 233C1100 		sd	ra,24(sp)
 1255 00ac 23388100 		sd	s0,16(sp)
 1256 00b0 23349100 		sd	s1,8(sp)
 1257              		.cfi_offset 1, -8
 1258              		.cfi_offset 8, -16
 1259              		.cfi_offset 9, -24
 1260 00b4 13040102 		addi	s0,sp,32
 1261              		.cfi_def_cfa 8, 0
 170:src/userMain.cpp ****         putc(i+'a');
 1262              		.loc 4 170 5
 1263              	.LVL115:
 1264              	.LBB174:
 170:src/userMain.cpp ****         putc(i+'a');
 1265              		.loc 4 170 13 is_stmt 0
GAS LISTING /tmp/ccMeUcYP.s 			page 33


 1266 00b8 93040000 		li	s1,0
 1267 00bc 6F00C002 		j	.L63
 1268              	.LVL116:
 1269              	.L65:
 171:src/userMain.cpp ****         time_sleep((i+1)*5);
 1270              		.loc 4 171 9 is_stmt 1 discriminator 2
 171:src/userMain.cpp ****         time_sleep((i+1)*5);
 1271              		.loc 4 171 13 is_stmt 0 discriminator 2
 1272 00c0 1B851406 		addiw	a0,s1,97
 1273 00c4 1375F50F 		andi	a0,a0,0xff
 1274 00c8 97000000 		call	_Z4putcc@plt
 1274      E7800000 
 1275              	.LVL117:
 172:src/userMain.cpp ****     }
 1276              		.loc 4 172 9 is_stmt 1 discriminator 2
 172:src/userMain.cpp ****     }
 1277              		.loc 4 172 22 is_stmt 0 discriminator 2
 1278 00d0 9B871400 		addiw	a5,s1,1
 1279 00d4 9B840700 		sext.w	s1,a5
 1280              	.LVL118:
 172:src/userMain.cpp ****     }
 1281              		.loc 4 172 25 discriminator 2
 1282 00d8 1B952700 		slliw	a0,a5,2
 172:src/userMain.cpp ****     }
 1283              		.loc 4 172 19 discriminator 2
 1284 00dc 3B05F500 		addw	a0,a0,a5
 1285 00e0 97000000 		call	_Z10time_sleepm@plt
 1285      E7800000 
 1286              	.LVL119:
 170:src/userMain.cpp ****         putc(i+'a');
 1287              		.loc 4 170 5 is_stmt 1 discriminator 2
 1288              	.L63:
 170:src/userMain.cpp ****         putc(i+'a');
 1289              		.loc 4 170 18 discriminator 3
 1290 00e8 9307D001 		li	a5,29
 1291 00ec E3DA97FC 		ble	s1,a5,.L65
 1292              	.LBE174:
 174:src/userMain.cpp **** void bafer2(void* a){
 1293              		.loc 4 174 1 is_stmt 0
 1294 00f0 83308101 		ld	ra,24(sp)
 1295              		.cfi_restore 1
 1296 00f4 03340101 		ld	s0,16(sp)
 1297              		.cfi_restore 8
 1298              		.cfi_def_cfa 2, 32
 1299 00f8 83348100 		ld	s1,8(sp)
 1300              		.cfi_restore 9
 1301              	.LVL120:
 1302 00fc 13010102 		addi	sp,sp,32
 1303              		.cfi_def_cfa_offset 0
 1304 0100 67800000 		jr	ra
 1305              		.cfi_endproc
 1306              	.LFE90:
 1308              		.section	.text._ZN19ConsumerProducerCPP8Producer3runEv,"axG",@progbits,_ZN19ConsumerProducerCPP8Pr
 1309              		.align	2
 1310              		.weak	_ZN19ConsumerProducerCPP8Producer3runEv
 1312              	_ZN19ConsumerProducerCPP8Producer3runEv:
 1313              	.LFB49:
GAS LISTING /tmp/ccMeUcYP.s 			page 34


  50:src/../h/ConsumerProducer_CPP_API_test.h ****             int i = 0;
 1314              		.loc 3 50 14 is_stmt 1
 1315              		.cfi_startproc
 1316              	.LVL121:
 1317 0000 130101FE 		addi	sp,sp,-32
 1318              		.cfi_def_cfa_offset 32
 1319 0004 233C1100 		sd	ra,24(sp)
 1320 0008 23388100 		sd	s0,16(sp)
 1321 000c 23349100 		sd	s1,8(sp)
 1322 0010 23302101 		sd	s2,0(sp)
 1323              		.cfi_offset 1, -8
 1324              		.cfi_offset 8, -16
 1325              		.cfi_offset 9, -24
 1326              		.cfi_offset 18, -32
 1327 0014 13040102 		addi	s0,sp,32
 1328              		.cfi_def_cfa 8, 0
 1329 0018 93040500 		mv	s1,a0
  51:src/../h/ConsumerProducer_CPP_API_test.h ****             while (!threadEnd) {
 1330              		.loc 3 51 13
 1331              	.LVL122:
  51:src/../h/ConsumerProducer_CPP_API_test.h ****             while (!threadEnd) {
 1332              		.loc 3 51 17 is_stmt 0
 1333 001c 13090000 		li	s2,0
 1334              	.LVL123:
 1335              	.L68:
  52:src/../h/ConsumerProducer_CPP_API_test.h ****                 td->buffer->put(td->id + '0');
 1336              		.loc 3 52 13 is_stmt 1
  52:src/../h/ConsumerProducer_CPP_API_test.h ****                 td->buffer->put(td->id + '0');
 1337              		.loc 3 52 20
 1338 0020 97070000 		lw	a5,.LANCHOR0
 1338      83A70700 
 1339 0028 63920704 		bnez	a5,.L67
  53:src/../h/ConsumerProducer_CPP_API_test.h ****                 i++;
 1340              		.loc 3 53 17
 1341 002c 83B70401 		ld	a5,16(s1)
  53:src/../h/ConsumerProducer_CPP_API_test.h ****                 i++;
 1342              		.loc 3 53 37 is_stmt 0
 1343 0030 83A50700 		lw	a1,0(a5)
  53:src/../h/ConsumerProducer_CPP_API_test.h ****                 i++;
 1344              		.loc 3 53 32
 1345 0034 9B850503 		addiw	a1,a1,48
 1346 0038 03B58700 		ld	a0,8(a5)
 1347 003c 97000000 		call	_ZN9BufferCPP3putEi@plt
 1347      E7800000 
 1348              	.LVL124:
  54:src/../h/ConsumerProducer_CPP_API_test.h ****                 Thread::sleep((i+td->id)%5);
 1349              		.loc 3 54 17 is_stmt 1
  54:src/../h/ConsumerProducer_CPP_API_test.h ****                 Thread::sleep((i+td->id)%5);
 1350              		.loc 3 54 18 is_stmt 0
 1351 0044 1B071900 		addiw	a4,s2,1
 1352 0048 1B090700 		sext.w	s2,a4
 1353              	.LVL125:
  55:src/../h/ConsumerProducer_CPP_API_test.h ****             }
 1354              		.loc 3 55 17 is_stmt 1
  55:src/../h/ConsumerProducer_CPP_API_test.h ****             }
 1355              		.loc 3 55 34 is_stmt 0
 1356 004c 83B70401 		ld	a5,16(s1)
GAS LISTING /tmp/ccMeUcYP.s 			page 35


  55:src/../h/ConsumerProducer_CPP_API_test.h ****             }
 1357              		.loc 3 55 38
 1358 0050 83A70700 		lw	a5,0(a5)
  55:src/../h/ConsumerProducer_CPP_API_test.h ****             }
 1359              		.loc 3 55 33
 1360 0054 BB87E700 		addw	a5,a5,a4
  55:src/../h/ConsumerProducer_CPP_API_test.h ****             }
 1361              		.loc 3 55 30
 1362 0058 13055000 		li	a0,5
 1363 005c 3BE5A702 		remw	a0,a5,a0
 1364 0060 97000000 		call	_ZN6Thread5sleepEm@plt
 1364      E7800000 
 1365              	.LVL126:
  52:src/../h/ConsumerProducer_CPP_API_test.h ****                 td->buffer->put(td->id + '0');
 1366              		.loc 3 52 13
 1367 0068 6FF09FFB 		j	.L68
 1368              	.L67:
  58:src/../h/ConsumerProducer_CPP_API_test.h ****         }
 1369              		.loc 3 58 13 is_stmt 1
 1370 006c 83B70401 		ld	a5,16(s1)
  58:src/../h/ConsumerProducer_CPP_API_test.h ****         }
 1371              		.loc 3 58 28 is_stmt 0
 1372 0070 03B50701 		ld	a0,16(a5)
 1373 0074 97000000 		call	_ZN9Semaphore6signalEv@plt
 1373      E7800000 
 1374              	.LVL127:
  59:src/../h/ConsumerProducer_CPP_API_test.h ****     };
 1375              		.loc 3 59 9
 1376 007c 83308101 		ld	ra,24(sp)
 1377              		.cfi_restore 1
 1378 0080 03340101 		ld	s0,16(sp)
 1379              		.cfi_restore 8
 1380              		.cfi_def_cfa 2, 32
 1381 0084 83348100 		ld	s1,8(sp)
 1382              		.cfi_restore 9
 1383              	.LVL128:
 1384 0088 03390100 		ld	s2,0(sp)
 1385              		.cfi_restore 18
 1386              	.LVL129:
 1387 008c 13010102 		addi	sp,sp,32
 1388              		.cfi_def_cfa_offset 0
 1389 0090 67800000 		jr	ra
 1390              		.cfi_endproc
 1391              	.LFE49:
 1393              		.text
 1394              		.align	2
 1395              		.globl	_Z6bafer2Pv
 1397              	_Z6bafer2Pv:
 1398              	.LFB91:
 175:src/userMain.cpp ****     for(int i=0;i<30;i++){
 1399              		.loc 4 175 21 is_stmt 1
 1400              		.cfi_startproc
 1401              	.LVL130:
 1402 0104 130101FE 		addi	sp,sp,-32
 1403              		.cfi_def_cfa_offset 32
 1404 0108 233C1100 		sd	ra,24(sp)
 1405 010c 23388100 		sd	s0,16(sp)
GAS LISTING /tmp/ccMeUcYP.s 			page 36


 1406 0110 23349100 		sd	s1,8(sp)
 1407              		.cfi_offset 1, -8
 1408              		.cfi_offset 8, -16
 1409              		.cfi_offset 9, -24
 1410 0114 13040102 		addi	s0,sp,32
 1411              		.cfi_def_cfa 8, 0
 176:src/userMain.cpp ****         int g=getc();
 1412              		.loc 4 176 5
 1413              	.LVL131:
 1414              	.LBB175:
 176:src/userMain.cpp ****         int g=getc();
 1415              		.loc 4 176 13 is_stmt 0
 1416 0118 93040000 		li	s1,0
 1417 011c 6F008002 		j	.L72
 1418              	.LVL132:
 1419              	.L74:
 1420              	.LBB176:
 177:src/userMain.cpp ****         if(g!=-1){
 1421              		.loc 4 177 9 is_stmt 1
 177:src/userMain.cpp ****         if(g!=-1){
 1422              		.loc 4 177 19 is_stmt 0
 1423 0120 97000000 		call	_Z4getcv@plt
 1423      E7800000 
 1424              	.LVL133:
 178:src/userMain.cpp ****             print(g);
 1425              		.loc 4 178 9 is_stmt 1
 179:src/userMain.cpp ****             //b->Print();
 1426              		.loc 4 179 13
 179:src/userMain.cpp ****             //b->Print();
 1427              		.loc 4 179 18 is_stmt 0
 1428 0128 1B050500 		sext.w	a0,a0
 1429 012c 97000000 		call	_Z5printi@plt
 1429      E7800000 
 1430              	.LVL134:
 182:src/userMain.cpp ****     }
 1431              		.loc 4 182 9 is_stmt 1
 182:src/userMain.cpp ****     }
 1432              		.loc 4 182 19 is_stmt 0
 1433 0134 13054001 		li	a0,20
 1434 0138 97000000 		call	_Z10time_sleepm@plt
 1434      E7800000 
 1435              	.LVL135:
 1436              	.LBE176:
 176:src/userMain.cpp ****         int g=getc();
 1437              		.loc 4 176 5 is_stmt 1
 1438 0140 9B841400 		addiw	s1,s1,1
 1439              	.LVL136:
 1440              	.L72:
 176:src/userMain.cpp ****         int g=getc();
 1441              		.loc 4 176 18 discriminator 1
 1442 0144 9307D001 		li	a5,29
 1443 0148 E3DC97FC 		ble	s1,a5,.L74
 1444              	.LBE175:
 184:src/userMain.cpp **** void testbafer(){
 1445              		.loc 4 184 1 is_stmt 0
 1446 014c 83308101 		ld	ra,24(sp)
 1447              		.cfi_restore 1
GAS LISTING /tmp/ccMeUcYP.s 			page 37


 1448 0150 03340101 		ld	s0,16(sp)
 1449              		.cfi_restore 8
 1450              		.cfi_def_cfa 2, 32
 1451 0154 83348100 		ld	s1,8(sp)
 1452              		.cfi_restore 9
 1453              	.LVL137:
 1454 0158 13010102 		addi	sp,sp,32
 1455              		.cfi_def_cfa_offset 0
 1456 015c 67800000 		jr	ra
 1457              		.cfi_endproc
 1458              	.LFE91:
 1460              		.section	.rodata.str1.8
 1461 000c 00000000 		.align	3
 1462              	.LC2:
 1463 0010 66756E6B 		.string	"funkcija1A\n"
 1463      63696A61 
 1463      31410A00 
 1464 001c 00000000 		.align	3
 1465              	.LC3:
 1466 0020 66756E6B 		.string	"funkcija1B\n"
 1466      63696A61 
 1466      31420A00 
 1467 002c 00000000 		.align	3
 1468              	.LC4:
 1469 0030 66756E6B 		.string	"funkcija1C\n"
 1469      63696A61 
 1469      31430A00 
 1470 003c 00000000 		.align	3
 1471              	.LC5:
 1472 0040 66756E6B 		.string	"funkcija1D\n"
 1472      63696A61 
 1472      31440A00 
 1473 004c 00000000 		.align	3
 1474              	.LC6:
 1475 0050 66756E6B 		.string	"funkcija1E\n"
 1475      63696A61 
 1475      31450A00 
 1476              		.text
 1477              		.align	2
 1478              		.globl	_Z2f1Pv
 1480              	_Z2f1Pv:
 1481              	.LFB86:
 110:src/userMain.cpp ****     print("funkcija1A\n");
 1482              		.loc 4 110 17 is_stmt 1
 1483              		.cfi_startproc
 1484              	.LVL138:
 1485 0160 130101FF 		addi	sp,sp,-16
 1486              		.cfi_def_cfa_offset 16
 1487 0164 23341100 		sd	ra,8(sp)
 1488 0168 23308100 		sd	s0,0(sp)
 1489              		.cfi_offset 1, -8
 1490              		.cfi_offset 8, -16
 1491 016c 13040101 		addi	s0,sp,16
 1492              		.cfi_def_cfa 8, 0
 111:src/userMain.cpp ****     Nit::yeild();
 1493              		.loc 4 111 5
 111:src/userMain.cpp ****     Nit::yeild();
GAS LISTING /tmp/ccMeUcYP.s 			page 38


 1494              		.loc 4 111 10 is_stmt 0
 1495 0170 17050000 		lla	a0,.LC2
 1495      13050500 
 1496              	.LVL139:
 1497 0178 97000000 		call	_Z5printPKc@plt
 1497      E7800000 
 1498              	.LVL140:
 112:src/userMain.cpp ****     //while(1)
 1499              		.loc 4 112 5 is_stmt 1
 112:src/userMain.cpp ****     //while(1)
 1500              		.loc 4 112 15 is_stmt 0
 1501 0180 97000000 		call	_ZN3Nit5yeildEv@plt
 1501      E7800000 
 1502              	.LVL141:
 114:src/userMain.cpp ****     //Scheduler::threadsleep(50);
 1503              		.loc 4 114 5 is_stmt 1
 114:src/userMain.cpp ****     //Scheduler::threadsleep(50);
 1504              		.loc 4 114 10 is_stmt 0
 1505 0188 17050000 		lla	a0,.LC3
 1505      13050500 
 1506 0190 97000000 		call	_Z5printPKc@plt
 1506      E7800000 
 1507              	.LVL142:
 116:src/userMain.cpp ****     Nit::yeild();
 1508              		.loc 4 116 5 is_stmt 1
 116:src/userMain.cpp ****     Nit::yeild();
 1509              		.loc 4 116 13 is_stmt 0
 1510 0198 17050000 		ld	a0,.LANCHOR0+16
 1510      03350500 
 1511 01a0 97000000 		call	_Z8sem_waitP7Semafor@plt
 1511      E7800000 
 1512              	.LVL143:
 117:src/userMain.cpp ****     print("funkcija1C\n");
 1513              		.loc 4 117 5 is_stmt 1
 117:src/userMain.cpp ****     print("funkcija1C\n");
 1514              		.loc 4 117 15 is_stmt 0
 1515 01a8 97000000 		call	_ZN3Nit5yeildEv@plt
 1515      E7800000 
 1516              	.LVL144:
 118:src/userMain.cpp ****     Nit::yeild();
 1517              		.loc 4 118 5 is_stmt 1
 118:src/userMain.cpp ****     Nit::yeild();
 1518              		.loc 4 118 10 is_stmt 0
 1519 01b0 17050000 		lla	a0,.LC4
 1519      13050500 
 1520 01b8 97000000 		call	_Z5printPKc@plt
 1520      E7800000 
 1521              	.LVL145:
 119:src/userMain.cpp ****     print("funkcija1D\n");
 1522              		.loc 4 119 5 is_stmt 1
 119:src/userMain.cpp ****     print("funkcija1D\n");
 1523              		.loc 4 119 15 is_stmt 0
 1524 01c0 97000000 		call	_ZN3Nit5yeildEv@plt
 1524      E7800000 
 1525              	.LVL146:
 120:src/userMain.cpp ****     Nit::yeild();
 1526              		.loc 4 120 5 is_stmt 1
GAS LISTING /tmp/ccMeUcYP.s 			page 39


 120:src/userMain.cpp ****     Nit::yeild();
 1527              		.loc 4 120 10 is_stmt 0
 1528 01c8 17050000 		lla	a0,.LC5
 1528      13050500 
 1529 01d0 97000000 		call	_Z5printPKc@plt
 1529      E7800000 
 1530              	.LVL147:
 121:src/userMain.cpp ****     print("funkcija1E\n");
 1531              		.loc 4 121 5 is_stmt 1
 121:src/userMain.cpp ****     print("funkcija1E\n");
 1532              		.loc 4 121 15 is_stmt 0
 1533 01d8 97000000 		call	_ZN3Nit5yeildEv@plt
 1533      E7800000 
 1534              	.LVL148:
 122:src/userMain.cpp ****     //sem_close();
 1535              		.loc 4 122 5 is_stmt 1
 122:src/userMain.cpp ****     //sem_close();
 1536              		.loc 4 122 10 is_stmt 0
 1537 01e0 17050000 		lla	a0,.LC6
 1537      13050500 
 1538 01e8 97000000 		call	_Z5printPKc@plt
 1538      E7800000 
 1539              	.LVL149:
 124:src/userMain.cpp **** void f2(void* a){
 1540              		.loc 4 124 1
 1541 01f0 83308100 		ld	ra,8(sp)
 1542              		.cfi_restore 1
 1543 01f4 03340100 		ld	s0,0(sp)
 1544              		.cfi_restore 8
 1545              		.cfi_def_cfa 2, 16
 1546 01f8 13010101 		addi	sp,sp,16
 1547              		.cfi_def_cfa_offset 0
 1548 01fc 67800000 		jr	ra
 1549              		.cfi_endproc
 1550              	.LFE86:
 1552              		.section	.rodata.str1.8
 1553 005c 00000000 		.align	3
 1554              	.LC7:
 1555 0060 66756E6B 		.string	"funkcija3A\n"
 1555      63696A61 
 1555      33410A00 
 1556 006c 00000000 		.align	3
 1557              	.LC8:
 1558 0070 66756E6B 		.string	"funkcija3B\n"
 1558      63696A61 
 1558      33420A00 
 1559 007c 00000000 		.align	3
 1560              	.LC9:
 1561 0080 66756E6B 		.string	"funkcija3C\n"
 1561      63696A61 
 1561      33430A00 
 1562 008c 00000000 		.align	3
 1563              	.LC10:
 1564 0090 66756E6B 		.string	"funkcija3D\n"
 1564      63696A61 
 1564      33440A00 
 1565 009c 00000000 		.align	3
GAS LISTING /tmp/ccMeUcYP.s 			page 40


 1566              	.LC11:
 1567 00a0 66756E6B 		.string	"funkcija3E\n"
 1567      63696A61 
 1567      33450A00 
 1568              		.text
 1569              		.align	2
 1570              		.globl	_Z2f3Pv
 1572              	_Z2f3Pv:
 1573              	.LFB88:
 141:src/userMain.cpp ****     print("funkcija3A\n");
 1574              		.loc 4 141 17 is_stmt 1
 1575              		.cfi_startproc
 1576              	.LVL150:
 1577 0200 130101FF 		addi	sp,sp,-16
 1578              		.cfi_def_cfa_offset 16
 1579 0204 23341100 		sd	ra,8(sp)
 1580 0208 23308100 		sd	s0,0(sp)
 1581              		.cfi_offset 1, -8
 1582              		.cfi_offset 8, -16
 1583 020c 13040101 		addi	s0,sp,16
 1584              		.cfi_def_cfa 8, 0
 142:src/userMain.cpp ****     Nit::yeild();
 1585              		.loc 4 142 5
 142:src/userMain.cpp ****     Nit::yeild();
 1586              		.loc 4 142 10 is_stmt 0
 1587 0210 17050000 		lla	a0,.LC7
 1587      13050500 
 1588              	.LVL151:
 1589 0218 97000000 		call	_Z5printPKc@plt
 1589      E7800000 
 1590              	.LVL152:
 143:src/userMain.cpp ****     print(sem_wait(s));
 1591              		.loc 4 143 5 is_stmt 1
 143:src/userMain.cpp ****     print(sem_wait(s));
 1592              		.loc 4 143 15 is_stmt 0
 1593 0220 97000000 		call	_ZN3Nit5yeildEv@plt
 1593      E7800000 
 1594              	.LVL153:
 144:src/userMain.cpp ****     print("funkcija3B\n");
 1595              		.loc 4 144 5 is_stmt 1
 144:src/userMain.cpp ****     print("funkcija3B\n");
 1596              		.loc 4 144 10 is_stmt 0
 1597 0228 17050000 		ld	a0,.LANCHOR0+16
 1597      03350500 
 1598 0230 97000000 		call	_Z8sem_waitP7Semafor@plt
 1598      E7800000 
 1599              	.LVL154:
 1600 0238 97000000 		call	_Z5printi@plt
 1600      E7800000 
 1601              	.LVL155:
 145:src/userMain.cpp ****     Nit::yeild();
 1602              		.loc 4 145 5 is_stmt 1
 145:src/userMain.cpp ****     Nit::yeild();
 1603              		.loc 4 145 10 is_stmt 0
 1604 0240 17050000 		lla	a0,.LC8
 1604      13050500 
 1605 0248 97000000 		call	_Z5printPKc@plt
GAS LISTING /tmp/ccMeUcYP.s 			page 41


 1605      E7800000 
 1606              	.LVL156:
 146:src/userMain.cpp ****     print("funkcija3C\n");
 1607              		.loc 4 146 5 is_stmt 1
 146:src/userMain.cpp ****     print("funkcija3C\n");
 1608              		.loc 4 146 15 is_stmt 0
 1609 0250 97000000 		call	_ZN3Nit5yeildEv@plt
 1609      E7800000 
 1610              	.LVL157:
 147:src/userMain.cpp ****     Nit::yeild();
 1611              		.loc 4 147 5 is_stmt 1
 147:src/userMain.cpp ****     Nit::yeild();
 1612              		.loc 4 147 10 is_stmt 0
 1613 0258 17050000 		lla	a0,.LC9
 1613      13050500 
 1614 0260 97000000 		call	_Z5printPKc@plt
 1614      E7800000 
 1615              	.LVL158:
 148:src/userMain.cpp ****     print("funkcija3D\n");
 1616              		.loc 4 148 5 is_stmt 1
 148:src/userMain.cpp ****     print("funkcija3D\n");
 1617              		.loc 4 148 15 is_stmt 0
 1618 0268 97000000 		call	_ZN3Nit5yeildEv@plt
 1618      E7800000 
 1619              	.LVL159:
 149:src/userMain.cpp ****     Nit::yeild();
 1620              		.loc 4 149 5 is_stmt 1
 149:src/userMain.cpp ****     Nit::yeild();
 1621              		.loc 4 149 10 is_stmt 0
 1622 0270 17050000 		lla	a0,.LC10
 1622      13050500 
 1623 0278 97000000 		call	_Z5printPKc@plt
 1623      E7800000 
 1624              	.LVL160:
 150:src/userMain.cpp ****     print("funkcija3E\n");
 1625              		.loc 4 150 5 is_stmt 1
 150:src/userMain.cpp ****     print("funkcija3E\n");
 1626              		.loc 4 150 15 is_stmt 0
 1627 0280 97000000 		call	_ZN3Nit5yeildEv@plt
 1627      E7800000 
 1628              	.LVL161:
 151:src/userMain.cpp **** }
 1629              		.loc 4 151 5 is_stmt 1
 151:src/userMain.cpp **** }
 1630              		.loc 4 151 10 is_stmt 0
 1631 0288 17050000 		lla	a0,.LC11
 1631      13050500 
 1632 0290 97000000 		call	_Z5printPKc@plt
 1632      E7800000 
 1633              	.LVL162:
 152:src/userMain.cpp **** void mojtest(){
 1634              		.loc 4 152 1
 1635 0298 83308100 		ld	ra,8(sp)
 1636              		.cfi_restore 1
 1637 029c 03340100 		ld	s0,0(sp)
 1638              		.cfi_restore 8
 1639              		.cfi_def_cfa 2, 16
GAS LISTING /tmp/ccMeUcYP.s 			page 42


 1640 02a0 13010101 		addi	sp,sp,16
 1641              		.cfi_def_cfa_offset 0
 1642 02a4 67800000 		jr	ra
 1643              		.cfi_endproc
 1644              	.LFE88:
 1646              		.section	.rodata.str1.8
 1647 00ac 00000000 		.align	3
 1648              	.LC12:
 1649 00b0 66756E6B 		.string	"funkcija2A\n"
 1649      63696A61 
 1649      32410A00 
 1650 00bc 00000000 		.align	3
 1651              	.LC13:
 1652 00c0 66756E6B 		.string	"funkcija2B\n"
 1652      63696A61 
 1652      32420A00 
 1653 00cc 00000000 		.align	3
 1654              	.LC14:
 1655 00d0 66756E6B 		.string	"funkcija2C\n"
 1655      63696A61 
 1655      32430A00 
 1656 00dc 00000000 		.align	3
 1657              	.LC15:
 1658 00e0 66756E6B 		.string	"funkcija2D\n"
 1658      63696A61 
 1658      32440A00 
 1659 00ec 00000000 		.align	3
 1660              	.LC16:
 1661 00f0 66756E6B 		.string	"funkcija2E\n"
 1661      63696A61 
 1661      32450A00 
 1662              		.text
 1663              		.align	2
 1664              		.globl	_Z2f2Pv
 1666              	_Z2f2Pv:
 1667              	.LFB87:
 125:src/userMain.cpp ****     //Scheduler::threadsleep(50);
 1668              		.loc 4 125 17 is_stmt 1
 1669              		.cfi_startproc
 1670              	.LVL163:
 1671 02a8 130101FF 		addi	sp,sp,-16
 1672              		.cfi_def_cfa_offset 16
 1673 02ac 23341100 		sd	ra,8(sp)
 1674 02b0 23308100 		sd	s0,0(sp)
 1675              		.cfi_offset 1, -8
 1676              		.cfi_offset 8, -16
 1677 02b4 13040101 		addi	s0,sp,16
 1678              		.cfi_def_cfa 8, 0
 127:src/userMain.cpp ****     Nit::yeild();
 1679              		.loc 4 127 5
 127:src/userMain.cpp ****     Nit::yeild();
 1680              		.loc 4 127 10 is_stmt 0
 1681 02b8 17050000 		lla	a0,.LC12
 1681      13050500 
 1682              	.LVL164:
 1683 02c0 97000000 		call	_Z5printPKc@plt
 1683      E7800000 
GAS LISTING /tmp/ccMeUcYP.s 			page 43


 1684              	.LVL165:
 128:src/userMain.cpp ****     print("funkcija2B\n");
 1685              		.loc 4 128 5 is_stmt 1
 128:src/userMain.cpp ****     print("funkcija2B\n");
 1686              		.loc 4 128 15 is_stmt 0
 1687 02c8 97000000 		call	_ZN3Nit5yeildEv@plt
 1687      E7800000 
 1688              	.LVL166:
 129:src/userMain.cpp ****     Nit::yeild();
 1689              		.loc 4 129 5 is_stmt 1
 129:src/userMain.cpp ****     Nit::yeild();
 1690              		.loc 4 129 10 is_stmt 0
 1691 02d0 17050000 		lla	a0,.LC13
 1691      13050500 
 1692 02d8 97000000 		call	_Z5printPKc@plt
 1692      E7800000 
 1693              	.LVL167:
 130:src/userMain.cpp ****     print("funkcija2C\n");
 1694              		.loc 4 130 5 is_stmt 1
 130:src/userMain.cpp ****     print("funkcija2C\n");
 1695              		.loc 4 130 15 is_stmt 0
 1696 02e0 97000000 		call	_ZN3Nit5yeildEv@plt
 1696      E7800000 
 1697              	.LVL168:
 131:src/userMain.cpp ****     Nit::yeild();
 1698              		.loc 4 131 5 is_stmt 1
 131:src/userMain.cpp ****     Nit::yeild();
 1699              		.loc 4 131 10 is_stmt 0
 1700 02e8 17050000 		lla	a0,.LC14
 1700      13050500 
 1701 02f0 97000000 		call	_Z5printPKc@plt
 1701      E7800000 
 1702              	.LVL169:
 132:src/userMain.cpp ****     print("funkcija2D\n");
 1703              		.loc 4 132 5 is_stmt 1
 132:src/userMain.cpp ****     print("funkcija2D\n");
 1704              		.loc 4 132 15 is_stmt 0
 1705 02f8 97000000 		call	_ZN3Nit5yeildEv@plt
 1705      E7800000 
 1706              	.LVL170:
 133:src/userMain.cpp ****     Nit::yeild();
 1707              		.loc 4 133 5 is_stmt 1
 133:src/userMain.cpp ****     Nit::yeild();
 1708              		.loc 4 133 10 is_stmt 0
 1709 0300 17050000 		lla	a0,.LC15
 1709      13050500 
 1710 0308 97000000 		call	_Z5printPKc@plt
 1710      E7800000 
 1711              	.LVL171:
 134:src/userMain.cpp ****     print("funkcija2E\n");
 1712              		.loc 4 134 5 is_stmt 1
 134:src/userMain.cpp ****     print("funkcija2E\n");
 1713              		.loc 4 134 15 is_stmt 0
 1714 0310 97000000 		call	_ZN3Nit5yeildEv@plt
 1714      E7800000 
 1715              	.LVL172:
 135:src/userMain.cpp ****     print(sem_close(s));
GAS LISTING /tmp/ccMeUcYP.s 			page 44


 1716              		.loc 4 135 5 is_stmt 1
 135:src/userMain.cpp ****     print(sem_close(s));
 1717              		.loc 4 135 10 is_stmt 0
 1718 0318 17050000 		lla	a0,.LC16
 1718      13050500 
 1719 0320 97000000 		call	_Z5printPKc@plt
 1719      E7800000 
 1720              	.LVL173:
 136:src/userMain.cpp **** 
 1721              		.loc 4 136 5 is_stmt 1
 136:src/userMain.cpp **** 
 1722              		.loc 4 136 10 is_stmt 0
 1723 0328 17050000 		ld	a0,.LANCHOR0+16
 1723      03350500 
 1724 0330 97000000 		call	_Z9sem_closeP7Semafor@plt
 1724      E7800000 
 1725              	.LVL174:
 1726 0338 97000000 		call	_Z5printi@plt
 1726      E7800000 
 1727              	.LVL175:
 140:src/userMain.cpp **** void f3(void* a){
 1728              		.loc 4 140 1
 1729 0340 83308100 		ld	ra,8(sp)
 1730              		.cfi_restore 1
 1731 0344 03340100 		ld	s0,0(sp)
 1732              		.cfi_restore 8
 1733              		.cfi_def_cfa 2, 16
 1734 0348 13010101 		addi	sp,sp,16
 1735              		.cfi_def_cfa_offset 0
 1736 034c 67800000 		jr	ra
 1737              		.cfi_endproc
 1738              	.LFE87:
 1740              		.align	2
 1741              		.globl	_Z9fibonaccim
 1743              	_Z9fibonaccim:
 1744              	.LFB2:
  13:src/../h/Threads_CPP_API_test.h ****     if (n == 0 || n == 1) { return n; }
 1745              		.loc 1 13 28 is_stmt 1
 1746              		.cfi_startproc
 1747              	.LVL176:
 1748 0350 130101FE 		addi	sp,sp,-32
 1749              		.cfi_def_cfa_offset 32
 1750 0354 233C1100 		sd	ra,24(sp)
 1751 0358 23388100 		sd	s0,16(sp)
 1752 035c 23349100 		sd	s1,8(sp)
 1753 0360 23302101 		sd	s2,0(sp)
 1754              		.cfi_offset 1, -8
 1755              		.cfi_offset 8, -16
 1756              		.cfi_offset 9, -24
 1757              		.cfi_offset 18, -32
 1758 0364 13040102 		addi	s0,sp,32
 1759              		.cfi_def_cfa 8, 0
 1760 0368 93040500 		mv	s1,a0
  14:src/../h/Threads_CPP_API_test.h ****     if (n % 10 == 0) { thread_dispatch(); }
 1761              		.loc 1 14 5
 1762 036c 93071000 		li	a5,1
 1763 0370 63F8A702 		bleu	a0,a5,.L81
GAS LISTING /tmp/ccMeUcYP.s 			page 45


  15:src/../h/Threads_CPP_API_test.h ****     return fibonacci(n - 1) + fibonacci(n - 2);
 1764              		.loc 1 15 5
  15:src/../h/Threads_CPP_API_test.h ****     return fibonacci(n - 1) + fibonacci(n - 2);
 1765              		.loc 1 15 11 is_stmt 0
 1766 0374 9307A000 		li	a5,10
 1767 0378 B377F502 		remu	a5,a0,a5
  15:src/../h/Threads_CPP_API_test.h ****     return fibonacci(n - 1) + fibonacci(n - 2);
 1768              		.loc 1 15 5
 1769 037c 638E0702 		beqz	a5,.L86
 1770              	.LVL177:
 1771              	.L83:
  16:src/../h/Threads_CPP_API_test.h **** }
 1772              		.loc 1 16 5 is_stmt 1
  16:src/../h/Threads_CPP_API_test.h **** }
 1773              		.loc 1 16 21 is_stmt 0
 1774 0380 1385F4FF 		addi	a0,s1,-1
 1775 0384 97000000 		call	_Z9fibonaccim
 1775      E7800000 
 1776              	.LVL178:
 1777 038c 13090500 		mv	s2,a0
  16:src/../h/Threads_CPP_API_test.h **** }
 1778              		.loc 1 16 40
 1779 0390 1385E4FF 		addi	a0,s1,-2
 1780 0394 97000000 		call	_Z9fibonaccim
 1780      E7800000 
 1781              	.LVL179:
  16:src/../h/Threads_CPP_API_test.h **** }
 1782              		.loc 1 16 46
 1783 039c 3305A900 		add	a0,s2,a0
 1784              	.L81:
  17:src/../h/Threads_CPP_API_test.h **** 
 1785              		.loc 1 17 1
 1786 03a0 83308101 		ld	ra,24(sp)
 1787              		.cfi_remember_state
 1788              		.cfi_restore 1
 1789 03a4 03340101 		ld	s0,16(sp)
 1790              		.cfi_restore 8
 1791              		.cfi_def_cfa 2, 32
 1792 03a8 83348100 		ld	s1,8(sp)
 1793              		.cfi_restore 9
 1794              	.LVL180:
 1795 03ac 03390100 		ld	s2,0(sp)
 1796              		.cfi_restore 18
 1797 03b0 13010102 		addi	sp,sp,32
 1798              		.cfi_def_cfa_offset 0
 1799 03b4 67800000 		jr	ra
 1800              	.LVL181:
 1801              	.L86:
 1802              		.cfi_restore_state
  15:src/../h/Threads_CPP_API_test.h ****     return fibonacci(n - 1) + fibonacci(n - 2);
 1803              		.loc 1 15 24 is_stmt 1 discriminator 1
  15:src/../h/Threads_CPP_API_test.h ****     return fibonacci(n - 1) + fibonacci(n - 2);
 1804              		.loc 1 15 39 is_stmt 0 discriminator 1
 1805 03b8 97000000 		call	_Z15thread_dispatchv@plt
 1805      E7800000 
 1806              	.LVL182:
 1807 03c0 6FF01FFC 		j	.L83
GAS LISTING /tmp/ccMeUcYP.s 			page 46


 1808              		.cfi_endproc
 1809              	.LFE2:
 1811              		.section	.rodata.str1.8
 1812 00fc 00000000 		.align	3
 1813              	.LC17:
 1814 0100 413A2069 		.string	"A: i="
 1814      3D00
 1815 0106 0000     		.align	3
 1816              	.LC18:
 1817 0108 0A00     		.string	"\n"
 1818 010a 00000000 		.align	3
 1818      0000
 1819              	.LC19:
 1820 0110 41206669 		.string	"A finished!\n"
 1820      6E697368 
 1820      6564210A 
 1820      00
 1821              		.text
 1822              		.align	2
 1823              		.globl	_ZN7WorkerA11workerBodyAEPv
 1825              	_ZN7WorkerA11workerBodyAEPv:
 1826              	.LFB19:
  50:src/../h/Threads_CPP_API_test.h ****     void workerBodyD(void* arg);
  51:src/../h/Threads_CPP_API_test.h **** public:
  52:src/../h/Threads_CPP_API_test.h ****     WorkerD():Thread() {}
  53:src/../h/Threads_CPP_API_test.h **** 
  54:src/../h/Threads_CPP_API_test.h ****     void run() override {
  55:src/../h/Threads_CPP_API_test.h ****         workerBodyD(nullptr);
  56:src/../h/Threads_CPP_API_test.h ****     }
  57:src/../h/Threads_CPP_API_test.h **** };
  58:src/../h/Threads_CPP_API_test.h **** 
  59:src/../h/Threads_CPP_API_test.h **** void WorkerA::workerBodyA(void *arg) {
 1827              		.loc 1 59 38 is_stmt 1
 1828              		.cfi_startproc
 1829              	.LVL183:
 1830 03c4 130101FE 		addi	sp,sp,-32
 1831              		.cfi_def_cfa_offset 32
 1832 03c8 233C1100 		sd	ra,24(sp)
 1833 03cc 23388100 		sd	s0,16(sp)
 1834 03d0 23349100 		sd	s1,8(sp)
 1835 03d4 23302101 		sd	s2,0(sp)
 1836              		.cfi_offset 1, -8
 1837              		.cfi_offset 8, -16
 1838              		.cfi_offset 9, -24
 1839              		.cfi_offset 18, -32
 1840 03d8 13040102 		addi	s0,sp,32
 1841              		.cfi_def_cfa 8, 0
  60:src/../h/Threads_CPP_API_test.h ****     for (uint64 i = 0; i < 10; i++) {
 1842              		.loc 1 60 5
 1843              	.LVL184:
 1844              	.LBB177:
 1845              		.loc 1 60 17 is_stmt 0
 1846 03dc 13090000 		li	s2,0
 1847 03e0 6F008003 		j	.L93
 1848              	.LVL185:
 1849              	.L90:
 1850              	.LBB178:
GAS LISTING /tmp/ccMeUcYP.s 			page 47


 1851              	.LBB179:
 1852              	.LBB180:
  61:src/../h/Threads_CPP_API_test.h ****         printString("A: i="); printInt(i); printString("\n");
  62:src/../h/Threads_CPP_API_test.h ****         for (uint64 j = 0; j < 10000; j++) {
  63:src/../h/Threads_CPP_API_test.h ****             for (uint64 k = 0; k < 30000; k++) { /* busy wait */ }
  64:src/../h/Threads_CPP_API_test.h ****             thread_dispatch();
 1853              		.loc 1 64 13 is_stmt 1 discriminator 2
 1854              		.loc 1 64 28 is_stmt 0 discriminator 2
 1855 03e4 97000000 		call	_Z15thread_dispatchv@plt
 1855      E7800000 
 1856              	.LVL186:
 1857              	.LBE180:
  62:src/../h/Threads_CPP_API_test.h ****             for (uint64 k = 0; k < 30000; k++) { /* busy wait */ }
 1858              		.loc 1 62 9 is_stmt 1 discriminator 2
 1859 03ec 93841400 		addi	s1,s1,1
 1860              	.LVL187:
 1861              	.L92:
  62:src/../h/Threads_CPP_API_test.h ****             for (uint64 k = 0; k < 30000; k++) { /* busy wait */ }
 1862              		.loc 1 62 30 discriminator 1
 1863 03f0 B7270000 		li	a5,8192
 1864 03f4 9387F770 		addi	a5,a5,1807
 1865 03f8 63EE9700 		bgtu	s1,a5,.L89
 1866              	.LBB182:
 1867              	.LBB181:
  63:src/../h/Threads_CPP_API_test.h ****             thread_dispatch();
 1868              		.loc 1 63 25 is_stmt 0
 1869 03fc 13070000 		li	a4,0
 1870              	.L91:
 1871              	.LVL188:
  63:src/../h/Threads_CPP_API_test.h ****             thread_dispatch();
 1872              		.loc 1 63 34 is_stmt 1 discriminator 3
 1873 0400 B7770000 		li	a5,28672
 1874 0404 9387F752 		addi	a5,a5,1327
 1875 0408 E3EEE7FC 		bgtu	a4,a5,.L90
  63:src/../h/Threads_CPP_API_test.h ****             thread_dispatch();
 1876              		.loc 1 63 13 discriminator 2
 1877 040c 13071700 		addi	a4,a4,1
 1878              	.LVL189:
 1879 0410 6FF01FFF 		j	.L91
 1880              	.LVL190:
 1881              	.L89:
 1882              	.LBE181:
 1883              	.LBE182:
 1884              	.LBE179:
 1885              	.LBE178:
  60:src/../h/Threads_CPP_API_test.h ****         printString("A: i="); printInt(i); printString("\n");
 1886              		.loc 1 60 5 discriminator 2
 1887 0414 13091900 		addi	s2,s2,1
 1888              	.LVL191:
 1889              	.L93:
  60:src/../h/Threads_CPP_API_test.h ****         printString("A: i="); printInt(i); printString("\n");
 1890              		.loc 1 60 26 discriminator 1
 1891 0418 93079000 		li	a5,9
 1892 041c 63E02705 		bgtu	s2,a5,.L88
 1893              	.LBB184:
  61:src/../h/Threads_CPP_API_test.h ****         for (uint64 j = 0; j < 10000; j++) {
 1894              		.loc 1 61 9
GAS LISTING /tmp/ccMeUcYP.s 			page 48


  61:src/../h/Threads_CPP_API_test.h ****         for (uint64 j = 0; j < 10000; j++) {
 1895              		.loc 1 61 20 is_stmt 0
 1896 0420 17050000 		lla	a0,.LC17
 1896      13050500 
 1897 0428 97000000 		call	_Z11printStringPKc@plt
 1897      E7800000 
 1898              	.LVL192:
  61:src/../h/Threads_CPP_API_test.h ****         for (uint64 j = 0; j < 10000; j++) {
 1899              		.loc 1 61 31 is_stmt 1
  61:src/../h/Threads_CPP_API_test.h ****         for (uint64 j = 0; j < 10000; j++) {
 1900              		.loc 1 61 39 is_stmt 0
 1901 0430 13060000 		li	a2,0
 1902 0434 9305A000 		li	a1,10
 1903 0438 1B050900 		sext.w	a0,s2
 1904 043c 97000000 		call	_Z8printIntiii@plt
 1904      E7800000 
 1905              	.LVL193:
  61:src/../h/Threads_CPP_API_test.h ****         for (uint64 j = 0; j < 10000; j++) {
 1906              		.loc 1 61 44 is_stmt 1
  61:src/../h/Threads_CPP_API_test.h ****         for (uint64 j = 0; j < 10000; j++) {
 1907              		.loc 1 61 55 is_stmt 0
 1908 0444 17050000 		lla	a0,.LC18
 1908      13050500 
 1909 044c 97000000 		call	_Z11printStringPKc@plt
 1909      E7800000 
 1910              	.LVL194:
  62:src/../h/Threads_CPP_API_test.h ****             for (uint64 k = 0; k < 30000; k++) { /* busy wait */ }
 1911              		.loc 1 62 9 is_stmt 1
 1912              	.LBB183:
  62:src/../h/Threads_CPP_API_test.h ****             for (uint64 k = 0; k < 30000; k++) { /* busy wait */ }
 1913              		.loc 1 62 21 is_stmt 0
 1914 0454 93040000 		li	s1,0
 1915 0458 6FF09FF9 		j	.L92
 1916              	.LVL195:
 1917              	.L88:
 1918              	.LBE183:
 1919              	.LBE184:
 1920              	.LBE177:
  65:src/../h/Threads_CPP_API_test.h ****         }
  66:src/../h/Threads_CPP_API_test.h ****     }
  67:src/../h/Threads_CPP_API_test.h ****     printString("A finished!\n");
 1921              		.loc 1 67 5 is_stmt 1
 1922              		.loc 1 67 16 is_stmt 0
 1923 045c 17050000 		lla	a0,.LC19
 1923      13050500 
 1924 0464 97000000 		call	_Z11printStringPKc@plt
 1924      E7800000 
 1925              	.LVL196:
  68:src/../h/Threads_CPP_API_test.h ****     finishedA = true;
 1926              		.loc 1 68 5 is_stmt 1
 1927              		.loc 1 68 15 is_stmt 0
 1928 046c 93071000 		li	a5,1
 1929 0470 17070000 		sb	a5,.LANCHOR0+24,a4
 1929      2300F700 
  69:src/../h/Threads_CPP_API_test.h **** }
 1930              		.loc 1 69 1
 1931 0478 83308101 		ld	ra,24(sp)
GAS LISTING /tmp/ccMeUcYP.s 			page 49


 1932              		.cfi_restore 1
 1933 047c 03340101 		ld	s0,16(sp)
 1934              		.cfi_restore 8
 1935              		.cfi_def_cfa 2, 32
 1936 0480 83348100 		ld	s1,8(sp)
 1937              		.cfi_restore 9
 1938 0484 03390100 		ld	s2,0(sp)
 1939              		.cfi_restore 18
 1940              	.LVL197:
 1941 0488 13010102 		addi	sp,sp,32
 1942              		.cfi_def_cfa_offset 0
 1943 048c 67800000 		jr	ra
 1944              		.cfi_endproc
 1945              	.LFE19:
 1947              		.section	.text._ZN7WorkerA3runEv,"axG",@progbits,_ZN7WorkerA3runEv,comdat
 1948              		.align	2
 1949              		.weak	_ZN7WorkerA3runEv
 1951              	_ZN7WorkerA3runEv:
 1952              	.LFB6:
  24:src/../h/Threads_CPP_API_test.h ****         workerBodyA(nullptr);
 1953              		.loc 1 24 10 is_stmt 1
 1954              		.cfi_startproc
 1955              	.LVL198:
 1956 0000 130101FF 		addi	sp,sp,-16
 1957              		.cfi_def_cfa_offset 16
 1958 0004 23341100 		sd	ra,8(sp)
 1959 0008 23308100 		sd	s0,0(sp)
 1960              		.cfi_offset 1, -8
 1961              		.cfi_offset 8, -16
 1962 000c 13040101 		addi	s0,sp,16
 1963              		.cfi_def_cfa 8, 0
  25:src/../h/Threads_CPP_API_test.h ****     }
 1964              		.loc 1 25 9
  25:src/../h/Threads_CPP_API_test.h ****     }
 1965              		.loc 1 25 20 is_stmt 0
 1966 0010 93050000 		li	a1,0
 1967 0014 97000000 		call	_ZN7WorkerA11workerBodyAEPv
 1967      E7800000 
 1968              	.LVL199:
  26:src/../h/Threads_CPP_API_test.h **** };
 1969              		.loc 1 26 5
 1970 001c 83308100 		ld	ra,8(sp)
 1971              		.cfi_restore 1
 1972 0020 03340100 		ld	s0,0(sp)
 1973              		.cfi_restore 8
 1974              		.cfi_def_cfa 2, 16
 1975 0024 13010101 		addi	sp,sp,16
 1976              		.cfi_def_cfa_offset 0
 1977 0028 67800000 		jr	ra
 1978              		.cfi_endproc
 1979              	.LFE6:
 1981              		.section	.rodata.str1.8
 1982 011d 000000   		.align	3
 1983              	.LC20:
 1984 0120 423A2069 		.string	"B: i="
 1984      3D00
 1985 0126 0000     		.align	3
GAS LISTING /tmp/ccMeUcYP.s 			page 50


 1986              	.LC21:
 1987 0128 42206669 		.string	"B finished!\n"
 1987      6E697368 
 1987      6564210A 
 1987      00
 1988              		.text
 1989              		.align	2
 1990              		.globl	_ZN7WorkerB11workerBodyBEPv
 1992              	_ZN7WorkerB11workerBodyBEPv:
 1993              	.LFB20:
  70:src/../h/Threads_CPP_API_test.h **** 
  71:src/../h/Threads_CPP_API_test.h **** void WorkerB::workerBodyB(void *arg) {
 1994              		.loc 1 71 38 is_stmt 1
 1995              		.cfi_startproc
 1996              	.LVL200:
 1997 0490 130101FE 		addi	sp,sp,-32
 1998              		.cfi_def_cfa_offset 32
 1999 0494 233C1100 		sd	ra,24(sp)
 2000 0498 23388100 		sd	s0,16(sp)
 2001 049c 23349100 		sd	s1,8(sp)
 2002 04a0 23302101 		sd	s2,0(sp)
 2003              		.cfi_offset 1, -8
 2004              		.cfi_offset 8, -16
 2005              		.cfi_offset 9, -24
 2006              		.cfi_offset 18, -32
 2007 04a4 13040102 		addi	s0,sp,32
 2008              		.cfi_def_cfa 8, 0
  72:src/../h/Threads_CPP_API_test.h ****     for (uint64 i = 0; i < 16; i++) {
 2009              		.loc 1 72 5
 2010              	.LVL201:
 2011              	.LBB185:
 2012              		.loc 1 72 17 is_stmt 0
 2013 04a8 13090000 		li	s2,0
 2014 04ac 6F008003 		j	.L103
 2015              	.LVL202:
 2016              	.L100:
 2017              	.LBB186:
 2018              	.LBB187:
 2019              	.LBB188:
  73:src/../h/Threads_CPP_API_test.h ****         printString("B: i="); printInt(i); printString("\n");
  74:src/../h/Threads_CPP_API_test.h ****         for (uint64 j = 0; j < 10000; j++) {
  75:src/../h/Threads_CPP_API_test.h ****             for (uint64 k = 0; k < 30000; k++) { /* busy wait */ }
  76:src/../h/Threads_CPP_API_test.h ****             thread_dispatch();
 2020              		.loc 1 76 13 is_stmt 1 discriminator 2
 2021              		.loc 1 76 28 is_stmt 0 discriminator 2
 2022 04b0 97000000 		call	_Z15thread_dispatchv@plt
 2022      E7800000 
 2023              	.LVL203:
 2024              	.LBE188:
  74:src/../h/Threads_CPP_API_test.h ****             for (uint64 k = 0; k < 30000; k++) { /* busy wait */ }
 2025              		.loc 1 74 9 is_stmt 1 discriminator 2
 2026 04b8 93841400 		addi	s1,s1,1
 2027              	.LVL204:
 2028              	.L102:
  74:src/../h/Threads_CPP_API_test.h ****             for (uint64 k = 0; k < 30000; k++) { /* busy wait */ }
 2029              		.loc 1 74 30 discriminator 1
 2030 04bc B7270000 		li	a5,8192
GAS LISTING /tmp/ccMeUcYP.s 			page 51


 2031 04c0 9387F770 		addi	a5,a5,1807
 2032 04c4 63EE9700 		bgtu	s1,a5,.L99
 2033              	.LBB190:
 2034              	.LBB189:
  75:src/../h/Threads_CPP_API_test.h ****             thread_dispatch();
 2035              		.loc 1 75 25 is_stmt 0
 2036 04c8 13070000 		li	a4,0
 2037              	.L101:
 2038              	.LVL205:
  75:src/../h/Threads_CPP_API_test.h ****             thread_dispatch();
 2039              		.loc 1 75 34 is_stmt 1 discriminator 3
 2040 04cc B7770000 		li	a5,28672
 2041 04d0 9387F752 		addi	a5,a5,1327
 2042 04d4 E3EEE7FC 		bgtu	a4,a5,.L100
  75:src/../h/Threads_CPP_API_test.h ****             thread_dispatch();
 2043              		.loc 1 75 13 discriminator 2
 2044 04d8 13071700 		addi	a4,a4,1
 2045              	.LVL206:
 2046 04dc 6FF01FFF 		j	.L101
 2047              	.LVL207:
 2048              	.L99:
 2049              	.LBE189:
 2050              	.LBE190:
 2051              	.LBE187:
 2052              	.LBE186:
  72:src/../h/Threads_CPP_API_test.h ****         printString("B: i="); printInt(i); printString("\n");
 2053              		.loc 1 72 5 discriminator 2
 2054 04e0 13091900 		addi	s2,s2,1
 2055              	.LVL208:
 2056              	.L103:
  72:src/../h/Threads_CPP_API_test.h ****         printString("B: i="); printInt(i); printString("\n");
 2057              		.loc 1 72 26 discriminator 1
 2058 04e4 9307F000 		li	a5,15
 2059 04e8 63E02705 		bgtu	s2,a5,.L98
 2060              	.LBB192:
  73:src/../h/Threads_CPP_API_test.h ****         for (uint64 j = 0; j < 10000; j++) {
 2061              		.loc 1 73 9
  73:src/../h/Threads_CPP_API_test.h ****         for (uint64 j = 0; j < 10000; j++) {
 2062              		.loc 1 73 20 is_stmt 0
 2063 04ec 17050000 		lla	a0,.LC20
 2063      13050500 
 2064 04f4 97000000 		call	_Z11printStringPKc@plt
 2064      E7800000 
 2065              	.LVL209:
  73:src/../h/Threads_CPP_API_test.h ****         for (uint64 j = 0; j < 10000; j++) {
 2066              		.loc 1 73 31 is_stmt 1
  73:src/../h/Threads_CPP_API_test.h ****         for (uint64 j = 0; j < 10000; j++) {
 2067              		.loc 1 73 39 is_stmt 0
 2068 04fc 13060000 		li	a2,0
 2069 0500 9305A000 		li	a1,10
 2070 0504 1B050900 		sext.w	a0,s2
 2071 0508 97000000 		call	_Z8printIntiii@plt
 2071      E7800000 
 2072              	.LVL210:
  73:src/../h/Threads_CPP_API_test.h ****         for (uint64 j = 0; j < 10000; j++) {
 2073              		.loc 1 73 44 is_stmt 1
  73:src/../h/Threads_CPP_API_test.h ****         for (uint64 j = 0; j < 10000; j++) {
GAS LISTING /tmp/ccMeUcYP.s 			page 52


 2074              		.loc 1 73 55 is_stmt 0
 2075 0510 17050000 		lla	a0,.LC18
 2075      13050500 
 2076 0518 97000000 		call	_Z11printStringPKc@plt
 2076      E7800000 
 2077              	.LVL211:
  74:src/../h/Threads_CPP_API_test.h ****             for (uint64 k = 0; k < 30000; k++) { /* busy wait */ }
 2078              		.loc 1 74 9 is_stmt 1
 2079              	.LBB191:
  74:src/../h/Threads_CPP_API_test.h ****             for (uint64 k = 0; k < 30000; k++) { /* busy wait */ }
 2080              		.loc 1 74 21 is_stmt 0
 2081 0520 93040000 		li	s1,0
 2082 0524 6FF09FF9 		j	.L102
 2083              	.LVL212:
 2084              	.L98:
 2085              	.LBE191:
 2086              	.LBE192:
 2087              	.LBE185:
  77:src/../h/Threads_CPP_API_test.h ****         }
  78:src/../h/Threads_CPP_API_test.h ****     }
  79:src/../h/Threads_CPP_API_test.h ****     printString("B finished!\n");
 2088              		.loc 1 79 5 is_stmt 1
 2089              		.loc 1 79 16 is_stmt 0
 2090 0528 17050000 		lla	a0,.LC21
 2090      13050500 
 2091 0530 97000000 		call	_Z11printStringPKc@plt
 2091      E7800000 
 2092              	.LVL213:
  80:src/../h/Threads_CPP_API_test.h ****     finishedB = true;
 2093              		.loc 1 80 5 is_stmt 1
 2094              		.loc 1 80 15 is_stmt 0
 2095 0538 93071000 		li	a5,1
 2096 053c 17070000 		sb	a5,.LANCHOR0+25,a4
 2096      2300F700 
  81:src/../h/Threads_CPP_API_test.h ****     thread_dispatch();
 2097              		.loc 1 81 5 is_stmt 1
 2098              		.loc 1 81 20 is_stmt 0
 2099 0544 97000000 		call	_Z15thread_dispatchv@plt
 2099      E7800000 
 2100              	.LVL214:
  82:src/../h/Threads_CPP_API_test.h **** }
 2101              		.loc 1 82 1
 2102 054c 83308101 		ld	ra,24(sp)
 2103              		.cfi_restore 1
 2104 0550 03340101 		ld	s0,16(sp)
 2105              		.cfi_restore 8
 2106              		.cfi_def_cfa 2, 32
 2107 0554 83348100 		ld	s1,8(sp)
 2108              		.cfi_restore 9
 2109 0558 03390100 		ld	s2,0(sp)
 2110              		.cfi_restore 18
 2111              	.LVL215:
 2112 055c 13010102 		addi	sp,sp,32
 2113              		.cfi_def_cfa_offset 0
 2114 0560 67800000 		jr	ra
 2115              		.cfi_endproc
 2116              	.LFE20:
GAS LISTING /tmp/ccMeUcYP.s 			page 53


 2118              		.section	.text._ZN7WorkerB3runEv,"axG",@progbits,_ZN7WorkerB3runEv,comdat
 2119              		.align	2
 2120              		.weak	_ZN7WorkerB3runEv
 2122              	_ZN7WorkerB3runEv:
 2123              	.LFB10:
  34:src/../h/Threads_CPP_API_test.h ****         workerBodyB(nullptr);
 2124              		.loc 1 34 10 is_stmt 1
 2125              		.cfi_startproc
 2126              	.LVL216:
 2127 0000 130101FF 		addi	sp,sp,-16
 2128              		.cfi_def_cfa_offset 16
 2129 0004 23341100 		sd	ra,8(sp)
 2130 0008 23308100 		sd	s0,0(sp)
 2131              		.cfi_offset 1, -8
 2132              		.cfi_offset 8, -16
 2133 000c 13040101 		addi	s0,sp,16
 2134              		.cfi_def_cfa 8, 0
  35:src/../h/Threads_CPP_API_test.h ****     }
 2135              		.loc 1 35 9
  35:src/../h/Threads_CPP_API_test.h ****     }
 2136              		.loc 1 35 20 is_stmt 0
 2137 0010 93050000 		li	a1,0
 2138 0014 97000000 		call	_ZN7WorkerB11workerBodyBEPv
 2138      E7800000 
 2139              	.LVL217:
  36:src/../h/Threads_CPP_API_test.h **** };
 2140              		.loc 1 36 5
 2141 001c 83308100 		ld	ra,8(sp)
 2142              		.cfi_restore 1
 2143 0020 03340100 		ld	s0,0(sp)
 2144              		.cfi_restore 8
 2145              		.cfi_def_cfa 2, 16
 2146 0024 13010101 		addi	sp,sp,16
 2147              		.cfi_def_cfa_offset 0
 2148 0028 67800000 		jr	ra
 2149              		.cfi_endproc
 2150              	.LFE10:
 2152              		.section	.rodata.str1.8
 2153 0135 000000   		.align	3
 2154              	.LC22:
 2155 0138 433A2069 		.string	"C: i="
 2155      3D00
 2156 013e 0000     		.align	3
 2157              	.LC23:
 2158 0140 433A2064 		.string	"C: dispatch\n"
 2158      69737061 
 2158      7463680A 
 2158      00
 2159 014d 000000   		.align	3
 2160              	.LC24:
 2161 0150 433A2074 		.string	"C: t1="
 2161      313D00
 2162 0157 00       		.align	3
 2163              	.LC25:
 2164 0158 433A2066 		.string	"C: fibonaci="
 2164      69626F6E 
 2164      6163693D 
GAS LISTING /tmp/ccMeUcYP.s 			page 54


 2164      00
 2165              		.text
 2166              		.align	2
 2167              		.globl	_ZN7WorkerC11workerBodyCEPv
 2169              	_ZN7WorkerC11workerBodyCEPv:
 2170              	.LFB21:
  83:src/../h/Threads_CPP_API_test.h **** 
  84:src/../h/Threads_CPP_API_test.h **** void WorkerC::workerBodyC(void *arg) {
 2171              		.loc 1 84 38 is_stmt 1
 2172              		.cfi_startproc
 2173              	.LVL218:
 2174 0564 130101FE 		addi	sp,sp,-32
 2175              		.cfi_def_cfa_offset 32
 2176 0568 233C1100 		sd	ra,24(sp)
 2177 056c 23388100 		sd	s0,16(sp)
 2178 0570 23349100 		sd	s1,8(sp)
 2179 0574 23302101 		sd	s2,0(sp)
 2180              		.cfi_offset 1, -8
 2181              		.cfi_offset 8, -16
 2182              		.cfi_offset 9, -24
 2183              		.cfi_offset 18, -32
 2184 0578 13040102 		addi	s0,sp,32
 2185              		.cfi_def_cfa 8, 0
  85:src/../h/Threads_CPP_API_test.h ****     uint8 i = 0;
 2186              		.loc 1 85 5
 2187              	.LVL219:
 2188              		.loc 1 85 11 is_stmt 0
 2189 057c 93040000 		li	s1,0
 2190 0580 6F000004 		j	.L109
 2191              	.LVL220:
 2192              	.L113:
  86:src/../h/Threads_CPP_API_test.h ****     for (; i < 3; i++) {
  87:src/../h/Threads_CPP_API_test.h ****         printString("C: i="); printInt(i); printString("\n");
 2193              		.loc 1 87 9 is_stmt 1 discriminator 1
 2194              		.loc 1 87 20 is_stmt 0 discriminator 1
 2195 0584 17050000 		lla	a0,.LC22
 2195      13050500 
 2196 058c 97000000 		call	_Z11printStringPKc@plt
 2196      E7800000 
 2197              	.LVL221:
 2198              		.loc 1 87 31 is_stmt 1 discriminator 1
 2199              		.loc 1 87 39 is_stmt 0 discriminator 1
 2200 0594 13060000 		li	a2,0
 2201 0598 9305A000 		li	a1,10
 2202 059c 13850400 		mv	a0,s1
 2203 05a0 97000000 		call	_Z8printIntiii@plt
 2203      E7800000 
 2204              	.LVL222:
 2205              		.loc 1 87 44 is_stmt 1 discriminator 1
 2206              		.loc 1 87 55 is_stmt 0 discriminator 1
 2207 05a8 17050000 		lla	a0,.LC18
 2207      13050500 
 2208 05b0 97000000 		call	_Z11printStringPKc@plt
 2208      E7800000 
 2209              	.LVL223:
  86:src/../h/Threads_CPP_API_test.h ****     for (; i < 3; i++) {
 2210              		.loc 1 86 5 is_stmt 1 discriminator 1
GAS LISTING /tmp/ccMeUcYP.s 			page 55


 2211 05b8 9B841400 		addiw	s1,s1,1
 2212              	.LVL224:
 2213 05bc 93F4F40F 		andi	s1,s1,0xff
 2214              	.LVL225:
 2215              	.L109:
  86:src/../h/Threads_CPP_API_test.h ****     for (; i < 3; i++) {
 2216              		.loc 1 86 5 discriminator 2
  86:src/../h/Threads_CPP_API_test.h ****     for (; i < 3; i++) {
 2217              		.loc 1 86 14 discriminator 2
 2218 05c0 93072000 		li	a5,2
 2219 05c4 E3F097FC 		bleu	s1,a5,.L113
  88:src/../h/Threads_CPP_API_test.h ****     }
  89:src/../h/Threads_CPP_API_test.h **** 
  90:src/../h/Threads_CPP_API_test.h ****     printString("C: dispatch\n");
 2220              		.loc 1 90 5
 2221              		.loc 1 90 16 is_stmt 0
 2222 05c8 17050000 		lla	a0,.LC23
 2222      13050500 
 2223 05d0 97000000 		call	_Z11printStringPKc@plt
 2223      E7800000 
 2224              	.LVL226:
  91:src/../h/Threads_CPP_API_test.h ****     __asm__ ("li t1, 7");
 2225              		.loc 1 91 5 is_stmt 1
 2226              		.loc 1 91 25 is_stmt 0
 2227              	#APP
 2228              	# 91 "src/../h/Threads_CPP_API_test.h" 1
  92              	    thread_dispatch();
 2229              		li t1, 7
 2230              	# 0 "" 2
 2231              		.loc 1 92 5 is_stmt 1
 2232              		.loc 1 92 20 is_stmt 0
 2233              	#NO_APP
 2234 05dc 97000000 		call	_Z15thread_dispatchv@plt
 2234      E7800000 
 2235              	.LVL227:
  93:src/../h/Threads_CPP_API_test.h **** 
  94:src/../h/Threads_CPP_API_test.h ****     uint64 t1 = 0;
 2236              		.loc 1 94 5 is_stmt 1
  95:src/../h/Threads_CPP_API_test.h ****     __asm__ ("mv %[t1], t1" : [t1] "=r"(t1));
 2237              		.loc 1 95 5
 2238              		.loc 1 95 45 is_stmt 0
 2239              	#APP
 2240              	# 95 "src/../h/Threads_CPP_API_test.h" 1
  96              	
 2241              		mv s2, t1
 2242              	# 0 "" 2
 2243              	.LVL228:
  97:src/../h/Threads_CPP_API_test.h ****     printString("C: t1="); printInt(t1); printString("\n");
 2244              		.loc 1 97 5 is_stmt 1
 2245              		.loc 1 97 16 is_stmt 0
 2246              	#NO_APP
 2247 05e8 17050000 		lla	a0,.LC24
 2247      13050500 
 2248 05f0 97000000 		call	_Z11printStringPKc@plt
 2248      E7800000 
 2249              	.LVL229:
 2250              		.loc 1 97 28 is_stmt 1
GAS LISTING /tmp/ccMeUcYP.s 			page 56


 2251              		.loc 1 97 36 is_stmt 0
 2252 05f8 13060000 		li	a2,0
 2253 05fc 9305A000 		li	a1,10
 2254 0600 1B050900 		sext.w	a0,s2
 2255 0604 97000000 		call	_Z8printIntiii@plt
 2255      E7800000 
 2256              	.LVL230:
 2257              		.loc 1 97 42 is_stmt 1
 2258              		.loc 1 97 53 is_stmt 0
 2259 060c 17050000 		lla	a0,.LC18
 2259      13050500 
 2260 0614 97000000 		call	_Z11printStringPKc@plt
 2260      E7800000 
 2261              	.LVL231:
  98:src/../h/Threads_CPP_API_test.h **** 
  99:src/../h/Threads_CPP_API_test.h ****     uint64 result = fibonacci(12);
 2262              		.loc 1 99 5 is_stmt 1
 2263              		.loc 1 99 30 is_stmt 0
 2264 061c 1305C000 		li	a0,12
 2265 0620 97000000 		call	_Z9fibonaccim
 2265      E7800000 
 2266              	.LVL232:
 2267 0628 13090500 		mv	s2,a0
 2268              	.LVL233:
 100:src/../h/Threads_CPP_API_test.h ****     printString("C: fibonaci="); printInt(result); printString("\n");
 2269              		.loc 1 100 5 is_stmt 1
 2270              		.loc 1 100 16 is_stmt 0
 2271 062c 17050000 		lla	a0,.LC25
 2271      13050500 
 2272              	.LVL234:
 2273 0634 97000000 		call	_Z11printStringPKc@plt
 2273      E7800000 
 2274              	.LVL235:
 2275              		.loc 1 100 34 is_stmt 1
 2276              		.loc 1 100 42 is_stmt 0
 2277 063c 13060000 		li	a2,0
 2278 0640 9305A000 		li	a1,10
 2279 0644 1B050900 		sext.w	a0,s2
 2280 0648 97000000 		call	_Z8printIntiii@plt
 2280      E7800000 
 2281              	.LVL236:
 2282              		.loc 1 100 52 is_stmt 1
 2283              		.loc 1 100 63 is_stmt 0
 2284 0650 17050000 		lla	a0,.LC18
 2284      13050500 
 2285 0658 97000000 		call	_Z11printStringPKc@plt
 2285      E7800000 
 2286              	.LVL237:
 2287 0660 6F000004 		j	.L111
 2288              	.L114:
 101:src/../h/Threads_CPP_API_test.h **** 
 102:src/../h/Threads_CPP_API_test.h ****     for (; i < 6; i++) {
 103:src/../h/Threads_CPP_API_test.h ****         printString("C: i="); printInt(i); printString("\n");
 2289              		.loc 1 103 9 is_stmt 1 discriminator 1
 2290              		.loc 1 103 20 is_stmt 0 discriminator 1
 2291 0664 17050000 		lla	a0,.LC22
 2291      13050500 
GAS LISTING /tmp/ccMeUcYP.s 			page 57


 2292 066c 97000000 		call	_Z11printStringPKc@plt
 2292      E7800000 
 2293              	.LVL238:
 2294              		.loc 1 103 31 is_stmt 1 discriminator 1
 2295              		.loc 1 103 39 is_stmt 0 discriminator 1
 2296 0674 13060000 		li	a2,0
 2297 0678 9305A000 		li	a1,10
 2298 067c 13850400 		mv	a0,s1
 2299 0680 97000000 		call	_Z8printIntiii@plt
 2299      E7800000 
 2300              	.LVL239:
 2301              		.loc 1 103 44 is_stmt 1 discriminator 1
 2302              		.loc 1 103 55 is_stmt 0 discriminator 1
 2303 0688 17050000 		lla	a0,.LC18
 2303      13050500 
 2304 0690 97000000 		call	_Z11printStringPKc@plt
 2304      E7800000 
 2305              	.LVL240:
 102:src/../h/Threads_CPP_API_test.h ****         printString("C: i="); printInt(i); printString("\n");
 2306              		.loc 1 102 5 is_stmt 1 discriminator 1
 2307 0698 9B841400 		addiw	s1,s1,1
 2308              	.LVL241:
 2309 069c 93F4F40F 		andi	s1,s1,0xff
 2310              	.LVL242:
 2311              	.L111:
 102:src/../h/Threads_CPP_API_test.h ****         printString("C: i="); printInt(i); printString("\n");
 2312              		.loc 1 102 5 discriminator 2
 102:src/../h/Threads_CPP_API_test.h ****         printString("C: i="); printInt(i); printString("\n");
 2313              		.loc 1 102 14 discriminator 2
 2314 06a0 93075000 		li	a5,5
 2315 06a4 E3F097FC 		bleu	s1,a5,.L114
 104:src/../h/Threads_CPP_API_test.h ****     }
 105:src/../h/Threads_CPP_API_test.h **** 
 106:src/../h/Threads_CPP_API_test.h ****     printString("A finished!\n");
 2316              		.loc 1 106 5
 2317              		.loc 1 106 16 is_stmt 0
 2318 06a8 17050000 		lla	a0,.LC19
 2318      13050500 
 2319 06b0 97000000 		call	_Z11printStringPKc@plt
 2319      E7800000 
 2320              	.LVL243:
 107:src/../h/Threads_CPP_API_test.h ****     finishedC = true;
 2321              		.loc 1 107 5 is_stmt 1
 2322              		.loc 1 107 15 is_stmt 0
 2323 06b8 93071000 		li	a5,1
 2324 06bc 17070000 		sb	a5,.LANCHOR0+26,a4
 2324      2300F700 
 108:src/../h/Threads_CPP_API_test.h ****     thread_dispatch();
 2325              		.loc 1 108 5 is_stmt 1
 2326              		.loc 1 108 20 is_stmt 0
 2327 06c4 97000000 		call	_Z15thread_dispatchv@plt
 2327      E7800000 
 2328              	.LVL244:
 109:src/../h/Threads_CPP_API_test.h **** }
 2329              		.loc 1 109 1
 2330 06cc 83308101 		ld	ra,24(sp)
 2331              		.cfi_restore 1
GAS LISTING /tmp/ccMeUcYP.s 			page 58


 2332 06d0 03340101 		ld	s0,16(sp)
 2333              		.cfi_restore 8
 2334              		.cfi_def_cfa 2, 32
 2335 06d4 83348100 		ld	s1,8(sp)
 2336              		.cfi_restore 9
 2337              	.LVL245:
 2338 06d8 03390100 		ld	s2,0(sp)
 2339              		.cfi_restore 18
 2340              	.LVL246:
 2341 06dc 13010102 		addi	sp,sp,32
 2342              		.cfi_def_cfa_offset 0
 2343 06e0 67800000 		jr	ra
 2344              		.cfi_endproc
 2345              	.LFE21:
 2347              		.section	.text._ZN7WorkerC3runEv,"axG",@progbits,_ZN7WorkerC3runEv,comdat
 2348              		.align	2
 2349              		.weak	_ZN7WorkerC3runEv
 2351              	_ZN7WorkerC3runEv:
 2352              	.LFB14:
  44:src/../h/Threads_CPP_API_test.h ****         workerBodyC(nullptr);
 2353              		.loc 1 44 10 is_stmt 1
 2354              		.cfi_startproc
 2355              	.LVL247:
 2356 0000 130101FF 		addi	sp,sp,-16
 2357              		.cfi_def_cfa_offset 16
 2358 0004 23341100 		sd	ra,8(sp)
 2359 0008 23308100 		sd	s0,0(sp)
 2360              		.cfi_offset 1, -8
 2361              		.cfi_offset 8, -16
 2362 000c 13040101 		addi	s0,sp,16
 2363              		.cfi_def_cfa 8, 0
  45:src/../h/Threads_CPP_API_test.h ****     }
 2364              		.loc 1 45 9
  45:src/../h/Threads_CPP_API_test.h ****     }
 2365              		.loc 1 45 20 is_stmt 0
 2366 0010 93050000 		li	a1,0
 2367 0014 97000000 		call	_ZN7WorkerC11workerBodyCEPv
 2367      E7800000 
 2368              	.LVL248:
  46:src/../h/Threads_CPP_API_test.h **** };
 2369              		.loc 1 46 5
 2370 001c 83308100 		ld	ra,8(sp)
 2371              		.cfi_restore 1
 2372 0020 03340100 		ld	s0,0(sp)
 2373              		.cfi_restore 8
 2374              		.cfi_def_cfa 2, 16
 2375 0024 13010101 		addi	sp,sp,16
 2376              		.cfi_def_cfa_offset 0
 2377 0028 67800000 		jr	ra
 2378              		.cfi_endproc
 2379              	.LFE14:
 2381              		.section	.rodata.str1.8
 2382 0165 000000   		.align	3
 2383              	.LC26:
 2384 0168 443A2069 		.string	"D: i="
 2384      3D00
 2385 016e 0000     		.align	3
GAS LISTING /tmp/ccMeUcYP.s 			page 59


 2386              	.LC27:
 2387 0170 443A2064 		.string	"D: dispatch\n"
 2387      69737061 
 2387      7463680A 
 2387      00
 2388 017d 000000   		.align	3
 2389              	.LC28:
 2390 0180 443A2066 		.string	"D: fibonaci="
 2390      69626F6E 
 2390      6163693D 
 2390      00
 2391 018d 000000   		.align	3
 2392              	.LC29:
 2393 0190 44206669 		.string	"D finished!\n"
 2393      6E697368 
 2393      6564210A 
 2393      00
 2394              		.text
 2395              		.align	2
 2396              		.globl	_ZN7WorkerD11workerBodyDEPv
 2398              	_ZN7WorkerD11workerBodyDEPv:
 2399              	.LFB22:
 110:src/../h/Threads_CPP_API_test.h **** 
 111:src/../h/Threads_CPP_API_test.h **** void WorkerD::workerBodyD(void* arg) {
 2400              		.loc 1 111 38 is_stmt 1
 2401              		.cfi_startproc
 2402              	.LVL249:
 2403 06e4 130101FE 		addi	sp,sp,-32
 2404              		.cfi_def_cfa_offset 32
 2405 06e8 233C1100 		sd	ra,24(sp)
 2406 06ec 23388100 		sd	s0,16(sp)
 2407 06f0 23349100 		sd	s1,8(sp)
 2408 06f4 23302101 		sd	s2,0(sp)
 2409              		.cfi_offset 1, -8
 2410              		.cfi_offset 8, -16
 2411              		.cfi_offset 9, -24
 2412              		.cfi_offset 18, -32
 2413 06f8 13040102 		addi	s0,sp,32
 2414              		.cfi_def_cfa 8, 0
 112:src/../h/Threads_CPP_API_test.h ****     uint8 i = 10;
 2415              		.loc 1 112 5
 2416              	.LVL250:
 2417              		.loc 1 112 11 is_stmt 0
 2418 06fc 9304A000 		li	s1,10
 2419 0700 6F000004 		j	.L119
 2420              	.LVL251:
 2421              	.L123:
 113:src/../h/Threads_CPP_API_test.h ****     for (; i < 13; i++) {
 114:src/../h/Threads_CPP_API_test.h ****         printString("D: i="); printInt(i); printString("\n");
 2422              		.loc 1 114 9 is_stmt 1 discriminator 1
 2423              		.loc 1 114 20 is_stmt 0 discriminator 1
 2424 0704 17050000 		lla	a0,.LC26
 2424      13050500 
 2425 070c 97000000 		call	_Z11printStringPKc@plt
 2425      E7800000 
 2426              	.LVL252:
 2427              		.loc 1 114 31 is_stmt 1 discriminator 1
GAS LISTING /tmp/ccMeUcYP.s 			page 60


 2428              		.loc 1 114 39 is_stmt 0 discriminator 1
 2429 0714 13060000 		li	a2,0
 2430 0718 9305A000 		li	a1,10
 2431 071c 13850400 		mv	a0,s1
 2432 0720 97000000 		call	_Z8printIntiii@plt
 2432      E7800000 
 2433              	.LVL253:
 2434              		.loc 1 114 44 is_stmt 1 discriminator 1
 2435              		.loc 1 114 55 is_stmt 0 discriminator 1
 2436 0728 17050000 		lla	a0,.LC18
 2436      13050500 
 2437 0730 97000000 		call	_Z11printStringPKc@plt
 2437      E7800000 
 2438              	.LVL254:
 113:src/../h/Threads_CPP_API_test.h ****     for (; i < 13; i++) {
 2439              		.loc 1 113 5 is_stmt 1 discriminator 1
 2440 0738 9B841400 		addiw	s1,s1,1
 2441              	.LVL255:
 2442 073c 93F4F40F 		andi	s1,s1,0xff
 2443              	.LVL256:
 2444              	.L119:
 113:src/../h/Threads_CPP_API_test.h ****     for (; i < 13; i++) {
 2445              		.loc 1 113 5 discriminator 2
 113:src/../h/Threads_CPP_API_test.h ****     for (; i < 13; i++) {
 2446              		.loc 1 113 14 discriminator 2
 2447 0740 9307C000 		li	a5,12
 2448 0744 E3F097FC 		bleu	s1,a5,.L123
 115:src/../h/Threads_CPP_API_test.h ****     }
 116:src/../h/Threads_CPP_API_test.h **** 
 117:src/../h/Threads_CPP_API_test.h ****     printString("D: dispatch\n");
 2449              		.loc 1 117 5
 2450              		.loc 1 117 16 is_stmt 0
 2451 0748 17050000 		lla	a0,.LC27
 2451      13050500 
 2452 0750 97000000 		call	_Z11printStringPKc@plt
 2452      E7800000 
 2453              	.LVL257:
 118:src/../h/Threads_CPP_API_test.h ****     __asm__ ("li t1, 5");
 2454              		.loc 1 118 5 is_stmt 1
 2455              		.loc 1 118 25 is_stmt 0
 2456              	#APP
 2457              	# 118 "src/../h/Threads_CPP_API_test.h" 1
 119              	    thread_dispatch();
 2458              		li t1, 5
 2459              	# 0 "" 2
 2460              		.loc 1 119 5 is_stmt 1
 2461              		.loc 1 119 20 is_stmt 0
 2462              	#NO_APP
 2463 075c 97000000 		call	_Z15thread_dispatchv@plt
 2463      E7800000 
 2464              	.LVL258:
 120:src/../h/Threads_CPP_API_test.h **** 
 121:src/../h/Threads_CPP_API_test.h ****     uint64 result = fibonacci(16);
 2465              		.loc 1 121 5 is_stmt 1
 2466              		.loc 1 121 30 is_stmt 0
 2467 0764 13050001 		li	a0,16
 2468 0768 97000000 		call	_Z9fibonaccim
GAS LISTING /tmp/ccMeUcYP.s 			page 61


 2468      E7800000 
 2469              	.LVL259:
 2470 0770 13090500 		mv	s2,a0
 2471              	.LVL260:
 122:src/../h/Threads_CPP_API_test.h ****     printString("D: fibonaci="); printInt(result); printString("\n");
 2472              		.loc 1 122 5 is_stmt 1
 2473              		.loc 1 122 16 is_stmt 0
 2474 0774 17050000 		lla	a0,.LC28
 2474      13050500 
 2475              	.LVL261:
 2476 077c 97000000 		call	_Z11printStringPKc@plt
 2476      E7800000 
 2477              	.LVL262:
 2478              		.loc 1 122 34 is_stmt 1
 2479              		.loc 1 122 42 is_stmt 0
 2480 0784 13060000 		li	a2,0
 2481 0788 9305A000 		li	a1,10
 2482 078c 1B050900 		sext.w	a0,s2
 2483 0790 97000000 		call	_Z8printIntiii@plt
 2483      E7800000 
 2484              	.LVL263:
 2485              		.loc 1 122 52 is_stmt 1
 2486              		.loc 1 122 63 is_stmt 0
 2487 0798 17050000 		lla	a0,.LC18
 2487      13050500 
 2488 07a0 97000000 		call	_Z11printStringPKc@plt
 2488      E7800000 
 2489              	.LVL264:
 2490 07a8 6F000004 		j	.L121
 2491              	.L124:
 123:src/../h/Threads_CPP_API_test.h **** 
 124:src/../h/Threads_CPP_API_test.h ****     for (; i < 16; i++) {
 125:src/../h/Threads_CPP_API_test.h ****         printString("D: i="); printInt(i); printString("\n");
 2492              		.loc 1 125 9 is_stmt 1 discriminator 1
 2493              		.loc 1 125 20 is_stmt 0 discriminator 1
 2494 07ac 17050000 		lla	a0,.LC26
 2494      13050500 
 2495 07b4 97000000 		call	_Z11printStringPKc@plt
 2495      E7800000 
 2496              	.LVL265:
 2497              		.loc 1 125 31 is_stmt 1 discriminator 1
 2498              		.loc 1 125 39 is_stmt 0 discriminator 1
 2499 07bc 13060000 		li	a2,0
 2500 07c0 9305A000 		li	a1,10
 2501 07c4 13850400 		mv	a0,s1
 2502 07c8 97000000 		call	_Z8printIntiii@plt
 2502      E7800000 
 2503              	.LVL266:
 2504              		.loc 1 125 44 is_stmt 1 discriminator 1
 2505              		.loc 1 125 55 is_stmt 0 discriminator 1
 2506 07d0 17050000 		lla	a0,.LC18
 2506      13050500 
 2507 07d8 97000000 		call	_Z11printStringPKc@plt
 2507      E7800000 
 2508              	.LVL267:
 124:src/../h/Threads_CPP_API_test.h ****         printString("D: i="); printInt(i); printString("\n");
 2509              		.loc 1 124 5 is_stmt 1 discriminator 1
GAS LISTING /tmp/ccMeUcYP.s 			page 62


 2510 07e0 9B841400 		addiw	s1,s1,1
 2511              	.LVL268:
 2512 07e4 93F4F40F 		andi	s1,s1,0xff
 2513              	.LVL269:
 2514              	.L121:
 124:src/../h/Threads_CPP_API_test.h ****         printString("D: i="); printInt(i); printString("\n");
 2515              		.loc 1 124 5 discriminator 2
 124:src/../h/Threads_CPP_API_test.h ****         printString("D: i="); printInt(i); printString("\n");
 2516              		.loc 1 124 14 discriminator 2
 2517 07e8 9307F000 		li	a5,15
 2518 07ec E3F097FC 		bleu	s1,a5,.L124
 126:src/../h/Threads_CPP_API_test.h ****     }
 127:src/../h/Threads_CPP_API_test.h **** 
 128:src/../h/Threads_CPP_API_test.h ****     printString("D finished!\n");
 2519              		.loc 1 128 5
 2520              		.loc 1 128 16 is_stmt 0
 2521 07f0 17050000 		lla	a0,.LC29
 2521      13050500 
 2522 07f8 97000000 		call	_Z11printStringPKc@plt
 2522      E7800000 
 2523              	.LVL270:
 129:src/../h/Threads_CPP_API_test.h ****     finishedD = true;
 2524              		.loc 1 129 5 is_stmt 1
 2525              		.loc 1 129 15 is_stmt 0
 2526 0800 93071000 		li	a5,1
 2527 0804 17070000 		sb	a5,.LANCHOR0+27,a4
 2527      2300F700 
 130:src/../h/Threads_CPP_API_test.h ****     thread_dispatch();
 2528              		.loc 1 130 5 is_stmt 1
 2529              		.loc 1 130 20 is_stmt 0
 2530 080c 97000000 		call	_Z15thread_dispatchv@plt
 2530      E7800000 
 2531              	.LVL271:
 131:src/../h/Threads_CPP_API_test.h **** }
 2532              		.loc 1 131 1
 2533 0814 83308101 		ld	ra,24(sp)
 2534              		.cfi_restore 1
 2535 0818 03340101 		ld	s0,16(sp)
 2536              		.cfi_restore 8
 2537              		.cfi_def_cfa 2, 32
 2538 081c 83348100 		ld	s1,8(sp)
 2539              		.cfi_restore 9
 2540              	.LVL272:
 2541 0820 03390100 		ld	s2,0(sp)
 2542              		.cfi_restore 18
 2543              	.LVL273:
 2544 0824 13010102 		addi	sp,sp,32
 2545              		.cfi_def_cfa_offset 0
 2546 0828 67800000 		jr	ra
 2547              		.cfi_endproc
 2548              	.LFE22:
 2550              		.section	.text._ZN7WorkerD3runEv,"axG",@progbits,_ZN7WorkerD3runEv,comdat
 2551              		.align	2
 2552              		.weak	_ZN7WorkerD3runEv
 2554              	_ZN7WorkerD3runEv:
 2555              	.LFB18:
  54:src/../h/Threads_CPP_API_test.h ****         workerBodyD(nullptr);
GAS LISTING /tmp/ccMeUcYP.s 			page 63


 2556              		.loc 1 54 10 is_stmt 1
 2557              		.cfi_startproc
 2558              	.LVL274:
 2559 0000 130101FF 		addi	sp,sp,-16
 2560              		.cfi_def_cfa_offset 16
 2561 0004 23341100 		sd	ra,8(sp)
 2562 0008 23308100 		sd	s0,0(sp)
 2563              		.cfi_offset 1, -8
 2564              		.cfi_offset 8, -16
 2565 000c 13040101 		addi	s0,sp,16
 2566              		.cfi_def_cfa 8, 0
  55:src/../h/Threads_CPP_API_test.h ****     }
 2567              		.loc 1 55 9
  55:src/../h/Threads_CPP_API_test.h ****     }
 2568              		.loc 1 55 20 is_stmt 0
 2569 0010 93050000 		li	a1,0
 2570 0014 97000000 		call	_ZN7WorkerD11workerBodyDEPv
 2570      E7800000 
 2571              	.LVL275:
  56:src/../h/Threads_CPP_API_test.h **** };
 2572              		.loc 1 56 5
 2573 001c 83308100 		ld	ra,8(sp)
 2574              		.cfi_restore 1
 2575 0020 03340100 		ld	s0,0(sp)
 2576              		.cfi_restore 8
 2577              		.cfi_def_cfa 2, 16
 2578 0024 13010101 		addi	sp,sp,16
 2579              		.cfi_def_cfa_offset 0
 2580 0028 67800000 		jr	ra
 2581              		.cfi_endproc
 2582              	.LFE18:
 2584              		.section	.rodata.str1.8
 2585 019d 000000   		.align	3
 2586              	.LC30:
 2587 01a0 54687265 		.string	"ThreadA created\n"
 2587      61644120 
 2587      63726561 
 2587      7465640A 
 2587      00
 2588 01b1 00000000 		.align	3
 2588      000000
 2589              	.LC31:
 2590 01b8 54687265 		.string	"ThreadB created\n"
 2590      61644220 
 2590      63726561 
 2590      7465640A 
 2590      00
 2591 01c9 00000000 		.align	3
 2591      000000
 2592              	.LC32:
 2593 01d0 54687265 		.string	"ThreadC created\n"
 2593      61644320 
 2593      63726561 
 2593      7465640A 
 2593      00
 2594 01e1 00000000 		.align	3
 2594      000000
GAS LISTING /tmp/ccMeUcYP.s 			page 64


 2595              	.LC33:
 2596 01e8 54687265 		.string	"ThreadD created\n"
 2596      61644420 
 2596      63726561 
 2596      7465640A 
 2596      00
 2597              		.text
 2598              		.align	2
 2599              		.globl	_Z20Threads_CPP_API_testv
 2601              	_Z20Threads_CPP_API_testv:
 2602              	.LFB23:
 132:src/../h/Threads_CPP_API_test.h **** 
 133:src/../h/Threads_CPP_API_test.h **** 
 134:src/../h/Threads_CPP_API_test.h **** void Threads_CPP_API_test() {
 2603              		.loc 1 134 29 is_stmt 1
 2604              		.cfi_startproc
 2605              		.cfi_personality 0x9b,DW.ref.__gxx_personality_v0
 2606              		.cfi_lsda 0x1b,.LLSDA23
 2607 082c 130101FC 		addi	sp,sp,-64
 2608              		.cfi_def_cfa_offset 64
 2609 0830 233C1102 		sd	ra,56(sp)
 2610 0834 23388102 		sd	s0,48(sp)
 2611 0838 23349102 		sd	s1,40(sp)
 2612 083c 23302103 		sd	s2,32(sp)
 2613              		.cfi_offset 1, -8
 2614              		.cfi_offset 8, -16
 2615              		.cfi_offset 9, -24
 2616              		.cfi_offset 18, -32
 2617 0840 13040104 		addi	s0,sp,64
 2618              		.cfi_def_cfa 8, 0
 135:src/../h/Threads_CPP_API_test.h ****     Thread* threads[4];
 2619              		.loc 1 135 5
 136:src/../h/Threads_CPP_API_test.h **** 
 137:src/../h/Threads_CPP_API_test.h ****     threads[0] = new WorkerA();
 2620              		.loc 1 137 5
 2621              		.loc 1 137 30 is_stmt 0
 2622 0844 13050001 		li	a0,16
 2623              	.LEHB0:
 2624 0848 97000000 		call	_Znwm@plt
 2624      E7800000 
 2625              	.LVL276:
 2626              	.LEHE0:
 2627 0850 93040500 		mv	s1,a0
 2628              	.LVL277:
 2629              	.LEHB1:
 2630              	.LBB193:
 2631              	.LBB194:
  22:src/../h/Threads_CPP_API_test.h **** 
 2632              		.loc 1 22 22
 2633 0854 97000000 		call	_ZN6ThreadC2Ev@plt
 2633      E7800000 
 2634              	.LVL278:
 2635              	.LEHE1:
 2636 085c 97070000 		lla	a5,_ZTV7WorkerA+16
 2636      93870700 
 2637 0864 23B0F400 		sd	a5,0(s1)
 2638              	.LVL279:
GAS LISTING /tmp/ccMeUcYP.s 			page 65


 2639              	.LBE194:
 2640              	.LBE193:
 2641              		.loc 1 137 16
 2642 0868 233094FC 		sd	s1,-64(s0)
 138:src/../h/Threads_CPP_API_test.h ****     printString("ThreadA created\n");
 2643              		.loc 1 138 5 is_stmt 1
 2644              		.loc 1 138 16 is_stmt 0
 2645 086c 17050000 		lla	a0,.LC30
 2645      13050500 
 2646              	.LEHB2:
 2647 0874 97000000 		call	_Z11printStringPKc@plt
 2647      E7800000 
 2648              	.LVL280:
 139:src/../h/Threads_CPP_API_test.h **** 
 140:src/../h/Threads_CPP_API_test.h ****     threads[1] = new WorkerB();
 2649              		.loc 1 140 5 is_stmt 1
 2650              		.loc 1 140 30 is_stmt 0
 2651 087c 13050001 		li	a0,16
 2652 0880 97000000 		call	_Znwm@plt
 2652      E7800000 
 2653              	.LVL281:
 2654              	.LEHE2:
 2655 0888 93040500 		mv	s1,a0
 2656              	.LVL282:
 2657              	.LEHB3:
 2658              	.LBB195:
 2659              	.LBB196:
  32:src/../h/Threads_CPP_API_test.h **** 
 2660              		.loc 1 32 22
 2661 088c 97000000 		call	_ZN6ThreadC2Ev@plt
 2661      E7800000 
 2662              	.LVL283:
 2663              	.LEHE3:
 2664 0894 97070000 		lla	a5,_ZTV7WorkerB+16
 2664      93870700 
 2665 089c 23B0F400 		sd	a5,0(s1)
 2666              	.LVL284:
 2667              	.LBE196:
 2668              	.LBE195:
 2669              		.loc 1 140 16
 2670 08a0 233494FC 		sd	s1,-56(s0)
 141:src/../h/Threads_CPP_API_test.h ****     printString("ThreadB created\n");
 2671              		.loc 1 141 5 is_stmt 1
 2672              		.loc 1 141 16 is_stmt 0
 2673 08a4 17050000 		lla	a0,.LC31
 2673      13050500 
 2674              	.LEHB4:
 2675 08ac 97000000 		call	_Z11printStringPKc@plt
 2675      E7800000 
 2676              	.LVL285:
 142:src/../h/Threads_CPP_API_test.h **** 
 143:src/../h/Threads_CPP_API_test.h ****     threads[2] = new WorkerC();
 2677              		.loc 1 143 5 is_stmt 1
 2678              		.loc 1 143 30 is_stmt 0
 2679 08b4 13050001 		li	a0,16
 2680 08b8 97000000 		call	_Znwm@plt
 2680      E7800000 
GAS LISTING /tmp/ccMeUcYP.s 			page 66


 2681              	.LVL286:
 2682              	.LEHE4:
 2683 08c0 93040500 		mv	s1,a0
 2684              	.LVL287:
 2685              	.LEHB5:
 2686              	.LBB197:
 2687              	.LBB198:
  42:src/../h/Threads_CPP_API_test.h **** 
 2688              		.loc 1 42 22
 2689 08c4 97000000 		call	_ZN6ThreadC2Ev@plt
 2689      E7800000 
 2690              	.LVL288:
 2691              	.LEHE5:
 2692 08cc 97070000 		lla	a5,_ZTV7WorkerC+16
 2692      93870700 
 2693 08d4 23B0F400 		sd	a5,0(s1)
 2694              	.LVL289:
 2695              	.LBE198:
 2696              	.LBE197:
 2697              		.loc 1 143 16
 2698 08d8 233894FC 		sd	s1,-48(s0)
 144:src/../h/Threads_CPP_API_test.h ****     printString("ThreadC created\n");
 2699              		.loc 1 144 5 is_stmt 1
 2700              		.loc 1 144 16 is_stmt 0
 2701 08dc 17050000 		lla	a0,.LC32
 2701      13050500 
 2702              	.LEHB6:
 2703 08e4 97000000 		call	_Z11printStringPKc@plt
 2703      E7800000 
 2704              	.LVL290:
 145:src/../h/Threads_CPP_API_test.h **** 
 146:src/../h/Threads_CPP_API_test.h ****     threads[3] = new WorkerD();
 2705              		.loc 1 146 5 is_stmt 1
 2706              		.loc 1 146 30 is_stmt 0
 2707 08ec 13050001 		li	a0,16
 2708 08f0 97000000 		call	_Znwm@plt
 2708      E7800000 
 2709              	.LVL291:
 2710              	.LEHE6:
 2711 08f8 93040500 		mv	s1,a0
 2712              	.LVL292:
 2713              	.LEHB7:
 2714              	.LBB199:
 2715              	.LBB200:
  52:src/../h/Threads_CPP_API_test.h **** 
 2716              		.loc 1 52 22
 2717 08fc 97000000 		call	_ZN6ThreadC2Ev@plt
 2717      E7800000 
 2718              	.LVL293:
 2719              	.LEHE7:
 2720 0904 97070000 		lla	a5,_ZTV7WorkerD+16
 2720      93870700 
 2721 090c 23B0F400 		sd	a5,0(s1)
 2722              	.LVL294:
 2723              	.LBE200:
 2724              	.LBE199:
 2725              		.loc 1 146 16
GAS LISTING /tmp/ccMeUcYP.s 			page 67


 2726 0910 233C94FC 		sd	s1,-40(s0)
 147:src/../h/Threads_CPP_API_test.h ****     printString("ThreadD created\n");
 2727              		.loc 1 147 5 is_stmt 1
 2728              		.loc 1 147 16 is_stmt 0
 2729 0914 17050000 		lla	a0,.LC33
 2729      13050500 
 2730              	.LEHB8:
 2731 091c 97000000 		call	_Z11printStringPKc@plt
 2731      E7800000 
 2732              	.LVL295:
 2733              	.LBB201:
 148:src/../h/Threads_CPP_API_test.h **** 
 149:src/../h/Threads_CPP_API_test.h ****     for(int i=0; i<4; i++) {
 2734              		.loc 1 149 13
 2735 0924 93040000 		li	s1,0
 2736              	.L129:
 2737              	.LVL296:
 2738              		.loc 1 149 19 is_stmt 1 discriminator 1
 2739 0928 93073000 		li	a5,3
 2740 092c 63C69702 		bgt	s1,a5,.L128
 150:src/../h/Threads_CPP_API_test.h ****         threads[i]->start();
 2741              		.loc 1 150 9
 2742              		.loc 1 150 18 is_stmt 0
 2743 0930 93973400 		slli	a5,s1,3
 2744 0934 130704FE 		addi	a4,s0,-32
 2745 0938 B307F700 		add	a5,a4,a5
 2746              		.loc 1 150 26
 2747 093c 03B507FE 		ld	a0,-32(a5)
 2748 0940 97000000 		call	_ZN6Thread5startEv@plt
 2748      E7800000 
 2749              	.LVL297:
 149:src/../h/Threads_CPP_API_test.h ****         threads[i]->start();
 2750              		.loc 1 149 5 is_stmt 1
 2751 0948 9B841400 		addiw	s1,s1,1
 2752              	.LVL298:
 2753 094c 6FF0DFFD 		j	.L129
 2754              	.LVL299:
 2755              	.L130:
 2756              	.LBE201:
 151:src/../h/Threads_CPP_API_test.h ****     }
 152:src/../h/Threads_CPP_API_test.h **** 
 153:src/../h/Threads_CPP_API_test.h ****     while (!(finishedA && finishedB && finishedC && finishedD)) {
 154:src/../h/Threads_CPP_API_test.h ****         Thread::dispatch();
 2757              		.loc 1 154 9
 2758              		.loc 1 154 25 is_stmt 0
 2759 0950 97000000 		call	_ZN6Thread8dispatchEv@plt
 2759      E7800000 
 2760              	.LVL300:
 2761              	.LEHE8:
 2762              	.L128:
 153:src/../h/Threads_CPP_API_test.h ****         Thread::dispatch();
 2763              		.loc 1 153 5 is_stmt 1
 153:src/../h/Threads_CPP_API_test.h ****         Thread::dispatch();
 2764              		.loc 1 153 12
 2765 0958 97070000 		lbu	a5,.LANCHOR0+24
 2765      83C70700 
 2766 0960 E38807FE 		beqz	a5,.L130
GAS LISTING /tmp/ccMeUcYP.s 			page 68


 153:src/../h/Threads_CPP_API_test.h ****         Thread::dispatch();
 2767              		.loc 1 153 24 is_stmt 0 discriminator 1
 2768 0964 97070000 		lbu	a5,.LANCHOR0+25
 2768      83C70700 
 2769 096c E38207FE 		beqz	a5,.L130
 153:src/../h/Threads_CPP_API_test.h ****         Thread::dispatch();
 2770              		.loc 1 153 37 discriminator 2
 2771 0970 97070000 		lbu	a5,.LANCHOR0+26
 2771      83C70700 
 2772 0978 E38C07FC 		beqz	a5,.L130
 153:src/../h/Threads_CPP_API_test.h ****         Thread::dispatch();
 2773              		.loc 1 153 12 discriminator 3
 2774 097c 97070000 		lbu	a5,.LANCHOR0+27
 2774      83C70700 
 2775 0984 E38607FC 		beqz	a5,.L130
 2776              	.LBB202:
 155:src/../h/Threads_CPP_API_test.h ****     }
 156:src/../h/Threads_CPP_API_test.h **** 
 157:src/../h/Threads_CPP_API_test.h ****     for (auto thread: threads) { delete thread; }
 2777              		.loc 1 157 23
 2778 0988 930404FC 		addi	s1,s0,-64
 2779              	.LVL301:
 2780 098c 6F008000 		j	.L131
 2781              	.LVL302:
 2782              	.L133:
 2783              		.loc 1 157 5 is_stmt 1 discriminator 5
 2784 0990 93848400 		addi	s1,s1,8
 2785              	.LVL303:
 2786              	.L131:
 2787              		.loc 1 157 23 discriminator 6
 2788 0994 930704FE 		addi	a5,s0,-32
 2789 0998 6386F408 		beq	s1,a5,.L127
 2790              		.loc 1 157 15 is_stmt 0 discriminator 2
 2791 099c 03B50400 		ld	a0,0(s1)
 2792              	.LVL304:
 2793              		.loc 1 157 34 is_stmt 1 discriminator 2
 2794              		.loc 1 157 47 is_stmt 0 discriminator 2
 2795 09a0 E30805FE 		beqz	a0,.L133
 2796              		.loc 1 157 41 discriminator 3
 2797 09a4 83370500 		ld	a5,0(a0)
 2798 09a8 83B78700 		ld	a5,8(a5)
 2799 09ac E7800700 		jalr	a5
 2800              	.LVL305:
 2801 09b0 6FF01FFE 		j	.L133
 2802              	.LVL306:
 2803              	.L139:
 2804 09b4 13090500 		mv	s2,a0
 2805              	.LBE202:
 137:src/../h/Threads_CPP_API_test.h ****     printString("ThreadA created\n");
 2806              		.loc 1 137 30
 2807 09b8 13850400 		mv	a0,s1
 2808 09bc 97000000 		call	_ZdlPv@plt
 2808      E7800000 
 2809              	.LVL307:
 2810 09c4 13050900 		mv	a0,s2
 2811              	.LEHB9:
 2812 09c8 97000000 		call	_Unwind_Resume@plt
GAS LISTING /tmp/ccMeUcYP.s 			page 69


 2812      E7800000 
 2813              	.LVL308:
 2814              	.LEHE9:
 2815              	.L140:
 2816 09d0 13090500 		mv	s2,a0
 140:src/../h/Threads_CPP_API_test.h ****     printString("ThreadB created\n");
 2817              		.loc 1 140 30
 2818 09d4 13850400 		mv	a0,s1
 2819 09d8 97000000 		call	_ZdlPv@plt
 2819      E7800000 
 2820              	.LVL309:
 2821 09e0 13050900 		mv	a0,s2
 2822              	.LEHB10:
 2823 09e4 97000000 		call	_Unwind_Resume@plt
 2823      E7800000 
 2824              	.LVL310:
 2825              	.LEHE10:
 2826              	.L141:
 2827 09ec 13090500 		mv	s2,a0
 143:src/../h/Threads_CPP_API_test.h ****     printString("ThreadC created\n");
 2828              		.loc 1 143 30
 2829 09f0 13850400 		mv	a0,s1
 2830 09f4 97000000 		call	_ZdlPv@plt
 2830      E7800000 
 2831              	.LVL311:
 2832 09fc 13050900 		mv	a0,s2
 2833              	.LEHB11:
 2834 0a00 97000000 		call	_Unwind_Resume@plt
 2834      E7800000 
 2835              	.LVL312:
 2836              	.LEHE11:
 2837              	.L142:
 2838 0a08 13090500 		mv	s2,a0
 146:src/../h/Threads_CPP_API_test.h ****     printString("ThreadD created\n");
 2839              		.loc 1 146 30
 2840 0a0c 13850400 		mv	a0,s1
 2841 0a10 97000000 		call	_ZdlPv@plt
 2841      E7800000 
 2842              	.LVL313:
 2843 0a18 13050900 		mv	a0,s2
 2844              	.LEHB12:
 2845 0a1c 97000000 		call	_Unwind_Resume@plt
 2845      E7800000 
 2846              	.LVL314:
 2847              	.LEHE12:
 2848              	.L127:
 158:src/../h/Threads_CPP_API_test.h **** }
 2849              		.loc 1 158 1
 2850 0a24 83308103 		ld	ra,56(sp)
 2851              		.cfi_restore 1
 2852 0a28 03340103 		ld	s0,48(sp)
 2853              		.cfi_restore 8
 2854              		.cfi_def_cfa 2, 64
 2855 0a2c 83348102 		ld	s1,40(sp)
 2856              		.cfi_restore 9
 2857              	.LVL315:
 2858 0a30 03390102 		ld	s2,32(sp)
GAS LISTING /tmp/ccMeUcYP.s 			page 70


 2859              		.cfi_restore 18
 2860 0a34 13010104 		addi	sp,sp,64
 2861              		.cfi_def_cfa_offset 0
 2862 0a38 67800000 		jr	ra
 2863              		.cfi_endproc
 2864              	.LFE23:
 2865              		.globl	__gxx_personality_v0
 2866              		.section	.gcc_except_table,"a",@progbits
 2867              	.LLSDA23:
 2868 0000 FF       		.byte	0xff
 2869 0001 FF       		.byte	0xff
 2870 0002 03       		.byte	0x3
 2871 0003 A901     		.byte	0xa9,0x1
 2872 0005 00000000 		.4byte	.LEHB0-.LFB23
 2873 0009 00000000 		.4byte	.LEHE0-.LEHB0
 2874 000d 00000000 		.4byte	0
 2875 0011 00       		.byte	0
 2876 0012 00000000 		.4byte	.LEHB1-.LFB23
 2877 0016 00000000 		.4byte	.LEHE1-.LEHB1
 2878 001a 00000000 		.4byte	.L139-.LFB23
 2879 001e 00       		.byte	0
 2880 001f 00000000 		.4byte	.LEHB2-.LFB23
 2881 0023 00000000 		.4byte	.LEHE2-.LEHB2
 2882 0027 00000000 		.4byte	0
 2883 002b 00       		.byte	0
 2884 002c 00000000 		.4byte	.LEHB3-.LFB23
 2885 0030 00000000 		.4byte	.LEHE3-.LEHB3
 2886 0034 00000000 		.4byte	.L140-.LFB23
 2887 0038 00       		.byte	0
 2888 0039 00000000 		.4byte	.LEHB4-.LFB23
 2889 003d 00000000 		.4byte	.LEHE4-.LEHB4
 2890 0041 00000000 		.4byte	0
 2891 0045 00       		.byte	0
 2892 0046 00000000 		.4byte	.LEHB5-.LFB23
 2893 004a 00000000 		.4byte	.LEHE5-.LEHB5
 2894 004e 00000000 		.4byte	.L141-.LFB23
 2895 0052 00       		.byte	0
 2896 0053 00000000 		.4byte	.LEHB6-.LFB23
 2897 0057 00000000 		.4byte	.LEHE6-.LEHB6
 2898 005b 00000000 		.4byte	0
 2899 005f 00       		.byte	0
 2900 0060 00000000 		.4byte	.LEHB7-.LFB23
 2901 0064 00000000 		.4byte	.LEHE7-.LEHB7
 2902 0068 00000000 		.4byte	.L142-.LFB23
 2903 006c 00       		.byte	0
 2904 006d 00000000 		.4byte	.LEHB8-.LFB23
 2905 0071 00000000 		.4byte	.LEHE8-.LEHB8
 2906 0075 00000000 		.4byte	0
 2907 0079 00       		.byte	0
 2908 007a 00000000 		.4byte	.LEHB9-.LFB23
 2909 007e 00000000 		.4byte	.LEHE9-.LEHB9
 2910 0082 00000000 		.4byte	0
 2911 0086 00       		.byte	0
 2912 0087 00000000 		.4byte	.LEHB10-.LFB23
 2913 008b 00000000 		.4byte	.LEHE10-.LEHB10
 2914 008f 00000000 		.4byte	0
 2915 0093 00       		.byte	0
GAS LISTING /tmp/ccMeUcYP.s 			page 71


 2916 0094 00000000 		.4byte	.LEHB11-.LFB23
 2917 0098 00000000 		.4byte	.LEHE11-.LEHB11
 2918 009c 00000000 		.4byte	0
 2919 00a0 00       		.byte	0
 2920 00a1 00000000 		.4byte	.LEHB12-.LFB23
 2921 00a5 00000000 		.4byte	.LEHE12-.LEHB12
 2922 00a9 00000000 		.4byte	0
 2923 00ad 00       		.byte	0
 2924              		.text
 2926              		.align	2
 2927              		.globl	_ZN16ProducerKeyboard16producerKeyboardEPv
 2929              	_ZN16ProducerKeyboard16producerKeyboardEPv:
 2930              	.LFB28:
  32:src/../h/ConsumerProducer_CPP_Sync_API_test.h ****     struct thread_data *data = (struct thread_data *) arg;
 2931              		.loc 2 32 52 is_stmt 1
 2932              		.cfi_startproc
 2933              	.LVL316:
 2934 0a3c 130101FD 		addi	sp,sp,-48
 2935              		.cfi_def_cfa_offset 48
 2936 0a40 23341102 		sd	ra,40(sp)
 2937 0a44 23308102 		sd	s0,32(sp)
 2938 0a48 233C9100 		sd	s1,24(sp)
 2939 0a4c 23382101 		sd	s2,16(sp)
 2940 0a50 23343101 		sd	s3,8(sp)
 2941              		.cfi_offset 1, -8
 2942              		.cfi_offset 8, -16
 2943              		.cfi_offset 9, -24
 2944              		.cfi_offset 18, -32
 2945              		.cfi_offset 19, -40
 2946 0a54 13040103 		addi	s0,sp,48
 2947              		.cfi_def_cfa 8, 0
 2948 0a58 93090500 		mv	s3,a0
 2949 0a5c 93840500 		mv	s1,a1
  33:src/../h/ConsumerProducer_CPP_Sync_API_test.h **** 
 2950              		.loc 2 33 5
 2951              	.LVL317:
  35:src/../h/ConsumerProducer_CPP_Sync_API_test.h ****     int i = 0;
 2952              		.loc 2 35 5
  36:src/../h/ConsumerProducer_CPP_Sync_API_test.h ****     while ((key = getc()) != 0x1b) {
 2953              		.loc 2 36 5
  36:src/../h/ConsumerProducer_CPP_Sync_API_test.h ****     while ((key = getc()) != 0x1b) {
 2954              		.loc 2 36 9 is_stmt 0
 2955 0a60 13090000 		li	s2,0
 2956 0a64 6F00C000 		j	.L145
 2957              	.LVL318:
 2958              	.L149:
  42:src/../h/ConsumerProducer_CPP_Sync_API_test.h ****         }
 2959              		.loc 2 42 13 is_stmt 1
  42:src/../h/ConsumerProducer_CPP_Sync_API_test.h ****         }
 2960              		.loc 2 42 29 is_stmt 0
 2961 0a68 97000000 		call	_ZN6Thread8dispatchEv@plt
 2961      E7800000 
 2962              	.LVL319:
 2963              	.L145:
  37:src/../h/ConsumerProducer_CPP_Sync_API_test.h ****         data->buffer->put(key);
 2964              		.loc 2 37 5 is_stmt 1
  37:src/../h/ConsumerProducer_CPP_Sync_API_test.h ****         data->buffer->put(key);
GAS LISTING /tmp/ccMeUcYP.s 			page 72


 2965              		.loc 2 37 27
  37:src/../h/ConsumerProducer_CPP_Sync_API_test.h ****         data->buffer->put(key);
 2966              		.loc 2 37 23 is_stmt 0
 2967 0a70 97000000 		call	_Z4getcv@plt
 2967      E7800000 
 2968              	.LVL320:
  37:src/../h/ConsumerProducer_CPP_Sync_API_test.h ****         data->buffer->put(key);
 2969              		.loc 2 37 17
 2970 0a78 9B050500 		sext.w	a1,a0
 2971              	.LVL321:
  37:src/../h/ConsumerProducer_CPP_Sync_API_test.h ****         data->buffer->put(key);
 2972              		.loc 2 37 27
 2973 0a7c 9307B001 		li	a5,27
 2974 0a80 638AF502 		beq	a1,a5,.L146
  38:src/../h/ConsumerProducer_CPP_Sync_API_test.h ****         i++;
 2975              		.loc 2 38 9 is_stmt 1
  38:src/../h/ConsumerProducer_CPP_Sync_API_test.h ****         i++;
 2976              		.loc 2 38 26 is_stmt 0
 2977 0a84 03B58400 		ld	a0,8(s1)
 2978 0a88 97000000 		call	_ZN9BufferCPP3putEi@plt
 2978      E7800000 
 2979              	.LVL322:
  39:src/../h/ConsumerProducer_CPP_Sync_API_test.h **** 
 2980              		.loc 2 39 9 is_stmt 1
  39:src/../h/ConsumerProducer_CPP_Sync_API_test.h **** 
 2981              		.loc 2 39 10 is_stmt 0
 2982 0a90 1B071900 		addiw	a4,s2,1
 2983 0a94 1B090700 		sext.w	s2,a4
 2984              	.LVL323:
  41:src/../h/ConsumerProducer_CPP_Sync_API_test.h ****             Thread::dispatch();
 2985              		.loc 2 41 9 is_stmt 1
  41:src/../h/ConsumerProducer_CPP_Sync_API_test.h ****             Thread::dispatch();
 2986              		.loc 2 41 29 is_stmt 0
 2987 0a98 83A60400 		lw	a3,0(s1)
  41:src/../h/ConsumerProducer_CPP_Sync_API_test.h ****             Thread::dispatch();
 2988              		.loc 2 41 21
 2989 0a9c 9B972600 		slliw	a5,a3,2
 2990 0aa0 BB87D700 		addw	a5,a5,a3
 2991 0aa4 9B971700 		slliw	a5,a5,1
  41:src/../h/ConsumerProducer_CPP_Sync_API_test.h ****             Thread::dispatch();
 2992              		.loc 2 41 15
 2993 0aa8 BB67F702 		remw	a5,a4,a5
  41:src/../h/ConsumerProducer_CPP_Sync_API_test.h ****             Thread::dispatch();
 2994              		.loc 2 41 9
 2995 0aac E39207FC 		bnez	a5,.L145
 2996 0ab0 6FF09FFB 		j	.L149
 2997              	.LVL324:
 2998              	.L146:
  46:src/../h/ConsumerProducer_CPP_Sync_API_test.h ****     td->buffer->put('!');
 2999              		.loc 2 46 5 is_stmt 1
  46:src/../h/ConsumerProducer_CPP_Sync_API_test.h ****     td->buffer->put('!');
 3000              		.loc 2 46 15 is_stmt 0
 3001 0ab4 93071000 		li	a5,1
 3002 0ab8 17070000 		sw	a5,.LANCHOR0+28,a4
 3002      2320F700 
  47:src/../h/ConsumerProducer_CPP_Sync_API_test.h **** 
 3003              		.loc 2 47 5 is_stmt 1
GAS LISTING /tmp/ccMeUcYP.s 			page 73


 3004 0ac0 83B70901 		ld	a5,16(s3)
  47:src/../h/ConsumerProducer_CPP_Sync_API_test.h **** 
 3005              		.loc 2 47 20 is_stmt 0
 3006 0ac4 93051002 		li	a1,33
 3007              	.LVL325:
 3008 0ac8 03B58700 		ld	a0,8(a5)
 3009              	.LVL326:
 3010 0acc 97000000 		call	_ZN9BufferCPP3putEi@plt
 3010      E7800000 
 3011              	.LVL327:
  49:src/../h/ConsumerProducer_CPP_Sync_API_test.h **** }
 3012              		.loc 2 49 5 is_stmt 1
  49:src/../h/ConsumerProducer_CPP_Sync_API_test.h **** }
 3013              		.loc 2 49 23 is_stmt 0
 3014 0ad4 03B50401 		ld	a0,16(s1)
 3015 0ad8 97000000 		call	_ZN9Semaphore6signalEv@plt
 3015      E7800000 
 3016              	.LVL328:
  50:src/../h/ConsumerProducer_CPP_Sync_API_test.h **** 
 3017              		.loc 2 50 1
 3018 0ae0 83308102 		ld	ra,40(sp)
 3019              		.cfi_restore 1
 3020 0ae4 03340102 		ld	s0,32(sp)
 3021              		.cfi_restore 8
 3022              		.cfi_def_cfa 2, 48
 3023 0ae8 83348101 		ld	s1,24(sp)
 3024              		.cfi_restore 9
 3025              	.LVL329:
 3026 0aec 03390101 		ld	s2,16(sp)
 3027              		.cfi_restore 18
 3028              	.LVL330:
 3029 0af0 83398100 		ld	s3,8(sp)
 3030              		.cfi_restore 19
 3031              	.LVL331:
 3032 0af4 13010103 		addi	sp,sp,48
 3033              		.cfi_def_cfa_offset 0
 3034 0af8 67800000 		jr	ra
 3035              		.cfi_endproc
 3036              	.LFE28:
 3038              		.section	.text._ZN16ProducerKeyboard3runEv,"axG",@progbits,_ZN16ProducerKeyboard3runEv,comdat
 3039              		.align	2
 3040              		.weak	_ZN16ProducerKeyboard3runEv
 3042              	_ZN16ProducerKeyboard3runEv:
 3043              	.LFB27:
  27:src/../h/ConsumerProducer_CPP_Sync_API_test.h ****         producerKeyboard(td);
 3044              		.loc 2 27 10 is_stmt 1
 3045              		.cfi_startproc
 3046              	.LVL332:
 3047 0000 130101FF 		addi	sp,sp,-16
 3048              		.cfi_def_cfa_offset 16
 3049 0004 23341100 		sd	ra,8(sp)
 3050 0008 23308100 		sd	s0,0(sp)
 3051              		.cfi_offset 1, -8
 3052              		.cfi_offset 8, -16
 3053 000c 13040101 		addi	s0,sp,16
 3054              		.cfi_def_cfa 8, 0
  28:src/../h/ConsumerProducer_CPP_Sync_API_test.h ****     }
GAS LISTING /tmp/ccMeUcYP.s 			page 74


 3055              		.loc 2 28 9
  28:src/../h/ConsumerProducer_CPP_Sync_API_test.h ****     }
 3056              		.loc 2 28 25 is_stmt 0
 3057 0010 83350501 		ld	a1,16(a0)
 3058 0014 97000000 		call	_ZN16ProducerKeyboard16producerKeyboardEPv
 3058      E7800000 
 3059              	.LVL333:
  29:src/../h/ConsumerProducer_CPP_Sync_API_test.h **** };
 3060              		.loc 2 29 5
 3061 001c 83308100 		ld	ra,8(sp)
 3062              		.cfi_restore 1
 3063 0020 03340100 		ld	s0,0(sp)
 3064              		.cfi_restore 8
 3065              		.cfi_def_cfa 2, 16
 3066 0024 13010101 		addi	sp,sp,16
 3067              		.cfi_def_cfa_offset 0
 3068 0028 67800000 		jr	ra
 3069              		.cfi_endproc
 3070              	.LFE27:
 3072              		.text
 3073              		.align	2
 3074              		.globl	_ZN8Producer8producerEPv
 3076              	_ZN8Producer8producerEPv:
 3077              	.LFB33:
  63:src/../h/ConsumerProducer_CPP_Sync_API_test.h ****     struct thread_data *data = (struct thread_data *) arg;
 3078              		.loc 2 63 36 is_stmt 1
 3079              		.cfi_startproc
 3080              	.LVL334:
 3081 0afc 130101FE 		addi	sp,sp,-32
 3082              		.cfi_def_cfa_offset 32
 3083 0b00 233C1100 		sd	ra,24(sp)
 3084 0b04 23388100 		sd	s0,16(sp)
 3085 0b08 23349100 		sd	s1,8(sp)
 3086 0b0c 23302101 		sd	s2,0(sp)
 3087              		.cfi_offset 1, -8
 3088              		.cfi_offset 8, -16
 3089              		.cfi_offset 9, -24
 3090              		.cfi_offset 18, -32
 3091 0b10 13040102 		addi	s0,sp,32
 3092              		.cfi_def_cfa 8, 0
 3093 0b14 93840500 		mv	s1,a1
  64:src/../h/ConsumerProducer_CPP_Sync_API_test.h **** 
 3094              		.loc 2 64 5
 3095              	.LVL335:
  66:src/../h/ConsumerProducer_CPP_Sync_API_test.h ****     while (!threadEnd) {
 3096              		.loc 2 66 5
  66:src/../h/ConsumerProducer_CPP_Sync_API_test.h ****     while (!threadEnd) {
 3097              		.loc 2 66 9 is_stmt 0
 3098 0b18 13090000 		li	s2,0
 3099 0b1c 6F00C000 		j	.L153
 3100              	.LVL336:
 3101              	.L157:
  72:src/../h/ConsumerProducer_CPP_Sync_API_test.h ****         }
 3102              		.loc 2 72 13 is_stmt 1
  72:src/../h/ConsumerProducer_CPP_Sync_API_test.h ****         }
 3103              		.loc 2 72 29 is_stmt 0
 3104 0b20 97000000 		call	_ZN6Thread8dispatchEv@plt
GAS LISTING /tmp/ccMeUcYP.s 			page 75


 3104      E7800000 
 3105              	.LVL337:
 3106              	.L153:
  67:src/../h/ConsumerProducer_CPP_Sync_API_test.h ****         data->buffer->put(data->id + '0');
 3107              		.loc 2 67 5 is_stmt 1
  67:src/../h/ConsumerProducer_CPP_Sync_API_test.h ****         data->buffer->put(data->id + '0');
 3108              		.loc 2 67 12
 3109 0b28 97070000 		lw	a5,.LANCHOR0+28
 3109      83A70700 
 3110 0b30 639E0702 		bnez	a5,.L154
  68:src/../h/ConsumerProducer_CPP_Sync_API_test.h ****         i++;
 3111              		.loc 2 68 9
  68:src/../h/ConsumerProducer_CPP_Sync_API_test.h ****         i++;
 3112              		.loc 2 68 33 is_stmt 0
 3113 0b34 83A50400 		lw	a1,0(s1)
  68:src/../h/ConsumerProducer_CPP_Sync_API_test.h ****         i++;
 3114              		.loc 2 68 26
 3115 0b38 9B850503 		addiw	a1,a1,48
 3116 0b3c 03B58400 		ld	a0,8(s1)
 3117 0b40 97000000 		call	_ZN9BufferCPP3putEi@plt
 3117      E7800000 
 3118              	.LVL338:
  69:src/../h/ConsumerProducer_CPP_Sync_API_test.h **** 
 3119              		.loc 2 69 9 is_stmt 1
  69:src/../h/ConsumerProducer_CPP_Sync_API_test.h **** 
 3120              		.loc 2 69 10 is_stmt 0
 3121 0b48 1B071900 		addiw	a4,s2,1
 3122 0b4c 1B090700 		sext.w	s2,a4
 3123              	.LVL339:
  71:src/../h/ConsumerProducer_CPP_Sync_API_test.h ****             Thread::dispatch();
 3124              		.loc 2 71 9 is_stmt 1
  71:src/../h/ConsumerProducer_CPP_Sync_API_test.h ****             Thread::dispatch();
 3125              		.loc 2 71 29 is_stmt 0
 3126 0b50 83A60400 		lw	a3,0(s1)
  71:src/../h/ConsumerProducer_CPP_Sync_API_test.h ****             Thread::dispatch();
 3127              		.loc 2 71 21
 3128 0b54 9B972600 		slliw	a5,a3,2
 3129 0b58 BB87D700 		addw	a5,a5,a3
 3130 0b5c 9B971700 		slliw	a5,a5,1
  71:src/../h/ConsumerProducer_CPP_Sync_API_test.h ****             Thread::dispatch();
 3131              		.loc 2 71 15
 3132 0b60 BB67F702 		remw	a5,a4,a5
  71:src/../h/ConsumerProducer_CPP_Sync_API_test.h ****             Thread::dispatch();
 3133              		.loc 2 71 9
 3134 0b64 E39207FC 		bnez	a5,.L153
 3135 0b68 6FF09FFB 		j	.L157
 3136              	.LVL340:
 3137              	.L154:
  76:src/../h/ConsumerProducer_CPP_Sync_API_test.h **** }
 3138              		.loc 2 76 5 is_stmt 1
  76:src/../h/ConsumerProducer_CPP_Sync_API_test.h **** }
 3139              		.loc 2 76 23 is_stmt 0
 3140 0b6c 03B50401 		ld	a0,16(s1)
 3141 0b70 97000000 		call	_ZN9Semaphore6signalEv@plt
 3141      E7800000 
 3142              	.LVL341:
  77:src/../h/ConsumerProducer_CPP_Sync_API_test.h **** 
GAS LISTING /tmp/ccMeUcYP.s 			page 76


 3143              		.loc 2 77 1
 3144 0b78 83308101 		ld	ra,24(sp)
 3145              		.cfi_restore 1
 3146 0b7c 03340101 		ld	s0,16(sp)
 3147              		.cfi_restore 8
 3148              		.cfi_def_cfa 2, 32
 3149 0b80 83348100 		ld	s1,8(sp)
 3150              		.cfi_restore 9
 3151              	.LVL342:
 3152 0b84 03390100 		ld	s2,0(sp)
 3153              		.cfi_restore 18
 3154              	.LVL343:
 3155 0b88 13010102 		addi	sp,sp,32
 3156              		.cfi_def_cfa_offset 0
 3157 0b8c 67800000 		jr	ra
 3158              		.cfi_endproc
 3159              	.LFE33:
 3161              		.section	.text._ZN8Producer3runEv,"axG",@progbits,_ZN8Producer3runEv,comdat
 3162              		.align	2
 3163              		.weak	_ZN8Producer3runEv
 3165              	_ZN8Producer3runEv:
 3166              	.LFB32:
  58:src/../h/ConsumerProducer_CPP_Sync_API_test.h ****         producer(td);
 3167              		.loc 2 58 10 is_stmt 1
 3168              		.cfi_startproc
 3169              	.LVL344:
 3170 0000 130101FF 		addi	sp,sp,-16
 3171              		.cfi_def_cfa_offset 16
 3172 0004 23341100 		sd	ra,8(sp)
 3173 0008 23308100 		sd	s0,0(sp)
 3174              		.cfi_offset 1, -8
 3175              		.cfi_offset 8, -16
 3176 000c 13040101 		addi	s0,sp,16
 3177              		.cfi_def_cfa 8, 0
  59:src/../h/ConsumerProducer_CPP_Sync_API_test.h ****     }
 3178              		.loc 2 59 9
  59:src/../h/ConsumerProducer_CPP_Sync_API_test.h ****     }
 3179              		.loc 2 59 17 is_stmt 0
 3180 0010 83350501 		ld	a1,16(a0)
 3181 0014 97000000 		call	_ZN8Producer8producerEPv
 3181      E7800000 
 3182              	.LVL345:
  60:src/../h/ConsumerProducer_CPP_Sync_API_test.h **** };
 3183              		.loc 2 60 5
 3184 001c 83308100 		ld	ra,8(sp)
 3185              		.cfi_restore 1
 3186 0020 03340100 		ld	s0,0(sp)
 3187              		.cfi_restore 8
 3188              		.cfi_def_cfa 2, 16
 3189 0024 13010101 		addi	sp,sp,16
 3190              		.cfi_def_cfa_offset 0
 3191 0028 67800000 		jr	ra
 3192              		.cfi_endproc
 3193              	.LFE32:
 3195              		.text
 3196              		.align	2
 3197              		.globl	_ZN8Consumer8consumerEPv
GAS LISTING /tmp/ccMeUcYP.s 			page 77


 3199              	_ZN8Consumer8consumerEPv:
 3200              	.LFB38:
  80:src/../h/ConsumerProducer_CPP_Sync_API_test.h ****     thread_data* td;
  81:src/../h/ConsumerProducer_CPP_Sync_API_test.h ****     void consumer(void *arg);
  82:src/../h/ConsumerProducer_CPP_Sync_API_test.h **** public:
  83:src/../h/ConsumerProducer_CPP_Sync_API_test.h ****     Consumer(thread_data* _td):Thread(), td(_td) {}
  84:src/../h/ConsumerProducer_CPP_Sync_API_test.h **** 
  85:src/../h/ConsumerProducer_CPP_Sync_API_test.h ****     void run() override {
  86:src/../h/ConsumerProducer_CPP_Sync_API_test.h ****         consumer(td);
  87:src/../h/ConsumerProducer_CPP_Sync_API_test.h ****     }
  88:src/../h/ConsumerProducer_CPP_Sync_API_test.h **** };
  89:src/../h/ConsumerProducer_CPP_Sync_API_test.h **** 
  90:src/../h/ConsumerProducer_CPP_Sync_API_test.h **** void Consumer::consumer(void *arg) {
 3201              		.loc 2 90 36 is_stmt 1
 3202              		.cfi_startproc
 3203              	.LVL346:
 3204 0b90 130101FD 		addi	sp,sp,-48
 3205              		.cfi_def_cfa_offset 48
 3206 0b94 23341102 		sd	ra,40(sp)
 3207 0b98 23308102 		sd	s0,32(sp)
 3208 0b9c 233C9100 		sd	s1,24(sp)
 3209 0ba0 23382101 		sd	s2,16(sp)
 3210 0ba4 23343101 		sd	s3,8(sp)
 3211 0ba8 23304101 		sd	s4,0(sp)
 3212              		.cfi_offset 1, -8
 3213              		.cfi_offset 8, -16
 3214              		.cfi_offset 9, -24
 3215              		.cfi_offset 18, -32
 3216              		.cfi_offset 19, -40
 3217              		.cfi_offset 20, -48
 3218 0bac 13040103 		addi	s0,sp,48
 3219              		.cfi_def_cfa 8, 0
 3220 0bb0 93090500 		mv	s3,a0
 3221 0bb4 13890500 		mv	s2,a1
  91:src/../h/ConsumerProducer_CPP_Sync_API_test.h ****     struct thread_data *data = (struct thread_data *) arg;
 3222              		.loc 2 91 5
 3223              	.LVL347:
  92:src/../h/ConsumerProducer_CPP_Sync_API_test.h **** 
  93:src/../h/ConsumerProducer_CPP_Sync_API_test.h ****     int i = 0;
 3224              		.loc 2 93 5
 3225              		.loc 2 93 9 is_stmt 0
 3226 0bb8 130A0000 		li	s4,0
 3227 0bbc 6F00C001 		j	.L161
 3228              	.LVL348:
 3229              	.L167:
 3230              	.LBB203:
  94:src/../h/ConsumerProducer_CPP_Sync_API_test.h ****     while (!threadEnd) {
  95:src/../h/ConsumerProducer_CPP_Sync_API_test.h ****         int key = data->buffer->get();
  96:src/../h/ConsumerProducer_CPP_Sync_API_test.h ****         i++;
  97:src/../h/ConsumerProducer_CPP_Sync_API_test.h **** 
  98:src/../h/ConsumerProducer_CPP_Sync_API_test.h ****         putc(key);
  99:src/../h/ConsumerProducer_CPP_Sync_API_test.h **** 
 100:src/../h/ConsumerProducer_CPP_Sync_API_test.h ****         if (i % (5 * data->id) == 0) {
 101:src/../h/ConsumerProducer_CPP_Sync_API_test.h ****             Thread::dispatch();
 3231              		.loc 2 101 13 is_stmt 1
 3232              		.loc 2 101 29 is_stmt 0
 3233 0bc0 97000000 		call	_ZN6Thread8dispatchEv@plt
GAS LISTING /tmp/ccMeUcYP.s 			page 78


 3233      E7800000 
 3234              	.LVL349:
 3235 0bc8 6F000005 		j	.L163
 3236              	.LVL350:
 3237              	.L168:
 102:src/../h/ConsumerProducer_CPP_Sync_API_test.h ****         }
 103:src/../h/ConsumerProducer_CPP_Sync_API_test.h **** 
 104:src/../h/ConsumerProducer_CPP_Sync_API_test.h ****         if (i % 80 == 0) {
 105:src/../h/ConsumerProducer_CPP_Sync_API_test.h ****             putc('\n');
 3238              		.loc 2 105 13 is_stmt 1
 3239              		.loc 2 105 17 is_stmt 0
 3240 0bcc 1305A000 		li	a0,10
 3241 0bd0 97000000 		call	_Z4putcc@plt
 3241      E7800000 
 3242              	.LVL351:
 3243              	.L161:
 3244              	.LBE203:
  94:src/../h/ConsumerProducer_CPP_Sync_API_test.h ****     while (!threadEnd) {
 3245              		.loc 2 94 5 is_stmt 1
  94:src/../h/ConsumerProducer_CPP_Sync_API_test.h ****     while (!threadEnd) {
 3246              		.loc 2 94 12
 3247 0bd8 97070000 		lw	a5,.LANCHOR0+28
 3247      83A70700 
 3248 0be0 63920706 		bnez	a5,.L162
 3249              	.LBB204:
  95:src/../h/ConsumerProducer_CPP_Sync_API_test.h ****         i++;
 3250              		.loc 2 95 9
  95:src/../h/ConsumerProducer_CPP_Sync_API_test.h ****         i++;
 3251              		.loc 2 95 36 is_stmt 0
 3252 0be4 03358900 		ld	a0,8(s2)
 3253 0be8 97000000 		call	_ZN9BufferCPP3getEv@plt
 3253      E7800000 
 3254              	.LVL352:
  96:src/../h/ConsumerProducer_CPP_Sync_API_test.h **** 
 3255              		.loc 2 96 9 is_stmt 1
  96:src/../h/ConsumerProducer_CPP_Sync_API_test.h **** 
 3256              		.loc 2 96 10 is_stmt 0
 3257 0bf0 9B041A00 		addiw	s1,s4,1
 3258 0bf4 1B8A0400 		sext.w	s4,s1
 3259              	.LVL353:
  98:src/../h/ConsumerProducer_CPP_Sync_API_test.h **** 
 3260              		.loc 2 98 9 is_stmt 1
  98:src/../h/ConsumerProducer_CPP_Sync_API_test.h **** 
 3261              		.loc 2 98 13 is_stmt 0
 3262 0bf8 1375F50F 		andi	a0,a0,0xff
 3263              	.LVL354:
 3264 0bfc 97000000 		call	_Z4putcc@plt
 3264      E7800000 
 3265              	.LVL355:
 100:src/../h/ConsumerProducer_CPP_Sync_API_test.h ****             Thread::dispatch();
 3266              		.loc 2 100 9 is_stmt 1
 100:src/../h/ConsumerProducer_CPP_Sync_API_test.h ****             Thread::dispatch();
 3267              		.loc 2 100 28 is_stmt 0
 3268 0c04 03270900 		lw	a4,0(s2)
 100:src/../h/ConsumerProducer_CPP_Sync_API_test.h ****             Thread::dispatch();
 3269              		.loc 2 100 20
 3270 0c08 9B172700 		slliw	a5,a4,2
GAS LISTING /tmp/ccMeUcYP.s 			page 79


 3271 0c0c BB87E700 		addw	a5,a5,a4
 100:src/../h/ConsumerProducer_CPP_Sync_API_test.h ****             Thread::dispatch();
 3272              		.loc 2 100 15
 3273 0c10 BBE7F402 		remw	a5,s1,a5
 100:src/../h/ConsumerProducer_CPP_Sync_API_test.h ****             Thread::dispatch();
 3274              		.loc 2 100 9
 3275 0c14 E38607FA 		beqz	a5,.L167
 3276              	.L163:
 104:src/../h/ConsumerProducer_CPP_Sync_API_test.h ****             putc('\n');
 3277              		.loc 2 104 9 is_stmt 1
 104:src/../h/ConsumerProducer_CPP_Sync_API_test.h ****             putc('\n');
 3278              		.loc 2 104 15 is_stmt 0
 3279 0c18 93070005 		li	a5,80
 3280 0c1c BBE4F402 		remw	s1,s1,a5
 3281              	.LVL356:
 104:src/../h/ConsumerProducer_CPP_Sync_API_test.h ****             putc('\n');
 3282              		.loc 2 104 9
 3283 0c20 E39C04FA 		bnez	s1,.L161
 3284 0c24 6FF09FFA 		j	.L168
 3285              	.L169:
 3286              	.LBE204:
 3287              	.LBB205:
 106:src/../h/ConsumerProducer_CPP_Sync_API_test.h ****         }
 107:src/../h/ConsumerProducer_CPP_Sync_API_test.h ****     }
 108:src/../h/ConsumerProducer_CPP_Sync_API_test.h **** 
 109:src/../h/ConsumerProducer_CPP_Sync_API_test.h **** 
 110:src/../h/ConsumerProducer_CPP_Sync_API_test.h ****     while (td->buffer->getCnt() > 0) {
 111:src/../h/ConsumerProducer_CPP_Sync_API_test.h ****         int key = td->buffer->get();
 3288              		.loc 2 111 9 is_stmt 1
 3289              		.loc 2 111 19 is_stmt 0
 3290 0c28 83B70901 		ld	a5,16(s3)
 3291              		.loc 2 111 34
 3292 0c2c 03B58700 		ld	a0,8(a5)
 3293 0c30 97000000 		call	_ZN9BufferCPP3getEv@plt
 3293      E7800000 
 3294              	.LVL357:
 112:src/../h/ConsumerProducer_CPP_Sync_API_test.h ****         Console::putc(key);
 3295              		.loc 2 112 9 is_stmt 1
 3296              		.loc 2 112 22 is_stmt 0
 3297 0c38 1375F50F 		andi	a0,a0,0xff
 3298              	.LVL358:
 3299 0c3c 97000000 		call	_ZN7Console4putcEc@plt
 3299      E7800000 
 3300              	.LVL359:
 3301              	.L162:
 3302              	.LBE205:
 110:src/../h/ConsumerProducer_CPP_Sync_API_test.h ****         int key = td->buffer->get();
 3303              		.loc 2 110 5 is_stmt 1
 110:src/../h/ConsumerProducer_CPP_Sync_API_test.h ****         int key = td->buffer->get();
 3304              		.loc 2 110 33
 110:src/../h/ConsumerProducer_CPP_Sync_API_test.h ****         int key = td->buffer->get();
 3305              		.loc 2 110 12 is_stmt 0
 3306 0c44 83B70901 		ld	a5,16(s3)
 110:src/../h/ConsumerProducer_CPP_Sync_API_test.h ****         int key = td->buffer->get();
 3307              		.loc 2 110 30
 3308 0c48 03B58700 		ld	a0,8(a5)
 3309 0c4c 97000000 		call	_ZN9BufferCPP6getCntEv@plt
GAS LISTING /tmp/ccMeUcYP.s 			page 80


 3309      E7800000 
 3310              	.LVL360:
 110:src/../h/ConsumerProducer_CPP_Sync_API_test.h ****         int key = td->buffer->get();
 3311              		.loc 2 110 33
 3312 0c54 E34AA0FC 		bgtz	a0,.L169
 113:src/../h/ConsumerProducer_CPP_Sync_API_test.h ****     }
 114:src/../h/ConsumerProducer_CPP_Sync_API_test.h **** 
 115:src/../h/ConsumerProducer_CPP_Sync_API_test.h ****     data->wait->signal();
 3313              		.loc 2 115 5 is_stmt 1
 3314              		.loc 2 115 23 is_stmt 0
 3315 0c58 03350901 		ld	a0,16(s2)
 3316 0c5c 97000000 		call	_ZN9Semaphore6signalEv@plt
 3316      E7800000 
 3317              	.LVL361:
 116:src/../h/ConsumerProducer_CPP_Sync_API_test.h **** }
 3318              		.loc 2 116 1
 3319 0c64 83308102 		ld	ra,40(sp)
 3320              		.cfi_restore 1
 3321 0c68 03340102 		ld	s0,32(sp)
 3322              		.cfi_restore 8
 3323              		.cfi_def_cfa 2, 48
 3324 0c6c 83348101 		ld	s1,24(sp)
 3325              		.cfi_restore 9
 3326 0c70 03390101 		ld	s2,16(sp)
 3327              		.cfi_restore 18
 3328              	.LVL362:
 3329 0c74 83398100 		ld	s3,8(sp)
 3330              		.cfi_restore 19
 3331              	.LVL363:
 3332 0c78 033A0100 		ld	s4,0(sp)
 3333              		.cfi_restore 20
 3334              	.LVL364:
 3335 0c7c 13010103 		addi	sp,sp,48
 3336              		.cfi_def_cfa_offset 0
 3337 0c80 67800000 		jr	ra
 3338              		.cfi_endproc
 3339              	.LFE38:
 3341              		.section	.text._ZN8Consumer3runEv,"axG",@progbits,_ZN8Consumer3runEv,comdat
 3342              		.align	2
 3343              		.weak	_ZN8Consumer3runEv
 3345              	_ZN8Consumer3runEv:
 3346              	.LFB37:
  85:src/../h/ConsumerProducer_CPP_Sync_API_test.h ****         consumer(td);
 3347              		.loc 2 85 10 is_stmt 1
 3348              		.cfi_startproc
 3349              	.LVL365:
 3350 0000 130101FF 		addi	sp,sp,-16
 3351              		.cfi_def_cfa_offset 16
 3352 0004 23341100 		sd	ra,8(sp)
 3353 0008 23308100 		sd	s0,0(sp)
 3354              		.cfi_offset 1, -8
 3355              		.cfi_offset 8, -16
 3356 000c 13040101 		addi	s0,sp,16
 3357              		.cfi_def_cfa 8, 0
  86:src/../h/ConsumerProducer_CPP_Sync_API_test.h ****     }
 3358              		.loc 2 86 9
  86:src/../h/ConsumerProducer_CPP_Sync_API_test.h ****     }
GAS LISTING /tmp/ccMeUcYP.s 			page 81


 3359              		.loc 2 86 17 is_stmt 0
 3360 0010 83350501 		ld	a1,16(a0)
 3361 0014 97000000 		call	_ZN8Consumer8consumerEPv
 3361      E7800000 
 3362              	.LVL366:
  87:src/../h/ConsumerProducer_CPP_Sync_API_test.h **** };
 3363              		.loc 2 87 5
 3364 001c 83308100 		ld	ra,8(sp)
 3365              		.cfi_restore 1
 3366 0020 03340100 		ld	s0,0(sp)
 3367              		.cfi_restore 8
 3368              		.cfi_def_cfa 2, 16
 3369 0024 13010101 		addi	sp,sp,16
 3370              		.cfi_def_cfa_offset 0
 3371 0028 67800000 		jr	ra
 3372              		.cfi_endproc
 3373              	.LFE37:
 3375              		.section	.rodata.str1.8
 3376 01f9 00000000 		.align	3
 3376      000000
 3377              	.LC34:
 3378 0200 556E6573 		.string	"Unesite broj proizvodjaca?\n"
 3378      69746520 
 3378      62726F6A 
 3378      2070726F 
 3378      697A766F 
 3379 021c 00000000 		.align	3
 3380              	.LC35:
 3381 0220 556E6573 		.string	"Unesite velicinu bafera?\n"
 3381      69746520 
 3381      76656C69 
 3381      63696E75 
 3381      20626166 
 3382 023a 00000000 		.align	3
 3382      0000
 3383              	.LC36:
 3384 0240 42726F6A 		.string	"Broj proizvodjaca "
 3384      2070726F 
 3384      697A766F 
 3384      646A6163 
 3384      612000
 3385 0253 00000000 		.align	3
 3385      00
 3386              	.LC37:
 3387 0258 20692076 		.string	" i velicina bafera "
 3387      656C6963 
 3387      696E6120 
 3387      62616665 
 3387      72612000 
 3388 026c 00000000 		.align	3
 3389              	.LC38:
 3390 0270 2E0A00   		.string	".\n"
 3391 0273 00000000 		.align	3
 3391      00
 3392              	.LC39:
 3393 0278 42726F6A 		.string	"Broj proizvodjaca ne sme biti manji od velicine bafera!\n"
 3393      2070726F 
GAS LISTING /tmp/ccMeUcYP.s 			page 82


 3393      697A766F 
 3393      646A6163 
 3393      61206E65 
 3394 02b1 00000000 		.align	3
 3394      000000
 3395              	.LC40:
 3396 02b8 42726F6A 		.string	"Broj proizvodjaca mora biti veci od nula!\n"
 3396      2070726F 
 3396      697A766F 
 3396      646A6163 
 3396      61206D6F 
 3397              		.text
 3398              		.align	2
 3399              		.globl	_Z29producerConsumer_CPP_Sync_APIv
 3401              	_Z29producerConsumer_CPP_Sync_APIv:
 3402              	.LFB39:
 117:src/../h/ConsumerProducer_CPP_Sync_API_test.h **** 
 118:src/../h/ConsumerProducer_CPP_Sync_API_test.h **** void producerConsumer_CPP_Sync_API() {
 3403              		.loc 2 118 38 is_stmt 1
 3404              		.cfi_startproc
 3405              		.cfi_personality 0x9b,DW.ref.__gxx_personality_v0
 3406              		.cfi_lsda 0x1b,.LLSDA39
 3407 0c84 130101F8 		addi	sp,sp,-128
 3408              		.cfi_def_cfa_offset 128
 3409 0c88 233C1106 		sd	ra,120(sp)
 3410 0c8c 23388106 		sd	s0,112(sp)
 3411 0c90 23349106 		sd	s1,104(sp)
 3412 0c94 23302107 		sd	s2,96(sp)
 3413 0c98 233C3105 		sd	s3,88(sp)
 3414 0c9c 23384105 		sd	s4,80(sp)
 3415 0ca0 23345105 		sd	s5,72(sp)
 3416 0ca4 23306105 		sd	s6,64(sp)
 3417 0ca8 233C7103 		sd	s7,56(sp)
 3418 0cac 23388103 		sd	s8,48(sp)
 3419 0cb0 23349103 		sd	s9,40(sp)
 3420              		.cfi_offset 1, -8
 3421              		.cfi_offset 8, -16
 3422              		.cfi_offset 9, -24
 3423              		.cfi_offset 18, -32
 3424              		.cfi_offset 19, -40
 3425              		.cfi_offset 20, -48
 3426              		.cfi_offset 21, -56
 3427              		.cfi_offset 22, -64
 3428              		.cfi_offset 23, -72
 3429              		.cfi_offset 24, -80
 3430              		.cfi_offset 25, -88
 3431 0cb4 13040108 		addi	s0,sp,128
 3432              		.cfi_def_cfa 8, 0
 119:src/../h/ConsumerProducer_CPP_Sync_API_test.h ****     char input[30];
 120:src/../h/ConsumerProducer_CPP_Sync_API_test.h ****     int n, threadNum;
 121:src/../h/ConsumerProducer_CPP_Sync_API_test.h **** 
 122:src/../h/ConsumerProducer_CPP_Sync_API_test.h ****     printString("Unesite broj proizvodjaca?\n");
 123:src/../h/ConsumerProducer_CPP_Sync_API_test.h ****     getString(input, 30);
 124:src/../h/ConsumerProducer_CPP_Sync_API_test.h ****     threadNum = stringToInt(input);
 125:src/../h/ConsumerProducer_CPP_Sync_API_test.h **** 
 126:src/../h/ConsumerProducer_CPP_Sync_API_test.h ****     printString("Unesite velicinu bafera?\n");
 127:src/../h/ConsumerProducer_CPP_Sync_API_test.h ****     getString(input, 30);
GAS LISTING /tmp/ccMeUcYP.s 			page 83


 128:src/../h/ConsumerProducer_CPP_Sync_API_test.h ****     n = stringToInt(input);
 129:src/../h/ConsumerProducer_CPP_Sync_API_test.h **** 
 130:src/../h/ConsumerProducer_CPP_Sync_API_test.h ****     printString("Broj proizvodjaca "); printInt(threadNum);
 131:src/../h/ConsumerProducer_CPP_Sync_API_test.h ****     printString(" i velicina bafera "); printInt(n);
 132:src/../h/ConsumerProducer_CPP_Sync_API_test.h ****     printString(".\n");
 133:src/../h/ConsumerProducer_CPP_Sync_API_test.h **** 
 134:src/../h/ConsumerProducer_CPP_Sync_API_test.h ****     if(threadNum > n) {
 135:src/../h/ConsumerProducer_CPP_Sync_API_test.h ****         printString("Broj proizvodjaca ne sme biti manji od velicine bafera!\n");
 136:src/../h/ConsumerProducer_CPP_Sync_API_test.h ****         return;
 137:src/../h/ConsumerProducer_CPP_Sync_API_test.h ****     } else if (threadNum < 1) {
 138:src/../h/ConsumerProducer_CPP_Sync_API_test.h ****         printString("Broj proizvodjaca mora biti veci od nula!\n");
 139:src/../h/ConsumerProducer_CPP_Sync_API_test.h ****         return;
 140:src/../h/ConsumerProducer_CPP_Sync_API_test.h ****     }
 141:src/../h/ConsumerProducer_CPP_Sync_API_test.h **** 
 142:src/../h/ConsumerProducer_CPP_Sync_API_test.h ****     BufferCPP *buffer = new BufferCPP(n);
 143:src/../h/ConsumerProducer_CPP_Sync_API_test.h **** 
 144:src/../h/ConsumerProducer_CPP_Sync_API_test.h ****     waitForAll = new Semaphore(0);
 145:src/../h/ConsumerProducer_CPP_Sync_API_test.h **** 
 146:src/../h/ConsumerProducer_CPP_Sync_API_test.h ****     Thread* threads[threadNum];
 147:src/../h/ConsumerProducer_CPP_Sync_API_test.h ****     Thread* consumerThread;
 148:src/../h/ConsumerProducer_CPP_Sync_API_test.h **** 
 149:src/../h/ConsumerProducer_CPP_Sync_API_test.h ****     struct thread_data data[threadNum + 1];
 150:src/../h/ConsumerProducer_CPP_Sync_API_test.h **** 
 151:src/../h/ConsumerProducer_CPP_Sync_API_test.h ****     data[threadNum].id = threadNum;
 152:src/../h/ConsumerProducer_CPP_Sync_API_test.h ****     data[threadNum].buffer = buffer;
 153:src/../h/ConsumerProducer_CPP_Sync_API_test.h ****     data[threadNum].wait = waitForAll;
 154:src/../h/ConsumerProducer_CPP_Sync_API_test.h ****     consumerThread = new Consumer(data+threadNum);
 155:src/../h/ConsumerProducer_CPP_Sync_API_test.h ****     consumerThread->start();
 156:src/../h/ConsumerProducer_CPP_Sync_API_test.h **** 
 157:src/../h/ConsumerProducer_CPP_Sync_API_test.h ****     for (int i = 0; i < threadNum; i++) {
 158:src/../h/ConsumerProducer_CPP_Sync_API_test.h ****         data[i].id = i;
 159:src/../h/ConsumerProducer_CPP_Sync_API_test.h ****         data[i].buffer = buffer;
 160:src/../h/ConsumerProducer_CPP_Sync_API_test.h ****         data[i].wait = waitForAll;
 161:src/../h/ConsumerProducer_CPP_Sync_API_test.h **** 
 162:src/../h/ConsumerProducer_CPP_Sync_API_test.h ****         if(i>0) {
 163:src/../h/ConsumerProducer_CPP_Sync_API_test.h ****             threads[i] = new Producer(data+i);
 164:src/../h/ConsumerProducer_CPP_Sync_API_test.h ****         } else {
 165:src/../h/ConsumerProducer_CPP_Sync_API_test.h ****             threads[i] = new ProducerKeyboard(data+i);
 166:src/../h/ConsumerProducer_CPP_Sync_API_test.h ****         }
 167:src/../h/ConsumerProducer_CPP_Sync_API_test.h **** 
 168:src/../h/ConsumerProducer_CPP_Sync_API_test.h ****         threads[i]->start();
 169:src/../h/ConsumerProducer_CPP_Sync_API_test.h ****     }
 170:src/../h/ConsumerProducer_CPP_Sync_API_test.h **** 
 171:src/../h/ConsumerProducer_CPP_Sync_API_test.h ****     Thread::dispatch();
 172:src/../h/ConsumerProducer_CPP_Sync_API_test.h **** 
 173:src/../h/ConsumerProducer_CPP_Sync_API_test.h ****     for (int i = 0; i <= threadNum; i++) {
 174:src/../h/ConsumerProducer_CPP_Sync_API_test.h ****         waitForAll->wait();
 175:src/../h/ConsumerProducer_CPP_Sync_API_test.h ****     }
 176:src/../h/ConsumerProducer_CPP_Sync_API_test.h **** 
 177:src/../h/ConsumerProducer_CPP_Sync_API_test.h ****     for (int i = 0; i < threadNum; i++) {
 178:src/../h/ConsumerProducer_CPP_Sync_API_test.h ****         delete threads[i];
 179:src/../h/ConsumerProducer_CPP_Sync_API_test.h ****     }
 180:src/../h/ConsumerProducer_CPP_Sync_API_test.h ****     delete consumerThread;
 181:src/../h/ConsumerProducer_CPP_Sync_API_test.h ****     delete waitForAll;
 182:src/../h/ConsumerProducer_CPP_Sync_API_test.h ****     delete buffer;
 3433              		.loc 2 182 18 is_stmt 0
 3434 0cb8 930B0100 		mv	s7,sp
GAS LISTING /tmp/ccMeUcYP.s 			page 84


 119:src/../h/ConsumerProducer_CPP_Sync_API_test.h ****     char input[30];
 3435              		.loc 2 119 5 is_stmt 1
 120:src/../h/ConsumerProducer_CPP_Sync_API_test.h **** 
 3436              		.loc 2 120 5
 122:src/../h/ConsumerProducer_CPP_Sync_API_test.h ****     getString(input, 30);
 3437              		.loc 2 122 5
 122:src/../h/ConsumerProducer_CPP_Sync_API_test.h ****     getString(input, 30);
 3438              		.loc 2 122 16 is_stmt 0
 3439 0cbc 17050000 		lla	a0,.LC34
 3439      13050500 
 3440              	.LEHB13:
 3441 0cc4 97000000 		call	_Z11printStringPKc@plt
 3441      E7800000 
 3442              	.LVL367:
 123:src/../h/ConsumerProducer_CPP_Sync_API_test.h ****     threadNum = stringToInt(input);
 3443              		.loc 2 123 5 is_stmt 1
 123:src/../h/ConsumerProducer_CPP_Sync_API_test.h ****     threadNum = stringToInt(input);
 3444              		.loc 2 123 14 is_stmt 0
 3445 0ccc 9305E001 		li	a1,30
 3446 0cd0 930404F8 		addi	s1,s0,-128
 3447 0cd4 13850400 		mv	a0,s1
 3448 0cd8 97000000 		call	_Z9getStringPci@plt
 3448      E7800000 
 3449              	.LVL368:
 124:src/../h/ConsumerProducer_CPP_Sync_API_test.h **** 
 3450              		.loc 2 124 5 is_stmt 1
 124:src/../h/ConsumerProducer_CPP_Sync_API_test.h **** 
 3451              		.loc 2 124 28 is_stmt 0
 3452 0ce0 13850400 		mv	a0,s1
 3453 0ce4 97000000 		call	_Z11stringToIntPKc@plt
 3453      E7800000 
 3454              	.LVL369:
 3455 0cec 13090500 		mv	s2,a0
 3456              	.LVL370:
 126:src/../h/ConsumerProducer_CPP_Sync_API_test.h ****     getString(input, 30);
 3457              		.loc 2 126 5 is_stmt 1
 126:src/../h/ConsumerProducer_CPP_Sync_API_test.h ****     getString(input, 30);
 3458              		.loc 2 126 16 is_stmt 0
 3459 0cf0 17050000 		lla	a0,.LC35
 3459      13050500 
 3460 0cf8 97000000 		call	_Z11printStringPKc@plt
 3460      E7800000 
 3461              	.LVL371:
 127:src/../h/ConsumerProducer_CPP_Sync_API_test.h ****     n = stringToInt(input);
 3462              		.loc 2 127 5 is_stmt 1
 127:src/../h/ConsumerProducer_CPP_Sync_API_test.h ****     n = stringToInt(input);
 3463              		.loc 2 127 14 is_stmt 0
 3464 0d00 9305E001 		li	a1,30
 3465 0d04 13850400 		mv	a0,s1
 3466 0d08 97000000 		call	_Z9getStringPci@plt
 3466      E7800000 
 3467              	.LVL372:
 128:src/../h/ConsumerProducer_CPP_Sync_API_test.h **** 
 3468              		.loc 2 128 5 is_stmt 1
 128:src/../h/ConsumerProducer_CPP_Sync_API_test.h **** 
 3469              		.loc 2 128 20 is_stmt 0
 3470 0d10 13850400 		mv	a0,s1
GAS LISTING /tmp/ccMeUcYP.s 			page 85


 3471 0d14 97000000 		call	_Z11stringToIntPKc@plt
 3471      E7800000 
 3472              	.LVL373:
 3473 0d1c 93040500 		mv	s1,a0
 3474              	.LVL374:
 130:src/../h/ConsumerProducer_CPP_Sync_API_test.h ****     printString(" i velicina bafera "); printInt(n);
 3475              		.loc 2 130 5 is_stmt 1
 130:src/../h/ConsumerProducer_CPP_Sync_API_test.h ****     printString(" i velicina bafera "); printInt(n);
 3476              		.loc 2 130 16 is_stmt 0
 3477 0d20 17050000 		lla	a0,.LC36
 3477      13050500 
 3478 0d28 97000000 		call	_Z11printStringPKc@plt
 3478      E7800000 
 3479              	.LVL375:
 130:src/../h/ConsumerProducer_CPP_Sync_API_test.h ****     printString(" i velicina bafera "); printInt(n);
 3480              		.loc 2 130 40 is_stmt 1
 130:src/../h/ConsumerProducer_CPP_Sync_API_test.h ****     printString(" i velicina bafera "); printInt(n);
 3481              		.loc 2 130 48 is_stmt 0
 3482 0d30 13060000 		li	a2,0
 3483 0d34 9305A000 		li	a1,10
 3484 0d38 13050900 		mv	a0,s2
 3485 0d3c 97000000 		call	_Z8printIntiii@plt
 3485      E7800000 
 3486              	.LVL376:
 131:src/../h/ConsumerProducer_CPP_Sync_API_test.h ****     printString(".\n");
 3487              		.loc 2 131 5 is_stmt 1
 131:src/../h/ConsumerProducer_CPP_Sync_API_test.h ****     printString(".\n");
 3488              		.loc 2 131 16 is_stmt 0
 3489 0d44 17050000 		lla	a0,.LC37
 3489      13050500 
 3490 0d4c 97000000 		call	_Z11printStringPKc@plt
 3490      E7800000 
 3491              	.LVL377:
 131:src/../h/ConsumerProducer_CPP_Sync_API_test.h ****     printString(".\n");
 3492              		.loc 2 131 41 is_stmt 1
 131:src/../h/ConsumerProducer_CPP_Sync_API_test.h ****     printString(".\n");
 3493              		.loc 2 131 49 is_stmt 0
 3494 0d54 13060000 		li	a2,0
 3495 0d58 9305A000 		li	a1,10
 3496 0d5c 13850400 		mv	a0,s1
 3497 0d60 97000000 		call	_Z8printIntiii@plt
 3497      E7800000 
 3498              	.LVL378:
 132:src/../h/ConsumerProducer_CPP_Sync_API_test.h **** 
 3499              		.loc 2 132 5 is_stmt 1
 132:src/../h/ConsumerProducer_CPP_Sync_API_test.h **** 
 3500              		.loc 2 132 16 is_stmt 0
 3501 0d68 17050000 		lla	a0,.LC38
 3501      13050500 
 3502 0d70 97000000 		call	_Z11printStringPKc@plt
 3502      E7800000 
 3503              	.LVL379:
 134:src/../h/ConsumerProducer_CPP_Sync_API_test.h ****         printString("Broj proizvodjaca ne sme biti manji od velicine bafera!\n");
 3504              		.loc 2 134 5 is_stmt 1
 3505 0d78 63C42403 		bgt	s2,s1,.L200
 137:src/../h/ConsumerProducer_CPP_Sync_API_test.h ****         printString("Broj proizvodjaca mora biti veci od nula!\n");
 3506              		.loc 2 137 12
GAS LISTING /tmp/ccMeUcYP.s 			page 86


 3507 0d7c 635C2003 		blez	s2,.L201
 142:src/../h/ConsumerProducer_CPP_Sync_API_test.h **** 
 3508              		.loc 2 142 5
 142:src/../h/ConsumerProducer_CPP_Sync_API_test.h **** 
 3509              		.loc 2 142 40 is_stmt 0
 3510 0d80 13058003 		li	a0,56
 3511 0d84 97000000 		call	_Znwm@plt
 3511      E7800000 
 3512              	.LVL380:
 3513              	.LEHE13:
 3514 0d8c 930A0500 		mv	s5,a0
 3515 0d90 93850400 		mv	a1,s1
 3516              	.LEHB14:
 3517 0d94 97000000 		call	_ZN9BufferCPPC1Ei@plt
 3517      E7800000 
 3518              	.LVL381:
 3519              	.LEHE14:
 3520 0d9c 6F000003 		j	.L202
 3521              	.L200:
 135:src/../h/ConsumerProducer_CPP_Sync_API_test.h ****         return;
 3522              		.loc 2 135 9 is_stmt 1
 135:src/../h/ConsumerProducer_CPP_Sync_API_test.h ****         return;
 3523              		.loc 2 135 20 is_stmt 0
 3524 0da0 17050000 		lla	a0,.LC39
 3524      13050500 
 3525              	.LEHB15:
 3526 0da8 97000000 		call	_Z11printStringPKc@plt
 3526      E7800000 
 3527              	.LVL382:
 136:src/../h/ConsumerProducer_CPP_Sync_API_test.h ****     } else if (threadNum < 1) {
 3528              		.loc 2 136 9 is_stmt 1
 3529 0db0 6F004001 		j	.L174
 3530              	.L201:
 138:src/../h/ConsumerProducer_CPP_Sync_API_test.h ****         return;
 3531              		.loc 2 138 9
 138:src/../h/ConsumerProducer_CPP_Sync_API_test.h ****         return;
 3532              		.loc 2 138 20 is_stmt 0
 3533 0db4 17050000 		lla	a0,.LC40
 3533      13050500 
 3534 0dbc 97000000 		call	_Z11printStringPKc@plt
 3534      E7800000 
 3535              	.LVL383:
 139:src/../h/ConsumerProducer_CPP_Sync_API_test.h ****     }
 3536              		.loc 2 139 9 is_stmt 1
 3537              	.L174:
 3538 0dc4 13810B00 		mv	sp,s7
 3539 0dc8 6F000024 		j	.L172
 3540              	.L202:
 3541              	.LVL384:
 144:src/../h/ConsumerProducer_CPP_Sync_API_test.h **** 
 3542              		.loc 2 144 5 discriminator 3
 144:src/../h/ConsumerProducer_CPP_Sync_API_test.h **** 
 3543              		.loc 2 144 33 is_stmt 0 discriminator 3
 3544 0dcc 13050001 		li	a0,16
 3545 0dd0 97000000 		call	_Znwm@plt
 3545      E7800000 
 3546              	.LVL385:
GAS LISTING /tmp/ccMeUcYP.s 			page 87


 3547              	.LEHE15:
 3548 0dd8 93040500 		mv	s1,a0
 3549              	.LVL386:
 3550 0ddc 93050000 		li	a1,0
 3551              	.LEHB16:
 3552 0de0 97000000 		call	_ZN9SemaphoreC1Ej@plt
 3552      E7800000 
 3553              	.LVL387:
 3554              	.LEHE16:
 144:src/../h/ConsumerProducer_CPP_Sync_API_test.h **** 
 3555              		.loc 2 144 16 discriminator 3
 3556 0de8 17070000 		lla	a4,.LANCHOR0
 3556      13070700 
 3557 0df0 23309702 		sd	s1,32(a4)
 146:src/../h/ConsumerProducer_CPP_Sync_API_test.h ****     Thread* consumerThread;
 3558              		.loc 2 146 5 is_stmt 1 discriminator 3
 3559              	.LVL388:
 146:src/../h/ConsumerProducer_CPP_Sync_API_test.h ****     Thread* consumerThread;
 3560              		.loc 2 146 13 is_stmt 0 discriminator 3
 3561 0df4 93173900 		slli	a5,s2,3
 3562 0df8 9387F700 		addi	a5,a5,15
 3563 0dfc 93F707FF 		andi	a5,a5,-16
 3564 0e00 3301F140 		sub	sp,sp,a5
 3565 0e04 93090100 		mv	s3,sp
 3566              	.LVL389:
 147:src/../h/ConsumerProducer_CPP_Sync_API_test.h **** 
 3567              		.loc 2 147 5 is_stmt 1 discriminator 3
 149:src/../h/ConsumerProducer_CPP_Sync_API_test.h **** 
 3568              		.loc 2 149 5 discriminator 3
 149:src/../h/ConsumerProducer_CPP_Sync_API_test.h **** 
 3569              		.loc 2 149 39 is_stmt 0 discriminator 3
 3570 0e08 9B061900 		addiw	a3,s2,1
 3571              	.LVL390:
 149:src/../h/ConsumerProducer_CPP_Sync_API_test.h **** 
 3572              		.loc 2 149 24 discriminator 3
 3573 0e0c 93971600 		slli	a5,a3,1
 3574 0e10 B387D700 		add	a5,a5,a3
 3575 0e14 93973700 		slli	a5,a5,3
 3576 0e18 9387F700 		addi	a5,a5,15
 3577 0e1c 93F707FF 		andi	a5,a5,-16
 3578 0e20 3301F140 		sub	sp,sp,a5
 3579              	.LVL391:
 3580 0e24 130A0100 		mv	s4,sp
 3581              	.LVL392:
 151:src/../h/ConsumerProducer_CPP_Sync_API_test.h ****     data[threadNum].buffer = buffer;
 3582              		.loc 2 151 5 is_stmt 1 discriminator 3
 151:src/../h/ConsumerProducer_CPP_Sync_API_test.h ****     data[threadNum].buffer = buffer;
 3583              		.loc 2 151 24 is_stmt 0 discriminator 3
 3584 0e28 93141900 		slli	s1,s2,1
 3585 0e2c B3872401 		add	a5,s1,s2
 3586 0e30 93973700 		slli	a5,a5,3
 3587 0e34 B307FA00 		add	a5,s4,a5
 3588 0e38 23A02701 		sw	s2,0(a5)
 152:src/../h/ConsumerProducer_CPP_Sync_API_test.h ****     data[threadNum].wait = waitForAll;
 3589              		.loc 2 152 5 is_stmt 1 discriminator 3
 152:src/../h/ConsumerProducer_CPP_Sync_API_test.h ****     data[threadNum].wait = waitForAll;
 3590              		.loc 2 152 28 is_stmt 0 discriminator 3
GAS LISTING /tmp/ccMeUcYP.s 			page 88


 3591 0e3c 23B45701 		sd	s5,8(a5)
 153:src/../h/ConsumerProducer_CPP_Sync_API_test.h ****     consumerThread = new Consumer(data+threadNum);
 3592              		.loc 2 153 5 is_stmt 1 discriminator 3
 153:src/../h/ConsumerProducer_CPP_Sync_API_test.h ****     consumerThread = new Consumer(data+threadNum);
 3593              		.loc 2 153 26 is_stmt 0 discriminator 3
 3594 0e40 03370702 		ld	a4,32(a4)
 3595 0e44 23B8E700 		sd	a4,16(a5)
 154:src/../h/ConsumerProducer_CPP_Sync_API_test.h ****     consumerThread->start();
 3596              		.loc 2 154 5 is_stmt 1 discriminator 3
 154:src/../h/ConsumerProducer_CPP_Sync_API_test.h ****     consumerThread->start();
 3597              		.loc 2 154 49 is_stmt 0 discriminator 3
 3598 0e48 13058001 		li	a0,24
 3599              	.LEHB17:
 3600 0e4c 97000000 		call	_Znwm@plt
 3600      E7800000 
 3601              	.LVL393:
 3602              	.LEHE17:
 3603 0e54 130B0500 		mv	s6,a0
 154:src/../h/ConsumerProducer_CPP_Sync_API_test.h ****     consumerThread->start();
 3604              		.loc 2 154 39 discriminator 3
 3605 0e58 B3842401 		add	s1,s1,s2
 3606 0e5c 93943400 		slli	s1,s1,3
 154:src/../h/ConsumerProducer_CPP_Sync_API_test.h ****     consumerThread->start();
 3607              		.loc 2 154 49 discriminator 3
 3608 0e60 B3049A00 		add	s1,s4,s1
 3609              	.LVL394:
 3610              	.LEHB18:
 3611              	.LBB206:
 3612              	.LBB207:
  83:src/../h/ConsumerProducer_CPP_Sync_API_test.h **** 
 3613              		.loc 2 83 48 discriminator 3
 3614 0e64 97000000 		call	_ZN6ThreadC2Ev@plt
 3614      E7800000 
 3615              	.LVL395:
 3616              	.LEHE18:
  83:src/../h/ConsumerProducer_CPP_Sync_API_test.h **** 
 3617              		.loc 2 83 48
 3618 0e6c 97070000 		lla	a5,_ZTV8Consumer+16
 3618      93870700 
 3619 0e74 2330FB00 		sd	a5,0(s6)
 3620 0e78 23389B00 		sd	s1,16(s6)
 3621              	.LVL396:
 3622              	.LBE207:
 3623              	.LBE206:
 155:src/../h/ConsumerProducer_CPP_Sync_API_test.h **** 
 3624              		.loc 2 155 5 is_stmt 1
 155:src/../h/ConsumerProducer_CPP_Sync_API_test.h **** 
 3625              		.loc 2 155 26 is_stmt 0
 3626 0e7c 13050B00 		mv	a0,s6
 3627              	.LEHB19:
 3628 0e80 97000000 		call	_ZN6Thread5startEv@plt
 3628      E7800000 
 3629              	.LVL397:
 3630              	.LBB208:
 157:src/../h/ConsumerProducer_CPP_Sync_API_test.h ****         data[i].id = i;
 3631              		.loc 2 157 14
 3632 0e88 93040000 		li	s1,0
GAS LISTING /tmp/ccMeUcYP.s 			page 89


 3633 0e8c 6F008003 		j	.L179
 3634              	.LVL398:
 3635              	.L203:
 3636              	.LBB209:
 3637              	.LBB210:
  56:src/../h/ConsumerProducer_CPP_Sync_API_test.h **** 
 3638              		.loc 2 56 48
 3639 0e90 97070000 		lla	a5,_ZTV8Producer+16
 3639      93870700 
 3640 0e98 23B0FC00 		sd	a5,0(s9)
 3641 0e9c 23B88C01 		sd	s8,16(s9)
 3642              	.LVL399:
 3643              	.LBE210:
 3644              	.LBE209:
 163:src/../h/ConsumerProducer_CPP_Sync_API_test.h ****         } else {
 3645              		.loc 2 163 24
 3646 0ea0 93973400 		slli	a5,s1,3
 3647 0ea4 B387F900 		add	a5,s3,a5
 3648 0ea8 23B09701 		sd	s9,0(a5)
 3649              	.L178:
 168:src/../h/ConsumerProducer_CPP_Sync_API_test.h ****     }
 3650              		.loc 2 168 9 is_stmt 1
 168:src/../h/ConsumerProducer_CPP_Sync_API_test.h ****     }
 3651              		.loc 2 168 18 is_stmt 0
 3652 0eac 93973400 		slli	a5,s1,3
 3653 0eb0 B387F900 		add	a5,s3,a5
 168:src/../h/ConsumerProducer_CPP_Sync_API_test.h ****     }
 3654              		.loc 2 168 26
 3655 0eb4 03B50700 		ld	a0,0(a5)
 3656 0eb8 97000000 		call	_ZN6Thread5startEv@plt
 3656      E7800000 
 3657              	.LVL400:
 157:src/../h/ConsumerProducer_CPP_Sync_API_test.h ****         data[i].id = i;
 3658              		.loc 2 157 5 is_stmt 1
 3659 0ec0 9B841400 		addiw	s1,s1,1
 3660              	.LVL401:
 3661              	.L179:
 157:src/../h/ConsumerProducer_CPP_Sync_API_test.h ****         data[i].id = i;
 3662              		.loc 2 157 23 discriminator 1
 3663 0ec4 63D0240B 		bge	s1,s2,.L176
 158:src/../h/ConsumerProducer_CPP_Sync_API_test.h ****         data[i].buffer = buffer;
 3664              		.loc 2 158 9
 158:src/../h/ConsumerProducer_CPP_Sync_API_test.h ****         data[i].buffer = buffer;
 3665              		.loc 2 158 20 is_stmt 0
 3666 0ec8 93971400 		slli	a5,s1,1
 3667 0ecc B3879700 		add	a5,a5,s1
 3668 0ed0 93973700 		slli	a5,a5,3
 3669 0ed4 B307FA00 		add	a5,s4,a5
 3670 0ed8 23A09700 		sw	s1,0(a5)
 159:src/../h/ConsumerProducer_CPP_Sync_API_test.h ****         data[i].wait = waitForAll;
 3671              		.loc 2 159 9 is_stmt 1
 159:src/../h/ConsumerProducer_CPP_Sync_API_test.h ****         data[i].wait = waitForAll;
 3672              		.loc 2 159 24 is_stmt 0
 3673 0edc 23B45701 		sd	s5,8(a5)
 160:src/../h/ConsumerProducer_CPP_Sync_API_test.h **** 
 3674              		.loc 2 160 9 is_stmt 1
 160:src/../h/ConsumerProducer_CPP_Sync_API_test.h **** 
GAS LISTING /tmp/ccMeUcYP.s 			page 90


 3675              		.loc 2 160 22 is_stmt 0
 3676 0ee0 17070000 		ld	a4,.LANCHOR0+32
 3676      03370700 
 3677 0ee8 23B8E700 		sd	a4,16(a5)
 162:src/../h/ConsumerProducer_CPP_Sync_API_test.h ****             threads[i] = new Producer(data+i);
 3678              		.loc 2 162 9 is_stmt 1
 3679 0eec 63589002 		blez	s1,.L177
 163:src/../h/ConsumerProducer_CPP_Sync_API_test.h ****         } else {
 3680              		.loc 2 163 13
 163:src/../h/ConsumerProducer_CPP_Sync_API_test.h ****         } else {
 3681              		.loc 2 163 45 is_stmt 0
 3682 0ef0 13058001 		li	a0,24
 3683 0ef4 97000000 		call	_Znwm@plt
 3683      E7800000 
 3684              	.LVL402:
 3685              	.LEHE19:
 3686 0efc 930C0500 		mv	s9,a0
 163:src/../h/ConsumerProducer_CPP_Sync_API_test.h ****         } else {
 3687              		.loc 2 163 43
 3688 0f00 139C1400 		slli	s8,s1,1
 3689 0f04 330C9C00 		add	s8,s8,s1
 3690 0f08 131C3C00 		slli	s8,s8,3
 163:src/../h/ConsumerProducer_CPP_Sync_API_test.h ****         } else {
 3691              		.loc 2 163 45
 3692 0f0c 330C8A01 		add	s8,s4,s8
 3693              	.LVL403:
 3694              	.LEHB20:
 3695              	.LBB212:
 3696              	.LBB211:
  56:src/../h/ConsumerProducer_CPP_Sync_API_test.h **** 
 3697              		.loc 2 56 48
 3698 0f10 97000000 		call	_ZN6ThreadC2Ev@plt
 3698      E7800000 
 3699              	.LVL404:
 3700              	.LEHE20:
 3701 0f18 6FF09FF7 		j	.L203
 3702              	.LVL405:
 3703              	.L177:
 3704              	.LBE211:
 3705              	.LBE212:
 165:src/../h/ConsumerProducer_CPP_Sync_API_test.h ****         }
 3706              		.loc 2 165 13 is_stmt 1
 165:src/../h/ConsumerProducer_CPP_Sync_API_test.h ****         }
 3707              		.loc 2 165 53 is_stmt 0
 3708 0f1c 13058001 		li	a0,24
 3709              	.LEHB21:
 3710 0f20 97000000 		call	_Znwm@plt
 3710      E7800000 
 3711              	.LVL406:
 3712              	.LEHE21:
 3713 0f28 930C0500 		mv	s9,a0
 165:src/../h/ConsumerProducer_CPP_Sync_API_test.h ****         }
 3714              		.loc 2 165 51
 3715 0f2c 139C1400 		slli	s8,s1,1
 3716 0f30 330C9C00 		add	s8,s8,s1
 3717 0f34 131C3C00 		slli	s8,s8,3
 165:src/../h/ConsumerProducer_CPP_Sync_API_test.h ****         }
GAS LISTING /tmp/ccMeUcYP.s 			page 91


 3718              		.loc 2 165 53
 3719 0f38 330C8A01 		add	s8,s4,s8
 3720              	.LVL407:
 3721              	.LEHB22:
 3722              	.LBB213:
 3723              	.LBB214:
  25:src/../h/ConsumerProducer_CPP_Sync_API_test.h **** 
 3724              		.loc 2 25 56
 3725 0f3c 97000000 		call	_ZN6ThreadC2Ev@plt
 3725      E7800000 
 3726              	.LVL408:
 3727              	.LEHE22:
 3728 0f44 97070000 		lla	a5,_ZTV16ProducerKeyboard+16
 3728      93870700 
 3729 0f4c 23B0FC00 		sd	a5,0(s9)
 3730 0f50 23B88C01 		sd	s8,16(s9)
 3731              	.LVL409:
 3732              	.LBE214:
 3733              	.LBE213:
 165:src/../h/ConsumerProducer_CPP_Sync_API_test.h ****         }
 3734              		.loc 2 165 24
 3735 0f54 93973400 		slli	a5,s1,3
 3736 0f58 B387F900 		add	a5,s3,a5
 3737 0f5c 23B09701 		sd	s9,0(a5)
 3738 0f60 6FF0DFF4 		j	.L178
 3739              	.L176:
 3740              	.LBE208:
 171:src/../h/ConsumerProducer_CPP_Sync_API_test.h **** 
 3741              		.loc 2 171 5 is_stmt 1
 3742              	.LEHB23:
 171:src/../h/ConsumerProducer_CPP_Sync_API_test.h **** 
 3743              		.loc 2 171 21 is_stmt 0
 3744 0f64 97000000 		call	_ZN6Thread8dispatchEv@plt
 3744      E7800000 
 3745              	.LVL410:
 3746              	.LBB215:
 173:src/../h/ConsumerProducer_CPP_Sync_API_test.h ****         waitForAll->wait();
 3747              		.loc 2 173 14
 3748 0f6c 93040000 		li	s1,0
 3749              	.LVL411:
 3750              	.L181:
 173:src/../h/ConsumerProducer_CPP_Sync_API_test.h ****         waitForAll->wait();
 3751              		.loc 2 173 23 is_stmt 1 discriminator 1
 3752 0f70 634E9900 		bgt	s1,s2,.L193
 174:src/../h/ConsumerProducer_CPP_Sync_API_test.h ****     }
 3753              		.loc 2 174 9
 174:src/../h/ConsumerProducer_CPP_Sync_API_test.h ****     }
 3754              		.loc 2 174 25 is_stmt 0
 3755 0f74 17050000 		ld	a0,.LANCHOR0+32
 3755      03350500 
 3756 0f7c 97000000 		call	_ZN9Semaphore4waitEv@plt
 3756      E7800000 
 3757              	.LVL412:
 173:src/../h/ConsumerProducer_CPP_Sync_API_test.h ****         waitForAll->wait();
 3758              		.loc 2 173 5 is_stmt 1
 3759 0f84 9B841400 		addiw	s1,s1,1
 3760              	.LVL413:
GAS LISTING /tmp/ccMeUcYP.s 			page 92


 3761 0f88 6FF09FFE 		j	.L181
 3762              	.LVL414:
 3763              	.L193:
 3764              	.LBE215:
 3765              	.LBB216:
 177:src/../h/ConsumerProducer_CPP_Sync_API_test.h ****         delete threads[i];
 3766              		.loc 2 177 14 is_stmt 0
 3767 0f8c 93040000 		li	s1,0
 3768              	.LVL415:
 3769 0f90 6F008000 		j	.L180
 3770              	.LVL416:
 3771              	.L183:
 177:src/../h/ConsumerProducer_CPP_Sync_API_test.h ****         delete threads[i];
 3772              		.loc 2 177 5 is_stmt 1 discriminator 2
 3773 0f94 9B841400 		addiw	s1,s1,1
 3774              	.LVL417:
 3775              	.L180:
 177:src/../h/ConsumerProducer_CPP_Sync_API_test.h ****         delete threads[i];
 3776              		.loc 2 177 23 discriminator 1
 3777 0f98 63D22403 		bge	s1,s2,.L182
 178:src/../h/ConsumerProducer_CPP_Sync_API_test.h ****     }
 3778              		.loc 2 178 9
 178:src/../h/ConsumerProducer_CPP_Sync_API_test.h ****     }
 3779              		.loc 2 178 25 is_stmt 0
 3780 0f9c 93973400 		slli	a5,s1,3
 3781 0fa0 B387F900 		add	a5,s3,a5
 3782 0fa4 03B50700 		ld	a0,0(a5)
 178:src/../h/ConsumerProducer_CPP_Sync_API_test.h ****     }
 3783              		.loc 2 178 26
 3784 0fa8 E30605FE 		beqz	a0,.L183
 178:src/../h/ConsumerProducer_CPP_Sync_API_test.h ****     }
 3785              		.loc 2 178 25 discriminator 1
 3786 0fac 83370500 		ld	a5,0(a0)
 3787 0fb0 83B78700 		ld	a5,8(a5)
 3788 0fb4 E7800700 		jalr	a5
 3789              	.LVL418:
 3790 0fb8 6FF0DFFD 		j	.L183
 3791              	.L182:
 3792              	.LBE216:
 180:src/../h/ConsumerProducer_CPP_Sync_API_test.h ****     delete waitForAll;
 3793              		.loc 2 180 5 is_stmt 1
 180:src/../h/ConsumerProducer_CPP_Sync_API_test.h ****     delete waitForAll;
 3794              		.loc 2 180 26 is_stmt 0
 3795 0fbc 630A0B00 		beqz	s6,.L184
 180:src/../h/ConsumerProducer_CPP_Sync_API_test.h ****     delete waitForAll;
 3796              		.loc 2 180 12 discriminator 1
 3797 0fc0 83370B00 		ld	a5,0(s6)
 3798 0fc4 83B78700 		ld	a5,8(a5)
 3799 0fc8 13050B00 		mv	a0,s6
 3800 0fcc E7800700 		jalr	a5
 3801              	.LVL419:
 3802              	.L184:
 181:src/../h/ConsumerProducer_CPP_Sync_API_test.h ****     delete buffer;
 3803              		.loc 2 181 5 is_stmt 1
 181:src/../h/ConsumerProducer_CPP_Sync_API_test.h ****     delete buffer;
 3804              		.loc 2 181 12 is_stmt 0
 3805 0fd0 17050000 		ld	a0,.LANCHOR0+32
GAS LISTING /tmp/ccMeUcYP.s 			page 93


 3805      03350500 
 181:src/../h/ConsumerProducer_CPP_Sync_API_test.h ****     delete buffer;
 3806              		.loc 2 181 22
 3807 0fd8 63080500 		beqz	a0,.L185
 181:src/../h/ConsumerProducer_CPP_Sync_API_test.h ****     delete buffer;
 3808              		.loc 2 181 12 discriminator 1
 3809 0fdc 83370500 		ld	a5,0(a0)
 3810 0fe0 83B78700 		ld	a5,8(a5)
 3811 0fe4 E7800700 		jalr	a5
 3812              	.LVL420:
 3813              	.L185:
 3814              		.loc 2 182 5 is_stmt 1
 3815              		.loc 2 182 18 is_stmt 0
 3816 0fe8 638E0A00 		beqz	s5,.L186
 3817              		.loc 2 182 12 discriminator 1
 3818 0fec 13850A00 		mv	a0,s5
 3819 0ff0 97000000 		call	_ZN9BufferCPPD1Ev@plt
 3819      E7800000 
 3820              	.LVL421:
 3821 0ff8 13850A00 		mv	a0,s5
 3822 0ffc 97000000 		call	_ZdlPv@plt
 3822      E7800000 
 3823              	.LVL422:
 3824              	.LEHE23:
 3825              	.L186:
 3826 1004 13810B00 		mv	sp,s7
 3827              	.LVL423:
 3828              	.L172:
 183:src/../h/ConsumerProducer_CPP_Sync_API_test.h **** 
 184:src/../h/ConsumerProducer_CPP_Sync_API_test.h **** }
 3829              		.loc 2 184 1
 3830 1008 130104F8 		addi	sp,s0,-128
 3831              		.cfi_remember_state
 3832              		.cfi_def_cfa 2, 128
 3833 100c 83308107 		ld	ra,120(sp)
 3834              		.cfi_restore 1
 3835 1010 03340107 		ld	s0,112(sp)
 3836              		.cfi_restore 8
 3837 1014 83348106 		ld	s1,104(sp)
 3838              		.cfi_restore 9
 3839 1018 03390106 		ld	s2,96(sp)
 3840              		.cfi_restore 18
 3841              	.LVL424:
 3842 101c 83398105 		ld	s3,88(sp)
 3843              		.cfi_restore 19
 3844 1020 033A0105 		ld	s4,80(sp)
 3845              		.cfi_restore 20
 3846 1024 833A8104 		ld	s5,72(sp)
 3847              		.cfi_restore 21
 3848 1028 033B0104 		ld	s6,64(sp)
 3849              		.cfi_restore 22
 3850 102c 833B8103 		ld	s7,56(sp)
 3851              		.cfi_restore 23
 3852 1030 033C0103 		ld	s8,48(sp)
 3853              		.cfi_restore 24
 3854 1034 833C8102 		ld	s9,40(sp)
 3855              		.cfi_restore 25
GAS LISTING /tmp/ccMeUcYP.s 			page 94


 3856 1038 13010108 		addi	sp,sp,128
 3857              		.cfi_def_cfa_offset 0
 3858 103c 67800000 		jr	ra
 3859              	.LVL425:
 3860              	.L194:
 3861              		.cfi_restore_state
 3862 1040 93040500 		mv	s1,a0
 3863              	.LVL426:
 142:src/../h/ConsumerProducer_CPP_Sync_API_test.h **** 
 3864              		.loc 2 142 40
 3865 1044 13850A00 		mv	a0,s5
 3866 1048 97000000 		call	_ZdlPv@plt
 3866      E7800000 
 3867              	.LVL427:
 3868 1050 13850400 		mv	a0,s1
 3869              	.LEHB24:
 3870 1054 97000000 		call	_Unwind_Resume@plt
 3870      E7800000 
 3871              	.LVL428:
 3872              	.LEHE24:
 3873              	.L195:
 3874 105c 13090500 		mv	s2,a0
 3875              	.LVL429:
 144:src/../h/ConsumerProducer_CPP_Sync_API_test.h **** 
 3876              		.loc 2 144 33
 3877 1060 13850400 		mv	a0,s1
 3878 1064 97000000 		call	_ZdlPv@plt
 3878      E7800000 
 3879              	.LVL430:
 3880 106c 13050900 		mv	a0,s2
 3881              	.LEHB25:
 3882 1070 97000000 		call	_Unwind_Resume@plt
 3882      E7800000 
 3883              	.LVL431:
 3884              	.LEHE25:
 3885              	.L196:
 3886 1078 93040500 		mv	s1,a0
 3887              	.LVL432:
 154:src/../h/ConsumerProducer_CPP_Sync_API_test.h ****     consumerThread->start();
 3888              		.loc 2 154 49
 3889 107c 13050B00 		mv	a0,s6
 3890 1080 97000000 		call	_ZdlPv@plt
 3890      E7800000 
 3891              	.LVL433:
 3892 1088 13850400 		mv	a0,s1
 3893              	.LEHB26:
 3894 108c 97000000 		call	_Unwind_Resume@plt
 3894      E7800000 
 3895              	.LVL434:
 3896              	.LEHE26:
 3897              	.L197:
 3898 1094 93040500 		mv	s1,a0
 3899              	.LVL435:
 3900              	.LBB217:
 163:src/../h/ConsumerProducer_CPP_Sync_API_test.h ****         } else {
 3901              		.loc 2 163 45
 3902 1098 13850C00 		mv	a0,s9
GAS LISTING /tmp/ccMeUcYP.s 			page 95


 3903 109c 97000000 		call	_ZdlPv@plt
 3903      E7800000 
 3904              	.LVL436:
 3905 10a4 13850400 		mv	a0,s1
 3906              	.LEHB27:
 3907 10a8 97000000 		call	_Unwind_Resume@plt
 3907      E7800000 
 3908              	.LVL437:
 3909              	.LEHE27:
 3910              	.L198:
 3911 10b0 93040500 		mv	s1,a0
 3912              	.LVL438:
 165:src/../h/ConsumerProducer_CPP_Sync_API_test.h ****         }
 3913              		.loc 2 165 53
 3914 10b4 13850C00 		mv	a0,s9
 3915 10b8 97000000 		call	_ZdlPv@plt
 3915      E7800000 
 3916              	.LVL439:
 3917 10c0 13850400 		mv	a0,s1
 3918              	.LEHB28:
 3919 10c4 97000000 		call	_Unwind_Resume@plt
 3919      E7800000 
 3920              	.LVL440:
 3921              	.LEHE28:
 3922              	.LBE217:
 3923              		.cfi_endproc
 3924              	.LFE39:
 3925              		.section	.gcc_except_table
 3926              	.LLSDA39:
 3927 00ae FF       		.byte	0xff
 3928 00af FF       		.byte	0xff
 3929 00b0 03       		.byte	0x3
 3930 00b1 D001     		.byte	0xd0,0x1
 3931 00b3 00000000 		.4byte	.LEHB13-.LFB39
 3932 00b7 00000000 		.4byte	.LEHE13-.LEHB13
 3933 00bb 00000000 		.4byte	0
 3934 00bf 00       		.byte	0
 3935 00c0 00000000 		.4byte	.LEHB14-.LFB39
 3936 00c4 00000000 		.4byte	.LEHE14-.LEHB14
 3937 00c8 00000000 		.4byte	.L194-.LFB39
 3938 00cc 00       		.byte	0
 3939 00cd 00000000 		.4byte	.LEHB15-.LFB39
 3940 00d1 00000000 		.4byte	.LEHE15-.LEHB15
 3941 00d5 00000000 		.4byte	0
 3942 00d9 00       		.byte	0
 3943 00da 00000000 		.4byte	.LEHB16-.LFB39
 3944 00de 00000000 		.4byte	.LEHE16-.LEHB16
 3945 00e2 00000000 		.4byte	.L195-.LFB39
 3946 00e6 00       		.byte	0
 3947 00e7 00000000 		.4byte	.LEHB17-.LFB39
 3948 00eb 00000000 		.4byte	.LEHE17-.LEHB17
 3949 00ef 00000000 		.4byte	0
 3950 00f3 00       		.byte	0
 3951 00f4 00000000 		.4byte	.LEHB18-.LFB39
 3952 00f8 00000000 		.4byte	.LEHE18-.LEHB18
 3953 00fc 00000000 		.4byte	.L196-.LFB39
 3954 0100 00       		.byte	0
GAS LISTING /tmp/ccMeUcYP.s 			page 96


 3955 0101 00000000 		.4byte	.LEHB19-.LFB39
 3956 0105 00000000 		.4byte	.LEHE19-.LEHB19
 3957 0109 00000000 		.4byte	0
 3958 010d 00       		.byte	0
 3959 010e 00000000 		.4byte	.LEHB20-.LFB39
 3960 0112 00000000 		.4byte	.LEHE20-.LEHB20
 3961 0116 00000000 		.4byte	.L197-.LFB39
 3962 011a 00       		.byte	0
 3963 011b 00000000 		.4byte	.LEHB21-.LFB39
 3964 011f 00000000 		.4byte	.LEHE21-.LEHB21
 3965 0123 00000000 		.4byte	0
 3966 0127 00       		.byte	0
 3967 0128 00000000 		.4byte	.LEHB22-.LFB39
 3968 012c 00000000 		.4byte	.LEHE22-.LEHB22
 3969 0130 00000000 		.4byte	.L198-.LFB39
 3970 0134 00       		.byte	0
 3971 0135 00000000 		.4byte	.LEHB23-.LFB39
 3972 0139 00000000 		.4byte	.LEHE23-.LEHB23
 3973 013d 00000000 		.4byte	0
 3974 0141 00       		.byte	0
 3975 0142 00000000 		.4byte	.LEHB24-.LFB39
 3976 0146 00000000 		.4byte	.LEHE24-.LEHB24
 3977 014a 00000000 		.4byte	0
 3978 014e 00       		.byte	0
 3979 014f 00000000 		.4byte	.LEHB25-.LFB39
 3980 0153 00000000 		.4byte	.LEHE25-.LEHB25
 3981 0157 00000000 		.4byte	0
 3982 015b 00       		.byte	0
 3983 015c 00000000 		.4byte	.LEHB26-.LFB39
 3984 0160 00000000 		.4byte	.LEHE26-.LEHB26
 3985 0164 00000000 		.4byte	0
 3986 0168 00       		.byte	0
 3987 0169 00000000 		.4byte	.LEHB27-.LFB39
 3988 016d 00000000 		.4byte	.LEHE27-.LEHB27
 3989 0171 00000000 		.4byte	0
 3990 0175 00       		.byte	0
 3991 0176 00000000 		.4byte	.LEHB28-.LFB39
 3992 017a 00000000 		.4byte	.LEHE28-.LEHB28
 3993 017e 00000000 		.4byte	0
 3994 0182 00       		.byte	0
 3995              		.text
 3997              		.align	2
 3998              		.globl	_Z12testSleepingv
 4000              	_Z12testSleepingv:
 4001              	.LFB41:
  26:src/../h/ThreadSleep_C_API_test.h **** 
  27:src/../h/ThreadSleep_C_API_test.h **** void testSleeping() {
 4002              		.loc 6 27 21 is_stmt 1
 4003              		.cfi_startproc
 4004 10cc 130101FC 		addi	sp,sp,-64
 4005              		.cfi_def_cfa_offset 64
 4006 10d0 233C1102 		sd	ra,56(sp)
 4007 10d4 23388102 		sd	s0,48(sp)
 4008 10d8 23349102 		sd	s1,40(sp)
 4009              		.cfi_offset 1, -8
 4010              		.cfi_offset 8, -16
 4011              		.cfi_offset 9, -24
GAS LISTING /tmp/ccMeUcYP.s 			page 97


 4012 10dc 13040104 		addi	s0,sp,64
 4013              		.cfi_def_cfa 8, 0
  28:src/../h/ThreadSleep_C_API_test.h ****     const int sleepy_thread_count = 2;
 4014              		.loc 6 28 5
 4015              	.LVL441:
  29:src/../h/ThreadSleep_C_API_test.h ****     time_t sleep_times[sleepy_thread_count] = {10, 20};
 4016              		.loc 6 29 5
 4017              		.loc 6 29 12 is_stmt 0
 4018 10e0 9307A000 		li	a5,10
 4019 10e4 2338F4FC 		sd	a5,-48(s0)
 4020 10e8 93074001 		li	a5,20
 4021 10ec 233CF4FC 		sd	a5,-40(s0)
  30:src/../h/ThreadSleep_C_API_test.h ****     thread_t sleepyThread[sleepy_thread_count];
 4022              		.loc 6 30 5 is_stmt 1
  31:src/../h/ThreadSleep_C_API_test.h **** 
  32:src/../h/ThreadSleep_C_API_test.h ****     for (int i = 0; i < sleepy_thread_count; i++) {
 4023              		.loc 6 32 5
 4024              	.LVL442:
 4025              	.LBB218:
 4026              		.loc 6 32 14 is_stmt 0
 4027 10f0 93040000 		li	s1,0
 4028 10f4 6F00C002 		j	.L206
 4029              	.LVL443:
 4030              	.L209:
  33:src/../h/ThreadSleep_C_API_test.h ****         thread_create(&sleepyThread[i], sleepyRun, sleep_times + i);
 4031              		.loc 6 33 9 is_stmt 1
 4032              		.loc 6 33 64 is_stmt 0
 4033 10f8 93973400 		slli	a5,s1,3
 4034              		.loc 6 33 22
 4035 10fc 130604FD 		addi	a2,s0,-48
 4036 1100 3306F600 		add	a2,a2,a5
 4037 1104 97050000 		lla	a1,_Z9sleepyRunPv
 4037      93850500 
 4038 110c 130504FC 		addi	a0,s0,-64
 4039 1110 3305F500 		add	a0,a0,a5
 4040 1114 97000000 		call	_Z13thread_createPP3NitPFvPvES2_@plt
 4040      E7800000 
 4041              	.LVL444:
  32:src/../h/ThreadSleep_C_API_test.h ****         thread_create(&sleepyThread[i], sleepyRun, sleep_times + i);
 4042              		.loc 6 32 5 is_stmt 1
 4043 111c 9B841400 		addiw	s1,s1,1
 4044              	.LVL445:
 4045              	.L206:
  32:src/../h/ThreadSleep_C_API_test.h ****         thread_create(&sleepyThread[i], sleepyRun, sleep_times + i);
 4046              		.loc 6 32 23 discriminator 1
 4047 1120 93071000 		li	a5,1
 4048 1124 E3DA97FC 		ble	s1,a5,.L209
 4049              	.L207:
 4050              	.LBE218:
  34:src/../h/ThreadSleep_C_API_test.h ****     }
  35:src/../h/ThreadSleep_C_API_test.h **** 
  36:src/../h/ThreadSleep_C_API_test.h ****     while (!(finished[0] && finished[1])) {}
 4051              		.loc 6 36 5
 4052              		.loc 6 36 12
 4053              		.loc 6 36 24 is_stmt 0
 4054 1128 97070000 		lbu	a5,.LANCHOR0+8
 4054      83C70700 
GAS LISTING /tmp/ccMeUcYP.s 			page 98


 4055              		.loc 6 36 12
 4056 1130 E38C07FE 		beqz	a5,.L207
 4057              		.loc 6 36 39 discriminator 1
 4058 1134 97070000 		lbu	a5,.LANCHOR0+9
 4058      83C70700 
 4059              		.loc 6 36 12 discriminator 1
 4060 113c E38607FE 		beqz	a5,.L207
  37:src/../h/ThreadSleep_C_API_test.h **** }
 4061              		.loc 6 37 1
 4062 1140 83308103 		ld	ra,56(sp)
 4063              		.cfi_restore 1
 4064 1144 03340103 		ld	s0,48(sp)
 4065              		.cfi_restore 8
 4066              		.cfi_def_cfa 2, 64
 4067 1148 83348102 		ld	s1,40(sp)
 4068              		.cfi_restore 9
 4069              	.LVL446:
 4070 114c 13010104 		addi	sp,sp,64
 4071              		.cfi_def_cfa_offset 0
 4072 1150 67800000 		jr	ra
 4073              		.cfi_endproc
 4074              	.LFE41:
 4076              		.align	2
 4077              		.globl	_ZN19ConsumerProducerCPP20testConsumerProducerEv
 4079              	_ZN19ConsumerProducerCPP20testConsumerProducerEv:
 4080              	.LFB54:
  87:src/../h/ConsumerProducer_CPP_API_test.h ****     };
  88:src/../h/ConsumerProducer_CPP_API_test.h **** 
  89:src/../h/ConsumerProducer_CPP_API_test.h ****     void testConsumerProducer() {
 4081              		.loc 3 89 33 is_stmt 1
 4082              		.cfi_startproc
 4083              		.cfi_personality 0x9b,DW.ref.__gxx_personality_v0
 4084              		.cfi_lsda 0x1b,.LLSDA54
 4085 1154 130101F8 		addi	sp,sp,-128
 4086              		.cfi_def_cfa_offset 128
 4087 1158 233C1106 		sd	ra,120(sp)
 4088 115c 23388106 		sd	s0,112(sp)
 4089 1160 23349106 		sd	s1,104(sp)
 4090 1164 23302107 		sd	s2,96(sp)
 4091 1168 233C3105 		sd	s3,88(sp)
 4092 116c 23384105 		sd	s4,80(sp)
 4093 1170 23345105 		sd	s5,72(sp)
 4094 1174 23306105 		sd	s6,64(sp)
 4095 1178 233C7103 		sd	s7,56(sp)
 4096 117c 23388103 		sd	s8,48(sp)
 4097 1180 23349103 		sd	s9,40(sp)
 4098              		.cfi_offset 1, -8
 4099              		.cfi_offset 8, -16
 4100              		.cfi_offset 9, -24
 4101              		.cfi_offset 18, -32
 4102              		.cfi_offset 19, -40
 4103              		.cfi_offset 20, -48
 4104              		.cfi_offset 21, -56
 4105              		.cfi_offset 22, -64
 4106              		.cfi_offset 23, -72
 4107              		.cfi_offset 24, -80
 4108              		.cfi_offset 25, -88
GAS LISTING /tmp/ccMeUcYP.s 			page 99


 4109 1184 13040108 		addi	s0,sp,128
 4110              		.cfi_def_cfa 8, 0
  90:src/../h/ConsumerProducer_CPP_API_test.h ****         char input[30];
  91:src/../h/ConsumerProducer_CPP_API_test.h ****         int n, threadNum;
  92:src/../h/ConsumerProducer_CPP_API_test.h **** 
  93:src/../h/ConsumerProducer_CPP_API_test.h ****         printString("Unesite broj proizvodjaca?\n");
  94:src/../h/ConsumerProducer_CPP_API_test.h ****         getString(input, 30);
  95:src/../h/ConsumerProducer_CPP_API_test.h ****         threadNum = stringToInt(input);
  96:src/../h/ConsumerProducer_CPP_API_test.h **** 
  97:src/../h/ConsumerProducer_CPP_API_test.h ****         printString("Unesite velicinu bafera?\n");
  98:src/../h/ConsumerProducer_CPP_API_test.h ****         getString(input, 30);
  99:src/../h/ConsumerProducer_CPP_API_test.h ****         n = stringToInt(input);
 100:src/../h/ConsumerProducer_CPP_API_test.h **** 
 101:src/../h/ConsumerProducer_CPP_API_test.h ****         printString("Broj proizvodjaca "); printInt(threadNum);
 102:src/../h/ConsumerProducer_CPP_API_test.h ****         printString(" i velicina bafera "); printInt(n);
 103:src/../h/ConsumerProducer_CPP_API_test.h ****         printString(".\n");
 104:src/../h/ConsumerProducer_CPP_API_test.h **** 
 105:src/../h/ConsumerProducer_CPP_API_test.h ****         if(threadNum > n) {
 106:src/../h/ConsumerProducer_CPP_API_test.h ****             printString("Broj proizvodjaca ne sme biti manji od velicine bafera!\n");
 107:src/../h/ConsumerProducer_CPP_API_test.h ****             return;
 108:src/../h/ConsumerProducer_CPP_API_test.h ****         } else if (threadNum < 1) {
 109:src/../h/ConsumerProducer_CPP_API_test.h ****             printString("Broj proizvodjaca mora biti veci od nula!\n");
 110:src/../h/ConsumerProducer_CPP_API_test.h ****             return;
 111:src/../h/ConsumerProducer_CPP_API_test.h ****         }
 112:src/../h/ConsumerProducer_CPP_API_test.h **** 
 113:src/../h/ConsumerProducer_CPP_API_test.h ****         BufferCPP *buffer = new BufferCPP(n);
 114:src/../h/ConsumerProducer_CPP_API_test.h **** 
 115:src/../h/ConsumerProducer_CPP_API_test.h ****         waitForAll = new Semaphore(0);
 116:src/../h/ConsumerProducer_CPP_API_test.h ****         Thread *producers[threadNum];
 117:src/../h/ConsumerProducer_CPP_API_test.h ****         thread_data threadData[threadNum + 1];
 118:src/../h/ConsumerProducer_CPP_API_test.h **** 
 119:src/../h/ConsumerProducer_CPP_API_test.h ****         threadData[threadNum].id = threadNum;
 120:src/../h/ConsumerProducer_CPP_API_test.h ****         threadData[threadNum].buffer = buffer;
 121:src/../h/ConsumerProducer_CPP_API_test.h ****         threadData[threadNum].sem = waitForAll;
 122:src/../h/ConsumerProducer_CPP_API_test.h ****         Thread *consumer = new Consumer(&threadData[threadNum]);
 123:src/../h/ConsumerProducer_CPP_API_test.h ****         consumer->start();
 124:src/../h/ConsumerProducer_CPP_API_test.h **** 
 125:src/../h/ConsumerProducer_CPP_API_test.h ****         threadData[0].id = 0;
 126:src/../h/ConsumerProducer_CPP_API_test.h ****         threadData[0].buffer = buffer;
 127:src/../h/ConsumerProducer_CPP_API_test.h ****         threadData[0].sem = waitForAll;
 128:src/../h/ConsumerProducer_CPP_API_test.h ****         producers[0] = new ProducerKeyborad(&threadData[0]);
 129:src/../h/ConsumerProducer_CPP_API_test.h ****         producers[0]->start();
 130:src/../h/ConsumerProducer_CPP_API_test.h **** 
 131:src/../h/ConsumerProducer_CPP_API_test.h ****         for (int i = 1; i < threadNum; i++) {
 132:src/../h/ConsumerProducer_CPP_API_test.h ****             threadData[i].id = i;
 133:src/../h/ConsumerProducer_CPP_API_test.h ****             threadData[i].buffer = buffer;
 134:src/../h/ConsumerProducer_CPP_API_test.h ****             threadData[i].sem = waitForAll;
 135:src/../h/ConsumerProducer_CPP_API_test.h **** 
 136:src/../h/ConsumerProducer_CPP_API_test.h ****             producers[i] = new Producer(&threadData[i]);
 137:src/../h/ConsumerProducer_CPP_API_test.h ****             producers[i]->start();
 138:src/../h/ConsumerProducer_CPP_API_test.h **** 
 139:src/../h/ConsumerProducer_CPP_API_test.h ****         }
 140:src/../h/ConsumerProducer_CPP_API_test.h **** 
 141:src/../h/ConsumerProducer_CPP_API_test.h ****         Thread::dispatch();
 142:src/../h/ConsumerProducer_CPP_API_test.h **** 
 143:src/../h/ConsumerProducer_CPP_API_test.h ****         for (int i = 0; i <= threadNum; i++) {
 144:src/../h/ConsumerProducer_CPP_API_test.h ****             waitForAll->wait();
GAS LISTING /tmp/ccMeUcYP.s 			page 100


 145:src/../h/ConsumerProducer_CPP_API_test.h ****         }
 146:src/../h/ConsumerProducer_CPP_API_test.h **** 
 147:src/../h/ConsumerProducer_CPP_API_test.h ****         delete waitForAll;
 148:src/../h/ConsumerProducer_CPP_API_test.h ****         for (int i = 0; i < threadNum; i++) {
 149:src/../h/ConsumerProducer_CPP_API_test.h ****             delete producers[i];
 150:src/../h/ConsumerProducer_CPP_API_test.h ****         }
 151:src/../h/ConsumerProducer_CPP_API_test.h ****         delete consumer;
 152:src/../h/ConsumerProducer_CPP_API_test.h ****         delete buffer;
 4111              		.loc 3 152 22 is_stmt 0
 4112 1188 130C0100 		mv	s8,sp
  90:src/../h/ConsumerProducer_CPP_API_test.h ****         char input[30];
 4113              		.loc 3 90 9 is_stmt 1
  91:src/../h/ConsumerProducer_CPP_API_test.h **** 
 4114              		.loc 3 91 9
  93:src/../h/ConsumerProducer_CPP_API_test.h ****         getString(input, 30);
 4115              		.loc 3 93 9
  93:src/../h/ConsumerProducer_CPP_API_test.h ****         getString(input, 30);
 4116              		.loc 3 93 20 is_stmt 0
 4117 118c 17050000 		lla	a0,.LC34
 4117      13050500 
 4118              	.LEHB29:
 4119 1194 97000000 		call	_Z11printStringPKc@plt
 4119      E7800000 
 4120              	.LVL447:
  94:src/../h/ConsumerProducer_CPP_API_test.h ****         threadNum = stringToInt(input);
 4121              		.loc 3 94 9 is_stmt 1
  94:src/../h/ConsumerProducer_CPP_API_test.h ****         threadNum = stringToInt(input);
 4122              		.loc 3 94 18 is_stmt 0
 4123 119c 9305E001 		li	a1,30
 4124 11a0 930404F8 		addi	s1,s0,-128
 4125 11a4 13850400 		mv	a0,s1
 4126 11a8 97000000 		call	_Z9getStringPci@plt
 4126      E7800000 
 4127              	.LVL448:
  95:src/../h/ConsumerProducer_CPP_API_test.h **** 
 4128              		.loc 3 95 9 is_stmt 1
  95:src/../h/ConsumerProducer_CPP_API_test.h **** 
 4129              		.loc 3 95 32 is_stmt 0
 4130 11b0 13850400 		mv	a0,s1
 4131 11b4 97000000 		call	_Z11stringToIntPKc@plt
 4131      E7800000 
 4132              	.LVL449:
 4133 11bc 93090500 		mv	s3,a0
 4134              	.LVL450:
  97:src/../h/ConsumerProducer_CPP_API_test.h ****         getString(input, 30);
 4135              		.loc 3 97 9 is_stmt 1
  97:src/../h/ConsumerProducer_CPP_API_test.h ****         getString(input, 30);
 4136              		.loc 3 97 20 is_stmt 0
 4137 11c0 17050000 		lla	a0,.LC35
 4137      13050500 
 4138 11c8 97000000 		call	_Z11printStringPKc@plt
 4138      E7800000 
 4139              	.LVL451:
  98:src/../h/ConsumerProducer_CPP_API_test.h ****         n = stringToInt(input);
 4140              		.loc 3 98 9 is_stmt 1
  98:src/../h/ConsumerProducer_CPP_API_test.h ****         n = stringToInt(input);
 4141              		.loc 3 98 18 is_stmt 0
GAS LISTING /tmp/ccMeUcYP.s 			page 101


 4142 11d0 9305E001 		li	a1,30
 4143 11d4 13850400 		mv	a0,s1
 4144 11d8 97000000 		call	_Z9getStringPci@plt
 4144      E7800000 
 4145              	.LVL452:
  99:src/../h/ConsumerProducer_CPP_API_test.h **** 
 4146              		.loc 3 99 9 is_stmt 1
  99:src/../h/ConsumerProducer_CPP_API_test.h **** 
 4147              		.loc 3 99 24 is_stmt 0
 4148 11e0 13850400 		mv	a0,s1
 4149 11e4 97000000 		call	_Z11stringToIntPKc@plt
 4149      E7800000 
 4150              	.LVL453:
 4151 11ec 93040500 		mv	s1,a0
 4152              	.LVL454:
 101:src/../h/ConsumerProducer_CPP_API_test.h ****         printString(" i velicina bafera "); printInt(n);
 4153              		.loc 3 101 9 is_stmt 1
 101:src/../h/ConsumerProducer_CPP_API_test.h ****         printString(" i velicina bafera "); printInt(n);
 4154              		.loc 3 101 20 is_stmt 0
 4155 11f0 17050000 		lla	a0,.LC36
 4155      13050500 
 4156 11f8 97000000 		call	_Z11printStringPKc@plt
 4156      E7800000 
 4157              	.LVL455:
 101:src/../h/ConsumerProducer_CPP_API_test.h ****         printString(" i velicina bafera "); printInt(n);
 4158              		.loc 3 101 44 is_stmt 1
 101:src/../h/ConsumerProducer_CPP_API_test.h ****         printString(" i velicina bafera "); printInt(n);
 4159              		.loc 3 101 52 is_stmt 0
 4160 1200 13060000 		li	a2,0
 4161 1204 9305A000 		li	a1,10
 4162 1208 13850900 		mv	a0,s3
 4163 120c 97000000 		call	_Z8printIntiii@plt
 4163      E7800000 
 4164              	.LVL456:
 102:src/../h/ConsumerProducer_CPP_API_test.h ****         printString(".\n");
 4165              		.loc 3 102 9 is_stmt 1
 102:src/../h/ConsumerProducer_CPP_API_test.h ****         printString(".\n");
 4166              		.loc 3 102 20 is_stmt 0
 4167 1214 17050000 		lla	a0,.LC37
 4167      13050500 
 4168 121c 97000000 		call	_Z11printStringPKc@plt
 4168      E7800000 
 4169              	.LVL457:
 102:src/../h/ConsumerProducer_CPP_API_test.h ****         printString(".\n");
 4170              		.loc 3 102 45 is_stmt 1
 102:src/../h/ConsumerProducer_CPP_API_test.h ****         printString(".\n");
 4171              		.loc 3 102 53 is_stmt 0
 4172 1224 13060000 		li	a2,0
 4173 1228 9305A000 		li	a1,10
 4174 122c 13850400 		mv	a0,s1
 4175 1230 97000000 		call	_Z8printIntiii@plt
 4175      E7800000 
 4176              	.LVL458:
 103:src/../h/ConsumerProducer_CPP_API_test.h **** 
 4177              		.loc 3 103 9 is_stmt 1
 103:src/../h/ConsumerProducer_CPP_API_test.h **** 
 4178              		.loc 3 103 20 is_stmt 0
GAS LISTING /tmp/ccMeUcYP.s 			page 102


 4179 1238 17050000 		lla	a0,.LC38
 4179      13050500 
 4180 1240 97000000 		call	_Z11printStringPKc@plt
 4180      E7800000 
 4181              	.LVL459:
 105:src/../h/ConsumerProducer_CPP_API_test.h ****             printString("Broj proizvodjaca ne sme biti manji od velicine bafera!\n");
 4182              		.loc 3 105 9 is_stmt 1
 4183 1248 63C43403 		bgt	s3,s1,.L236
 108:src/../h/ConsumerProducer_CPP_API_test.h ****             printString("Broj proizvodjaca mora biti veci od nula!\n");
 4184              		.loc 3 108 16
 4185 124c 635C3003 		blez	s3,.L237
 113:src/../h/ConsumerProducer_CPP_API_test.h **** 
 4186              		.loc 3 113 9
 113:src/../h/ConsumerProducer_CPP_API_test.h **** 
 4187              		.loc 3 113 44 is_stmt 0
 4188 1250 13058003 		li	a0,56
 4189 1254 97000000 		call	_Znwm@plt
 4189      E7800000 
 4190              	.LVL460:
 4191              	.LEHE29:
 4192 125c 930A0500 		mv	s5,a0
 4193 1260 93850400 		mv	a1,s1
 4194              	.LEHB30:
 4195 1264 97000000 		call	_ZN9BufferCPPC1Ei@plt
 4195      E7800000 
 4196              	.LVL461:
 4197              	.LEHE30:
 4198 126c 6F000003 		j	.L238
 4199              	.L236:
 106:src/../h/ConsumerProducer_CPP_API_test.h ****             return;
 4200              		.loc 3 106 13 is_stmt 1
 106:src/../h/ConsumerProducer_CPP_API_test.h ****             return;
 4201              		.loc 3 106 24 is_stmt 0
 4202 1270 17050000 		lla	a0,.LC39
 4202      13050500 
 4203              	.LEHB31:
 4204 1278 97000000 		call	_Z11printStringPKc@plt
 4204      E7800000 
 4205              	.LVL462:
 107:src/../h/ConsumerProducer_CPP_API_test.h ****         } else if (threadNum < 1) {
 4206              		.loc 3 107 13 is_stmt 1
 4207 1280 6F004001 		j	.L212
 4208              	.L237:
 109:src/../h/ConsumerProducer_CPP_API_test.h ****             return;
 4209              		.loc 3 109 13
 109:src/../h/ConsumerProducer_CPP_API_test.h ****             return;
 4210              		.loc 3 109 24 is_stmt 0
 4211 1284 17050000 		lla	a0,.LC40
 4211      13050500 
 4212 128c 97000000 		call	_Z11printStringPKc@plt
 4212      E7800000 
 4213              	.LVL463:
 110:src/../h/ConsumerProducer_CPP_API_test.h ****         }
 4214              		.loc 3 110 13 is_stmt 1
 4215              	.L212:
 4216 1294 13010C00 		mv	sp,s8
 4217 1298 6F00C021 		j	.L210
GAS LISTING /tmp/ccMeUcYP.s 			page 103


 4218              	.L238:
 4219              	.LVL464:
 115:src/../h/ConsumerProducer_CPP_API_test.h ****         Thread *producers[threadNum];
 4220              		.loc 3 115 9 discriminator 3
 115:src/../h/ConsumerProducer_CPP_API_test.h ****         Thread *producers[threadNum];
 4221              		.loc 3 115 37 is_stmt 0 discriminator 3
 4222 129c 13050001 		li	a0,16
 4223 12a0 97000000 		call	_Znwm@plt
 4223      E7800000 
 4224              	.LVL465:
 4225              	.LEHE31:
 4226 12a8 93040500 		mv	s1,a0
 4227              	.LVL466:
 4228 12ac 93050000 		li	a1,0
 4229              	.LEHB32:
 4230 12b0 97000000 		call	_ZN9SemaphoreC1Ej@plt
 4230      E7800000 
 4231              	.LVL467:
 4232              	.LEHE32:
 115:src/../h/ConsumerProducer_CPP_API_test.h ****         Thread *producers[threadNum];
 4233              		.loc 3 115 20 discriminator 3
 4234 12b8 17070000 		lla	a4,.LANCHOR0
 4234      13070700 
 4235 12c0 23349702 		sd	s1,40(a4)
 116:src/../h/ConsumerProducer_CPP_API_test.h ****         thread_data threadData[threadNum + 1];
 4236              		.loc 3 116 9 is_stmt 1 discriminator 3
 4237              	.LVL468:
 116:src/../h/ConsumerProducer_CPP_API_test.h ****         thread_data threadData[threadNum + 1];
 4238              		.loc 3 116 17 is_stmt 0 discriminator 3
 4239 12c4 93973900 		slli	a5,s3,3
 4240 12c8 9387F700 		addi	a5,a5,15
 4241 12cc 93F707FF 		andi	a5,a5,-16
 4242 12d0 3301F140 		sub	sp,sp,a5
 4243 12d4 130A0100 		mv	s4,sp
 4244              	.LVL469:
 117:src/../h/ConsumerProducer_CPP_API_test.h **** 
 4245              		.loc 3 117 9 is_stmt 1 discriminator 3
 117:src/../h/ConsumerProducer_CPP_API_test.h **** 
 4246              		.loc 3 117 42 is_stmt 0 discriminator 3
 4247 12d8 9B861900 		addiw	a3,s3,1
 4248              	.LVL470:
 117:src/../h/ConsumerProducer_CPP_API_test.h **** 
 4249              		.loc 3 117 21 discriminator 3
 4250 12dc 93971600 		slli	a5,a3,1
 4251 12e0 B387D700 		add	a5,a5,a3
 4252 12e4 93973700 		slli	a5,a5,3
 4253 12e8 9387F700 		addi	a5,a5,15
 4254 12ec 93F707FF 		andi	a5,a5,-16
 4255 12f0 3301F140 		sub	sp,sp,a5
 4256              	.LVL471:
 4257 12f4 130B0100 		mv	s6,sp
 4258              	.LVL472:
 119:src/../h/ConsumerProducer_CPP_API_test.h ****         threadData[threadNum].buffer = buffer;
 4259              		.loc 3 119 9 is_stmt 1 discriminator 3
 119:src/../h/ConsumerProducer_CPP_API_test.h ****         threadData[threadNum].buffer = buffer;
 4260              		.loc 3 119 34 is_stmt 0 discriminator 3
 4261 12f8 93941900 		slli	s1,s3,1
GAS LISTING /tmp/ccMeUcYP.s 			page 104


 4262 12fc B3843401 		add	s1,s1,s3
 4263 1300 93943400 		slli	s1,s1,3
 4264 1304 B3049B00 		add	s1,s6,s1
 4265 1308 23A03401 		sw	s3,0(s1)
 120:src/../h/ConsumerProducer_CPP_API_test.h ****         threadData[threadNum].sem = waitForAll;
 4266              		.loc 3 120 9 is_stmt 1 discriminator 3
 120:src/../h/ConsumerProducer_CPP_API_test.h ****         threadData[threadNum].sem = waitForAll;
 4267              		.loc 3 120 38 is_stmt 0 discriminator 3
 4268 130c 23B45401 		sd	s5,8(s1)
 121:src/../h/ConsumerProducer_CPP_API_test.h ****         Thread *consumer = new Consumer(&threadData[threadNum]);
 4269              		.loc 3 121 9 is_stmt 1 discriminator 3
 121:src/../h/ConsumerProducer_CPP_API_test.h ****         Thread *consumer = new Consumer(&threadData[threadNum]);
 4270              		.loc 3 121 35 is_stmt 0 discriminator 3
 4271 1310 83378702 		ld	a5,40(a4)
 4272 1314 23B8F400 		sd	a5,16(s1)
 122:src/../h/ConsumerProducer_CPP_API_test.h ****         consumer->start();
 4273              		.loc 3 122 9 is_stmt 1 discriminator 3
 122:src/../h/ConsumerProducer_CPP_API_test.h ****         consumer->start();
 4274              		.loc 3 122 63 is_stmt 0 discriminator 3
 4275 1318 13058001 		li	a0,24
 4276              	.LEHB33:
 4277 131c 97000000 		call	_Znwm@plt
 4277      E7800000 
 4278              	.LVL473:
 4279              	.LEHE33:
 4280 1324 930B0500 		mv	s7,a0
 4281              	.LVL474:
 4282              	.LEHB34:
 4283              	.LBB219:
 4284              	.LBB220:
  65:src/../h/ConsumerProducer_CPP_API_test.h **** 
 4285              		.loc 3 65 54 discriminator 3
 4286 1328 97000000 		call	_ZN6ThreadC2Ev@plt
 4286      E7800000 
 4287              	.LVL475:
 4288              	.LEHE34:
  65:src/../h/ConsumerProducer_CPP_API_test.h **** 
 4289              		.loc 3 65 54
 4290 1330 97070000 		lla	a5,_ZTVN19ConsumerProducerCPP8ConsumerE+16
 4290      93870700 
 4291 1338 23B0FB00 		sd	a5,0(s7)
 4292 133c 23B89B00 		sd	s1,16(s7)
 4293              	.LVL476:
 4294              	.LBE220:
 4295              	.LBE219:
 123:src/../h/ConsumerProducer_CPP_API_test.h **** 
 4296              		.loc 3 123 9 is_stmt 1
 123:src/../h/ConsumerProducer_CPP_API_test.h **** 
 4297              		.loc 3 123 24 is_stmt 0
 4298 1340 13850B00 		mv	a0,s7
 4299              	.LEHB35:
 4300 1344 97000000 		call	_ZN6Thread5startEv@plt
 4300      E7800000 
 4301              	.LVL477:
 125:src/../h/ConsumerProducer_CPP_API_test.h ****         threadData[0].buffer = buffer;
 4302              		.loc 3 125 9 is_stmt 1
 125:src/../h/ConsumerProducer_CPP_API_test.h ****         threadData[0].buffer = buffer;
GAS LISTING /tmp/ccMeUcYP.s 			page 105


 4303              		.loc 3 125 26 is_stmt 0
 4304 134c 23200B00 		sw	zero,0(s6)
 126:src/../h/ConsumerProducer_CPP_API_test.h ****         threadData[0].sem = waitForAll;
 4305              		.loc 3 126 9 is_stmt 1
 126:src/../h/ConsumerProducer_CPP_API_test.h ****         threadData[0].sem = waitForAll;
 4306              		.loc 3 126 30 is_stmt 0
 4307 1350 23345B01 		sd	s5,8(s6)
 127:src/../h/ConsumerProducer_CPP_API_test.h ****         producers[0] = new ProducerKeyborad(&threadData[0]);
 4308              		.loc 3 127 9 is_stmt 1
 127:src/../h/ConsumerProducer_CPP_API_test.h ****         producers[0] = new ProducerKeyborad(&threadData[0]);
 4309              		.loc 3 127 27 is_stmt 0
 4310 1354 97070000 		ld	a5,.LANCHOR0+40
 4310      83B70700 
 4311 135c 2338FB00 		sd	a5,16(s6)
 128:src/../h/ConsumerProducer_CPP_API_test.h ****         producers[0]->start();
 4312              		.loc 3 128 9 is_stmt 1
 128:src/../h/ConsumerProducer_CPP_API_test.h ****         producers[0]->start();
 4313              		.loc 3 128 59 is_stmt 0
 4314 1360 13058001 		li	a0,24
 4315 1364 97000000 		call	_Znwm@plt
 4315      E7800000 
 4316              	.LVL478:
 4317              	.LEHE35:
 4318 136c 93040500 		mv	s1,a0
 4319              	.LVL479:
 4320              	.LEHB36:
 4321              	.LBB221:
 4322              	.LBB222:
  28:src/../h/ConsumerProducer_CPP_API_test.h **** 
 4323              		.loc 3 28 62
 4324 1370 97000000 		call	_ZN6ThreadC2Ev@plt
 4324      E7800000 
 4325              	.LVL480:
 4326              	.LEHE36:
 4327 1378 97070000 		lla	a5,_ZTVN19ConsumerProducerCPP16ProducerKeyboradE+16
 4327      93870700 
 4328 1380 23B0F400 		sd	a5,0(s1)
 4329 1384 23B86401 		sd	s6,16(s1)
 4330              	.LVL481:
 4331              	.LBE222:
 4332              	.LBE221:
 128:src/../h/ConsumerProducer_CPP_API_test.h ****         producers[0]->start();
 4333              		.loc 3 128 22
 4334 1388 23309A00 		sd	s1,0(s4)
 129:src/../h/ConsumerProducer_CPP_API_test.h **** 
 4335              		.loc 3 129 9 is_stmt 1
 129:src/../h/ConsumerProducer_CPP_API_test.h **** 
 4336              		.loc 3 129 28 is_stmt 0
 4337 138c 13850400 		mv	a0,s1
 4338              	.LEHB37:
 4339 1390 97000000 		call	_ZN6Thread5startEv@plt
 4339      E7800000 
 4340              	.LVL482:
 4341              	.LBB223:
 131:src/../h/ConsumerProducer_CPP_API_test.h ****             threadData[i].id = i;
 4342              		.loc 3 131 18
 4343 1398 13091000 		li	s2,1
GAS LISTING /tmp/ccMeUcYP.s 			page 106


 4344 139c 6F000003 		j	.L215
 4345              	.LVL483:
 4346              	.L239:
 4347              	.LBB224:
 4348              	.LBB225:
  48:src/../h/ConsumerProducer_CPP_API_test.h **** 
 4349              		.loc 3 48 54
 4350 13a0 97070000 		lla	a5,_ZTVN19ConsumerProducerCPP8ProducerE+16
 4350      93870700 
 4351 13a8 23B0FC00 		sd	a5,0(s9)
 4352 13ac 23B89C00 		sd	s1,16(s9)
 4353              	.LVL484:
 4354              	.LBE225:
 4355              	.LBE224:
 136:src/../h/ConsumerProducer_CPP_API_test.h ****             producers[i]->start();
 4356              		.loc 3 136 26
 4357 13b0 93173900 		slli	a5,s2,3
 4358 13b4 B307FA00 		add	a5,s4,a5
 4359 13b8 23B09701 		sd	s9,0(a5)
 137:src/../h/ConsumerProducer_CPP_API_test.h **** 
 4360              		.loc 3 137 13 is_stmt 1
 137:src/../h/ConsumerProducer_CPP_API_test.h **** 
 4361              		.loc 3 137 32 is_stmt 0
 4362 13bc 13850C00 		mv	a0,s9
 4363 13c0 97000000 		call	_ZN6Thread5startEv@plt
 4363      E7800000 
 4364              	.LVL485:
 131:src/../h/ConsumerProducer_CPP_API_test.h ****             threadData[i].id = i;
 4365              		.loc 3 131 9 is_stmt 1
 4366 13c8 1B091900 		addiw	s2,s2,1
 4367              	.LVL486:
 4368              	.L215:
 131:src/../h/ConsumerProducer_CPP_API_test.h ****             threadData[i].id = i;
 4369              		.loc 3 131 27 discriminator 1
 4370 13cc 63523905 		bge	s2,s3,.L214
 132:src/../h/ConsumerProducer_CPP_API_test.h ****             threadData[i].buffer = buffer;
 4371              		.loc 3 132 13
 132:src/../h/ConsumerProducer_CPP_API_test.h ****             threadData[i].buffer = buffer;
 4372              		.loc 3 132 30 is_stmt 0
 4373 13d0 93141900 		slli	s1,s2,1
 4374 13d4 B3842401 		add	s1,s1,s2
 4375 13d8 93943400 		slli	s1,s1,3
 4376 13dc B3049B00 		add	s1,s6,s1
 4377 13e0 23A02401 		sw	s2,0(s1)
 133:src/../h/ConsumerProducer_CPP_API_test.h ****             threadData[i].sem = waitForAll;
 4378              		.loc 3 133 13 is_stmt 1
 133:src/../h/ConsumerProducer_CPP_API_test.h ****             threadData[i].sem = waitForAll;
 4379              		.loc 3 133 34 is_stmt 0
 4380 13e4 23B45401 		sd	s5,8(s1)
 134:src/../h/ConsumerProducer_CPP_API_test.h **** 
 4381              		.loc 3 134 13 is_stmt 1
 134:src/../h/ConsumerProducer_CPP_API_test.h **** 
 4382              		.loc 3 134 31 is_stmt 0
 4383 13e8 97070000 		ld	a5,.LANCHOR0+40
 4383      83B70700 
 4384 13f0 23B8F400 		sd	a5,16(s1)
 136:src/../h/ConsumerProducer_CPP_API_test.h ****             producers[i]->start();
GAS LISTING /tmp/ccMeUcYP.s 			page 107


 4385              		.loc 3 136 13 is_stmt 1
 136:src/../h/ConsumerProducer_CPP_API_test.h ****             producers[i]->start();
 4386              		.loc 3 136 55 is_stmt 0
 4387 13f4 13058001 		li	a0,24
 4388 13f8 97000000 		call	_Znwm@plt
 4388      E7800000 
 4389              	.LVL487:
 4390              	.LEHE37:
 4391 1400 930C0500 		mv	s9,a0
 4392              	.LVL488:
 4393              	.LEHB38:
 4394              	.LBB227:
 4395              	.LBB226:
  48:src/../h/ConsumerProducer_CPP_API_test.h **** 
 4396              		.loc 3 48 54
 4397 1404 97000000 		call	_ZN6ThreadC2Ev@plt
 4397      E7800000 
 4398              	.LVL489:
 4399              	.LEHE38:
 4400 140c 6FF05FF9 		j	.L239
 4401              	.LVL490:
 4402              	.L214:
 4403              	.LBE226:
 4404              	.LBE227:
 4405              	.LBE223:
 141:src/../h/ConsumerProducer_CPP_API_test.h **** 
 4406              		.loc 3 141 9 is_stmt 1
 4407              	.LEHB39:
 141:src/../h/ConsumerProducer_CPP_API_test.h **** 
 4408              		.loc 3 141 25 is_stmt 0
 4409 1410 97000000 		call	_ZN6Thread8dispatchEv@plt
 4409      E7800000 
 4410              	.LVL491:
 4411              	.LBB228:
 143:src/../h/ConsumerProducer_CPP_API_test.h ****             waitForAll->wait();
 4412              		.loc 3 143 18
 4413 1418 93040000 		li	s1,0
 4414              	.L217:
 4415              	.LVL492:
 143:src/../h/ConsumerProducer_CPP_API_test.h ****             waitForAll->wait();
 4416              		.loc 3 143 27 is_stmt 1 discriminator 1
 4417 141c 63CE9900 		bgt	s1,s3,.L216
 144:src/../h/ConsumerProducer_CPP_API_test.h ****         }
 4418              		.loc 3 144 13
 144:src/../h/ConsumerProducer_CPP_API_test.h ****         }
 4419              		.loc 3 144 29 is_stmt 0
 4420 1420 17050000 		ld	a0,.LANCHOR0+40
 4420      03350500 
 4421 1428 97000000 		call	_ZN9Semaphore4waitEv@plt
 4421      E7800000 
 4422              	.LVL493:
 143:src/../h/ConsumerProducer_CPP_API_test.h ****             waitForAll->wait();
 4423              		.loc 3 143 9 is_stmt 1
 4424 1430 9B841400 		addiw	s1,s1,1
 4425              	.LVL494:
 4426 1434 6FF09FFE 		j	.L217
 4427              	.LVL495:
GAS LISTING /tmp/ccMeUcYP.s 			page 108


 4428              	.L216:
 4429              	.LBE228:
 147:src/../h/ConsumerProducer_CPP_API_test.h ****         for (int i = 0; i < threadNum; i++) {
 4430              		.loc 3 147 9
 147:src/../h/ConsumerProducer_CPP_API_test.h ****         for (int i = 0; i < threadNum; i++) {
 4431              		.loc 3 147 16 is_stmt 0
 4432 1438 17050000 		ld	a0,.LANCHOR0+40
 4432      03350500 
 147:src/../h/ConsumerProducer_CPP_API_test.h ****         for (int i = 0; i < threadNum; i++) {
 4433              		.loc 3 147 26
 4434 1440 63080500 		beqz	a0,.L218
 147:src/../h/ConsumerProducer_CPP_API_test.h ****         for (int i = 0; i < threadNum; i++) {
 4435              		.loc 3 147 16 discriminator 1
 4436 1444 83370500 		ld	a5,0(a0)
 4437 1448 83B78700 		ld	a5,8(a5)
 4438 144c E7800700 		jalr	a5
 4439              	.LVL496:
 4440              	.L218:
 4441              	.LBB229:
 143:src/../h/ConsumerProducer_CPP_API_test.h ****             waitForAll->wait();
 4442              		.loc 3 143 18 discriminator 1
 4443 1450 93040000 		li	s1,0
 4444              	.LVL497:
 4445 1454 6F008000 		j	.L221
 4446              	.LVL498:
 4447              	.L220:
 4448              	.LBE229:
 4449              	.LBB230:
 148:src/../h/ConsumerProducer_CPP_API_test.h ****             delete producers[i];
 4450              		.loc 3 148 9 is_stmt 1 discriminator 2
 4451 1458 9B841400 		addiw	s1,s1,1
 4452              	.LVL499:
 4453              	.L221:
 148:src/../h/ConsumerProducer_CPP_API_test.h ****             delete producers[i];
 4454              		.loc 3 148 27 discriminator 1
 4455 145c 63D23403 		bge	s1,s3,.L219
 149:src/../h/ConsumerProducer_CPP_API_test.h ****         }
 4456              		.loc 3 149 13
 149:src/../h/ConsumerProducer_CPP_API_test.h ****         }
 4457              		.loc 3 149 31 is_stmt 0
 4458 1460 93973400 		slli	a5,s1,3
 4459 1464 B307FA00 		add	a5,s4,a5
 4460 1468 03B50700 		ld	a0,0(a5)
 149:src/../h/ConsumerProducer_CPP_API_test.h ****         }
 4461              		.loc 3 149 32
 4462 146c E30605FE 		beqz	a0,.L220
 149:src/../h/ConsumerProducer_CPP_API_test.h ****         }
 4463              		.loc 3 149 31 discriminator 1
 4464 1470 83370500 		ld	a5,0(a0)
 4465 1474 83B78700 		ld	a5,8(a5)
 4466 1478 E7800700 		jalr	a5
 4467              	.LVL500:
 4468 147c 6FF0DFFD 		j	.L220
 4469              	.L219:
 4470              	.LBE230:
 151:src/../h/ConsumerProducer_CPP_API_test.h ****         delete buffer;
 4471              		.loc 3 151 9 is_stmt 1
GAS LISTING /tmp/ccMeUcYP.s 			page 109


 151:src/../h/ConsumerProducer_CPP_API_test.h ****         delete buffer;
 4472              		.loc 3 151 24 is_stmt 0
 4473 1480 638A0B00 		beqz	s7,.L222
 151:src/../h/ConsumerProducer_CPP_API_test.h ****         delete buffer;
 4474              		.loc 3 151 16 discriminator 1
 4475 1484 83B70B00 		ld	a5,0(s7)
 4476 1488 83B78700 		ld	a5,8(a5)
 4477 148c 13850B00 		mv	a0,s7
 4478 1490 E7800700 		jalr	a5
 4479              	.LVL501:
 4480              	.L222:
 4481              		.loc 3 152 9 is_stmt 1
 4482              		.loc 3 152 22 is_stmt 0
 4483 1494 638E0A00 		beqz	s5,.L223
 4484              		.loc 3 152 16 discriminator 1
 4485 1498 13850A00 		mv	a0,s5
 4486 149c 97000000 		call	_ZN9BufferCPPD1Ev@plt
 4486      E7800000 
 4487              	.LVL502:
 4488 14a4 13850A00 		mv	a0,s5
 4489 14a8 97000000 		call	_ZdlPv@plt
 4489      E7800000 
 4490              	.LVL503:
 4491              	.LEHE39:
 4492              	.L223:
 4493 14b0 13010C00 		mv	sp,s8
 4494              	.LVL504:
 4495              	.L210:
 153:src/../h/ConsumerProducer_CPP_API_test.h ****     }
 4496              		.loc 3 153 5
 4497 14b4 130104F8 		addi	sp,s0,-128
 4498              		.cfi_remember_state
 4499              		.cfi_def_cfa 2, 128
 4500 14b8 83308107 		ld	ra,120(sp)
 4501              		.cfi_restore 1
 4502 14bc 03340107 		ld	s0,112(sp)
 4503              		.cfi_restore 8
 4504 14c0 83348106 		ld	s1,104(sp)
 4505              		.cfi_restore 9
 4506 14c4 03390106 		ld	s2,96(sp)
 4507              		.cfi_restore 18
 4508 14c8 83398105 		ld	s3,88(sp)
 4509              		.cfi_restore 19
 4510              	.LVL505:
 4511 14cc 033A0105 		ld	s4,80(sp)
 4512              		.cfi_restore 20
 4513 14d0 833A8104 		ld	s5,72(sp)
 4514              		.cfi_restore 21
 4515 14d4 033B0104 		ld	s6,64(sp)
 4516              		.cfi_restore 22
 4517 14d8 833B8103 		ld	s7,56(sp)
 4518              		.cfi_restore 23
 4519 14dc 033C0103 		ld	s8,48(sp)
 4520              		.cfi_restore 24
 4521 14e0 833C8102 		ld	s9,40(sp)
 4522              		.cfi_restore 25
 4523 14e4 13010108 		addi	sp,sp,128
GAS LISTING /tmp/ccMeUcYP.s 			page 110


 4524              		.cfi_def_cfa_offset 0
 4525 14e8 67800000 		jr	ra
 4526              	.LVL506:
 4527              	.L230:
 4528              		.cfi_restore_state
 4529 14ec 93040500 		mv	s1,a0
 4530              	.LVL507:
 113:src/../h/ConsumerProducer_CPP_API_test.h **** 
 4531              		.loc 3 113 44
 4532 14f0 13850A00 		mv	a0,s5
 4533 14f4 97000000 		call	_ZdlPv@plt
 4533      E7800000 
 4534              	.LVL508:
 4535 14fc 13850400 		mv	a0,s1
 4536              	.LEHB40:
 4537 1500 97000000 		call	_Unwind_Resume@plt
 4537      E7800000 
 4538              	.LVL509:
 4539              	.LEHE40:
 4540              	.L231:
 4541 1508 13090500 		mv	s2,a0
 115:src/../h/ConsumerProducer_CPP_API_test.h ****         Thread *producers[threadNum];
 4542              		.loc 3 115 37
 4543 150c 13850400 		mv	a0,s1
 4544 1510 97000000 		call	_ZdlPv@plt
 4544      E7800000 
 4545              	.LVL510:
 4546 1518 13050900 		mv	a0,s2
 4547              	.LEHB41:
 4548 151c 97000000 		call	_Unwind_Resume@plt
 4548      E7800000 
 4549              	.LVL511:
 4550              	.LEHE41:
 4551              	.L232:
 4552 1524 93040500 		mv	s1,a0
 4553              	.LVL512:
 122:src/../h/ConsumerProducer_CPP_API_test.h ****         consumer->start();
 4554              		.loc 3 122 63
 4555 1528 13850B00 		mv	a0,s7
 4556 152c 97000000 		call	_ZdlPv@plt
 4556      E7800000 
 4557              	.LVL513:
 4558 1534 13850400 		mv	a0,s1
 4559              	.LEHB42:
 4560 1538 97000000 		call	_Unwind_Resume@plt
 4560      E7800000 
 4561              	.LVL514:
 4562              	.LEHE42:
 4563              	.L233:
 4564 1540 13090500 		mv	s2,a0
 128:src/../h/ConsumerProducer_CPP_API_test.h ****         producers[0]->start();
 4565              		.loc 3 128 59
 4566 1544 13850400 		mv	a0,s1
 4567 1548 97000000 		call	_ZdlPv@plt
 4567      E7800000 
 4568              	.LVL515:
 4569 1550 13050900 		mv	a0,s2
GAS LISTING /tmp/ccMeUcYP.s 			page 111


 4570              	.LEHB43:
 4571 1554 97000000 		call	_Unwind_Resume@plt
 4571      E7800000 
 4572              	.LVL516:
 4573              	.LEHE43:
 4574              	.L234:
 4575 155c 93040500 		mv	s1,a0
 4576              	.LVL517:
 4577              	.LBB231:
 136:src/../h/ConsumerProducer_CPP_API_test.h ****             producers[i]->start();
 4578              		.loc 3 136 55
 4579 1560 13850C00 		mv	a0,s9
 4580 1564 97000000 		call	_ZdlPv@plt
 4580      E7800000 
 4581              	.LVL518:
 4582 156c 13850400 		mv	a0,s1
 4583              	.LEHB44:
 4584 1570 97000000 		call	_Unwind_Resume@plt
 4584      E7800000 
 4585              	.LVL519:
 4586              	.LEHE44:
 4587              	.LBE231:
 4588              		.cfi_endproc
 4589              	.LFE54:
 4590              		.section	.gcc_except_table
 4591              	.LLSDA54:
 4592 0183 FF       		.byte	0xff
 4593 0184 FF       		.byte	0xff
 4594 0185 03       		.byte	0x3
 4595 0186 D001     		.byte	0xd0,0x1
 4596 0188 00000000 		.4byte	.LEHB29-.LFB54
 4597 018c 00000000 		.4byte	.LEHE29-.LEHB29
 4598 0190 00000000 		.4byte	0
 4599 0194 00       		.byte	0
 4600 0195 00000000 		.4byte	.LEHB30-.LFB54
 4601 0199 00000000 		.4byte	.LEHE30-.LEHB30
 4602 019d 00000000 		.4byte	.L230-.LFB54
 4603 01a1 00       		.byte	0
 4604 01a2 00000000 		.4byte	.LEHB31-.LFB54
 4605 01a6 00000000 		.4byte	.LEHE31-.LEHB31
 4606 01aa 00000000 		.4byte	0
 4607 01ae 00       		.byte	0
 4608 01af 00000000 		.4byte	.LEHB32-.LFB54
 4609 01b3 00000000 		.4byte	.LEHE32-.LEHB32
 4610 01b7 00000000 		.4byte	.L231-.LFB54
 4611 01bb 00       		.byte	0
 4612 01bc 00000000 		.4byte	.LEHB33-.LFB54
 4613 01c0 00000000 		.4byte	.LEHE33-.LEHB33
 4614 01c4 00000000 		.4byte	0
 4615 01c8 00       		.byte	0
 4616 01c9 00000000 		.4byte	.LEHB34-.LFB54
 4617 01cd 00000000 		.4byte	.LEHE34-.LEHB34
 4618 01d1 00000000 		.4byte	.L232-.LFB54
 4619 01d5 00       		.byte	0
 4620 01d6 00000000 		.4byte	.LEHB35-.LFB54
 4621 01da 00000000 		.4byte	.LEHE35-.LEHB35
 4622 01de 00000000 		.4byte	0
GAS LISTING /tmp/ccMeUcYP.s 			page 112


 4623 01e2 00       		.byte	0
 4624 01e3 00000000 		.4byte	.LEHB36-.LFB54
 4625 01e7 00000000 		.4byte	.LEHE36-.LEHB36
 4626 01eb 00000000 		.4byte	.L233-.LFB54
 4627 01ef 00       		.byte	0
 4628 01f0 00000000 		.4byte	.LEHB37-.LFB54
 4629 01f4 00000000 		.4byte	.LEHE37-.LEHB37
 4630 01f8 00000000 		.4byte	0
 4631 01fc 00       		.byte	0
 4632 01fd 00000000 		.4byte	.LEHB38-.LFB54
 4633 0201 00000000 		.4byte	.LEHE38-.LEHB38
 4634 0205 00000000 		.4byte	.L234-.LFB54
 4635 0209 00       		.byte	0
 4636 020a 00000000 		.4byte	.LEHB39-.LFB54
 4637 020e 00000000 		.4byte	.LEHE39-.LEHB39
 4638 0212 00000000 		.4byte	0
 4639 0216 00       		.byte	0
 4640 0217 00000000 		.4byte	.LEHB40-.LFB54
 4641 021b 00000000 		.4byte	.LEHE40-.LEHB40
 4642 021f 00000000 		.4byte	0
 4643 0223 00       		.byte	0
 4644 0224 00000000 		.4byte	.LEHB41-.LFB54
 4645 0228 00000000 		.4byte	.LEHE41-.LEHB41
 4646 022c 00000000 		.4byte	0
 4647 0230 00       		.byte	0
 4648 0231 00000000 		.4byte	.LEHB42-.LFB54
 4649 0235 00000000 		.4byte	.LEHE42-.LEHB42
 4650 0239 00000000 		.4byte	0
 4651 023d 00       		.byte	0
 4652 023e 00000000 		.4byte	.LEHB43-.LFB54
 4653 0242 00000000 		.4byte	.LEHE43-.LEHB43
 4654 0246 00000000 		.4byte	0
 4655 024a 00       		.byte	0
 4656 024b 00000000 		.4byte	.LEHB44-.LFB54
 4657 024f 00000000 		.4byte	.LEHE44-.LEHB44
 4658 0253 00000000 		.4byte	0
 4659 0257 00       		.byte	0
 4660              		.text
 4662              		.align	2
 4663              		.globl	_Z13KlasaMemorijav
 4665              	_Z13KlasaMemorijav:
 4666              	.LFB83:
  19:src/userMain.cpp ****     Memorija::Print();
 4667              		.loc 4 19 21 is_stmt 1
 4668              		.cfi_startproc
 4669 1578 130101FD 		addi	sp,sp,-48
 4670              		.cfi_def_cfa_offset 48
 4671 157c 23341102 		sd	ra,40(sp)
 4672 1580 23308102 		sd	s0,32(sp)
 4673 1584 233C9100 		sd	s1,24(sp)
 4674 1588 23382101 		sd	s2,16(sp)
 4675 158c 23343101 		sd	s3,8(sp)
 4676 1590 23304101 		sd	s4,0(sp)
 4677              		.cfi_offset 1, -8
 4678              		.cfi_offset 8, -16
 4679              		.cfi_offset 9, -24
 4680              		.cfi_offset 18, -32
GAS LISTING /tmp/ccMeUcYP.s 			page 113


 4681              		.cfi_offset 19, -40
 4682              		.cfi_offset 20, -48
 4683 1594 13040103 		addi	s0,sp,48
 4684              		.cfi_def_cfa 8, 0
  20:src/userMain.cpp ****     void* b=Memorija::alokacija(100);
 4685              		.loc 4 20 5
  20:src/userMain.cpp ****     void* b=Memorija::alokacija(100);
 4686              		.loc 4 20 20 is_stmt 0
 4687 1598 97000000 		call	_ZN8Memorija5PrintEv@plt
 4687      E7800000 
 4688              	.LVL520:
  21:src/userMain.cpp ****     Memorija::Print();
 4689              		.loc 4 21 5 is_stmt 1
  21:src/userMain.cpp ****     Memorija::Print();
 4690              		.loc 4 21 32 is_stmt 0
 4691 15a0 13054006 		li	a0,100
 4692 15a4 97000000 		call	_ZN8Memorija9alokacijaEm@plt
 4692      E7800000 
 4693              	.LVL521:
 4694 15ac 130A0500 		mv	s4,a0
 4695              	.LVL522:
  22:src/userMain.cpp ****     void* c=Memorija::alokacija(20);
 4696              		.loc 4 22 5 is_stmt 1
  22:src/userMain.cpp ****     void* c=Memorija::alokacija(20);
 4697              		.loc 4 22 20 is_stmt 0
 4698 15b0 97000000 		call	_ZN8Memorija5PrintEv@plt
 4698      E7800000 
 4699              	.LVL523:
  23:src/userMain.cpp ****     Memorija::Print();
 4700              		.loc 4 23 5 is_stmt 1
  23:src/userMain.cpp ****     Memorija::Print();
 4701              		.loc 4 23 32 is_stmt 0
 4702 15b8 13054001 		li	a0,20
 4703 15bc 97000000 		call	_ZN8Memorija9alokacijaEm@plt
 4703      E7800000 
 4704              	.LVL524:
 4705 15c4 93090500 		mv	s3,a0
 4706              	.LVL525:
  24:src/userMain.cpp ****     void* d=Memorija::alokacija(50);
 4707              		.loc 4 24 5 is_stmt 1
  24:src/userMain.cpp ****     void* d=Memorija::alokacija(50);
 4708              		.loc 4 24 20 is_stmt 0
 4709 15c8 97000000 		call	_ZN8Memorija5PrintEv@plt
 4709      E7800000 
 4710              	.LVL526:
  25:src/userMain.cpp ****     Memorija::Print();
 4711              		.loc 4 25 5 is_stmt 1
  25:src/userMain.cpp ****     Memorija::Print();
 4712              		.loc 4 25 32 is_stmt 0
 4713 15d0 13052003 		li	a0,50
 4714 15d4 97000000 		call	_ZN8Memorija9alokacijaEm@plt
 4714      E7800000 
 4715              	.LVL527:
 4716 15dc 13090500 		mv	s2,a0
 4717              	.LVL528:
  26:src/userMain.cpp ****     void* e=Memorija::alokacija(50);
 4718              		.loc 4 26 5 is_stmt 1
GAS LISTING /tmp/ccMeUcYP.s 			page 114


  26:src/userMain.cpp ****     void* e=Memorija::alokacija(50);
 4719              		.loc 4 26 20 is_stmt 0
 4720 15e0 97000000 		call	_ZN8Memorija5PrintEv@plt
 4720      E7800000 
 4721              	.LVL529:
  27:src/userMain.cpp ****     Memorija::Print();
 4722              		.loc 4 27 5 is_stmt 1
  27:src/userMain.cpp ****     Memorija::Print();
 4723              		.loc 4 27 32 is_stmt 0
 4724 15e8 13052003 		li	a0,50
 4725 15ec 97000000 		call	_ZN8Memorija9alokacijaEm@plt
 4725      E7800000 
 4726              	.LVL530:
 4727 15f4 93040500 		mv	s1,a0
 4728              	.LVL531:
  28:src/userMain.cpp ****     print(Memorija::oslobadjanje(c));
 4729              		.loc 4 28 5 is_stmt 1
  28:src/userMain.cpp ****     print(Memorija::oslobadjanje(c));
 4730              		.loc 4 28 20 is_stmt 0
 4731 15f8 97000000 		call	_ZN8Memorija5PrintEv@plt
 4731      E7800000 
 4732              	.LVL532:
  29:src/userMain.cpp ****     Memorija::Print();
 4733              		.loc 4 29 5 is_stmt 1
  29:src/userMain.cpp ****     Memorija::Print();
 4734              		.loc 4 29 10 is_stmt 0
 4735 1600 13850900 		mv	a0,s3
 4736 1604 97000000 		call	_ZN8Memorija12oslobadjanjeEPv@plt
 4736      E7800000 
 4737              	.LVL533:
 4738 160c 97000000 		call	_Z5printi@plt
 4738      E7800000 
 4739              	.LVL534:
  30:src/userMain.cpp ****     print(Memorija::oslobadjanje(e));
 4740              		.loc 4 30 5 is_stmt 1
  30:src/userMain.cpp ****     print(Memorija::oslobadjanje(e));
 4741              		.loc 4 30 20 is_stmt 0
 4742 1614 97000000 		call	_ZN8Memorija5PrintEv@plt
 4742      E7800000 
 4743              	.LVL535:
  31:src/userMain.cpp ****     Memorija::Print();
 4744              		.loc 4 31 5 is_stmt 1
  31:src/userMain.cpp ****     Memorija::Print();
 4745              		.loc 4 31 10 is_stmt 0
 4746 161c 13850400 		mv	a0,s1
 4747 1620 97000000 		call	_ZN8Memorija12oslobadjanjeEPv@plt
 4747      E7800000 
 4748              	.LVL536:
 4749 1628 97000000 		call	_Z5printi@plt
 4749      E7800000 
 4750              	.LVL537:
  32:src/userMain.cpp ****     print(Memorija::oslobadjanje(d));
 4751              		.loc 4 32 5 is_stmt 1
  32:src/userMain.cpp ****     print(Memorija::oslobadjanje(d));
 4752              		.loc 4 32 20 is_stmt 0
 4753 1630 97000000 		call	_ZN8Memorija5PrintEv@plt
 4753      E7800000 
GAS LISTING /tmp/ccMeUcYP.s 			page 115


 4754              	.LVL538:
  33:src/userMain.cpp ****     Memorija::Print();
 4755              		.loc 4 33 5 is_stmt 1
  33:src/userMain.cpp ****     Memorija::Print();
 4756              		.loc 4 33 10 is_stmt 0
 4757 1638 13050900 		mv	a0,s2
 4758 163c 97000000 		call	_ZN8Memorija12oslobadjanjeEPv@plt
 4758      E7800000 
 4759              	.LVL539:
 4760 1644 97000000 		call	_Z5printi@plt
 4760      E7800000 
 4761              	.LVL540:
  34:src/userMain.cpp ****     print(Memorija::oslobadjanje(b));
 4762              		.loc 4 34 5 is_stmt 1
  34:src/userMain.cpp ****     print(Memorija::oslobadjanje(b));
 4763              		.loc 4 34 20 is_stmt 0
 4764 164c 97000000 		call	_ZN8Memorija5PrintEv@plt
 4764      E7800000 
 4765              	.LVL541:
  35:src/userMain.cpp ****     Memorija::Print();
 4766              		.loc 4 35 5 is_stmt 1
  35:src/userMain.cpp ****     Memorija::Print();
 4767              		.loc 4 35 10 is_stmt 0
 4768 1654 13050A00 		mv	a0,s4
 4769 1658 97000000 		call	_ZN8Memorija12oslobadjanjeEPv@plt
 4769      E7800000 
 4770              	.LVL542:
 4771 1660 97000000 		call	_Z5printi@plt
 4771      E7800000 
 4772              	.LVL543:
  36:src/userMain.cpp **** 
 4773              		.loc 4 36 5 is_stmt 1
  36:src/userMain.cpp **** 
 4774              		.loc 4 36 20 is_stmt 0
 4775 1668 97000000 		call	_ZN8Memorija5PrintEv@plt
 4775      E7800000 
 4776              	.LVL544:
  38:src/userMain.cpp ****     putc('\n');
 4777              		.loc 4 38 5 is_stmt 1
  38:src/userMain.cpp ****     putc('\n');
 4778              		.loc 4 38 9 is_stmt 0
 4779 1670 1305D002 		li	a0,45
 4780 1674 97000000 		call	_Z4putcc@plt
 4780      E7800000 
 4781              	.LVL545:
  39:src/userMain.cpp ****     print((size_t)HEAP_START_ADDR);
 4782              		.loc 4 39 5 is_stmt 1
  39:src/userMain.cpp ****     print((size_t)HEAP_START_ADDR);
 4783              		.loc 4 39 9 is_stmt 0
 4784 167c 1305A000 		li	a0,10
 4785 1680 97000000 		call	_Z4putcc@plt
 4785      E7800000 
 4786              	.LVL546:
  40:src/userMain.cpp ****     print((size_t)b);
 4787              		.loc 4 40 5 is_stmt 1
  40:src/userMain.cpp ****     print((size_t)b);
 4788              		.loc 4 40 10 is_stmt 0
GAS LISTING /tmp/ccMeUcYP.s 			page 116


 4789 1688 97070000 		la	a5,HEAP_START_ADDR
 4789      83B70700 
 4790 1690 03A50700 		lw	a0,0(a5)
 4791 1694 97000000 		call	_Z5printi@plt
 4791      E7800000 
 4792              	.LVL547:
  41:src/userMain.cpp ****     print((size_t)c);
 4793              		.loc 4 41 5 is_stmt 1
  41:src/userMain.cpp ****     print((size_t)c);
 4794              		.loc 4 41 10 is_stmt 0
 4795 169c 1B050A00 		sext.w	a0,s4
 4796 16a0 97000000 		call	_Z5printi@plt
 4796      E7800000 
 4797              	.LVL548:
  42:src/userMain.cpp ****     print((size_t)d);
 4798              		.loc 4 42 5 is_stmt 1
  42:src/userMain.cpp ****     print((size_t)d);
 4799              		.loc 4 42 10 is_stmt 0
 4800 16a8 1B850900 		sext.w	a0,s3
 4801 16ac 97000000 		call	_Z5printi@plt
 4801      E7800000 
 4802              	.LVL549:
  43:src/userMain.cpp ****     print((size_t)e);
 4803              		.loc 4 43 5 is_stmt 1
  43:src/userMain.cpp ****     print((size_t)e);
 4804              		.loc 4 43 10 is_stmt 0
 4805 16b4 1B050900 		sext.w	a0,s2
 4806 16b8 97000000 		call	_Z5printi@plt
 4806      E7800000 
 4807              	.LVL550:
  44:src/userMain.cpp **** 
 4808              		.loc 4 44 5 is_stmt 1
  44:src/userMain.cpp **** 
 4809              		.loc 4 44 10 is_stmt 0
 4810 16c0 1B850400 		sext.w	a0,s1
 4811 16c4 97000000 		call	_Z5printi@plt
 4811      E7800000 
 4812              	.LVL551:
  46:src/userMain.cpp **** }
 4813              		.loc 4 46 5 is_stmt 1
  47:src/userMain.cpp **** 
 4814              		.loc 4 47 1 is_stmt 0
 4815 16cc 13050000 		li	a0,0
 4816 16d0 83308102 		ld	ra,40(sp)
 4817              		.cfi_restore 1
 4818 16d4 03340102 		ld	s0,32(sp)
 4819              		.cfi_restore 8
 4820              		.cfi_def_cfa 2, 48
 4821 16d8 83348101 		ld	s1,24(sp)
 4822              		.cfi_restore 9
 4823              	.LVL552:
 4824 16dc 03390101 		ld	s2,16(sp)
 4825              		.cfi_restore 18
 4826              	.LVL553:
 4827 16e0 83398100 		ld	s3,8(sp)
 4828              		.cfi_restore 19
 4829              	.LVL554:
GAS LISTING /tmp/ccMeUcYP.s 			page 117


 4830 16e4 033A0100 		ld	s4,0(sp)
 4831              		.cfi_restore 20
 4832              	.LVL555:
 4833 16e8 13010103 		addi	sp,sp,48
 4834              		.cfi_def_cfa_offset 0
 4835 16ec 67800000 		jr	ra
 4836              		.cfi_endproc
 4837              	.LFE83:
 4839              		.align	2
 4840              		.globl	_Z16PrekidnaMemorijav
 4842              	_Z16PrekidnaMemorijav:
 4843              	.LFB84:
  50:src/userMain.cpp ****     Memorija::Print();
 4844              		.loc 4 50 23 is_stmt 1
 4845              		.cfi_startproc
 4846 16f0 130101FD 		addi	sp,sp,-48
 4847              		.cfi_def_cfa_offset 48
 4848 16f4 23341102 		sd	ra,40(sp)
 4849 16f8 23308102 		sd	s0,32(sp)
 4850 16fc 233C9100 		sd	s1,24(sp)
 4851 1700 23382101 		sd	s2,16(sp)
 4852 1704 23343101 		sd	s3,8(sp)
 4853              		.cfi_offset 1, -8
 4854              		.cfi_offset 8, -16
 4855              		.cfi_offset 9, -24
 4856              		.cfi_offset 18, -32
 4857              		.cfi_offset 19, -40
 4858 1708 13040103 		addi	s0,sp,48
 4859              		.cfi_def_cfa 8, 0
  51:src/userMain.cpp ****     putc('\n');
 4860              		.loc 4 51 5
  51:src/userMain.cpp ****     putc('\n');
 4861              		.loc 4 51 20 is_stmt 0
 4862 170c 97000000 		call	_ZN8Memorija5PrintEv@plt
 4862      E7800000 
 4863              	.LVL556:
  52:src/userMain.cpp ****     void* b=mem_alloc(20);
 4864              		.loc 4 52 5 is_stmt 1
  52:src/userMain.cpp ****     void* b=mem_alloc(20);
 4865              		.loc 4 52 9 is_stmt 0
 4866 1714 1305A000 		li	a0,10
 4867 1718 97000000 		call	_Z4putcc@plt
 4867      E7800000 
 4868              	.LVL557:
  53:src/userMain.cpp ****     Memorija::Print();
 4869              		.loc 4 53 5 is_stmt 1
  53:src/userMain.cpp ****     Memorija::Print();
 4870              		.loc 4 53 22 is_stmt 0
 4871 1720 13054001 		li	a0,20
 4872 1724 97000000 		call	_Z9mem_allocm@plt
 4872      E7800000 
 4873              	.LVL558:
 4874 172c 13090500 		mv	s2,a0
 4875              	.LVL559:
  54:src/userMain.cpp ****     void* c=mem_alloc(20);
 4876              		.loc 4 54 5 is_stmt 1
  54:src/userMain.cpp ****     void* c=mem_alloc(20);
GAS LISTING /tmp/ccMeUcYP.s 			page 118


 4877              		.loc 4 54 20 is_stmt 0
 4878 1730 97000000 		call	_ZN8Memorija5PrintEv@plt
 4878      E7800000 
 4879              	.LVL560:
  55:src/userMain.cpp ****     Memorija::Print();
 4880              		.loc 4 55 5 is_stmt 1
  55:src/userMain.cpp ****     Memorija::Print();
 4881              		.loc 4 55 22 is_stmt 0
 4882 1738 13054001 		li	a0,20
 4883 173c 97000000 		call	_Z9mem_allocm@plt
 4883      E7800000 
 4884              	.LVL561:
 4885 1744 93040500 		mv	s1,a0
 4886              	.LVL562:
  56:src/userMain.cpp ****     mem_alloc(54);
 4887              		.loc 4 56 5 is_stmt 1
  56:src/userMain.cpp ****     mem_alloc(54);
 4888              		.loc 4 56 20 is_stmt 0
 4889 1748 97000000 		call	_ZN8Memorija5PrintEv@plt
 4889      E7800000 
 4890              	.LVL563:
  57:src/userMain.cpp ****     Memorija::Print();
 4891              		.loc 4 57 5 is_stmt 1
  57:src/userMain.cpp ****     Memorija::Print();
 4892              		.loc 4 57 14 is_stmt 0
 4893 1750 13056003 		li	a0,54
 4894 1754 97000000 		call	_Z9mem_allocm@plt
 4894      E7800000 
 4895              	.LVL564:
  58:src/userMain.cpp ****     mem_free(c);
 4896              		.loc 4 58 5 is_stmt 1
  58:src/userMain.cpp ****     mem_free(c);
 4897              		.loc 4 58 20 is_stmt 0
 4898 175c 97000000 		call	_ZN8Memorija5PrintEv@plt
 4898      E7800000 
 4899              	.LVL565:
  59:src/userMain.cpp ****     Memorija::Print();
 4900              		.loc 4 59 5 is_stmt 1
  59:src/userMain.cpp ****     Memorija::Print();
 4901              		.loc 4 59 13 is_stmt 0
 4902 1764 13850400 		mv	a0,s1
 4903 1768 97000000 		call	_Z8mem_freePv@plt
 4903      E7800000 
 4904              	.LVL566:
  60:src/userMain.cpp ****     mem_free(b);
 4905              		.loc 4 60 5 is_stmt 1
  60:src/userMain.cpp ****     mem_free(b);
 4906              		.loc 4 60 20 is_stmt 0
 4907 1770 97000000 		call	_ZN8Memorija5PrintEv@plt
 4907      E7800000 
 4908              	.LVL567:
  61:src/userMain.cpp ****     print((size_t)b - (size_t)HEAP_START_ADDR);
 4909              		.loc 4 61 5 is_stmt 1
  61:src/userMain.cpp ****     print((size_t)b - (size_t)HEAP_START_ADDR);
 4910              		.loc 4 61 13 is_stmt 0
 4911 1778 13050900 		mv	a0,s2
 4912 177c 97000000 		call	_Z8mem_freePv@plt
GAS LISTING /tmp/ccMeUcYP.s 			page 119


 4912      E7800000 
 4913              	.LVL568:
  62:src/userMain.cpp ****     print((size_t)c - (size_t)HEAP_START_ADDR);
 4914              		.loc 4 62 5 is_stmt 1
  62:src/userMain.cpp ****     print((size_t)c - (size_t)HEAP_START_ADDR);
 4915              		.loc 4 62 21 is_stmt 0
 4916 1784 97090000 		la	s3,HEAP_START_ADDR
 4916      83B90900 
 4917 178c 03B50900 		ld	a0,0(s3)
  62:src/userMain.cpp ****     print((size_t)c - (size_t)HEAP_START_ADDR);
 4918              		.loc 4 62 10
 4919 1790 3B05A940 		subw	a0,s2,a0
 4920 1794 97000000 		call	_Z5printi@plt
 4920      E7800000 
 4921              	.LVL569:
  63:src/userMain.cpp **** 
 4922              		.loc 4 63 5 is_stmt 1
  63:src/userMain.cpp **** 
 4923              		.loc 4 63 21 is_stmt 0
 4924 179c 03B50900 		ld	a0,0(s3)
  63:src/userMain.cpp **** 
 4925              		.loc 4 63 10
 4926 17a0 3B85A440 		subw	a0,s1,a0
 4927 17a4 97000000 		call	_Z5printi@plt
 4927      E7800000 
 4928              	.LVL570:
  65:src/userMain.cpp **** }
 4929              		.loc 4 65 5 is_stmt 1
  66:src/userMain.cpp **** 
 4930              		.loc 4 66 1 is_stmt 0
 4931 17ac 13050000 		li	a0,0
 4932 17b0 83308102 		ld	ra,40(sp)
 4933              		.cfi_restore 1
 4934 17b4 03340102 		ld	s0,32(sp)
 4935              		.cfi_restore 8
 4936              		.cfi_def_cfa 2, 48
 4937 17b8 83348101 		ld	s1,24(sp)
 4938              		.cfi_restore 9
 4939              	.LVL571:
 4940 17bc 03390101 		ld	s2,16(sp)
 4941              		.cfi_restore 18
 4942              	.LVL572:
 4943 17c0 83398100 		ld	s3,8(sp)
 4944              		.cfi_restore 19
 4945 17c4 13010103 		addi	sp,sp,48
 4946              		.cfi_def_cfa_offset 0
 4947 17c8 67800000 		jr	ra
 4948              		.cfi_endproc
 4949              	.LFE84:
 4951              		.align	2
 4952              		.globl	_Z13SchedulerTestv
 4954              	_Z13SchedulerTestv:
 4955              	.LFB85:
  69:src/userMain.cpp ****     Nit *t1 = new Nit();
 4956              		.loc 4 69 20 is_stmt 1
 4957              		.cfi_startproc
 4958 17cc 130101FC 		addi	sp,sp,-64
GAS LISTING /tmp/ccMeUcYP.s 			page 120


 4959              		.cfi_def_cfa_offset 64
 4960 17d0 233C1102 		sd	ra,56(sp)
 4961 17d4 23388102 		sd	s0,48(sp)
 4962 17d8 23349102 		sd	s1,40(sp)
 4963 17dc 23302103 		sd	s2,32(sp)
 4964 17e0 233C3101 		sd	s3,24(sp)
 4965 17e4 23384101 		sd	s4,16(sp)
 4966 17e8 23345101 		sd	s5,8(sp)
 4967              		.cfi_offset 1, -8
 4968              		.cfi_offset 8, -16
 4969              		.cfi_offset 9, -24
 4970              		.cfi_offset 18, -32
 4971              		.cfi_offset 19, -40
 4972              		.cfi_offset 20, -48
 4973              		.cfi_offset 21, -56
 4974 17ec 13040104 		addi	s0,sp,64
 4975              		.cfi_def_cfa 8, 0
  70:src/userMain.cpp ****     Nit *t2 = new Nit();
 4976              		.loc 4 70 5
 4977              	.LVL573:
 4978              	.LBB232:
 4979              	.LBB233:
 4980              		.file 7 "src/../h/thread.h"
   1:src/../h/thread.h **** //
   2:src/../h/thread.h **** // Created by os on 8/12/22.
   3:src/../h/thread.h **** //
   4:src/../h/thread.h **** 
   5:src/../h/thread.h **** #ifndef PROJECT_BASE_V1_1_THREAD_H
   6:src/../h/thread.h **** #define PROJECT_BASE_V1_1_THREAD_H
   7:src/../h/thread.h **** 
   8:src/../h/thread.h **** #include "../lib/console.h"
   9:src/../h/thread.h **** #include "../lib/hw.h"
  10:src/../h/thread.h **** #include "../h/memorija.h"
  11:src/../h/thread.h **** #include "../h/print.h"
  12:src/../h/thread.h **** 
  13:src/../h/thread.h **** class Nit {
  14:src/../h/thread.h **** public:
  15:src/../h/thread.h ****     int prekid=0;
  16:src/../h/thread.h **** 
  17:src/../h/thread.h ****     static int tajmer;
  18:src/../h/thread.h **** 
  19:src/../h/thread.h ****     int getvreme(){return vreme;}
  20:src/../h/thread.h **** 
  21:src/../h/thread.h ****     static int IDD;
  22:src/../h/thread.h ****     int ID=IDD++;
  23:src/../h/thread.h ****     void stampa();
  24:src/../h/thread.h **** 
  25:src/../h/thread.h ****     using body = void(*)(void*);
  26:src/../h/thread.h **** 
  27:src/../h/thread.h ****     static Nit* konstruktor(body,void*,int);
  28:src/../h/thread.h **** 
  29:src/../h/thread.h ****     static void dispatch();
  30:src/../h/thread.h **** 
  31:src/../h/thread.h ****     static void yeild();
  32:src/../h/thread.h **** 
  33:src/../h/thread.h ****     bool finished;
  34:src/../h/thread.h **** 
GAS LISTING /tmp/ccMeUcYP.s 			page 121


  35:src/../h/thread.h ****     static Nit* running;
  36:src/../h/thread.h **** 
  37:src/../h/thread.h ****     struct struktura{
  38:src/../h/thread.h ****         uint64 pc;
  39:src/../h/thread.h ****         uint64 sp;
  40:src/../h/thread.h ****     };
  41:src/../h/thread.h **** 
  42:src/../h/thread.h ****     Nit(){}
  43:src/../h/thread.h **** 
  44:src/../h/thread.h ****     static void *operator new(uint64 n){
  45:src/../h/thread.h ****         return Memorija::alokacija(n);
 4981              		.loc 7 45 9
 4982              		.loc 7 45 35 is_stmt 0
 4983 17f0 13058004 		li	a0,72
 4984 17f4 97000000 		call	_ZN8Memorija9alokacijaEm@plt
 4984      E7800000 
 4985              	.LVL574:
 4986 17fc 13090500 		mv	s2,a0
 4987              	.LVL575:
 4988              	.LBE233:
 4989              	.LBE232:
 4990              	.LBB234:
 4991              	.LBB235:
  42:src/../h/thread.h **** 
 4992              		.loc 7 42 10
 4993 1800 23200500 		sw	zero,0(a0)
 4994 1804 97040000 		la	s1,_ZN3Nit3IDDE
 4994      83B40400 
 4995 180c 83A70400 		lw	a5,0(s1)
 4996 1810 1B871700 		addiw	a4,a5,1
 4997 1814 23A0E400 		sw	a4,0(s1)
 4998 1818 2322F500 		sw	a5,4(a0)
 4999 181c 230C0500 		sb	zero,24(a0)
 5000              	.LVL576:
 5001              	.LBE235:
 5002              	.LBE234:
  71:src/userMain.cpp ****     Nit *t3 = new Nit();
 5003              		.loc 4 71 5 is_stmt 1
 5004              	.LBB236:
 5005              	.LBB237:
 5006              		.loc 7 45 9
 5007              		.loc 7 45 35 is_stmt 0
 5008 1820 13058004 		li	a0,72
 5009              	.LVL577:
 5010 1824 97000000 		call	_ZN8Memorija9alokacijaEm@plt
 5010      E7800000 
 5011              	.LVL578:
 5012 182c 930A0500 		mv	s5,a0
 5013              	.LVL579:
 5014              	.LBE237:
 5015              	.LBE236:
 5016              	.LBB238:
 5017              	.LBB239:
  42:src/../h/thread.h **** 
 5018              		.loc 7 42 10
 5019 1830 23200500 		sw	zero,0(a0)
 5020 1834 83A70400 		lw	a5,0(s1)
GAS LISTING /tmp/ccMeUcYP.s 			page 122


 5021 1838 1B871700 		addiw	a4,a5,1
 5022 183c 23A0E400 		sw	a4,0(s1)
 5023 1840 2322F500 		sw	a5,4(a0)
 5024 1844 230C0500 		sb	zero,24(a0)
 5025              	.LVL580:
 5026              	.LBE239:
 5027              	.LBE238:
  72:src/userMain.cpp ****     Nit *t4 = new Nit();
 5028              		.loc 4 72 5 is_stmt 1
 5029              	.LBB240:
 5030              	.LBB241:
 5031              		.loc 7 45 9
 5032              		.loc 7 45 35 is_stmt 0
 5033 1848 13058004 		li	a0,72
 5034              	.LVL581:
 5035 184c 97000000 		call	_ZN8Memorija9alokacijaEm@plt
 5035      E7800000 
 5036              	.LVL582:
 5037 1854 130A0500 		mv	s4,a0
 5038              	.LVL583:
 5039              	.LBE241:
 5040              	.LBE240:
 5041              	.LBB242:
 5042              	.LBB243:
  42:src/../h/thread.h **** 
 5043              		.loc 7 42 10
 5044 1858 23200500 		sw	zero,0(a0)
 5045 185c 83A70400 		lw	a5,0(s1)
 5046 1860 1B871700 		addiw	a4,a5,1
 5047 1864 23A0E400 		sw	a4,0(s1)
 5048 1868 2322F500 		sw	a5,4(a0)
 5049 186c 230C0500 		sb	zero,24(a0)
 5050              	.LVL584:
 5051              	.LBE243:
 5052              	.LBE242:
  73:src/userMain.cpp **** 
 5053              		.loc 4 73 5 is_stmt 1
 5054              	.LBB244:
 5055              	.LBB245:
 5056              		.loc 7 45 9
 5057              		.loc 7 45 35 is_stmt 0
 5058 1870 13058004 		li	a0,72
 5059              	.LVL585:
 5060 1874 97000000 		call	_ZN8Memorija9alokacijaEm@plt
 5060      E7800000 
 5061              	.LVL586:
 5062 187c 93090500 		mv	s3,a0
 5063              	.LVL587:
 5064              	.LBE245:
 5065              	.LBE244:
 5066              	.LBB246:
 5067              	.LBB247:
  42:src/../h/thread.h **** 
 5068              		.loc 7 42 10
 5069 1880 23200500 		sw	zero,0(a0)
 5070 1884 83A70400 		lw	a5,0(s1)
 5071 1888 1B871700 		addiw	a4,a5,1
GAS LISTING /tmp/ccMeUcYP.s 			page 123


 5072 188c 23A0E400 		sw	a4,0(s1)
 5073 1890 2322F500 		sw	a5,4(a0)
 5074 1894 230C0500 		sb	zero,24(a0)
 5075              	.LVL588:
 5076              	.LBE247:
 5077              	.LBE246:
  77:src/userMain.cpp ****     Scheduler::Print();
 5078              		.loc 4 77 5 is_stmt 1
  77:src/userMain.cpp ****     Scheduler::Print();
 5079              		.loc 4 77 19 is_stmt 0
 5080 1898 13050900 		mv	a0,s2
 5081              	.LVL589:
 5082 189c 97000000 		call	_ZN9Scheduler3putEP3Nit@plt
 5082      E7800000 
 5083              	.LVL590:
  78:src/userMain.cpp ****     Scheduler::put(t2);
 5084              		.loc 4 78 5 is_stmt 1
  78:src/userMain.cpp ****     Scheduler::put(t2);
 5085              		.loc 4 78 21 is_stmt 0
 5086 18a4 97000000 		call	_ZN9Scheduler5PrintEv@plt
 5086      E7800000 
 5087              	.LVL591:
  79:src/userMain.cpp ****     Scheduler::Print();
 5088              		.loc 4 79 5 is_stmt 1
  79:src/userMain.cpp ****     Scheduler::Print();
 5089              		.loc 4 79 19 is_stmt 0
 5090 18ac 13850A00 		mv	a0,s5
 5091 18b0 97000000 		call	_ZN9Scheduler3putEP3Nit@plt
 5091      E7800000 
 5092              	.LVL592:
  80:src/userMain.cpp ****     Scheduler::put(t3);
 5093              		.loc 4 80 5 is_stmt 1
  80:src/userMain.cpp ****     Scheduler::put(t3);
 5094              		.loc 4 80 21 is_stmt 0
 5095 18b8 97000000 		call	_ZN9Scheduler5PrintEv@plt
 5095      E7800000 
 5096              	.LVL593:
  81:src/userMain.cpp ****     Scheduler::Print();
 5097              		.loc 4 81 5 is_stmt 1
  81:src/userMain.cpp ****     Scheduler::Print();
 5098              		.loc 4 81 19 is_stmt 0
 5099 18c0 13050A00 		mv	a0,s4
 5100 18c4 97000000 		call	_ZN9Scheduler3putEP3Nit@plt
 5100      E7800000 
 5101              	.LVL594:
  82:src/userMain.cpp ****     Scheduler::put(t4);
 5102              		.loc 4 82 5 is_stmt 1
  82:src/userMain.cpp ****     Scheduler::put(t4);
 5103              		.loc 4 82 21 is_stmt 0
 5104 18cc 97000000 		call	_ZN9Scheduler5PrintEv@plt
 5104      E7800000 
 5105              	.LVL595:
  83:src/userMain.cpp ****     Scheduler::Print();
 5106              		.loc 4 83 5 is_stmt 1
  83:src/userMain.cpp ****     Scheduler::Print();
 5107              		.loc 4 83 19 is_stmt 0
 5108 18d4 13850900 		mv	a0,s3
GAS LISTING /tmp/ccMeUcYP.s 			page 124


 5109 18d8 97000000 		call	_ZN9Scheduler3putEP3Nit@plt
 5109      E7800000 
 5110              	.LVL596:
  84:src/userMain.cpp ****     //print("Memorija:\n");
 5111              		.loc 4 84 5 is_stmt 1
  84:src/userMain.cpp ****     //print("Memorija:\n");
 5112              		.loc 4 84 21 is_stmt 0
 5113 18e0 97000000 		call	_ZN9Scheduler5PrintEv@plt
 5113      E7800000 
 5114              	.LVL597:
  87:src/userMain.cpp ****     Scheduler::Print();
 5115              		.loc 4 87 5 is_stmt 1
  87:src/userMain.cpp ****     Scheduler::Print();
 5116              		.loc 4 87 19 is_stmt 0
 5117 18e8 97000000 		call	_ZN9Scheduler3getEv@plt
 5117      E7800000 
 5118              	.LVL598:
  88:src/userMain.cpp ****     Scheduler::get();
 5119              		.loc 4 88 5 is_stmt 1
  88:src/userMain.cpp ****     Scheduler::get();
 5120              		.loc 4 88 21 is_stmt 0
 5121 18f0 97000000 		call	_ZN9Scheduler5PrintEv@plt
 5121      E7800000 
 5122              	.LVL599:
  89:src/userMain.cpp ****     Scheduler::Print();
 5123              		.loc 4 89 5 is_stmt 1
  89:src/userMain.cpp ****     Scheduler::Print();
 5124              		.loc 4 89 19 is_stmt 0
 5125 18f8 97000000 		call	_ZN9Scheduler3getEv@plt
 5125      E7800000 
 5126              	.LVL600:
  90:src/userMain.cpp ****     Scheduler::get();
 5127              		.loc 4 90 5 is_stmt 1
  90:src/userMain.cpp ****     Scheduler::get();
 5128              		.loc 4 90 21 is_stmt 0
 5129 1900 97000000 		call	_ZN9Scheduler5PrintEv@plt
 5129      E7800000 
 5130              	.LVL601:
  91:src/userMain.cpp ****     //print("Memorija:\n");
 5131              		.loc 4 91 5 is_stmt 1
  91:src/userMain.cpp ****     //print("Memorija:\n");
 5132              		.loc 4 91 19 is_stmt 0
 5133 1908 97000000 		call	_ZN9Scheduler3getEv@plt
 5133      E7800000 
 5134              	.LVL602:
  94:src/userMain.cpp ****     Scheduler::get();
 5135              		.loc 4 94 5 is_stmt 1
  94:src/userMain.cpp ****     Scheduler::get();
 5136              		.loc 4 94 21 is_stmt 0
 5137 1910 97000000 		call	_ZN9Scheduler5PrintEv@plt
 5137      E7800000 
 5138              	.LVL603:
  95:src/userMain.cpp ****     Scheduler::Print();
 5139              		.loc 4 95 5 is_stmt 1
  95:src/userMain.cpp ****     Scheduler::Print();
 5140              		.loc 4 95 19 is_stmt 0
 5141 1918 97000000 		call	_ZN9Scheduler3getEv@plt
GAS LISTING /tmp/ccMeUcYP.s 			page 125


 5141      E7800000 
 5142              	.LVL604:
  96:src/userMain.cpp ****     Scheduler::get();
 5143              		.loc 4 96 5 is_stmt 1
  96:src/userMain.cpp ****     Scheduler::get();
 5144              		.loc 4 96 21 is_stmt 0
 5145 1920 97000000 		call	_ZN9Scheduler5PrintEv@plt
 5145      E7800000 
 5146              	.LVL605:
  97:src/userMain.cpp ****     Scheduler::Print();
 5147              		.loc 4 97 5 is_stmt 1
  97:src/userMain.cpp ****     Scheduler::Print();
 5148              		.loc 4 97 19 is_stmt 0
 5149 1928 97000000 		call	_ZN9Scheduler3getEv@plt
 5149      E7800000 
 5150              	.LVL606:
  98:src/userMain.cpp ****     Scheduler::put(t1);
 5151              		.loc 4 98 5 is_stmt 1
  98:src/userMain.cpp ****     Scheduler::put(t1);
 5152              		.loc 4 98 21 is_stmt 0
 5153 1930 97000000 		call	_ZN9Scheduler5PrintEv@plt
 5153      E7800000 
 5154              	.LVL607:
  99:src/userMain.cpp ****     Scheduler::Print();
 5155              		.loc 4 99 5 is_stmt 1
  99:src/userMain.cpp ****     Scheduler::Print();
 5156              		.loc 4 99 19 is_stmt 0
 5157 1938 13050900 		mv	a0,s2
 5158 193c 97000000 		call	_ZN9Scheduler3putEP3Nit@plt
 5158      E7800000 
 5159              	.LVL608:
 100:src/userMain.cpp ****     Scheduler::get();
 5160              		.loc 4 100 5 is_stmt 1
 100:src/userMain.cpp ****     Scheduler::get();
 5161              		.loc 4 100 21 is_stmt 0
 5162 1944 97000000 		call	_ZN9Scheduler5PrintEv@plt
 5162      E7800000 
 5163              	.LVL609:
 101:src/userMain.cpp ****     Scheduler::Print();
 5164              		.loc 4 101 5 is_stmt 1
 101:src/userMain.cpp ****     Scheduler::Print();
 5165              		.loc 4 101 19 is_stmt 0
 5166 194c 97000000 		call	_ZN9Scheduler3getEv@plt
 5166      E7800000 
 5167              	.LVL610:
 102:src/userMain.cpp **** 
 5168              		.loc 4 102 5 is_stmt 1
 102:src/userMain.cpp **** 
 5169              		.loc 4 102 21 is_stmt 0
 5170 1954 97000000 		call	_ZN9Scheduler5PrintEv@plt
 5170      E7800000 
 5171              	.LVL611:
 105:src/userMain.cpp **** }
 5172              		.loc 4 105 5 is_stmt 1
 106:src/userMain.cpp **** 
 5173              		.loc 4 106 1 is_stmt 0
 5174 195c 13050000 		li	a0,0
GAS LISTING /tmp/ccMeUcYP.s 			page 126


 5175 1960 83308103 		ld	ra,56(sp)
 5176              		.cfi_restore 1
 5177 1964 03340103 		ld	s0,48(sp)
 5178              		.cfi_restore 8
 5179              		.cfi_def_cfa 2, 64
 5180 1968 83348102 		ld	s1,40(sp)
 5181              		.cfi_restore 9
 5182 196c 03390102 		ld	s2,32(sp)
 5183              		.cfi_restore 18
 5184              	.LVL612:
 5185 1970 83398101 		ld	s3,24(sp)
 5186              		.cfi_restore 19
 5187              	.LVL613:
 5188 1974 033A0101 		ld	s4,16(sp)
 5189              		.cfi_restore 20
 5190              	.LVL614:
 5191 1978 833A8100 		ld	s5,8(sp)
 5192              		.cfi_restore 21
 5193              	.LVL615:
 5194 197c 13010104 		addi	sp,sp,64
 5195              		.cfi_def_cfa_offset 0
 5196 1980 67800000 		jr	ra
 5197              		.cfi_endproc
 5198              	.LFE85:
 5200              		.align	2
 5201              		.globl	_Z7mojtestv
 5203              	_Z7mojtestv:
 5204              	.LFB89:
 153:src/userMain.cpp ****     Nit *t1,*t2,*t3;
 5205              		.loc 4 153 15 is_stmt 1
 5206              		.cfi_startproc
 5207 1984 130101FD 		addi	sp,sp,-48
 5208              		.cfi_def_cfa_offset 48
 5209 1988 23341102 		sd	ra,40(sp)
 5210 198c 23308102 		sd	s0,32(sp)
 5211              		.cfi_offset 1, -8
 5212              		.cfi_offset 8, -16
 5213 1990 13040103 		addi	s0,sp,48
 5214              		.cfi_def_cfa 8, 0
 154:src/userMain.cpp **** 
 5215              		.loc 4 154 5
 156:src/userMain.cpp ****     thread_create(&t2,&f2,nullptr);
 5216              		.loc 4 156 5
 156:src/userMain.cpp ****     thread_create(&t2,&f2,nullptr);
 5217              		.loc 4 156 18 is_stmt 0
 5218 1994 13060000 		li	a2,0
 5219 1998 97050000 		lla	a1,_Z2f1Pv
 5219      93850500 
 5220 19a0 130584FE 		addi	a0,s0,-24
 5221 19a4 97000000 		call	_Z13thread_createPP3NitPFvPvES2_@plt
 5221      E7800000 
 5222              	.LVL616:
 157:src/userMain.cpp ****     thread_create(&t3,&f3,nullptr);
 5223              		.loc 4 157 5 is_stmt 1
 157:src/userMain.cpp ****     thread_create(&t3,&f3,nullptr);
 5224              		.loc 4 157 18 is_stmt 0
 5225 19ac 13060000 		li	a2,0
GAS LISTING /tmp/ccMeUcYP.s 			page 127


 5226 19b0 97050000 		lla	a1,_Z2f2Pv
 5226      93850500 
 5227 19b8 130504FE 		addi	a0,s0,-32
 5228 19bc 97000000 		call	_Z13thread_createPP3NitPFvPvES2_@plt
 5228      E7800000 
 5229              	.LVL617:
 158:src/userMain.cpp **** 
 5230              		.loc 4 158 5 is_stmt 1
 158:src/userMain.cpp **** 
 5231              		.loc 4 158 18 is_stmt 0
 5232 19c4 13060000 		li	a2,0
 5233 19c8 97050000 		lla	a1,_Z2f3Pv
 5233      93850500 
 5234 19d0 130584FD 		addi	a0,s0,-40
 5235 19d4 97000000 		call	_Z13thread_createPP3NitPFvPvES2_@plt
 5235      E7800000 
 5236              	.LVL618:
 160:src/userMain.cpp **** 
 5237              		.loc 4 160 5 is_stmt 1
 160:src/userMain.cpp **** 
 5238              		.loc 4 160 21 is_stmt 0
 5239 19dc 97000000 		call	_ZN9Scheduler5PrintEv@plt
 5239      E7800000 
 5240              	.LVL619:
 162:src/userMain.cpp **** 
 5241              		.loc 4 162 5 is_stmt 1
 162:src/userMain.cpp **** 
 5242              		.loc 4 162 13 is_stmt 0
 5243 19e4 93050000 		li	a1,0
 5244 19e8 17050000 		lla	a0,.LANCHOR0+16
 5244      13050500 
 5245 19f0 97000000 		call	_Z8sem_openPP7Semaforj@plt
 5245      E7800000 
 5246              	.LVL620:
 5247              	.L247:
 164:src/userMain.cpp **** 
 5248              		.loc 4 164 5 is_stmt 1
 164:src/userMain.cpp **** 
 5249              		.loc 4 164 29
 5250 19f8 97000000 		call	_ZN9Scheduler7imanitiEv@plt
 5250      E7800000 
 5251              	.LVL621:
 5252 1a00 E31C05FE 		bnez	a0,.L247
 166:src/userMain.cpp **** 
 5253              		.loc 4 166 1 is_stmt 0
 5254 1a04 83308102 		ld	ra,40(sp)
 5255              		.cfi_restore 1
 5256 1a08 03340102 		ld	s0,32(sp)
 5257              		.cfi_restore 8
 5258              		.cfi_def_cfa 2, 48
 5259 1a0c 13010103 		addi	sp,sp,48
 5260              		.cfi_def_cfa_offset 0
 5261 1a10 67800000 		jr	ra
 5262              		.cfi_endproc
 5263              	.LFE89:
 5265              		.align	2
 5266              		.globl	_Z9testbaferv
GAS LISTING /tmp/ccMeUcYP.s 			page 128


 5268              	_Z9testbaferv:
 5269              	.LFB92:
 185:src/userMain.cpp **** 
 5270              		.loc 4 185 17 is_stmt 1
 5271              		.cfi_startproc
 5272              		.cfi_personality 0x9b,DW.ref.__gxx_personality_v0
 5273              		.cfi_lsda 0x1b,.LLSDA92
 5274 1a14 130101F9 		addi	sp,sp,-112
 5275              		.cfi_def_cfa_offset 112
 5276 1a18 23341106 		sd	ra,104(sp)
 5277 1a1c 23308106 		sd	s0,96(sp)
 5278 1a20 233C9104 		sd	s1,88(sp)
 5279              		.cfi_offset 1, -8
 5280              		.cfi_offset 8, -16
 5281              		.cfi_offset 9, -24
 5282 1a24 13040107 		addi	s0,sp,112
 5283              		.cfi_def_cfa 8, 0
 187:src/userMain.cpp ****     Bafer B(20);
 5284              		.loc 4 187 5
 187:src/userMain.cpp ****     Bafer B(20);
 5285              		.loc 4 187 9 is_stmt 0
 5286 1a28 13052006 		li	a0,98
 5287              	.LEHB45:
 5288 1a2c 97000000 		call	_Z4putcc@plt
 5288      E7800000 
 5289              	.LVL622:
 188:src/userMain.cpp **** 
 5290              		.loc 4 188 5 is_stmt 1
 188:src/userMain.cpp **** 
 5291              		.loc 4 188 15 is_stmt 0
 5292 1a34 93054001 		li	a1,20
 5293 1a38 930484FA 		addi	s1,s0,-88
 5294 1a3c 13850400 		mv	a0,s1
 5295 1a40 97000000 		call	_ZN5BaferC1Ei@plt
 5295      E7800000 
 5296              	.LVL623:
 5297              	.LEHE45:
 190:src/userMain.cpp ****     thread_create(&t1,bafer1,&B);
 5298              		.loc 4 190 5 is_stmt 1
 191:src/userMain.cpp ****     thread_create(&t2,bafer2,&B);
 5299              		.loc 4 191 5
 191:src/userMain.cpp ****     thread_create(&t2,bafer2,&B);
 5300              		.loc 4 191 18 is_stmt 0
 5301 1a48 13860400 		mv	a2,s1
 5302 1a4c 97050000 		lla	a1,_Z6bafer1Pv
 5302      93850500 
 5303 1a54 130504FA 		addi	a0,s0,-96
 5304              	.LEHB46:
 5305 1a58 97000000 		call	_Z13thread_createPP3NitPFvPvES2_@plt
 5305      E7800000 
 5306              	.LVL624:
 192:src/userMain.cpp **** 
 5307              		.loc 4 192 5 is_stmt 1
 192:src/userMain.cpp **** 
 5308              		.loc 4 192 18 is_stmt 0
 5309 1a60 13860400 		mv	a2,s1
 5310 1a64 97050000 		lla	a1,_Z6bafer2Pv
GAS LISTING /tmp/ccMeUcYP.s 			page 129


 5310      93850500 
 5311 1a6c 130584F9 		addi	a0,s0,-104
 5312 1a70 97000000 		call	_Z13thread_createPP3NitPFvPvES2_@plt
 5312      E7800000 
 5313              	.LVL625:
 194:src/userMain.cpp **** 
 5314              		.loc 4 194 5 is_stmt 1
 194:src/userMain.cpp **** 
 5315              		.loc 4 194 21 is_stmt 0
 5316 1a78 97000000 		call	_ZN9Scheduler5PrintEv@plt
 5316      E7800000 
 5317              	.LVL626:
 5318 1a80 6F008000 		j	.L250
 5319              	.L256:
 196:src/userMain.cpp ****         //Scheduler::Print();
 5320              		.loc 4 196 29
 5321 1a84 63080500 		beqz	a0,.L255
 5322              	.L250:
 196:src/userMain.cpp ****         //Scheduler::Print();
 5323              		.loc 4 196 5 is_stmt 1
 196:src/userMain.cpp ****         //Scheduler::Print();
 5324              		.loc 4 196 29
 5325 1a88 97000000 		call	_ZN9Scheduler7imanitiEv@plt
 5325      E7800000 
 5326              	.LVL627:
 5327              	.LEHE46:
 5328 1a90 6FF05FFF 		j	.L256
 5329              	.L255:
 188:src/userMain.cpp **** 
 5330              		.loc 4 188 15 is_stmt 0
 5331 1a94 130584FA 		addi	a0,s0,-88
 5332 1a98 97000000 		call	_ZN5BaferD1Ev@plt
 5332      E7800000 
 5333              	.LVL628:
 200:src/userMain.cpp **** 
 5334              		.loc 4 200 1
 5335 1aa0 83308106 		ld	ra,104(sp)
 5336              		.cfi_remember_state
 5337              		.cfi_restore 1
 5338 1aa4 03340106 		ld	s0,96(sp)
 5339              		.cfi_restore 8
 5340              		.cfi_def_cfa 2, 112
 5341 1aa8 83348105 		ld	s1,88(sp)
 5342              		.cfi_restore 9
 5343 1aac 13010107 		addi	sp,sp,112
 5344              		.cfi_def_cfa_offset 0
 5345 1ab0 67800000 		jr	ra
 5346              	.L252:
 5347              		.cfi_restore_state
 5348 1ab4 93040500 		mv	s1,a0
 188:src/userMain.cpp **** 
 5349              		.loc 4 188 15
 5350 1ab8 130584FA 		addi	a0,s0,-88
 5351 1abc 97000000 		call	_ZN5BaferD1Ev@plt
 5351      E7800000 
 5352              	.LVL629:
 5353 1ac4 13850400 		mv	a0,s1
GAS LISTING /tmp/ccMeUcYP.s 			page 130


 5354              	.LEHB47:
 5355 1ac8 97000000 		call	_Unwind_Resume@plt
 5355      E7800000 
 5356              	.LVL630:
 5357              	.LEHE47:
 5358              		.cfi_endproc
 5359              	.LFE92:
 5360              		.section	.gcc_except_table
 5361              	.LLSDA92:
 5362 0258 FF       		.byte	0xff
 5363 0259 FF       		.byte	0xff
 5364 025a 03       		.byte	0x3
 5365 025b 27       		.byte	0x27
 5366 025c 00000000 		.4byte	.LEHB45-.LFB92
 5367 0260 00000000 		.4byte	.LEHE45-.LEHB45
 5368 0264 00000000 		.4byte	0
 5369 0268 00       		.byte	0
 5370 0269 00000000 		.4byte	.LEHB46-.LFB92
 5371 026d 00000000 		.4byte	.LEHE46-.LEHB46
 5372 0271 00000000 		.4byte	.L252-.LFB92
 5373 0275 00       		.byte	0
 5374 0276 00000000 		.4byte	.LEHB47-.LFB92
 5375 027a 00000000 		.4byte	.LEHE47-.LEHB47
 5376 027e 00000000 		.4byte	0
 5377 0282 00       		.byte	0
 5378              		.text
 5380              		.align	2
 5381              		.globl	_Z3alov
 5383              	_Z3alov:
 5384              	.LFB93:
 202:src/userMain.cpp ****     printInt(10);
 5385              		.loc 4 202 11 is_stmt 1
 5386              		.cfi_startproc
 5387 1ad0 130101FF 		addi	sp,sp,-16
 5388              		.cfi_def_cfa_offset 16
 5389 1ad4 23341100 		sd	ra,8(sp)
 5390 1ad8 23308100 		sd	s0,0(sp)
 5391              		.cfi_offset 1, -8
 5392              		.cfi_offset 8, -16
 5393 1adc 13040101 		addi	s0,sp,16
 5394              		.cfi_def_cfa 8, 0
 203:src/userMain.cpp **** }
 5395              		.loc 4 203 5
 203:src/userMain.cpp **** }
 5396              		.loc 4 203 13 is_stmt 0
 5397 1ae0 13060000 		li	a2,0
 5398 1ae4 9305A000 		li	a1,10
 5399 1ae8 1305A000 		li	a0,10
 5400 1aec 97000000 		call	_Z8printIntiii@plt
 5400      E7800000 
 5401              	.LVL631:
 204:src/userMain.cpp **** 
 5402              		.loc 4 204 1
 5403 1af4 83308100 		ld	ra,8(sp)
 5404              		.cfi_restore 1
 5405 1af8 03340100 		ld	s0,0(sp)
 5406              		.cfi_restore 8
GAS LISTING /tmp/ccMeUcYP.s 			page 131


 5407              		.cfi_def_cfa 2, 16
 5408 1afc 13010101 		addi	sp,sp,16
 5409              		.cfi_def_cfa_offset 0
 5410 1b00 67800000 		jr	ra
 5411              		.cfi_endproc
 5412              	.LFE93:
 5414              		.section	.text._ZN3AAA18periodicActivationEv,"axG",@progbits,_ZN3AAA18periodicActivationEv,comdat
 5415              		.align	2
 5416              		.weak	_ZN3AAA18periodicActivationEv
 5418              	_ZN3AAA18periodicActivationEv:
 5419              	.LFB101:
 207:src/userMain.cpp ****     int a;
 208:src/userMain.cpp **** public:
 209:src/userMain.cpp ****     AAA(int a): PeriodicThread(a), a(a){}
 210:src/userMain.cpp **** 
 211:src/userMain.cpp ****     void periodicActivation() override{
 5420              		.loc 4 211 10 is_stmt 1
 5421              		.cfi_startproc
 5422              	.LVL632:
 5423 0000 130101FF 		addi	sp,sp,-16
 5424              		.cfi_def_cfa_offset 16
 5425 0004 23341100 		sd	ra,8(sp)
 5426 0008 23308100 		sd	s0,0(sp)
 5427              		.cfi_offset 1, -8
 5428              		.cfi_offset 8, -16
 5429 000c 13040101 		addi	s0,sp,16
 5430              		.cfi_def_cfa 8, 0
 212:src/userMain.cpp ****         alo();
 5431              		.loc 4 212 9
 5432              		.loc 4 212 12 is_stmt 0
 5433 0010 97000000 		call	_Z3alov
 5433      E7800000 
 5434              	.LVL633:
 213:src/userMain.cpp ****     }
 5435              		.loc 4 213 5
 5436 0018 83308100 		ld	ra,8(sp)
 5437              		.cfi_restore 1
 5438 001c 03340100 		ld	s0,0(sp)
 5439              		.cfi_restore 8
 5440              		.cfi_def_cfa 2, 16
 5441 0020 13010101 		addi	sp,sp,16
 5442              		.cfi_def_cfa_offset 0
 5443 0024 67800000 		jr	ra
 5444              		.cfi_endproc
 5445              	.LFE101:
 5447              		.section	.rodata.str1.8
 5448 02e3 00000000 		.align	3
 5448      00
 5449              	.LC41:
 5450 02e8 61616161 		.string	"aaaaaa"
 5450      616100
 5451 02ef 00       		.align	3
 5452              	.LC42:
 5453 02f0 7072696E 		.string	"print\n"
 5453      740A00
 5454 02f7 00       		.align	3
 5455              	.LC43:
GAS LISTING /tmp/ccMeUcYP.s 			page 132


 5456 02f8 3F3F3F0A 		.string	"???\n"
 5456      00
 5457              		.text
 5458              		.align	2
 5459              		.globl	_Z8userMainv
 5461              	_Z8userMainv:
 5462              	.LFB102:
 214:src/userMain.cpp **** };
 215:src/userMain.cpp **** 
 216:src/userMain.cpp **** 
 217:src/userMain.cpp **** void userMain() {
 5463              		.loc 4 217 17 is_stmt 1
 5464              		.cfi_startproc
 5465              		.cfi_personality 0x9b,DW.ref.__gxx_personality_v0
 5466              		.cfi_lsda 0x1b,.LLSDA102
 5467 1b04 130101FC 		addi	sp,sp,-64
 5468              		.cfi_def_cfa_offset 64
 5469 1b08 233C1102 		sd	ra,56(sp)
 5470 1b0c 23388102 		sd	s0,48(sp)
 5471 1b10 23349102 		sd	s1,40(sp)
 5472 1b14 23302103 		sd	s2,32(sp)
 5473 1b18 233C3101 		sd	s3,24(sp)
 5474              		.cfi_offset 1, -8
 5475              		.cfi_offset 8, -16
 5476              		.cfi_offset 9, -24
 5477              		.cfi_offset 18, -32
 5478              		.cfi_offset 19, -40
 5479 1b1c 13040104 		addi	s0,sp,64
 5480              		.cfi_def_cfa 8, 0
 218:src/userMain.cpp ****     //Threads_C_API_test(); // zadatak 2., niti C API i sinhrona promena konteksta
 219:src/userMain.cpp ****     //Threads_CPP_API_test(); // zadatak 2., niti CPP API i sinhrona promena konteksta
 220:src/userMain.cpp **** 
 221:src/userMain.cpp ****     //producerConsumer_C_API(); // zadatak 3., kompletan C API sa semaforima, sinhrona promena kont
 222:src/userMain.cpp ****     //producerConsumer_CPP_Sync_API(); // zadatak 3., kompletan CPP API sa semaforima, sinhrona pro
 223:src/userMain.cpp **** 
 224:src/userMain.cpp ****     testSleeping(); // thread_sleep test C API
 5481              		.loc 4 224 5
 5482              	.LEHB48:
 5483              		.loc 4 224 17 is_stmt 0
 5484 1b20 97000000 		call	_Z12testSleepingv
 5484      E7800000 
 5485              	.LVL634:
 225:src/userMain.cpp ****     //ConsumerProducerCPP::testConsumerProducer(); // zadatak 4. CPP API i asinhrona promena kontek
 226:src/userMain.cpp **** 
 227:src/userMain.cpp ****     //return;
 228:src/userMain.cpp **** 
 229:src/userMain.cpp ****     ///moji testovi ispod
 230:src/userMain.cpp **** 
 231:src/userMain.cpp ****     //KlasaMemorija();
 232:src/userMain.cpp ****     //PrekidnaMemorija();
 233:src/userMain.cpp ****     //SchedulerTest();
 234:src/userMain.cpp ****     //mojtest();
 235:src/userMain.cpp ****     //testbafer();
 236:src/userMain.cpp **** 
 237:src/userMain.cpp **** 
 238:src/userMain.cpp ****     List<int> lista;
 5486              		.loc 4 238 5 is_stmt 1
GAS LISTING /tmp/ccMeUcYP.s 			page 133


 239:src/userMain.cpp ****     int *hh = (int*)(mem_alloc(sizeof(int)));
 5487              		.loc 4 239 5
 5488              		.loc 4 239 31 is_stmt 0
 5489 1b28 13054000 		li	a0,4
 5490 1b2c 97000000 		call	_Z9mem_allocm@plt
 5490      E7800000 
 5491              	.LVL635:
 5492 1b34 93040500 		mv	s1,a0
 5493              	.LVL636:
 240:src/userMain.cpp ****     *hh=5;
 5494              		.loc 4 240 5 is_stmt 1
 5495              		.loc 4 240 8 is_stmt 0
 5496 1b38 13095000 		li	s2,5
 5497 1b3c 23202501 		sw	s2,0(a0)
 241:src/userMain.cpp ****     int *hh1 = (int*)(mem_alloc(sizeof(int)));
 5498              		.loc 4 241 5 is_stmt 1
 5499              		.loc 4 241 32 is_stmt 0
 5500 1b40 13054000 		li	a0,4
 5501 1b44 97000000 		call	_Z9mem_allocm@plt
 5501      E7800000 
 5502              	.LVL637:
 5503 1b4c 93090500 		mv	s3,a0
 5504              	.LVL638:
 242:src/userMain.cpp ****     *hh1=5;
 5505              		.loc 4 242 5 is_stmt 1
 5506              		.loc 4 242 9 is_stmt 0
 5507 1b50 23202501 		sw	s2,0(a0)
 243:src/userMain.cpp ****     lista.addLast(hh1);(*hh)+=1;
 5508              		.loc 4 243 5 is_stmt 1
 5509              	.LVL639:
 5510              	.LBB248:
 5511              	.LBB249:
 5512              		.file 8 "src/../h/list.h"
   1:src/../h/list.h **** //
   2:src/../h/list.h **** // Created by os on 2/17/23.
   3:src/../h/list.h **** //
   4:src/../h/list.h **** 
   5:src/../h/list.h **** #ifndef PROJEKAT2_LIST_H
   6:src/../h/list.h **** #define PROJEKAT2_LIST_H
   7:src/../h/list.h **** 
   8:src/../h/list.h **** template<typename T>
   9:src/../h/list.h **** class List
  10:src/../h/list.h **** {
  11:src/../h/list.h **** private:
  12:src/../h/list.h ****     struct Elem
  13:src/../h/list.h ****     {
  14:src/../h/list.h ****         T *data;
  15:src/../h/list.h ****         Elem *next;
  16:src/../h/list.h **** 
  17:src/../h/list.h ****         Elem(T *data, Elem *next) : data(data), next(next) {}
  18:src/../h/list.h ****     };
  19:src/../h/list.h **** 
  20:src/../h/list.h ****     Elem *head, *tail;
  21:src/../h/list.h **** 
  22:src/../h/list.h **** public:
  23:src/../h/list.h ****     List() : head(0), tail(0) {}
  24:src/../h/list.h **** 
GAS LISTING /tmp/ccMeUcYP.s 			page 134


  25:src/../h/list.h ****     List(const List<T> &) = delete;
  26:src/../h/list.h **** 
  27:src/../h/list.h ****     List<T> &operator=(const List<T> &) = delete;
  28:src/../h/list.h **** 
  29:src/../h/list.h ****     void addFirst(T *data)
  30:src/../h/list.h ****     {
  31:src/../h/list.h ****         Elem *elem = new Elem(data, head);
  32:src/../h/list.h ****         head = elem;
  33:src/../h/list.h ****         if (!tail) { tail = head; }
  34:src/../h/list.h ****     }
  35:src/../h/list.h **** 
  36:src/../h/list.h ****     void addLast(T *data)
  37:src/../h/list.h ****     {
  38:src/../h/list.h ****         Elem *elem = new Elem(data, 0);
 5513              		.loc 8 38 22 is_stmt 0
 5514 1b54 13050001 		li	a0,16
 5515              	.LVL640:
 5516 1b58 97000000 		call	_Znwm@plt
 5516      E7800000 
 5517              	.LVL641:
 5518 1b60 13090500 		mv	s2,a0
 5519              	.LVL642:
 5520              	.LBB250:
 5521              	.LBB251:
  17:src/../h/list.h ****     };
 5522              		.loc 8 17 58
 5523 1b64 23303501 		sd	s3,0(a0)
 5524 1b68 23340500 		sd	zero,8(a0)
 5525              	.LVL643:
 5526              	.LBE251:
 5527              	.LBE250:
  39:src/../h/list.h ****         if (tail)
  40:src/../h/list.h ****         {
  41:src/../h/list.h ****             tail->next = elem;
  42:src/../h/list.h ****             tail = elem;
  43:src/../h/list.h ****         } else
  44:src/../h/list.h ****         {
  45:src/../h/list.h ****             head = tail = elem;
 5528              		.loc 8 45 13
 5529 1b6c 2330A4FC 		sd	a0,-64(s0)
 5530              	.LVL644:
 5531              	.LBE249:
 5532              	.LBE248:
 5533              		.loc 4 243 24 is_stmt 1
 5534              		.loc 4 243 29 is_stmt 0
 5535 1b70 83A70400 		lw	a5,0(s1)
 5536 1b74 9B871700 		addiw	a5,a5,1
 5537 1b78 23A0F400 		sw	a5,0(s1)
 244:src/userMain.cpp ****     lista.addLast(hh);(*hh)+=1;
 5538              		.loc 4 244 5 is_stmt 1
 5539              	.LVL645:
 5540              	.LBB252:
 5541              	.LBB253:
  38:src/../h/list.h ****         if (tail)
 5542              		.loc 8 38 22 is_stmt 0
 5543 1b7c 13050001 		li	a0,16
 5544              	.LVL646:
GAS LISTING /tmp/ccMeUcYP.s 			page 135


 5545 1b80 97000000 		call	_Znwm@plt
 5545      E7800000 
 5546              	.LVL647:
 5547              	.LBB254:
 5548              	.LBB255:
  17:src/../h/list.h ****     };
 5549              		.loc 8 17 58
 5550 1b88 23309500 		sd	s1,0(a0)
 5551 1b8c 23340500 		sd	zero,8(a0)
 5552              	.LVL648:
 5553              	.LBE255:
 5554              	.LBE254:
  39:src/../h/list.h ****         {
 5555              		.loc 8 39 9
 5556 1b90 630E0910 		beqz	s2,.L262
  41:src/../h/list.h ****             tail = elem;
 5557              		.loc 8 41 13
 5558 1b94 2334A900 		sd	a0,8(s2)
  42:src/../h/list.h ****         } else
 5559              		.loc 8 42 13
 5560 1b98 2334A4FC 		sd	a0,-56(s0)
 5561              	.L263:
 5562              	.LVL649:
 5563              	.LBE253:
 5564              	.LBE252:
 5565              		.loc 4 244 23 is_stmt 1
 5566              		.loc 4 244 28 is_stmt 0
 5567 1b9c 83A70400 		lw	a5,0(s1)
 5568 1ba0 9B871700 		addiw	a5,a5,1
 5569 1ba4 23A0F400 		sw	a5,0(s1)
 245:src/userMain.cpp ****     lista.addLast(hh);(*hh)+=1;
 5570              		.loc 4 245 5 is_stmt 1
 5571              	.LVL650:
 5572              	.LBB257:
 5573              	.LBB258:
  38:src/../h/list.h ****         if (tail)
 5574              		.loc 8 38 22 is_stmt 0
 5575 1ba8 13050001 		li	a0,16
 5576              	.LVL651:
 5577 1bac 97000000 		call	_Znwm@plt
 5577      E7800000 
 5578              	.LVL652:
 5579              	.LBB259:
 5580              	.LBB260:
  17:src/../h/list.h ****     };
 5581              		.loc 8 17 58
 5582 1bb4 23309500 		sd	s1,0(a0)
 5583 1bb8 23340500 		sd	zero,8(a0)
 5584              	.LVL653:
 5585              	.LBE260:
 5586              	.LBE259:
  39:src/../h/list.h ****         {
 5587              		.loc 8 39 13
 5588 1bbc 833784FC 		ld	a5,-56(s0)
  39:src/../h/list.h ****         {
 5589              		.loc 8 39 9
 5590 1bc0 638C070E 		beqz	a5,.L264
GAS LISTING /tmp/ccMeUcYP.s 			page 136


  41:src/../h/list.h ****             tail = elem;
 5591              		.loc 8 41 13
 5592 1bc4 23B4A700 		sd	a0,8(a5)
  42:src/../h/list.h ****         } else
 5593              		.loc 8 42 13
 5594 1bc8 2334A4FC 		sd	a0,-56(s0)
 5595              	.LVL654:
 5596              	.L265:
 5597              	.LBE258:
 5598              	.LBE257:
 5599              		.loc 4 245 23 is_stmt 1
 5600              		.loc 4 245 28 is_stmt 0
 5601 1bcc 83A70400 		lw	a5,0(s1)
 5602 1bd0 9B871700 		addiw	a5,a5,1
 5603 1bd4 23A0F400 		sw	a5,0(s1)
 246:src/userMain.cpp ****     lista.addLast(hh);(*hh)+=1;
 5604              		.loc 4 246 5 is_stmt 1
 5605              	.LVL655:
 5606              	.LBB262:
 5607              	.LBB263:
  38:src/../h/list.h ****         if (tail)
 5608              		.loc 8 38 22 is_stmt 0
 5609 1bd8 13050001 		li	a0,16
 5610              	.LVL656:
 5611 1bdc 97000000 		call	_Znwm@plt
 5611      E7800000 
 5612              	.LVL657:
 5613              	.LBB264:
 5614              	.LBB265:
  17:src/../h/list.h ****     };
 5615              		.loc 8 17 58
 5616 1be4 23309500 		sd	s1,0(a0)
 5617 1be8 23340500 		sd	zero,8(a0)
 5618              	.LVL658:
 5619              	.LBE265:
 5620              	.LBE264:
  39:src/../h/list.h ****         {
 5621              		.loc 8 39 13
 5622 1bec 833784FC 		ld	a5,-56(s0)
  39:src/../h/list.h ****         {
 5623              		.loc 8 39 9
 5624 1bf0 638A070C 		beqz	a5,.L266
  41:src/../h/list.h ****             tail = elem;
 5625              		.loc 8 41 13
 5626 1bf4 23B4A700 		sd	a0,8(a5)
  42:src/../h/list.h ****         } else
 5627              		.loc 8 42 13
 5628 1bf8 2334A4FC 		sd	a0,-56(s0)
 5629              	.LVL659:
 5630              	.L267:
 5631              	.LBE263:
 5632              	.LBE262:
 5633              		.loc 4 246 23 is_stmt 1
 5634              		.loc 4 246 28 is_stmt 0
 5635 1bfc 83A70400 		lw	a5,0(s1)
 5636 1c00 9B871700 		addiw	a5,a5,1
 5637 1c04 23A0F400 		sw	a5,0(s1)
GAS LISTING /tmp/ccMeUcYP.s 			page 137


 247:src/userMain.cpp **** 
 248:src/userMain.cpp ****     printInt(*lista.peekFirst());
 5638              		.loc 4 248 5 is_stmt 1
 5639              	.LVL660:
 5640              	.LBB267:
 5641              	.LBB268:
  46:src/../h/list.h ****         }
  47:src/../h/list.h ****     }
  48:src/../h/list.h **** 
  49:src/../h/list.h ****     T *removeFirst()
  50:src/../h/list.h ****     {
  51:src/../h/list.h ****         if (!head) { return 0; }
  52:src/../h/list.h **** 
  53:src/../h/list.h ****         Elem *elem = head;
  54:src/../h/list.h ****         head = head->next;
  55:src/../h/list.h ****         if (!head) { tail = 0; }
  56:src/../h/list.h **** 
  57:src/../h/list.h ****         T *ret = elem->data;
  58:src/../h/list.h ****         delete elem;
  59:src/../h/list.h ****         return ret;
  60:src/../h/list.h ****     }
  61:src/../h/list.h **** 
  62:src/../h/list.h ****     T *peekFirst()
  63:src/../h/list.h ****     {
  64:src/../h/list.h ****         if (!head) { return 0; }
 5642              		.loc 8 64 14 is_stmt 0
 5643 1c08 833704FC 		ld	a5,-64(s0)
 5644              		.loc 8 64 9
 5645 1c0c 63840700 		beqz	a5,.L268
  65:src/../h/list.h ****         return head->data;
 5646              		.loc 8 65 22
 5647 1c10 83B70700 		ld	a5,0(a5)
 5648              	.L268:
 5649              	.LVL661:
 5650              	.LBE268:
 5651              	.LBE267:
 5652              		.loc 4 248 13
 5653 1c14 13060000 		li	a2,0
 5654 1c18 9305A000 		li	a1,10
 5655 1c1c 03A50700 		lw	a0,0(a5)
 5656              	.LVL662:
 5657 1c20 97000000 		call	_Z8printIntiii@plt
 5657      E7800000 
 5658              	.LVL663:
 249:src/userMain.cpp ****     printInt(*lista.peekLast());
 5659              		.loc 4 249 5 is_stmt 1
 5660              	.LBB269:
 5661              	.LBB270:
  66:src/../h/list.h ****     }
  67:src/../h/list.h **** 
  68:src/../h/list.h ****     T *removeLast()
  69:src/../h/list.h ****     {
  70:src/../h/list.h ****         if (!head) { return 0; }
  71:src/../h/list.h **** 
  72:src/../h/list.h ****         Elem *prev = 0;
  73:src/../h/list.h ****         for (Elem *curr = head; curr && curr != tail; curr = curr->next)
  74:src/../h/list.h ****         {
GAS LISTING /tmp/ccMeUcYP.s 			page 138


  75:src/../h/list.h ****             prev = curr;
  76:src/../h/list.h ****         }
  77:src/../h/list.h **** 
  78:src/../h/list.h ****         Elem *elem = tail;
  79:src/../h/list.h ****         if (prev) { prev->next = 0; }
  80:src/../h/list.h ****         else { head = 0; }
  81:src/../h/list.h ****         tail = prev;
  82:src/../h/list.h **** 
  83:src/../h/list.h ****         T *ret = elem->data;
  84:src/../h/list.h ****         delete elem;
  85:src/../h/list.h ****         return ret;
  86:src/../h/list.h ****     }
  87:src/../h/list.h **** 
  88:src/../h/list.h ****     T *peekLast()
  89:src/../h/list.h ****     {
  90:src/../h/list.h ****         if (!tail) { return 0; }
 5662              		.loc 8 90 14 is_stmt 0
 5663 1c28 833784FC 		ld	a5,-56(s0)
 5664              		.loc 8 90 9
 5665 1c2c 63840700 		beqz	a5,.L269
  91:src/../h/list.h ****         return tail->data;
 5666              		.loc 8 91 22
 5667 1c30 83B70700 		ld	a5,0(a5)
 5668              	.L269:
 5669              	.LVL664:
 5670              	.LBE270:
 5671              	.LBE269:
 5672              		.loc 4 249 13
 5673 1c34 13060000 		li	a2,0
 5674 1c38 9305A000 		li	a1,10
 5675 1c3c 03A50700 		lw	a0,0(a5)
 5676 1c40 97000000 		call	_Z8printIntiii@plt
 5676      E7800000 
 5677              	.LVL665:
 250:src/userMain.cpp **** 
 251:src/userMain.cpp ****     printString("aaaaaa");
 5678              		.loc 4 251 5 is_stmt 1
 5679              		.loc 4 251 16 is_stmt 0
 5680 1c48 17050000 		lla	a0,.LC41
 5680      13050500 
 5681 1c50 97000000 		call	_Z11printStringPKc@plt
 5681      E7800000 
 5682              	.LVL666:
 252:src/userMain.cpp **** 
 253:src/userMain.cpp ****     int a1=1;
 5683              		.loc 4 253 5 is_stmt 1
 254:src/userMain.cpp ****     printString("print\n");
 5684              		.loc 4 254 5
 5685              		.loc 4 254 16 is_stmt 0
 5686 1c58 17050000 		lla	a0,.LC42
 5686      13050500 
 5687 1c60 97000000 		call	_Z11printStringPKc@plt
 5687      E7800000 
 5688              	.LVL667:
 255:src/userMain.cpp ****     printString("???\n");
 5689              		.loc 4 255 5 is_stmt 1
 5690              		.loc 4 255 16 is_stmt 0
GAS LISTING /tmp/ccMeUcYP.s 			page 139


 5691 1c68 17050000 		lla	a0,.LC43
 5691      13050500 
 5692 1c70 97000000 		call	_Z11printStringPKc@plt
 5692      E7800000 
 5693              	.LVL668:
 256:src/userMain.cpp ****     printInt(a1);
 5694              		.loc 4 256 5 is_stmt 1
 5695              		.loc 4 256 13 is_stmt 0
 5696 1c78 13060000 		li	a2,0
 5697 1c7c 9305A000 		li	a1,10
 5698 1c80 13051000 		li	a0,1
 5699 1c84 97000000 		call	_Z8printIntiii@plt
 5699      E7800000 
 5700              	.LVL669:
 257:src/userMain.cpp **** 
 258:src/userMain.cpp ****     AAA *a = new AAA(5);
 5701              		.loc 4 258 5 is_stmt 1
 5702              		.loc 4 258 23 is_stmt 0
 5703 1c8c 13058002 		li	a0,40
 5704 1c90 97000000 		call	_Znwm@plt
 5704      E7800000 
 5705              	.LVL670:
 5706              	.LEHE48:
 5707 1c98 93040500 		mv	s1,a0
 5708              	.LVL671:
 5709              	.LBB271:
 5710              	.LBB272:
 209:src/userMain.cpp **** 
 5711              		.loc 4 209 39
 5712 1c9c 93055000 		li	a1,5
 5713              	.LEHB49:
 5714 1ca0 97000000 		call	_ZN14PeriodicThreadC2Em@plt
 5714      E7800000 
 5715              	.LVL672:
 5716              	.LEHE49:
 5717 1ca8 6F008002 		j	.L276
 5718              	.LVL673:
 5719              	.L262:
 5720              	.LBE272:
 5721              	.LBE271:
 5722              	.LBB274:
 5723              	.LBB256:
  45:src/../h/list.h ****         }
 5724              		.loc 8 45 13
 5725 1cac 2334A4FC 		sd	a0,-56(s0)
 5726 1cb0 2330A4FC 		sd	a0,-64(s0)
 5727 1cb4 6FF09FEE 		j	.L263
 5728              	.LVL674:
 5729              	.L264:
 5730              	.LBE256:
 5731              	.LBE274:
 5732              	.LBB275:
 5733              	.LBB261:
 5734 1cb8 2334A4FC 		sd	a0,-56(s0)
 5735              	.LVL675:
 5736 1cbc 2330A4FC 		sd	a0,-64(s0)
 5737 1cc0 6FF0DFF0 		j	.L265
GAS LISTING /tmp/ccMeUcYP.s 			page 140


 5738              	.LVL676:
 5739              	.L266:
 5740              	.LBE261:
 5741              	.LBE275:
 5742              	.LBB276:
 5743              	.LBB266:
 5744 1cc4 2334A4FC 		sd	a0,-56(s0)
 5745              	.LVL677:
 5746 1cc8 2330A4FC 		sd	a0,-64(s0)
 5747 1ccc 6FF01FF3 		j	.L267
 5748              	.LVL678:
 5749              	.L276:
 5750              	.LBE266:
 5751              	.LBE276:
 5752              	.LBB277:
 5753              	.LBB273:
 209:src/userMain.cpp **** 
 5754              		.loc 4 209 39
 5755 1cd0 97070000 		lla	a5,_ZTV3AAA+16
 5755      93870700 
 5756 1cd8 23B0F400 		sd	a5,0(s1)
 5757 1cdc 93075000 		li	a5,5
 5758 1ce0 23A0F402 		sw	a5,32(s1)
 5759              	.LVL679:
 5760              	.LBE273:
 5761              	.LBE277:
 259:src/userMain.cpp **** 
 260:src/userMain.cpp ****     a->start();
 5762              		.loc 4 260 5 is_stmt 1
 5763              		.loc 4 260 13 is_stmt 0
 5764 1ce4 13850400 		mv	a0,s1
 5765              	.LEHB50:
 5766 1ce8 97000000 		call	_ZN6Thread5startEv@plt
 5766      E7800000 
 5767              	.LVL680:
 5768              	.LBB278:
 261:src/userMain.cpp ****     for(int i=0;i<1000000000;i++){
 5769              		.loc 4 261 13
 5770 1cf0 13070000 		li	a4,0
 5771              	.L271:
 5772              	.LVL681:
 5773              		.loc 4 261 18 is_stmt 1 discriminator 3
 5774 1cf4 B7D79A3B 		li	a5,1000001536
 5775 1cf8 9387F79F 		addi	a5,a5,-1537
 5776 1cfc 63C6E700 		bgt	a4,a5,.L270
 5777              		.loc 4 261 5 discriminator 2
 5778 1d00 1B071700 		addiw	a4,a4,1
 5779              	.LVL682:
 5780 1d04 6FF01FFF 		j	.L271
 5781              	.LVL683:
 5782              	.L270:
 5783              	.LBE278:
 262:src/userMain.cpp **** 
 263:src/userMain.cpp ****     }
 264:src/userMain.cpp **** 
 265:src/userMain.cpp ****     a->zaustavi();
 5784              		.loc 4 265 5
GAS LISTING /tmp/ccMeUcYP.s 			page 141


 5785              		.loc 4 265 16 is_stmt 0
 5786 1d08 13850400 		mv	a0,s1
 5787 1d0c 97000000 		call	_ZN14PeriodicThread8zaustaviEv@plt
 5787      E7800000 
 5788              	.LVL684:
 5789              	.LEHE50:
 266:src/userMain.cpp **** 
 267:src/userMain.cpp ****     //syscall_c.h napravi funkciju
 268:src/userMain.cpp ****     //syscall_c.cpp definisi funkciju
 269:src/userMain.cpp ****     //provera.cpp
 270:src/userMain.cpp ****     //
 271:src/userMain.cpp ****     //
 272:src/userMain.cpp **** 
 273:src/userMain.cpp **** }...
 5790              		.loc 4 273 1
 5791 1d14 83308103 		ld	ra,56(sp)
 5792              		.cfi_remember_state
 5793              		.cfi_restore 1
 5794 1d18 03340103 		ld	s0,48(sp)
 5795              		.cfi_restore 8
 5796              		.cfi_def_cfa 2, 64
 5797              	.LVL685:
 5798 1d1c 83348102 		ld	s1,40(sp)
 5799              		.cfi_restore 9
 5800              	.LVL686:
 5801 1d20 03390102 		ld	s2,32(sp)
 5802              		.cfi_restore 18
 5803              	.LVL687:
 5804 1d24 83398101 		ld	s3,24(sp)
 5805              		.cfi_restore 19
 5806              	.LVL688:
 5807 1d28 13010104 		addi	sp,sp,64
 5808              		.cfi_def_cfa_offset 0
 5809              	.LVL689:
 5810 1d2c 67800000 		jr	ra
 5811              	.LVL690:
 5812              	.L273:
 5813              		.cfi_restore_state
 5814 1d30 13090500 		mv	s2,a0
 5815              	.LVL691:
 258:src/userMain.cpp ****     AAA *a = new AAA(5);
 5816              		.loc 4 258 23
 5817 1d34 13850400 		mv	a0,s1
 5818 1d38 97000000 		call	_ZdlPv@plt
 5818      E7800000 
 5819              	.LVL692:
 5820 1d40 13050900 		mv	a0,s2
 5821              	.LEHB51:
 5822 1d44 97000000 		call	_Unwind_Resume@plt
 5822      E7800000 
 5823              	.LVL693:
 5824              	.LEHE51:
 5825              		.cfi_endproc
 5826              	.LFE102:
 5827              		.section	.gcc_except_table
 5828              	.LLSDA102:
 5829 0283 FF       		.byte	0xff
GAS LISTING /tmp/ccMeUcYP.s 			page 142


 5830 0284 FF       		.byte	0xff
 5831 0285 03       		.byte	0x3
 5832 0286 34       		.byte	0x34
 5833 0287 00000000 		.4byte	.LEHB48-.LFB102
 5834 028b 00000000 		.4byte	.LEHE48-.LEHB48
 5835 028f 00000000 		.4byte	0
 5836 0293 00       		.byte	0
 5837 0294 00000000 		.4byte	.LEHB49-.LFB102
 5838 0298 00000000 		.4byte	.LEHE49-.LEHB49
 5839 029c 00000000 		.4byte	.L273-.LFB102
 5840 02a0 00       		.byte	0
 5841 02a1 00000000 		.4byte	.LEHB50-.LFB102
 5842 02a5 00000000 		.4byte	.LEHE50-.LEHB50
 5843 02a9 00000000 		.4byte	0
 5844 02ad 00       		.byte	0
 5845 02ae 00000000 		.4byte	.LEHB51-.LFB102
 5846 02b2 00000000 		.4byte	.LEHE51-.LEHB51
 5847 02b6 00000000 		.4byte	0
 5848 02ba 00       		.byte	0
 5849              		.text
 5851              		.weak	_ZTV7WorkerA
 5852              		.section	.data.rel.ro.local._ZTV7WorkerA,"awG",@progbits,_ZTV7WorkerA,comdat
 5853              		.align	3
 5856              	_ZTV7WorkerA:
 5857 0000 00000000 		.dword	0
 5857      00000000 
 5858 0008 00000000 		.dword	0
 5858      00000000 
 5859 0010 00000000 		.dword	_ZN7WorkerAD1Ev
 5859      00000000 
 5860 0018 00000000 		.dword	_ZN7WorkerAD0Ev
 5860      00000000 
 5861 0020 00000000 		.dword	_ZN7WorkerA3runEv
 5861      00000000 
 5862              		.weak	_ZTV7WorkerB
 5863              		.section	.data.rel.ro.local._ZTV7WorkerB,"awG",@progbits,_ZTV7WorkerB,comdat
 5864              		.align	3
 5867              	_ZTV7WorkerB:
 5868 0000 00000000 		.dword	0
 5868      00000000 
 5869 0008 00000000 		.dword	0
 5869      00000000 
 5870 0010 00000000 		.dword	_ZN7WorkerBD1Ev
 5870      00000000 
 5871 0018 00000000 		.dword	_ZN7WorkerBD0Ev
 5871      00000000 
 5872 0020 00000000 		.dword	_ZN7WorkerB3runEv
 5872      00000000 
 5873              		.weak	_ZTV7WorkerC
 5874              		.section	.data.rel.ro.local._ZTV7WorkerC,"awG",@progbits,_ZTV7WorkerC,comdat
 5875              		.align	3
 5878              	_ZTV7WorkerC:
 5879 0000 00000000 		.dword	0
 5879      00000000 
 5880 0008 00000000 		.dword	0
 5880      00000000 
 5881 0010 00000000 		.dword	_ZN7WorkerCD1Ev
GAS LISTING /tmp/ccMeUcYP.s 			page 143


 5881      00000000 
 5882 0018 00000000 		.dword	_ZN7WorkerCD0Ev
 5882      00000000 
 5883 0020 00000000 		.dword	_ZN7WorkerC3runEv
 5883      00000000 
 5884              		.weak	_ZTV7WorkerD
 5885              		.section	.data.rel.ro.local._ZTV7WorkerD,"awG",@progbits,_ZTV7WorkerD,comdat
 5886              		.align	3
 5889              	_ZTV7WorkerD:
 5890 0000 00000000 		.dword	0
 5890      00000000 
 5891 0008 00000000 		.dword	0
 5891      00000000 
 5892 0010 00000000 		.dword	_ZN7WorkerDD1Ev
 5892      00000000 
 5893 0018 00000000 		.dword	_ZN7WorkerDD0Ev
 5893      00000000 
 5894 0020 00000000 		.dword	_ZN7WorkerD3runEv
 5894      00000000 
 5895              		.weak	_ZTV16ProducerKeyboard
 5896              		.section	.data.rel.ro.local._ZTV16ProducerKeyboard,"awG",@progbits,_ZTV16ProducerKeyboard,comdat
 5897              		.align	3
 5900              	_ZTV16ProducerKeyboard:
 5901 0000 00000000 		.dword	0
 5901      00000000 
 5902 0008 00000000 		.dword	0
 5902      00000000 
 5903 0010 00000000 		.dword	_ZN16ProducerKeyboardD1Ev
 5903      00000000 
 5904 0018 00000000 		.dword	_ZN16ProducerKeyboardD0Ev
 5904      00000000 
 5905 0020 00000000 		.dword	_ZN16ProducerKeyboard3runEv
 5905      00000000 
 5906              		.weak	_ZTV8Producer
 5907              		.section	.data.rel.ro.local._ZTV8Producer,"awG",@progbits,_ZTV8Producer,comdat
 5908              		.align	3
 5911              	_ZTV8Producer:
 5912 0000 00000000 		.dword	0
 5912      00000000 
 5913 0008 00000000 		.dword	0
 5913      00000000 
 5914 0010 00000000 		.dword	_ZN8ProducerD1Ev
 5914      00000000 
 5915 0018 00000000 		.dword	_ZN8ProducerD0Ev
 5915      00000000 
 5916 0020 00000000 		.dword	_ZN8Producer3runEv
 5916      00000000 
 5917              		.weak	_ZTV8Consumer
 5918              		.section	.data.rel.ro.local._ZTV8Consumer,"awG",@progbits,_ZTV8Consumer,comdat
 5919              		.align	3
 5922              	_ZTV8Consumer:
 5923 0000 00000000 		.dword	0
 5923      00000000 
 5924 0008 00000000 		.dword	0
 5924      00000000 
 5925 0010 00000000 		.dword	_ZN8ConsumerD1Ev
 5925      00000000 
GAS LISTING /tmp/ccMeUcYP.s 			page 144


 5926 0018 00000000 		.dword	_ZN8ConsumerD0Ev
 5926      00000000 
 5927 0020 00000000 		.dword	_ZN8Consumer3runEv
 5927      00000000 
 5928              		.weak	_ZTVN19ConsumerProducerCPP16ProducerKeyboradE
 5929              		.section	.data.rel.ro.local._ZTVN19ConsumerProducerCPP16ProducerKeyboradE,"awG",@progbits,_ZTVN19C
 5930              		.align	3
 5933              	_ZTVN19ConsumerProducerCPP16ProducerKeyboradE:
 5934 0000 00000000 		.dword	0
 5934      00000000 
 5935 0008 00000000 		.dword	0
 5935      00000000 
 5936 0010 00000000 		.dword	_ZN19ConsumerProducerCPP16ProducerKeyboradD1Ev
 5936      00000000 
 5937 0018 00000000 		.dword	_ZN19ConsumerProducerCPP16ProducerKeyboradD0Ev
 5937      00000000 
 5938 0020 00000000 		.dword	_ZN19ConsumerProducerCPP16ProducerKeyborad3runEv
 5938      00000000 
 5939              		.weak	_ZTVN19ConsumerProducerCPP8ProducerE
 5940              		.section	.data.rel.ro.local._ZTVN19ConsumerProducerCPP8ProducerE,"awG",@progbits,_ZTVN19ConsumerPr
 5941              		.align	3
 5944              	_ZTVN19ConsumerProducerCPP8ProducerE:
 5945 0000 00000000 		.dword	0
 5945      00000000 
 5946 0008 00000000 		.dword	0
 5946      00000000 
 5947 0010 00000000 		.dword	_ZN19ConsumerProducerCPP8ProducerD1Ev
 5947      00000000 
 5948 0018 00000000 		.dword	_ZN19ConsumerProducerCPP8ProducerD0Ev
 5948      00000000 
 5949 0020 00000000 		.dword	_ZN19ConsumerProducerCPP8Producer3runEv
 5949      00000000 
 5950              		.weak	_ZTVN19ConsumerProducerCPP8ConsumerE
 5951              		.section	.data.rel.ro.local._ZTVN19ConsumerProducerCPP8ConsumerE,"awG",@progbits,_ZTVN19ConsumerPr
 5952              		.align	3
 5955              	_ZTVN19ConsumerProducerCPP8ConsumerE:
 5956 0000 00000000 		.dword	0
 5956      00000000 
 5957 0008 00000000 		.dword	0
 5957      00000000 
 5958 0010 00000000 		.dword	_ZN19ConsumerProducerCPP8ConsumerD1Ev
 5958      00000000 
 5959 0018 00000000 		.dword	_ZN19ConsumerProducerCPP8ConsumerD0Ev
 5959      00000000 
 5960 0020 00000000 		.dword	_ZN19ConsumerProducerCPP8Consumer3runEv
 5960      00000000 
 5961              		.weak	_ZTV3AAA
 5962              		.section	.data.rel.ro._ZTV3AAA,"awG",@progbits,_ZTV3AAA,comdat
 5963              		.align	3
 5966              	_ZTV3AAA:
 5967 0000 00000000 		.dword	0
 5967      00000000 
 5968 0008 00000000 		.dword	0
 5968      00000000 
 5969 0010 00000000 		.dword	_ZN3AAAD1Ev
 5969      00000000 
 5970 0018 00000000 		.dword	_ZN3AAAD0Ev
GAS LISTING /tmp/ccMeUcYP.s 			page 145


 5970      00000000 
 5971 0020 00000000 		.dword	_ZN14PeriodicThread3runEv
 5971      00000000 
 5972 0028 00000000 		.dword	_ZN3AAA18periodicActivationEv
 5972      00000000 
 5973              		.globl	s
 5974              		.globl	_ZN19ConsumerProducerCPP9threadEndE
 5975              		.globl	_ZN19ConsumerProducerCPP10waitForAllE
 5976              		.globl	finished
 5977              		.globl	threadEnd
 5978              		.globl	waitForAll
 5979              		.globl	finishedD
 5980              		.globl	finishedC
 5981              		.globl	finishedB
 5982              		.globl	finishedA
 5983              		.bss
 5984              		.align	3
 5985              		.set	.LANCHOR0,. + 0
 5988              	_ZN19ConsumerProducerCPP9threadEndE:
 5989 0000 00000000 		.zero	4
 5990 0004 00000000 		.zero	4
 5993              	finished:
 5994 0008 0000     		.zero	2
 5995 000a 00000000 		.zero	6
 5995      0000
 5998              	s:
 5999 0010 00000000 		.zero	8
 5999      00000000 
 6002              	finishedA:
 6003 0018 00       		.zero	1
 6006              	finishedB:
 6007 0019 00       		.zero	1
 6010              	finishedC:
 6011 001a 00       		.zero	1
 6014              	finishedD:
 6015 001b 00       		.zero	1
 6018              	threadEnd:
 6019 001c 00000000 		.zero	4
 6022              	waitForAll:
 6023 0020 00000000 		.zero	8
 6023      00000000 
 6026              	_ZN19ConsumerProducerCPP10waitForAllE:
 6027 0028 00000000 		.zero	8
 6027      00000000 
 6028              		.text
 6029              	.Letext0:
 6030              		.file 9 "src/../h/../h/../lib/hw.h"
 6031              		.file 10 "src/../h/../h/syscall_c.h"
 6032              		.file 11 "src/../h/semafor.h"
 6033              		.file 12 "src/../h/buffer_CPP_API.hpp"
 6034              		.file 13 "src/../h/../h/memorija.h"
 6035              		.file 14 "src/../h/Bafer.h"
 6036              		.file 15 "src/../h/scheduler.h"
 6037              		.file 16 "src/../h/printing.h"
 6038              		.file 17 "src/../h/../h/../h/print.h"
 6039              		.file 18 "<built-in>"
 20557              		.align	3
GAS LISTING /tmp/ccMeUcYP.s 			page 146


 20560              	DW.ref.__gxx_personality_v0:
 20561 0000 00000000 		.dword	__gxx_personality_v0
 20561      00000000 
 20562              		.ident	"GCC: (Ubuntu 9.4.0-1ubuntu1~20.04) 9.4.0"
 20563              		.section	.note.GNU-stack,"",@progbits
GAS LISTING /tmp/ccMeUcYP.s 			page 147


DEFINED SYMBOLS
                            *ABS*:0000000000000000 userMain.cpp
     /tmp/ccMeUcYP.s:10     .text._ZN7WorkerAD2Ev:0000000000000000 _ZN7WorkerAD2Ev
     /tmp/ccMeUcYP.s:14     .text._ZN7WorkerAD2Ev:0000000000000000 .L0 
     /tmp/ccMeUcYP.s:16     .text._ZN7WorkerAD2Ev:0000000000000000 .L0 
     /tmp/ccMeUcYP.s:17     .text._ZN7WorkerAD2Ev:0000000000000004 .L0 
     /tmp/ccMeUcYP.s:20     .text._ZN7WorkerAD2Ev:000000000000000c .L0 
     /tmp/ccMeUcYP.s:21     .text._ZN7WorkerAD2Ev:000000000000000c .L0 
     /tmp/ccMeUcYP.s:23     .text._ZN7WorkerAD2Ev:0000000000000010 .L0 
     /tmp/ccMeUcYP.s:5856   .data.rel.ro.local._ZTV7WorkerA:0000000000000000 _ZTV7WorkerA
     /tmp/ccMeUcYP.s:26     .text._ZN7WorkerAD2Ev:0000000000000010 .L0 
     /tmp/ccMeUcYP.s:32     .text._ZN7WorkerAD2Ev:0000000000000028 .L0 
     /tmp/ccMeUcYP.s:34     .text._ZN7WorkerAD2Ev:000000000000002c .L0 
     /tmp/ccMeUcYP.s:35     .text._ZN7WorkerAD2Ev:000000000000002c .L0 
     /tmp/ccMeUcYP.s:37     .text._ZN7WorkerAD2Ev:0000000000000030 .L0 
     /tmp/ccMeUcYP.s:39     .text._ZN7WorkerAD2Ev:0000000000000034 .L0 
     /tmp/ccMeUcYP.s:10     .text._ZN7WorkerAD2Ev:0000000000000000 _ZN7WorkerAD1Ev
     /tmp/ccMeUcYP.s:48     .text._ZN7WorkerAD0Ev:0000000000000000 _ZN7WorkerAD0Ev
     /tmp/ccMeUcYP.s:51     .text._ZN7WorkerAD0Ev:0000000000000000 .L0 
     /tmp/ccMeUcYP.s:53     .text._ZN7WorkerAD0Ev:0000000000000000 .L0 
     /tmp/ccMeUcYP.s:54     .text._ZN7WorkerAD0Ev:0000000000000004 .L0 
     /tmp/ccMeUcYP.s:58     .text._ZN7WorkerAD0Ev:0000000000000010 .L0 
     /tmp/ccMeUcYP.s:59     .text._ZN7WorkerAD0Ev:0000000000000010 .L0 
     /tmp/ccMeUcYP.s:60     .text._ZN7WorkerAD0Ev:0000000000000010 .L0 
     /tmp/ccMeUcYP.s:62     .text._ZN7WorkerAD0Ev:0000000000000014 .L0 
     /tmp/ccMeUcYP.s:68     .text._ZN7WorkerAD0Ev:0000000000000018 .L0 
     /tmp/ccMeUcYP.s:78     .text._ZN7WorkerAD0Ev:000000000000003c .L0 
     /tmp/ccMeUcYP.s:80     .text._ZN7WorkerAD0Ev:0000000000000040 .L0 
     /tmp/ccMeUcYP.s:81     .text._ZN7WorkerAD0Ev:0000000000000040 .L0 
     /tmp/ccMeUcYP.s:83     .text._ZN7WorkerAD0Ev:0000000000000044 .L0 
     /tmp/ccMeUcYP.s:86     .text._ZN7WorkerAD0Ev:0000000000000048 .L0 
     /tmp/ccMeUcYP.s:88     .text._ZN7WorkerAD0Ev:000000000000004c .L0 
     /tmp/ccMeUcYP.s:95     .text._ZN7WorkerBD2Ev:0000000000000000 _ZN7WorkerBD2Ev
     /tmp/ccMeUcYP.s:98     .text._ZN7WorkerBD2Ev:0000000000000000 .L0 
     /tmp/ccMeUcYP.s:100    .text._ZN7WorkerBD2Ev:0000000000000000 .L0 
     /tmp/ccMeUcYP.s:101    .text._ZN7WorkerBD2Ev:0000000000000004 .L0 
     /tmp/ccMeUcYP.s:104    .text._ZN7WorkerBD2Ev:000000000000000c .L0 
     /tmp/ccMeUcYP.s:105    .text._ZN7WorkerBD2Ev:000000000000000c .L0 
     /tmp/ccMeUcYP.s:107    .text._ZN7WorkerBD2Ev:0000000000000010 .L0 
     /tmp/ccMeUcYP.s:5867   .data.rel.ro.local._ZTV7WorkerB:0000000000000000 _ZTV7WorkerB
     /tmp/ccMeUcYP.s:110    .text._ZN7WorkerBD2Ev:0000000000000010 .L0 
     /tmp/ccMeUcYP.s:116    .text._ZN7WorkerBD2Ev:0000000000000028 .L0 
     /tmp/ccMeUcYP.s:118    .text._ZN7WorkerBD2Ev:000000000000002c .L0 
     /tmp/ccMeUcYP.s:119    .text._ZN7WorkerBD2Ev:000000000000002c .L0 
     /tmp/ccMeUcYP.s:121    .text._ZN7WorkerBD2Ev:0000000000000030 .L0 
     /tmp/ccMeUcYP.s:123    .text._ZN7WorkerBD2Ev:0000000000000034 .L0 
     /tmp/ccMeUcYP.s:95     .text._ZN7WorkerBD2Ev:0000000000000000 _ZN7WorkerBD1Ev
     /tmp/ccMeUcYP.s:132    .text._ZN7WorkerBD0Ev:0000000000000000 _ZN7WorkerBD0Ev
     /tmp/ccMeUcYP.s:135    .text._ZN7WorkerBD0Ev:0000000000000000 .L0 
     /tmp/ccMeUcYP.s:137    .text._ZN7WorkerBD0Ev:0000000000000000 .L0 
     /tmp/ccMeUcYP.s:138    .text._ZN7WorkerBD0Ev:0000000000000004 .L0 
     /tmp/ccMeUcYP.s:142    .text._ZN7WorkerBD0Ev:0000000000000010 .L0 
     /tmp/ccMeUcYP.s:143    .text._ZN7WorkerBD0Ev:0000000000000010 .L0 
     /tmp/ccMeUcYP.s:144    .text._ZN7WorkerBD0Ev:0000000000000010 .L0 
     /tmp/ccMeUcYP.s:146    .text._ZN7WorkerBD0Ev:0000000000000014 .L0 
     /tmp/ccMeUcYP.s:152    .text._ZN7WorkerBD0Ev:0000000000000018 .L0 
     /tmp/ccMeUcYP.s:162    .text._ZN7WorkerBD0Ev:000000000000003c .L0 
GAS LISTING /tmp/ccMeUcYP.s 			page 148


     /tmp/ccMeUcYP.s:164    .text._ZN7WorkerBD0Ev:0000000000000040 .L0 
     /tmp/ccMeUcYP.s:165    .text._ZN7WorkerBD0Ev:0000000000000040 .L0 
     /tmp/ccMeUcYP.s:167    .text._ZN7WorkerBD0Ev:0000000000000044 .L0 
     /tmp/ccMeUcYP.s:170    .text._ZN7WorkerBD0Ev:0000000000000048 .L0 
     /tmp/ccMeUcYP.s:172    .text._ZN7WorkerBD0Ev:000000000000004c .L0 
     /tmp/ccMeUcYP.s:179    .text._ZN7WorkerCD2Ev:0000000000000000 _ZN7WorkerCD2Ev
     /tmp/ccMeUcYP.s:182    .text._ZN7WorkerCD2Ev:0000000000000000 .L0 
     /tmp/ccMeUcYP.s:184    .text._ZN7WorkerCD2Ev:0000000000000000 .L0 
     /tmp/ccMeUcYP.s:185    .text._ZN7WorkerCD2Ev:0000000000000004 .L0 
     /tmp/ccMeUcYP.s:188    .text._ZN7WorkerCD2Ev:000000000000000c .L0 
     /tmp/ccMeUcYP.s:189    .text._ZN7WorkerCD2Ev:000000000000000c .L0 
     /tmp/ccMeUcYP.s:191    .text._ZN7WorkerCD2Ev:0000000000000010 .L0 
     /tmp/ccMeUcYP.s:5878   .data.rel.ro.local._ZTV7WorkerC:0000000000000000 _ZTV7WorkerC
     /tmp/ccMeUcYP.s:194    .text._ZN7WorkerCD2Ev:0000000000000010 .L0 
     /tmp/ccMeUcYP.s:200    .text._ZN7WorkerCD2Ev:0000000000000028 .L0 
     /tmp/ccMeUcYP.s:202    .text._ZN7WorkerCD2Ev:000000000000002c .L0 
     /tmp/ccMeUcYP.s:203    .text._ZN7WorkerCD2Ev:000000000000002c .L0 
     /tmp/ccMeUcYP.s:205    .text._ZN7WorkerCD2Ev:0000000000000030 .L0 
     /tmp/ccMeUcYP.s:207    .text._ZN7WorkerCD2Ev:0000000000000034 .L0 
     /tmp/ccMeUcYP.s:179    .text._ZN7WorkerCD2Ev:0000000000000000 _ZN7WorkerCD1Ev
     /tmp/ccMeUcYP.s:216    .text._ZN7WorkerCD0Ev:0000000000000000 _ZN7WorkerCD0Ev
     /tmp/ccMeUcYP.s:219    .text._ZN7WorkerCD0Ev:0000000000000000 .L0 
     /tmp/ccMeUcYP.s:221    .text._ZN7WorkerCD0Ev:0000000000000000 .L0 
     /tmp/ccMeUcYP.s:222    .text._ZN7WorkerCD0Ev:0000000000000004 .L0 
     /tmp/ccMeUcYP.s:226    .text._ZN7WorkerCD0Ev:0000000000000010 .L0 
     /tmp/ccMeUcYP.s:227    .text._ZN7WorkerCD0Ev:0000000000000010 .L0 
     /tmp/ccMeUcYP.s:228    .text._ZN7WorkerCD0Ev:0000000000000010 .L0 
     /tmp/ccMeUcYP.s:230    .text._ZN7WorkerCD0Ev:0000000000000014 .L0 
     /tmp/ccMeUcYP.s:236    .text._ZN7WorkerCD0Ev:0000000000000018 .L0 
     /tmp/ccMeUcYP.s:246    .text._ZN7WorkerCD0Ev:000000000000003c .L0 
     /tmp/ccMeUcYP.s:248    .text._ZN7WorkerCD0Ev:0000000000000040 .L0 
     /tmp/ccMeUcYP.s:249    .text._ZN7WorkerCD0Ev:0000000000000040 .L0 
     /tmp/ccMeUcYP.s:251    .text._ZN7WorkerCD0Ev:0000000000000044 .L0 
     /tmp/ccMeUcYP.s:254    .text._ZN7WorkerCD0Ev:0000000000000048 .L0 
     /tmp/ccMeUcYP.s:256    .text._ZN7WorkerCD0Ev:000000000000004c .L0 
     /tmp/ccMeUcYP.s:263    .text._ZN7WorkerDD2Ev:0000000000000000 _ZN7WorkerDD2Ev
     /tmp/ccMeUcYP.s:266    .text._ZN7WorkerDD2Ev:0000000000000000 .L0 
     /tmp/ccMeUcYP.s:268    .text._ZN7WorkerDD2Ev:0000000000000000 .L0 
     /tmp/ccMeUcYP.s:269    .text._ZN7WorkerDD2Ev:0000000000000004 .L0 
     /tmp/ccMeUcYP.s:272    .text._ZN7WorkerDD2Ev:000000000000000c .L0 
     /tmp/ccMeUcYP.s:273    .text._ZN7WorkerDD2Ev:000000000000000c .L0 
     /tmp/ccMeUcYP.s:275    .text._ZN7WorkerDD2Ev:0000000000000010 .L0 
     /tmp/ccMeUcYP.s:5889   .data.rel.ro.local._ZTV7WorkerD:0000000000000000 _ZTV7WorkerD
     /tmp/ccMeUcYP.s:278    .text._ZN7WorkerDD2Ev:0000000000000010 .L0 
     /tmp/ccMeUcYP.s:284    .text._ZN7WorkerDD2Ev:0000000000000028 .L0 
     /tmp/ccMeUcYP.s:286    .text._ZN7WorkerDD2Ev:000000000000002c .L0 
     /tmp/ccMeUcYP.s:287    .text._ZN7WorkerDD2Ev:000000000000002c .L0 
     /tmp/ccMeUcYP.s:289    .text._ZN7WorkerDD2Ev:0000000000000030 .L0 
     /tmp/ccMeUcYP.s:291    .text._ZN7WorkerDD2Ev:0000000000000034 .L0 
     /tmp/ccMeUcYP.s:263    .text._ZN7WorkerDD2Ev:0000000000000000 _ZN7WorkerDD1Ev
     /tmp/ccMeUcYP.s:300    .text._ZN7WorkerDD0Ev:0000000000000000 _ZN7WorkerDD0Ev
     /tmp/ccMeUcYP.s:303    .text._ZN7WorkerDD0Ev:0000000000000000 .L0 
     /tmp/ccMeUcYP.s:305    .text._ZN7WorkerDD0Ev:0000000000000000 .L0 
     /tmp/ccMeUcYP.s:306    .text._ZN7WorkerDD0Ev:0000000000000004 .L0 
     /tmp/ccMeUcYP.s:310    .text._ZN7WorkerDD0Ev:0000000000000010 .L0 
     /tmp/ccMeUcYP.s:311    .text._ZN7WorkerDD0Ev:0000000000000010 .L0 
     /tmp/ccMeUcYP.s:312    .text._ZN7WorkerDD0Ev:0000000000000010 .L0 
GAS LISTING /tmp/ccMeUcYP.s 			page 149


     /tmp/ccMeUcYP.s:314    .text._ZN7WorkerDD0Ev:0000000000000014 .L0 
     /tmp/ccMeUcYP.s:320    .text._ZN7WorkerDD0Ev:0000000000000018 .L0 
     /tmp/ccMeUcYP.s:330    .text._ZN7WorkerDD0Ev:000000000000003c .L0 
     /tmp/ccMeUcYP.s:332    .text._ZN7WorkerDD0Ev:0000000000000040 .L0 
     /tmp/ccMeUcYP.s:333    .text._ZN7WorkerDD0Ev:0000000000000040 .L0 
     /tmp/ccMeUcYP.s:335    .text._ZN7WorkerDD0Ev:0000000000000044 .L0 
     /tmp/ccMeUcYP.s:338    .text._ZN7WorkerDD0Ev:0000000000000048 .L0 
     /tmp/ccMeUcYP.s:340    .text._ZN7WorkerDD0Ev:000000000000004c .L0 
     /tmp/ccMeUcYP.s:347    .text._ZN8ConsumerD2Ev:0000000000000000 _ZN8ConsumerD2Ev
     /tmp/ccMeUcYP.s:351    .text._ZN8ConsumerD2Ev:0000000000000000 .L0 
     /tmp/ccMeUcYP.s:353    .text._ZN8ConsumerD2Ev:0000000000000000 .L0 
     /tmp/ccMeUcYP.s:354    .text._ZN8ConsumerD2Ev:0000000000000004 .L0 
     /tmp/ccMeUcYP.s:357    .text._ZN8ConsumerD2Ev:000000000000000c .L0 
     /tmp/ccMeUcYP.s:358    .text._ZN8ConsumerD2Ev:000000000000000c .L0 
     /tmp/ccMeUcYP.s:360    .text._ZN8ConsumerD2Ev:0000000000000010 .L0 
     /tmp/ccMeUcYP.s:5922   .data.rel.ro.local._ZTV8Consumer:0000000000000000 _ZTV8Consumer
     /tmp/ccMeUcYP.s:363    .text._ZN8ConsumerD2Ev:0000000000000010 .L0 
     /tmp/ccMeUcYP.s:369    .text._ZN8ConsumerD2Ev:0000000000000028 .L0 
     /tmp/ccMeUcYP.s:371    .text._ZN8ConsumerD2Ev:000000000000002c .L0 
     /tmp/ccMeUcYP.s:372    .text._ZN8ConsumerD2Ev:000000000000002c .L0 
     /tmp/ccMeUcYP.s:374    .text._ZN8ConsumerD2Ev:0000000000000030 .L0 
     /tmp/ccMeUcYP.s:376    .text._ZN8ConsumerD2Ev:0000000000000034 .L0 
     /tmp/ccMeUcYP.s:347    .text._ZN8ConsumerD2Ev:0000000000000000 _ZN8ConsumerD1Ev
     /tmp/ccMeUcYP.s:385    .text._ZN8ConsumerD0Ev:0000000000000000 _ZN8ConsumerD0Ev
     /tmp/ccMeUcYP.s:388    .text._ZN8ConsumerD0Ev:0000000000000000 .L0 
     /tmp/ccMeUcYP.s:390    .text._ZN8ConsumerD0Ev:0000000000000000 .L0 
     /tmp/ccMeUcYP.s:391    .text._ZN8ConsumerD0Ev:0000000000000004 .L0 
     /tmp/ccMeUcYP.s:395    .text._ZN8ConsumerD0Ev:0000000000000010 .L0 
     /tmp/ccMeUcYP.s:396    .text._ZN8ConsumerD0Ev:0000000000000010 .L0 
     /tmp/ccMeUcYP.s:397    .text._ZN8ConsumerD0Ev:0000000000000010 .L0 
     /tmp/ccMeUcYP.s:399    .text._ZN8ConsumerD0Ev:0000000000000014 .L0 
     /tmp/ccMeUcYP.s:405    .text._ZN8ConsumerD0Ev:0000000000000018 .L0 
     /tmp/ccMeUcYP.s:415    .text._ZN8ConsumerD0Ev:000000000000003c .L0 
     /tmp/ccMeUcYP.s:417    .text._ZN8ConsumerD0Ev:0000000000000040 .L0 
     /tmp/ccMeUcYP.s:418    .text._ZN8ConsumerD0Ev:0000000000000040 .L0 
     /tmp/ccMeUcYP.s:420    .text._ZN8ConsumerD0Ev:0000000000000044 .L0 
     /tmp/ccMeUcYP.s:423    .text._ZN8ConsumerD0Ev:0000000000000048 .L0 
     /tmp/ccMeUcYP.s:425    .text._ZN8ConsumerD0Ev:000000000000004c .L0 
     /tmp/ccMeUcYP.s:432    .text._ZN8ProducerD2Ev:0000000000000000 _ZN8ProducerD2Ev
     /tmp/ccMeUcYP.s:435    .text._ZN8ProducerD2Ev:0000000000000000 .L0 
     /tmp/ccMeUcYP.s:437    .text._ZN8ProducerD2Ev:0000000000000000 .L0 
     /tmp/ccMeUcYP.s:438    .text._ZN8ProducerD2Ev:0000000000000004 .L0 
     /tmp/ccMeUcYP.s:441    .text._ZN8ProducerD2Ev:000000000000000c .L0 
     /tmp/ccMeUcYP.s:442    .text._ZN8ProducerD2Ev:000000000000000c .L0 
     /tmp/ccMeUcYP.s:444    .text._ZN8ProducerD2Ev:0000000000000010 .L0 
     /tmp/ccMeUcYP.s:5911   .data.rel.ro.local._ZTV8Producer:0000000000000000 _ZTV8Producer
     /tmp/ccMeUcYP.s:447    .text._ZN8ProducerD2Ev:0000000000000010 .L0 
     /tmp/ccMeUcYP.s:453    .text._ZN8ProducerD2Ev:0000000000000028 .L0 
     /tmp/ccMeUcYP.s:455    .text._ZN8ProducerD2Ev:000000000000002c .L0 
     /tmp/ccMeUcYP.s:456    .text._ZN8ProducerD2Ev:000000000000002c .L0 
     /tmp/ccMeUcYP.s:458    .text._ZN8ProducerD2Ev:0000000000000030 .L0 
     /tmp/ccMeUcYP.s:460    .text._ZN8ProducerD2Ev:0000000000000034 .L0 
     /tmp/ccMeUcYP.s:432    .text._ZN8ProducerD2Ev:0000000000000000 _ZN8ProducerD1Ev
     /tmp/ccMeUcYP.s:469    .text._ZN8ProducerD0Ev:0000000000000000 _ZN8ProducerD0Ev
     /tmp/ccMeUcYP.s:472    .text._ZN8ProducerD0Ev:0000000000000000 .L0 
     /tmp/ccMeUcYP.s:474    .text._ZN8ProducerD0Ev:0000000000000000 .L0 
     /tmp/ccMeUcYP.s:475    .text._ZN8ProducerD0Ev:0000000000000004 .L0 
GAS LISTING /tmp/ccMeUcYP.s 			page 150


     /tmp/ccMeUcYP.s:479    .text._ZN8ProducerD0Ev:0000000000000010 .L0 
     /tmp/ccMeUcYP.s:480    .text._ZN8ProducerD0Ev:0000000000000010 .L0 
     /tmp/ccMeUcYP.s:481    .text._ZN8ProducerD0Ev:0000000000000010 .L0 
     /tmp/ccMeUcYP.s:483    .text._ZN8ProducerD0Ev:0000000000000014 .L0 
     /tmp/ccMeUcYP.s:489    .text._ZN8ProducerD0Ev:0000000000000018 .L0 
     /tmp/ccMeUcYP.s:499    .text._ZN8ProducerD0Ev:000000000000003c .L0 
     /tmp/ccMeUcYP.s:501    .text._ZN8ProducerD0Ev:0000000000000040 .L0 
     /tmp/ccMeUcYP.s:502    .text._ZN8ProducerD0Ev:0000000000000040 .L0 
     /tmp/ccMeUcYP.s:504    .text._ZN8ProducerD0Ev:0000000000000044 .L0 
     /tmp/ccMeUcYP.s:507    .text._ZN8ProducerD0Ev:0000000000000048 .L0 
     /tmp/ccMeUcYP.s:509    .text._ZN8ProducerD0Ev:000000000000004c .L0 
     /tmp/ccMeUcYP.s:516    .text._ZN16ProducerKeyboardD2Ev:0000000000000000 _ZN16ProducerKeyboardD2Ev
     /tmp/ccMeUcYP.s:519    .text._ZN16ProducerKeyboardD2Ev:0000000000000000 .L0 
     /tmp/ccMeUcYP.s:521    .text._ZN16ProducerKeyboardD2Ev:0000000000000000 .L0 
     /tmp/ccMeUcYP.s:522    .text._ZN16ProducerKeyboardD2Ev:0000000000000004 .L0 
     /tmp/ccMeUcYP.s:525    .text._ZN16ProducerKeyboardD2Ev:000000000000000c .L0 
     /tmp/ccMeUcYP.s:526    .text._ZN16ProducerKeyboardD2Ev:000000000000000c .L0 
     /tmp/ccMeUcYP.s:528    .text._ZN16ProducerKeyboardD2Ev:0000000000000010 .L0 
     /tmp/ccMeUcYP.s:5900   .data.rel.ro.local._ZTV16ProducerKeyboard:0000000000000000 _ZTV16ProducerKeyboard
     /tmp/ccMeUcYP.s:531    .text._ZN16ProducerKeyboardD2Ev:0000000000000010 .L0 
     /tmp/ccMeUcYP.s:537    .text._ZN16ProducerKeyboardD2Ev:0000000000000028 .L0 
     /tmp/ccMeUcYP.s:539    .text._ZN16ProducerKeyboardD2Ev:000000000000002c .L0 
     /tmp/ccMeUcYP.s:540    .text._ZN16ProducerKeyboardD2Ev:000000000000002c .L0 
     /tmp/ccMeUcYP.s:542    .text._ZN16ProducerKeyboardD2Ev:0000000000000030 .L0 
     /tmp/ccMeUcYP.s:544    .text._ZN16ProducerKeyboardD2Ev:0000000000000034 .L0 
     /tmp/ccMeUcYP.s:516    .text._ZN16ProducerKeyboardD2Ev:0000000000000000 _ZN16ProducerKeyboardD1Ev
     /tmp/ccMeUcYP.s:553    .text._ZN16ProducerKeyboardD0Ev:0000000000000000 _ZN16ProducerKeyboardD0Ev
     /tmp/ccMeUcYP.s:556    .text._ZN16ProducerKeyboardD0Ev:0000000000000000 .L0 
     /tmp/ccMeUcYP.s:558    .text._ZN16ProducerKeyboardD0Ev:0000000000000000 .L0 
     /tmp/ccMeUcYP.s:559    .text._ZN16ProducerKeyboardD0Ev:0000000000000004 .L0 
     /tmp/ccMeUcYP.s:563    .text._ZN16ProducerKeyboardD0Ev:0000000000000010 .L0 
     /tmp/ccMeUcYP.s:564    .text._ZN16ProducerKeyboardD0Ev:0000000000000010 .L0 
     /tmp/ccMeUcYP.s:565    .text._ZN16ProducerKeyboardD0Ev:0000000000000010 .L0 
     /tmp/ccMeUcYP.s:567    .text._ZN16ProducerKeyboardD0Ev:0000000000000014 .L0 
     /tmp/ccMeUcYP.s:573    .text._ZN16ProducerKeyboardD0Ev:0000000000000018 .L0 
     /tmp/ccMeUcYP.s:583    .text._ZN16ProducerKeyboardD0Ev:000000000000003c .L0 
     /tmp/ccMeUcYP.s:585    .text._ZN16ProducerKeyboardD0Ev:0000000000000040 .L0 
     /tmp/ccMeUcYP.s:586    .text._ZN16ProducerKeyboardD0Ev:0000000000000040 .L0 
     /tmp/ccMeUcYP.s:588    .text._ZN16ProducerKeyboardD0Ev:0000000000000044 .L0 
     /tmp/ccMeUcYP.s:591    .text._ZN16ProducerKeyboardD0Ev:0000000000000048 .L0 
     /tmp/ccMeUcYP.s:593    .text._ZN16ProducerKeyboardD0Ev:000000000000004c .L0 
     /tmp/ccMeUcYP.s:600    .text._ZN19ConsumerProducerCPP8ConsumerD2Ev:0000000000000000 _ZN19ConsumerProducerCPP8ConsumerD2Ev
     /tmp/ccMeUcYP.s:604    .text._ZN19ConsumerProducerCPP8ConsumerD2Ev:0000000000000000 .L0 
     /tmp/ccMeUcYP.s:606    .text._ZN19ConsumerProducerCPP8ConsumerD2Ev:0000000000000000 .L0 
     /tmp/ccMeUcYP.s:607    .text._ZN19ConsumerProducerCPP8ConsumerD2Ev:0000000000000004 .L0 
     /tmp/ccMeUcYP.s:610    .text._ZN19ConsumerProducerCPP8ConsumerD2Ev:000000000000000c .L0 
     /tmp/ccMeUcYP.s:611    .text._ZN19ConsumerProducerCPP8ConsumerD2Ev:000000000000000c .L0 
     /tmp/ccMeUcYP.s:613    .text._ZN19ConsumerProducerCPP8ConsumerD2Ev:0000000000000010 .L0 
     /tmp/ccMeUcYP.s:5955   .data.rel.ro.local._ZTVN19ConsumerProducerCPP8ConsumerE:0000000000000000 _ZTVN19ConsumerProducerCPP8ConsumerE
     /tmp/ccMeUcYP.s:616    .text._ZN19ConsumerProducerCPP8ConsumerD2Ev:0000000000000010 .L0 
     /tmp/ccMeUcYP.s:622    .text._ZN19ConsumerProducerCPP8ConsumerD2Ev:0000000000000028 .L0 
     /tmp/ccMeUcYP.s:624    .text._ZN19ConsumerProducerCPP8ConsumerD2Ev:000000000000002c .L0 
     /tmp/ccMeUcYP.s:625    .text._ZN19ConsumerProducerCPP8ConsumerD2Ev:000000000000002c .L0 
     /tmp/ccMeUcYP.s:627    .text._ZN19ConsumerProducerCPP8ConsumerD2Ev:0000000000000030 .L0 
     /tmp/ccMeUcYP.s:629    .text._ZN19ConsumerProducerCPP8ConsumerD2Ev:0000000000000034 .L0 
     /tmp/ccMeUcYP.s:600    .text._ZN19ConsumerProducerCPP8ConsumerD2Ev:0000000000000000 _ZN19ConsumerProducerCPP8ConsumerD1Ev
     /tmp/ccMeUcYP.s:638    .text._ZN19ConsumerProducerCPP8ConsumerD0Ev:0000000000000000 _ZN19ConsumerProducerCPP8ConsumerD0Ev
GAS LISTING /tmp/ccMeUcYP.s 			page 151


     /tmp/ccMeUcYP.s:641    .text._ZN19ConsumerProducerCPP8ConsumerD0Ev:0000000000000000 .L0 
     /tmp/ccMeUcYP.s:643    .text._ZN19ConsumerProducerCPP8ConsumerD0Ev:0000000000000000 .L0 
     /tmp/ccMeUcYP.s:644    .text._ZN19ConsumerProducerCPP8ConsumerD0Ev:0000000000000004 .L0 
     /tmp/ccMeUcYP.s:648    .text._ZN19ConsumerProducerCPP8ConsumerD0Ev:0000000000000010 .L0 
     /tmp/ccMeUcYP.s:649    .text._ZN19ConsumerProducerCPP8ConsumerD0Ev:0000000000000010 .L0 
     /tmp/ccMeUcYP.s:650    .text._ZN19ConsumerProducerCPP8ConsumerD0Ev:0000000000000010 .L0 
     /tmp/ccMeUcYP.s:652    .text._ZN19ConsumerProducerCPP8ConsumerD0Ev:0000000000000014 .L0 
     /tmp/ccMeUcYP.s:658    .text._ZN19ConsumerProducerCPP8ConsumerD0Ev:0000000000000018 .L0 
     /tmp/ccMeUcYP.s:668    .text._ZN19ConsumerProducerCPP8ConsumerD0Ev:000000000000003c .L0 
     /tmp/ccMeUcYP.s:670    .text._ZN19ConsumerProducerCPP8ConsumerD0Ev:0000000000000040 .L0 
     /tmp/ccMeUcYP.s:671    .text._ZN19ConsumerProducerCPP8ConsumerD0Ev:0000000000000040 .L0 
     /tmp/ccMeUcYP.s:673    .text._ZN19ConsumerProducerCPP8ConsumerD0Ev:0000000000000044 .L0 
     /tmp/ccMeUcYP.s:676    .text._ZN19ConsumerProducerCPP8ConsumerD0Ev:0000000000000048 .L0 
     /tmp/ccMeUcYP.s:678    .text._ZN19ConsumerProducerCPP8ConsumerD0Ev:000000000000004c .L0 
     /tmp/ccMeUcYP.s:685    .text._ZN19ConsumerProducerCPP16ProducerKeyboradD2Ev:0000000000000000 _ZN19ConsumerProducerCPP16ProducerKeyboradD2Ev
     /tmp/ccMeUcYP.s:688    .text._ZN19ConsumerProducerCPP16ProducerKeyboradD2Ev:0000000000000000 .L0 
     /tmp/ccMeUcYP.s:690    .text._ZN19ConsumerProducerCPP16ProducerKeyboradD2Ev:0000000000000000 .L0 
     /tmp/ccMeUcYP.s:691    .text._ZN19ConsumerProducerCPP16ProducerKeyboradD2Ev:0000000000000004 .L0 
     /tmp/ccMeUcYP.s:694    .text._ZN19ConsumerProducerCPP16ProducerKeyboradD2Ev:000000000000000c .L0 
     /tmp/ccMeUcYP.s:695    .text._ZN19ConsumerProducerCPP16ProducerKeyboradD2Ev:000000000000000c .L0 
     /tmp/ccMeUcYP.s:697    .text._ZN19ConsumerProducerCPP16ProducerKeyboradD2Ev:0000000000000010 .L0 
     /tmp/ccMeUcYP.s:5933   .data.rel.ro.local._ZTVN19ConsumerProducerCPP16ProducerKeyboradE:0000000000000000 _ZTVN19ConsumerProducerCPP16ProducerKeyboradE
     /tmp/ccMeUcYP.s:700    .text._ZN19ConsumerProducerCPP16ProducerKeyboradD2Ev:0000000000000010 .L0 
     /tmp/ccMeUcYP.s:706    .text._ZN19ConsumerProducerCPP16ProducerKeyboradD2Ev:0000000000000028 .L0 
     /tmp/ccMeUcYP.s:708    .text._ZN19ConsumerProducerCPP16ProducerKeyboradD2Ev:000000000000002c .L0 
     /tmp/ccMeUcYP.s:709    .text._ZN19ConsumerProducerCPP16ProducerKeyboradD2Ev:000000000000002c .L0 
     /tmp/ccMeUcYP.s:711    .text._ZN19ConsumerProducerCPP16ProducerKeyboradD2Ev:0000000000000030 .L0 
     /tmp/ccMeUcYP.s:713    .text._ZN19ConsumerProducerCPP16ProducerKeyboradD2Ev:0000000000000034 .L0 
     /tmp/ccMeUcYP.s:685    .text._ZN19ConsumerProducerCPP16ProducerKeyboradD2Ev:0000000000000000 _ZN19ConsumerProducerCPP16ProducerKeyboradD1Ev
     /tmp/ccMeUcYP.s:722    .text._ZN19ConsumerProducerCPP16ProducerKeyboradD0Ev:0000000000000000 _ZN19ConsumerProducerCPP16ProducerKeyboradD0Ev
     /tmp/ccMeUcYP.s:725    .text._ZN19ConsumerProducerCPP16ProducerKeyboradD0Ev:0000000000000000 .L0 
     /tmp/ccMeUcYP.s:727    .text._ZN19ConsumerProducerCPP16ProducerKeyboradD0Ev:0000000000000000 .L0 
     /tmp/ccMeUcYP.s:728    .text._ZN19ConsumerProducerCPP16ProducerKeyboradD0Ev:0000000000000004 .L0 
     /tmp/ccMeUcYP.s:732    .text._ZN19ConsumerProducerCPP16ProducerKeyboradD0Ev:0000000000000010 .L0 
     /tmp/ccMeUcYP.s:733    .text._ZN19ConsumerProducerCPP16ProducerKeyboradD0Ev:0000000000000010 .L0 
     /tmp/ccMeUcYP.s:734    .text._ZN19ConsumerProducerCPP16ProducerKeyboradD0Ev:0000000000000010 .L0 
     /tmp/ccMeUcYP.s:736    .text._ZN19ConsumerProducerCPP16ProducerKeyboradD0Ev:0000000000000014 .L0 
     /tmp/ccMeUcYP.s:742    .text._ZN19ConsumerProducerCPP16ProducerKeyboradD0Ev:0000000000000018 .L0 
     /tmp/ccMeUcYP.s:752    .text._ZN19ConsumerProducerCPP16ProducerKeyboradD0Ev:000000000000003c .L0 
     /tmp/ccMeUcYP.s:754    .text._ZN19ConsumerProducerCPP16ProducerKeyboradD0Ev:0000000000000040 .L0 
     /tmp/ccMeUcYP.s:755    .text._ZN19ConsumerProducerCPP16ProducerKeyboradD0Ev:0000000000000040 .L0 
     /tmp/ccMeUcYP.s:757    .text._ZN19ConsumerProducerCPP16ProducerKeyboradD0Ev:0000000000000044 .L0 
     /tmp/ccMeUcYP.s:760    .text._ZN19ConsumerProducerCPP16ProducerKeyboradD0Ev:0000000000000048 .L0 
     /tmp/ccMeUcYP.s:762    .text._ZN19ConsumerProducerCPP16ProducerKeyboradD0Ev:000000000000004c .L0 
     /tmp/ccMeUcYP.s:769    .text._ZN19ConsumerProducerCPP8ProducerD2Ev:0000000000000000 _ZN19ConsumerProducerCPP8ProducerD2Ev
     /tmp/ccMeUcYP.s:772    .text._ZN19ConsumerProducerCPP8ProducerD2Ev:0000000000000000 .L0 
     /tmp/ccMeUcYP.s:774    .text._ZN19ConsumerProducerCPP8ProducerD2Ev:0000000000000000 .L0 
     /tmp/ccMeUcYP.s:775    .text._ZN19ConsumerProducerCPP8ProducerD2Ev:0000000000000004 .L0 
     /tmp/ccMeUcYP.s:778    .text._ZN19ConsumerProducerCPP8ProducerD2Ev:000000000000000c .L0 
     /tmp/ccMeUcYP.s:779    .text._ZN19ConsumerProducerCPP8ProducerD2Ev:000000000000000c .L0 
     /tmp/ccMeUcYP.s:781    .text._ZN19ConsumerProducerCPP8ProducerD2Ev:0000000000000010 .L0 
     /tmp/ccMeUcYP.s:5944   .data.rel.ro.local._ZTVN19ConsumerProducerCPP8ProducerE:0000000000000000 _ZTVN19ConsumerProducerCPP8ProducerE
     /tmp/ccMeUcYP.s:784    .text._ZN19ConsumerProducerCPP8ProducerD2Ev:0000000000000010 .L0 
     /tmp/ccMeUcYP.s:790    .text._ZN19ConsumerProducerCPP8ProducerD2Ev:0000000000000028 .L0 
     /tmp/ccMeUcYP.s:792    .text._ZN19ConsumerProducerCPP8ProducerD2Ev:000000000000002c .L0 
     /tmp/ccMeUcYP.s:793    .text._ZN19ConsumerProducerCPP8ProducerD2Ev:000000000000002c .L0 
     /tmp/ccMeUcYP.s:795    .text._ZN19ConsumerProducerCPP8ProducerD2Ev:0000000000000030 .L0 
GAS LISTING /tmp/ccMeUcYP.s 			page 152


     /tmp/ccMeUcYP.s:797    .text._ZN19ConsumerProducerCPP8ProducerD2Ev:0000000000000034 .L0 
     /tmp/ccMeUcYP.s:769    .text._ZN19ConsumerProducerCPP8ProducerD2Ev:0000000000000000 _ZN19ConsumerProducerCPP8ProducerD1Ev
     /tmp/ccMeUcYP.s:806    .text._ZN19ConsumerProducerCPP8ProducerD0Ev:0000000000000000 _ZN19ConsumerProducerCPP8ProducerD0Ev
     /tmp/ccMeUcYP.s:809    .text._ZN19ConsumerProducerCPP8ProducerD0Ev:0000000000000000 .L0 
     /tmp/ccMeUcYP.s:811    .text._ZN19ConsumerProducerCPP8ProducerD0Ev:0000000000000000 .L0 
     /tmp/ccMeUcYP.s:812    .text._ZN19ConsumerProducerCPP8ProducerD0Ev:0000000000000004 .L0 
     /tmp/ccMeUcYP.s:816    .text._ZN19ConsumerProducerCPP8ProducerD0Ev:0000000000000010 .L0 
     /tmp/ccMeUcYP.s:817    .text._ZN19ConsumerProducerCPP8ProducerD0Ev:0000000000000010 .L0 
     /tmp/ccMeUcYP.s:818    .text._ZN19ConsumerProducerCPP8ProducerD0Ev:0000000000000010 .L0 
     /tmp/ccMeUcYP.s:820    .text._ZN19ConsumerProducerCPP8ProducerD0Ev:0000000000000014 .L0 
     /tmp/ccMeUcYP.s:826    .text._ZN19ConsumerProducerCPP8ProducerD0Ev:0000000000000018 .L0 
     /tmp/ccMeUcYP.s:836    .text._ZN19ConsumerProducerCPP8ProducerD0Ev:000000000000003c .L0 
     /tmp/ccMeUcYP.s:838    .text._ZN19ConsumerProducerCPP8ProducerD0Ev:0000000000000040 .L0 
     /tmp/ccMeUcYP.s:839    .text._ZN19ConsumerProducerCPP8ProducerD0Ev:0000000000000040 .L0 
     /tmp/ccMeUcYP.s:841    .text._ZN19ConsumerProducerCPP8ProducerD0Ev:0000000000000044 .L0 
     /tmp/ccMeUcYP.s:844    .text._ZN19ConsumerProducerCPP8ProducerD0Ev:0000000000000048 .L0 
     /tmp/ccMeUcYP.s:846    .text._ZN19ConsumerProducerCPP8ProducerD0Ev:000000000000004c .L0 
     /tmp/ccMeUcYP.s:853    .text._ZN3AAAD2Ev:0000000000000000 _ZN3AAAD2Ev
     /tmp/ccMeUcYP.s:857    .text._ZN3AAAD2Ev:0000000000000000 .L0 
     /tmp/ccMeUcYP.s:859    .text._ZN3AAAD2Ev:0000000000000000 .L0 
     /tmp/ccMeUcYP.s:860    .text._ZN3AAAD2Ev:0000000000000004 .L0 
     /tmp/ccMeUcYP.s:863    .text._ZN3AAAD2Ev:000000000000000c .L0 
     /tmp/ccMeUcYP.s:864    .text._ZN3AAAD2Ev:000000000000000c .L0 
     /tmp/ccMeUcYP.s:866    .text._ZN3AAAD2Ev:0000000000000010 .L0 
     /tmp/ccMeUcYP.s:872    .text._ZN3AAAD2Ev:0000000000000010 .L0 
     /tmp/ccMeUcYP.s:880    .text._ZN3AAAD2Ev:0000000000000028 .L0 
     /tmp/ccMeUcYP.s:881    .text._ZN3AAAD2Ev:000000000000002c .L0 
     /tmp/ccMeUcYP.s:883    .text._ZN3AAAD2Ev:0000000000000030 .L0 
     /tmp/ccMeUcYP.s:884    .text._ZN3AAAD2Ev:0000000000000030 .L0 
     /tmp/ccMeUcYP.s:886    .text._ZN3AAAD2Ev:0000000000000034 .L0 
     /tmp/ccMeUcYP.s:888    .text._ZN3AAAD2Ev:0000000000000038 .L0 
     /tmp/ccMeUcYP.s:853    .text._ZN3AAAD2Ev:0000000000000000 _ZN3AAAD1Ev
     /tmp/ccMeUcYP.s:897    .text._ZN3AAAD0Ev:0000000000000000 _ZN3AAAD0Ev
     /tmp/ccMeUcYP.s:900    .text._ZN3AAAD0Ev:0000000000000000 .L0 
     /tmp/ccMeUcYP.s:902    .text._ZN3AAAD0Ev:0000000000000000 .L0 
     /tmp/ccMeUcYP.s:903    .text._ZN3AAAD0Ev:0000000000000004 .L0 
     /tmp/ccMeUcYP.s:907    .text._ZN3AAAD0Ev:0000000000000010 .L0 
     /tmp/ccMeUcYP.s:908    .text._ZN3AAAD0Ev:0000000000000010 .L0 
     /tmp/ccMeUcYP.s:909    .text._ZN3AAAD0Ev:0000000000000010 .L0 
     /tmp/ccMeUcYP.s:911    .text._ZN3AAAD0Ev:0000000000000014 .L0 
     /tmp/ccMeUcYP.s:918    .text._ZN3AAAD0Ev:0000000000000018 .L0 
     /tmp/ccMeUcYP.s:927    .text._ZN3AAAD0Ev:0000000000000030 .L0 
     /tmp/ccMeUcYP.s:931    .text._ZN3AAAD0Ev:0000000000000040 .L0 
     /tmp/ccMeUcYP.s:933    .text._ZN3AAAD0Ev:0000000000000044 .L0 
     /tmp/ccMeUcYP.s:934    .text._ZN3AAAD0Ev:0000000000000044 .L0 
     /tmp/ccMeUcYP.s:936    .text._ZN3AAAD0Ev:0000000000000048 .L0 
     /tmp/ccMeUcYP.s:939    .text._ZN3AAAD0Ev:000000000000004c .L0 
     /tmp/ccMeUcYP.s:941    .text._ZN3AAAD0Ev:0000000000000050 .L0 
     /tmp/ccMeUcYP.s:948    .text._ZN19ConsumerProducerCPP16ProducerKeyborad3runEv:0000000000000000 _ZN19ConsumerProducerCPP16ProducerKeyborad3runEv
     /tmp/ccMeUcYP.s:951    .text._ZN19ConsumerProducerCPP16ProducerKeyborad3runEv:0000000000000000 .L0 
     /tmp/ccMeUcYP.s:953    .text._ZN19ConsumerProducerCPP16ProducerKeyborad3runEv:0000000000000000 .L0 
     /tmp/ccMeUcYP.s:954    .text._ZN19ConsumerProducerCPP16ProducerKeyborad3runEv:0000000000000004 .L0 
     /tmp/ccMeUcYP.s:958    .text._ZN19ConsumerProducerCPP16ProducerKeyborad3runEv:0000000000000010 .L0 
     /tmp/ccMeUcYP.s:959    .text._ZN19ConsumerProducerCPP16ProducerKeyborad3runEv:0000000000000010 .L0 
     /tmp/ccMeUcYP.s:960    .text._ZN19ConsumerProducerCPP16ProducerKeyborad3runEv:0000000000000010 .L0 
     /tmp/ccMeUcYP.s:962    .text._ZN19ConsumerProducerCPP16ProducerKeyborad3runEv:0000000000000014 .L0 
     /tmp/ccMeUcYP.s:965    .text._ZN19ConsumerProducerCPP16ProducerKeyborad3runEv:0000000000000018 .L0 
GAS LISTING /tmp/ccMeUcYP.s 			page 153


     /tmp/ccMeUcYP.s:968    .text._ZN19ConsumerProducerCPP16ProducerKeyborad3runEv:0000000000000018 .L0 
     /tmp/ccMeUcYP.s:969    .text._ZN19ConsumerProducerCPP16ProducerKeyborad3runEv:0000000000000018 .L0 
     /tmp/ccMeUcYP.s:970    .text._ZN19ConsumerProducerCPP16ProducerKeyborad3runEv:0000000000000018 .L0 
     /tmp/ccMeUcYP.s:971    .text._ZN19ConsumerProducerCPP16ProducerKeyborad3runEv:0000000000000018 .L0 
     /tmp/ccMeUcYP.s:974    .text._ZN19ConsumerProducerCPP16ProducerKeyborad3runEv:0000000000000020 .L0 
     /tmp/ccMeUcYP.s:977    .text._ZN19ConsumerProducerCPP16ProducerKeyborad3runEv:0000000000000024 .L0 
     /tmp/ccMeUcYP.s:980    .text._ZN19ConsumerProducerCPP16ProducerKeyborad3runEv:000000000000002c .L0 
     /tmp/ccMeUcYP.s:982    .text._ZN19ConsumerProducerCPP16ProducerKeyborad3runEv:0000000000000030 .L0 
     /tmp/ccMeUcYP.s:986    .text._ZN19ConsumerProducerCPP16ProducerKeyborad3runEv:000000000000003c .L0 
     /tmp/ccMeUcYP.s:987    .text._ZN19ConsumerProducerCPP16ProducerKeyborad3runEv:000000000000003c .L0 
     /tmp/ccMeUcYP.s:991    .text._ZN19ConsumerProducerCPP16ProducerKeyborad3runEv:0000000000000040 .L0 
     /tmp/ccMeUcYP.s:992    .text._ZN19ConsumerProducerCPP16ProducerKeyborad3runEv:0000000000000040 .L0 
     /tmp/ccMeUcYP.s:995    .text._ZN19ConsumerProducerCPP16ProducerKeyborad3runEv:000000000000004c .L0 
     /tmp/ccMeUcYP.s:997    .text._ZN19ConsumerProducerCPP16ProducerKeyborad3runEv:0000000000000050 .L0 
     /tmp/ccMeUcYP.s:1004   .text._ZN19ConsumerProducerCPP16ProducerKeyborad3runEv:0000000000000060 .L0 
     /tmp/ccMeUcYP.s:1006   .text._ZN19ConsumerProducerCPP16ProducerKeyborad3runEv:0000000000000064 .L0 
     /tmp/ccMeUcYP.s:1010   .text._ZN19ConsumerProducerCPP16ProducerKeyborad3runEv:0000000000000070 .L0 
     /tmp/ccMeUcYP.s:1011   .text._ZN19ConsumerProducerCPP16ProducerKeyborad3runEv:0000000000000074 .L0 
     /tmp/ccMeUcYP.s:1013   .text._ZN19ConsumerProducerCPP16ProducerKeyborad3runEv:0000000000000078 .L0 
     /tmp/ccMeUcYP.s:1014   .text._ZN19ConsumerProducerCPP16ProducerKeyborad3runEv:0000000000000078 .L0 
     /tmp/ccMeUcYP.s:1016   .text._ZN19ConsumerProducerCPP16ProducerKeyborad3runEv:000000000000007c .L0 
     /tmp/ccMeUcYP.s:1019   .text._ZN19ConsumerProducerCPP16ProducerKeyborad3runEv:0000000000000080 .L0 
     /tmp/ccMeUcYP.s:1021   .text._ZN19ConsumerProducerCPP16ProducerKeyborad3runEv:0000000000000084 .L0 
     /tmp/ccMeUcYP.s:1028   .text._ZN19ConsumerProducerCPP8Consumer3runEv:0000000000000000 _ZN19ConsumerProducerCPP8Consumer3runEv
     /tmp/ccMeUcYP.s:1031   .text._ZN19ConsumerProducerCPP8Consumer3runEv:0000000000000000 .L0 
     /tmp/ccMeUcYP.s:1033   .text._ZN19ConsumerProducerCPP8Consumer3runEv:0000000000000000 .L0 
     /tmp/ccMeUcYP.s:1034   .text._ZN19ConsumerProducerCPP8Consumer3runEv:0000000000000004 .L0 
     /tmp/ccMeUcYP.s:1040   .text._ZN19ConsumerProducerCPP8Consumer3runEv:0000000000000018 .L0 
     /tmp/ccMeUcYP.s:1041   .text._ZN19ConsumerProducerCPP8Consumer3runEv:0000000000000018 .L0 
     /tmp/ccMeUcYP.s:1042   .text._ZN19ConsumerProducerCPP8Consumer3runEv:0000000000000018 .L0 
     /tmp/ccMeUcYP.s:1043   .text._ZN19ConsumerProducerCPP8Consumer3runEv:0000000000000018 .L0 
     /tmp/ccMeUcYP.s:1044   .text._ZN19ConsumerProducerCPP8Consumer3runEv:0000000000000018 .L0 
     /tmp/ccMeUcYP.s:1046   .text._ZN19ConsumerProducerCPP8Consumer3runEv:000000000000001c .L0 
     /tmp/ccMeUcYP.s:1050   .text._ZN19ConsumerProducerCPP8Consumer3runEv:0000000000000020 .L0 
     /tmp/ccMeUcYP.s:1051   .text._ZN19ConsumerProducerCPP8Consumer3runEv:0000000000000020 .L0 
     /tmp/ccMeUcYP.s:1057   .text._ZN19ConsumerProducerCPP8Consumer3runEv:0000000000000028 .L0 
     /tmp/ccMeUcYP.s:1058   .text._ZN19ConsumerProducerCPP8Consumer3runEv:0000000000000028 .L0 
     /tmp/ccMeUcYP.s:1064   .text._ZN19ConsumerProducerCPP8Consumer3runEv:0000000000000034 .L0 
     /tmp/ccMeUcYP.s:1065   .text._ZN19ConsumerProducerCPP8Consumer3runEv:0000000000000034 .L0 
     /tmp/ccMeUcYP.s:1069   .text._ZN19ConsumerProducerCPP8Consumer3runEv:0000000000000040 .L0 
     /tmp/ccMeUcYP.s:1070   .text._ZN19ConsumerProducerCPP8Consumer3runEv:0000000000000040 .L0 
     /tmp/ccMeUcYP.s:1072   .text._ZN19ConsumerProducerCPP8Consumer3runEv:0000000000000044 .L0 
     /tmp/ccMeUcYP.s:1076   .text._ZN19ConsumerProducerCPP8Consumer3runEv:0000000000000050 .L0 
     /tmp/ccMeUcYP.s:1077   .text._ZN19ConsumerProducerCPP8Consumer3runEv:0000000000000050 .L0 
     /tmp/ccMeUcYP.s:1081   .text._ZN19ConsumerProducerCPP8Consumer3runEv:0000000000000058 .L0 
     /tmp/ccMeUcYP.s:1082   .text._ZN19ConsumerProducerCPP8Consumer3runEv:0000000000000058 .L0 
     /tmp/ccMeUcYP.s:1087   .text._ZN19ConsumerProducerCPP8Consumer3runEv:0000000000000064 .L0 
     /tmp/ccMeUcYP.s:1088   .text._ZN19ConsumerProducerCPP8Consumer3runEv:0000000000000064 .L0 
     /tmp/ccMeUcYP.s:1092   .text._ZN19ConsumerProducerCPP8Consumer3runEv:000000000000006c .L0 
     /tmp/ccMeUcYP.s:1098   .text._ZN19ConsumerProducerCPP8Consumer3runEv:0000000000000074 .L0 
     /tmp/ccMeUcYP.s:1099   .text._ZN19ConsumerProducerCPP8Consumer3runEv:0000000000000074 .L0 
     /tmp/ccMeUcYP.s:1101   .text._ZN19ConsumerProducerCPP8Consumer3runEv:0000000000000078 .L0 
     /tmp/ccMeUcYP.s:1105   .text._ZN19ConsumerProducerCPP8Consumer3runEv:0000000000000084 .L0 
     /tmp/ccMeUcYP.s:1106   .text._ZN19ConsumerProducerCPP8Consumer3runEv:0000000000000084 .L0 
     /tmp/ccMeUcYP.s:1113   .text._ZN19ConsumerProducerCPP8Consumer3runEv:0000000000000090 .L0 
     /tmp/ccMeUcYP.s:1114   .text._ZN19ConsumerProducerCPP8Consumer3runEv:0000000000000090 .L0 
     /tmp/ccMeUcYP.s:1115   .text._ZN19ConsumerProducerCPP8Consumer3runEv:0000000000000090 .L0 
GAS LISTING /tmp/ccMeUcYP.s 			page 154


     /tmp/ccMeUcYP.s:1117   .text._ZN19ConsumerProducerCPP8Consumer3runEv:0000000000000094 .L0 
     /tmp/ccMeUcYP.s:1121   .text._ZN19ConsumerProducerCPP8Consumer3runEv:00000000000000a0 .L0 
     /tmp/ccMeUcYP.s:1123   .text._ZN19ConsumerProducerCPP8Consumer3runEv:00000000000000a4 .L0 
     /tmp/ccMeUcYP.s:1125   .text._ZN19ConsumerProducerCPP8Consumer3runEv:00000000000000a8 .L0 
     /tmp/ccMeUcYP.s:1129   .text._ZN19ConsumerProducerCPP8Consumer3runEv:00000000000000b4 .L0 
     /tmp/ccMeUcYP.s:1130   .text._ZN19ConsumerProducerCPP8Consumer3runEv:00000000000000b8 .L0 
     /tmp/ccMeUcYP.s:1132   .text._ZN19ConsumerProducerCPP8Consumer3runEv:00000000000000bc .L0 
     /tmp/ccMeUcYP.s:1133   .text._ZN19ConsumerProducerCPP8Consumer3runEv:00000000000000bc .L0 
     /tmp/ccMeUcYP.s:1135   .text._ZN19ConsumerProducerCPP8Consumer3runEv:00000000000000c0 .L0 
     /tmp/ccMeUcYP.s:1137   .text._ZN19ConsumerProducerCPP8Consumer3runEv:00000000000000c4 .L0 
     /tmp/ccMeUcYP.s:1140   .text._ZN19ConsumerProducerCPP8Consumer3runEv:00000000000000c8 .L0 
     /tmp/ccMeUcYP.s:1143   .text._ZN19ConsumerProducerCPP8Consumer3runEv:00000000000000cc .L0 
     /tmp/ccMeUcYP.s:1145   .text._ZN19ConsumerProducerCPP8Consumer3runEv:00000000000000d0 .L0 
     /tmp/ccMeUcYP.s:1159   .text:0000000000000000 _Z9sleepyRunPv
     /tmp/ccMeUcYP.s:1163   .text:0000000000000000 .L0 
     /tmp/ccMeUcYP.s:1165   .text:0000000000000000 .L0 
     /tmp/ccMeUcYP.s:1166   .text:0000000000000004 .L0 
     /tmp/ccMeUcYP.s:1171   .text:0000000000000014 .L0 
     /tmp/ccMeUcYP.s:1172   .text:0000000000000014 .L0 
     /tmp/ccMeUcYP.s:1173   .text:0000000000000014 .L0 
     /tmp/ccMeUcYP.s:1174   .text:0000000000000014 .L0 
     /tmp/ccMeUcYP.s:1176   .text:0000000000000018 .L0 
     /tmp/ccMeUcYP.s:1178   .text:0000000000000018 .L0 
     /tmp/ccMeUcYP.s:1179   .text:0000000000000018 .L0 
     /tmp/ccMeUcYP.s:1182   .text:000000000000001c .L0 
     /tmp/ccMeUcYP.s:1183   .text:000000000000001c .L0 
     /tmp/ccMeUcYP.s:1187   .text:0000000000000020 .L0 
     /tmp/ccMeUcYP.s:1188   .text:0000000000000020 .L0 
     /tmp/ccMeUcYP.s:1192   .text:0000000000000028 .L0 
     /tmp/ccMeUcYP.s:1193   .text:0000000000000028 .L0 
     /tmp/ccMeUcYP.s:1197   .text:0000000000000038 .L0 
     /tmp/ccMeUcYP.s:1198   .text:0000000000000038 .L0 
     /tmp/ccMeUcYP.s:1204   .text:000000000000004c .L0 
     /tmp/ccMeUcYP.s:1205   .text:000000000000004c .L0 
     /tmp/ccMeUcYP.s:1209   .text:000000000000005c .L0 
     /tmp/ccMeUcYP.s:1210   .text:000000000000005c .L0 
     /tmp/ccMeUcYP.s:1214   .text:0000000000000068 .L0 
     /tmp/ccMeUcYP.s:1217   .text:000000000000006c .L0 
     /tmp/ccMeUcYP.s:1218   .text:000000000000006c .L0 
     /tmp/ccMeUcYP.s:1222   .text:0000000000000074 .L0 
     /tmp/ccMeUcYP.s:1224   .text:0000000000000078 .L0 
     /tmp/ccMeUcYP.s:1229   .text:000000000000008c .L0 
     /tmp/ccMeUcYP.s:1230   .text:0000000000000090 .L0 
     /tmp/ccMeUcYP.s:1232   .text:0000000000000094 .L0 
     /tmp/ccMeUcYP.s:1233   .text:0000000000000094 .L0 
     /tmp/ccMeUcYP.s:1235   .text:0000000000000098 .L0 
     /tmp/ccMeUcYP.s:1237   .text:000000000000009c .L0 
     /tmp/ccMeUcYP.s:1239   .text:00000000000000a0 .L0 
     /tmp/ccMeUcYP.s:1241   .text:00000000000000a4 .L0 
     /tmp/ccMeUcYP.s:1247   .text:00000000000000a4 _Z6bafer1Pv
     /tmp/ccMeUcYP.s:1250   .text:00000000000000a4 .L0 
     /tmp/ccMeUcYP.s:1252   .text:00000000000000a4 .L0 
     /tmp/ccMeUcYP.s:1253   .text:00000000000000a8 .L0 
     /tmp/ccMeUcYP.s:1257   .text:00000000000000b4 .L0 
     /tmp/ccMeUcYP.s:1258   .text:00000000000000b4 .L0 
     /tmp/ccMeUcYP.s:1259   .text:00000000000000b4 .L0 
     /tmp/ccMeUcYP.s:1261   .text:00000000000000b8 .L0 
GAS LISTING /tmp/ccMeUcYP.s 			page 155


     /tmp/ccMeUcYP.s:1265   .text:00000000000000b8 .L0 
     /tmp/ccMeUcYP.s:1266   .text:00000000000000b8 .L0 
     /tmp/ccMeUcYP.s:1271   .text:00000000000000c0 .L0 
     /tmp/ccMeUcYP.s:1272   .text:00000000000000c0 .L0 
     /tmp/ccMeUcYP.s:1277   .text:00000000000000d0 .L0 
     /tmp/ccMeUcYP.s:1278   .text:00000000000000d0 .L0 
     /tmp/ccMeUcYP.s:1282   .text:00000000000000d8 .L0 
     /tmp/ccMeUcYP.s:1284   .text:00000000000000dc .L0 
     /tmp/ccMeUcYP.s:1289   .text:00000000000000e8 .L0 
     /tmp/ccMeUcYP.s:1290   .text:00000000000000e8 .L0 
     /tmp/ccMeUcYP.s:1294   .text:00000000000000f0 .L0 
     /tmp/ccMeUcYP.s:1295   .text:00000000000000f4 .L0 
     /tmp/ccMeUcYP.s:1297   .text:00000000000000f8 .L0 
     /tmp/ccMeUcYP.s:1298   .text:00000000000000f8 .L0 
     /tmp/ccMeUcYP.s:1300   .text:00000000000000fc .L0 
     /tmp/ccMeUcYP.s:1303   .text:0000000000000100 .L0 
     /tmp/ccMeUcYP.s:1305   .text:0000000000000104 .L0 
     /tmp/ccMeUcYP.s:1312   .text._ZN19ConsumerProducerCPP8Producer3runEv:0000000000000000 _ZN19ConsumerProducerCPP8Producer3runEv
     /tmp/ccMeUcYP.s:1315   .text._ZN19ConsumerProducerCPP8Producer3runEv:0000000000000000 .L0 
     /tmp/ccMeUcYP.s:1317   .text._ZN19ConsumerProducerCPP8Producer3runEv:0000000000000000 .L0 
     /tmp/ccMeUcYP.s:1318   .text._ZN19ConsumerProducerCPP8Producer3runEv:0000000000000004 .L0 
     /tmp/ccMeUcYP.s:1323   .text._ZN19ConsumerProducerCPP8Producer3runEv:0000000000000014 .L0 
     /tmp/ccMeUcYP.s:1324   .text._ZN19ConsumerProducerCPP8Producer3runEv:0000000000000014 .L0 
     /tmp/ccMeUcYP.s:1325   .text._ZN19ConsumerProducerCPP8Producer3runEv:0000000000000014 .L0 
     /tmp/ccMeUcYP.s:1326   .text._ZN19ConsumerProducerCPP8Producer3runEv:0000000000000014 .L0 
     /tmp/ccMeUcYP.s:1328   .text._ZN19ConsumerProducerCPP8Producer3runEv:0000000000000018 .L0 
     /tmp/ccMeUcYP.s:1332   .text._ZN19ConsumerProducerCPP8Producer3runEv:000000000000001c .L0 
     /tmp/ccMeUcYP.s:1333   .text._ZN19ConsumerProducerCPP8Producer3runEv:000000000000001c .L0 
     /tmp/ccMeUcYP.s:1337   .text._ZN19ConsumerProducerCPP8Producer3runEv:0000000000000020 .L0 
     /tmp/ccMeUcYP.s:1338   .text._ZN19ConsumerProducerCPP8Producer3runEv:0000000000000020 .L0 
     /tmp/ccMeUcYP.s:1341   .text._ZN19ConsumerProducerCPP8Producer3runEv:000000000000002c .L0 
     /tmp/ccMeUcYP.s:1343   .text._ZN19ConsumerProducerCPP8Producer3runEv:0000000000000030 .L0 
     /tmp/ccMeUcYP.s:1345   .text._ZN19ConsumerProducerCPP8Producer3runEv:0000000000000034 .L0 
     /tmp/ccMeUcYP.s:1350   .text._ZN19ConsumerProducerCPP8Producer3runEv:0000000000000044 .L0 
     /tmp/ccMeUcYP.s:1351   .text._ZN19ConsumerProducerCPP8Producer3runEv:0000000000000044 .L0 
     /tmp/ccMeUcYP.s:1355   .text._ZN19ConsumerProducerCPP8Producer3runEv:000000000000004c .L0 
     /tmp/ccMeUcYP.s:1356   .text._ZN19ConsumerProducerCPP8Producer3runEv:000000000000004c .L0 
     /tmp/ccMeUcYP.s:1358   .text._ZN19ConsumerProducerCPP8Producer3runEv:0000000000000050 .L0 
     /tmp/ccMeUcYP.s:1360   .text._ZN19ConsumerProducerCPP8Producer3runEv:0000000000000054 .L0 
     /tmp/ccMeUcYP.s:1362   .text._ZN19ConsumerProducerCPP8Producer3runEv:0000000000000058 .L0 
     /tmp/ccMeUcYP.s:1367   .text._ZN19ConsumerProducerCPP8Producer3runEv:0000000000000068 .L0 
     /tmp/ccMeUcYP.s:1370   .text._ZN19ConsumerProducerCPP8Producer3runEv:000000000000006c .L0 
     /tmp/ccMeUcYP.s:1372   .text._ZN19ConsumerProducerCPP8Producer3runEv:0000000000000070 .L0 
     /tmp/ccMeUcYP.s:1376   .text._ZN19ConsumerProducerCPP8Producer3runEv:000000000000007c .L0 
     /tmp/ccMeUcYP.s:1377   .text._ZN19ConsumerProducerCPP8Producer3runEv:0000000000000080 .L0 
     /tmp/ccMeUcYP.s:1379   .text._ZN19ConsumerProducerCPP8Producer3runEv:0000000000000084 .L0 
     /tmp/ccMeUcYP.s:1380   .text._ZN19ConsumerProducerCPP8Producer3runEv:0000000000000084 .L0 
     /tmp/ccMeUcYP.s:1382   .text._ZN19ConsumerProducerCPP8Producer3runEv:0000000000000088 .L0 
     /tmp/ccMeUcYP.s:1385   .text._ZN19ConsumerProducerCPP8Producer3runEv:000000000000008c .L0 
     /tmp/ccMeUcYP.s:1388   .text._ZN19ConsumerProducerCPP8Producer3runEv:0000000000000090 .L0 
     /tmp/ccMeUcYP.s:1390   .text._ZN19ConsumerProducerCPP8Producer3runEv:0000000000000094 .L0 
     /tmp/ccMeUcYP.s:1397   .text:0000000000000104 _Z6bafer2Pv
     /tmp/ccMeUcYP.s:1400   .text:0000000000000104 .L0 
     /tmp/ccMeUcYP.s:1402   .text:0000000000000104 .L0 
     /tmp/ccMeUcYP.s:1403   .text:0000000000000108 .L0 
     /tmp/ccMeUcYP.s:1407   .text:0000000000000114 .L0 
     /tmp/ccMeUcYP.s:1408   .text:0000000000000114 .L0 
GAS LISTING /tmp/ccMeUcYP.s 			page 156


     /tmp/ccMeUcYP.s:1409   .text:0000000000000114 .L0 
     /tmp/ccMeUcYP.s:1411   .text:0000000000000118 .L0 
     /tmp/ccMeUcYP.s:1415   .text:0000000000000118 .L0 
     /tmp/ccMeUcYP.s:1416   .text:0000000000000118 .L0 
     /tmp/ccMeUcYP.s:1422   .text:0000000000000120 .L0 
     /tmp/ccMeUcYP.s:1423   .text:0000000000000120 .L0 
     /tmp/ccMeUcYP.s:1426   .text:0000000000000128 .L0 
     /tmp/ccMeUcYP.s:1427   .text:0000000000000128 .L0 
     /tmp/ccMeUcYP.s:1428   .text:0000000000000128 .L0 
     /tmp/ccMeUcYP.s:1432   .text:0000000000000134 .L0 
     /tmp/ccMeUcYP.s:1433   .text:0000000000000134 .L0 
     /tmp/ccMeUcYP.s:1438   .text:0000000000000140 .L0 
     /tmp/ccMeUcYP.s:1442   .text:0000000000000144 .L0 
     /tmp/ccMeUcYP.s:1446   .text:000000000000014c .L0 
     /tmp/ccMeUcYP.s:1447   .text:0000000000000150 .L0 
     /tmp/ccMeUcYP.s:1449   .text:0000000000000154 .L0 
     /tmp/ccMeUcYP.s:1450   .text:0000000000000154 .L0 
     /tmp/ccMeUcYP.s:1452   .text:0000000000000158 .L0 
     /tmp/ccMeUcYP.s:1455   .text:000000000000015c .L0 
     /tmp/ccMeUcYP.s:1457   .text:0000000000000160 .L0 
     /tmp/ccMeUcYP.s:1480   .text:0000000000000160 _Z2f1Pv
     /tmp/ccMeUcYP.s:1483   .text:0000000000000160 .L0 
     /tmp/ccMeUcYP.s:1485   .text:0000000000000160 .L0 
     /tmp/ccMeUcYP.s:1486   .text:0000000000000164 .L0 
     /tmp/ccMeUcYP.s:1489   .text:000000000000016c .L0 
     /tmp/ccMeUcYP.s:1490   .text:000000000000016c .L0 
     /tmp/ccMeUcYP.s:1492   .text:0000000000000170 .L0 
     /tmp/ccMeUcYP.s:1494   .text:0000000000000170 .L0 
     /tmp/ccMeUcYP.s:1495   .text:0000000000000170 .L0 
     /tmp/ccMeUcYP.s:1500   .text:0000000000000180 .L0 
     /tmp/ccMeUcYP.s:1501   .text:0000000000000180 .L0 
     /tmp/ccMeUcYP.s:1504   .text:0000000000000188 .L0 
     /tmp/ccMeUcYP.s:1505   .text:0000000000000188 .L0 
     /tmp/ccMeUcYP.s:1509   .text:0000000000000198 .L0 
     /tmp/ccMeUcYP.s:1510   .text:0000000000000198 .L0 
     /tmp/ccMeUcYP.s:1514   .text:00000000000001a8 .L0 
     /tmp/ccMeUcYP.s:1515   .text:00000000000001a8 .L0 
     /tmp/ccMeUcYP.s:1518   .text:00000000000001b0 .L0 
     /tmp/ccMeUcYP.s:1519   .text:00000000000001b0 .L0 
     /tmp/ccMeUcYP.s:1523   .text:00000000000001c0 .L0 
     /tmp/ccMeUcYP.s:1524   .text:00000000000001c0 .L0 
     /tmp/ccMeUcYP.s:1527   .text:00000000000001c8 .L0 
     /tmp/ccMeUcYP.s:1528   .text:00000000000001c8 .L0 
     /tmp/ccMeUcYP.s:1532   .text:00000000000001d8 .L0 
     /tmp/ccMeUcYP.s:1533   .text:00000000000001d8 .L0 
     /tmp/ccMeUcYP.s:1536   .text:00000000000001e0 .L0 
     /tmp/ccMeUcYP.s:1537   .text:00000000000001e0 .L0 
     /tmp/ccMeUcYP.s:1541   .text:00000000000001f0 .L0 
     /tmp/ccMeUcYP.s:1542   .text:00000000000001f4 .L0 
     /tmp/ccMeUcYP.s:1544   .text:00000000000001f8 .L0 
     /tmp/ccMeUcYP.s:1545   .text:00000000000001f8 .L0 
     /tmp/ccMeUcYP.s:1547   .text:00000000000001fc .L0 
     /tmp/ccMeUcYP.s:1549   .text:0000000000000200 .L0 
     /tmp/ccMeUcYP.s:1572   .text:0000000000000200 _Z2f3Pv
     /tmp/ccMeUcYP.s:1575   .text:0000000000000200 .L0 
     /tmp/ccMeUcYP.s:1577   .text:0000000000000200 .L0 
     /tmp/ccMeUcYP.s:1578   .text:0000000000000204 .L0 
GAS LISTING /tmp/ccMeUcYP.s 			page 157


     /tmp/ccMeUcYP.s:1581   .text:000000000000020c .L0 
     /tmp/ccMeUcYP.s:1582   .text:000000000000020c .L0 
     /tmp/ccMeUcYP.s:1584   .text:0000000000000210 .L0 
     /tmp/ccMeUcYP.s:1586   .text:0000000000000210 .L0 
     /tmp/ccMeUcYP.s:1587   .text:0000000000000210 .L0 
     /tmp/ccMeUcYP.s:1592   .text:0000000000000220 .L0 
     /tmp/ccMeUcYP.s:1593   .text:0000000000000220 .L0 
     /tmp/ccMeUcYP.s:1596   .text:0000000000000228 .L0 
     /tmp/ccMeUcYP.s:1597   .text:0000000000000228 .L0 
     /tmp/ccMeUcYP.s:1603   .text:0000000000000240 .L0 
     /tmp/ccMeUcYP.s:1604   .text:0000000000000240 .L0 
     /tmp/ccMeUcYP.s:1608   .text:0000000000000250 .L0 
     /tmp/ccMeUcYP.s:1609   .text:0000000000000250 .L0 
     /tmp/ccMeUcYP.s:1612   .text:0000000000000258 .L0 
     /tmp/ccMeUcYP.s:1613   .text:0000000000000258 .L0 
     /tmp/ccMeUcYP.s:1617   .text:0000000000000268 .L0 
     /tmp/ccMeUcYP.s:1618   .text:0000000000000268 .L0 
     /tmp/ccMeUcYP.s:1621   .text:0000000000000270 .L0 
     /tmp/ccMeUcYP.s:1622   .text:0000000000000270 .L0 
     /tmp/ccMeUcYP.s:1626   .text:0000000000000280 .L0 
     /tmp/ccMeUcYP.s:1627   .text:0000000000000280 .L0 
     /tmp/ccMeUcYP.s:1630   .text:0000000000000288 .L0 
     /tmp/ccMeUcYP.s:1631   .text:0000000000000288 .L0 
     /tmp/ccMeUcYP.s:1635   .text:0000000000000298 .L0 
     /tmp/ccMeUcYP.s:1636   .text:000000000000029c .L0 
     /tmp/ccMeUcYP.s:1638   .text:00000000000002a0 .L0 
     /tmp/ccMeUcYP.s:1639   .text:00000000000002a0 .L0 
     /tmp/ccMeUcYP.s:1641   .text:00000000000002a4 .L0 
     /tmp/ccMeUcYP.s:1643   .text:00000000000002a8 .L0 
     /tmp/ccMeUcYP.s:1666   .text:00000000000002a8 _Z2f2Pv
     /tmp/ccMeUcYP.s:1669   .text:00000000000002a8 .L0 
     /tmp/ccMeUcYP.s:1671   .text:00000000000002a8 .L0 
     /tmp/ccMeUcYP.s:1672   .text:00000000000002ac .L0 
     /tmp/ccMeUcYP.s:1675   .text:00000000000002b4 .L0 
     /tmp/ccMeUcYP.s:1676   .text:00000000000002b4 .L0 
     /tmp/ccMeUcYP.s:1678   .text:00000000000002b8 .L0 
     /tmp/ccMeUcYP.s:1680   .text:00000000000002b8 .L0 
     /tmp/ccMeUcYP.s:1681   .text:00000000000002b8 .L0 
     /tmp/ccMeUcYP.s:1686   .text:00000000000002c8 .L0 
     /tmp/ccMeUcYP.s:1687   .text:00000000000002c8 .L0 
     /tmp/ccMeUcYP.s:1690   .text:00000000000002d0 .L0 
     /tmp/ccMeUcYP.s:1691   .text:00000000000002d0 .L0 
     /tmp/ccMeUcYP.s:1695   .text:00000000000002e0 .L0 
     /tmp/ccMeUcYP.s:1696   .text:00000000000002e0 .L0 
     /tmp/ccMeUcYP.s:1699   .text:00000000000002e8 .L0 
     /tmp/ccMeUcYP.s:1700   .text:00000000000002e8 .L0 
     /tmp/ccMeUcYP.s:1704   .text:00000000000002f8 .L0 
     /tmp/ccMeUcYP.s:1705   .text:00000000000002f8 .L0 
     /tmp/ccMeUcYP.s:1708   .text:0000000000000300 .L0 
     /tmp/ccMeUcYP.s:1709   .text:0000000000000300 .L0 
     /tmp/ccMeUcYP.s:1713   .text:0000000000000310 .L0 
     /tmp/ccMeUcYP.s:1714   .text:0000000000000310 .L0 
     /tmp/ccMeUcYP.s:1717   .text:0000000000000318 .L0 
     /tmp/ccMeUcYP.s:1718   .text:0000000000000318 .L0 
     /tmp/ccMeUcYP.s:1722   .text:0000000000000328 .L0 
     /tmp/ccMeUcYP.s:1723   .text:0000000000000328 .L0 
     /tmp/ccMeUcYP.s:1729   .text:0000000000000340 .L0 
GAS LISTING /tmp/ccMeUcYP.s 			page 158


     /tmp/ccMeUcYP.s:1730   .text:0000000000000344 .L0 
     /tmp/ccMeUcYP.s:1732   .text:0000000000000348 .L0 
     /tmp/ccMeUcYP.s:1733   .text:0000000000000348 .L0 
     /tmp/ccMeUcYP.s:1735   .text:000000000000034c .L0 
     /tmp/ccMeUcYP.s:1737   .text:0000000000000350 .L0 
     /tmp/ccMeUcYP.s:1743   .text:0000000000000350 _Z9fibonaccim
     /tmp/ccMeUcYP.s:1746   .text:0000000000000350 .L0 
     /tmp/ccMeUcYP.s:1748   .text:0000000000000350 .L0 
     /tmp/ccMeUcYP.s:1749   .text:0000000000000354 .L0 
     /tmp/ccMeUcYP.s:1754   .text:0000000000000364 .L0 
     /tmp/ccMeUcYP.s:1755   .text:0000000000000364 .L0 
     /tmp/ccMeUcYP.s:1756   .text:0000000000000364 .L0 
     /tmp/ccMeUcYP.s:1757   .text:0000000000000364 .L0 
     /tmp/ccMeUcYP.s:1759   .text:0000000000000368 .L0 
     /tmp/ccMeUcYP.s:1762   .text:000000000000036c .L0 
     /tmp/ccMeUcYP.s:1765   .text:0000000000000374 .L0 
     /tmp/ccMeUcYP.s:1766   .text:0000000000000374 .L0 
     /tmp/ccMeUcYP.s:1769   .text:000000000000037c .L0 
     /tmp/ccMeUcYP.s:1773   .text:0000000000000380 .L0 
     /tmp/ccMeUcYP.s:1774   .text:0000000000000380 .L0 
     /tmp/ccMeUcYP.s:1779   .text:0000000000000390 .L0 
     /tmp/ccMeUcYP.s:1783   .text:000000000000039c .L0 
     /tmp/ccMeUcYP.s:1786   .text:00000000000003a0 .L0 
     /tmp/ccMeUcYP.s:1787   .text:00000000000003a4 .L0 
     /tmp/ccMeUcYP.s:1788   .text:00000000000003a4 .L0 
     /tmp/ccMeUcYP.s:1790   .text:00000000000003a8 .L0 
     /tmp/ccMeUcYP.s:1791   .text:00000000000003a8 .L0 
     /tmp/ccMeUcYP.s:1793   .text:00000000000003ac .L0 
     /tmp/ccMeUcYP.s:1796   .text:00000000000003b0 .L0 
     /tmp/ccMeUcYP.s:1798   .text:00000000000003b4 .L0 
     /tmp/ccMeUcYP.s:1802   .text:00000000000003b8 .L0 
     /tmp/ccMeUcYP.s:1804   .text:00000000000003b8 .L0 
     /tmp/ccMeUcYP.s:1805   .text:00000000000003b8 .L0 
     /tmp/ccMeUcYP.s:1808   .text:00000000000003c4 .L0 
     /tmp/ccMeUcYP.s:1825   .text:00000000000003c4 _ZN7WorkerA11workerBodyAEPv
     /tmp/ccMeUcYP.s:1828   .text:00000000000003c4 .L0 
     /tmp/ccMeUcYP.s:1830   .text:00000000000003c4 .L0 
     /tmp/ccMeUcYP.s:1831   .text:00000000000003c8 .L0 
     /tmp/ccMeUcYP.s:1836   .text:00000000000003d8 .L0 
     /tmp/ccMeUcYP.s:1837   .text:00000000000003d8 .L0 
     /tmp/ccMeUcYP.s:1838   .text:00000000000003d8 .L0 
     /tmp/ccMeUcYP.s:1839   .text:00000000000003d8 .L0 
     /tmp/ccMeUcYP.s:1841   .text:00000000000003dc .L0 
     /tmp/ccMeUcYP.s:1845   .text:00000000000003dc .L0 
     /tmp/ccMeUcYP.s:1846   .text:00000000000003dc .L0 
     /tmp/ccMeUcYP.s:1854   .text:00000000000003e4 .L0 
     /tmp/ccMeUcYP.s:1855   .text:00000000000003e4 .L0 
     /tmp/ccMeUcYP.s:1859   .text:00000000000003ec .L0 
     /tmp/ccMeUcYP.s:1863   .text:00000000000003f0 .L0 
     /tmp/ccMeUcYP.s:1869   .text:00000000000003fc .L0 
     /tmp/ccMeUcYP.s:1873   .text:0000000000000400 .L0 
     /tmp/ccMeUcYP.s:1877   .text:000000000000040c .L0 
     /tmp/ccMeUcYP.s:1887   .text:0000000000000414 .L0 
     /tmp/ccMeUcYP.s:1891   .text:0000000000000418 .L0 
     /tmp/ccMeUcYP.s:1895   .text:0000000000000420 .L0 
     /tmp/ccMeUcYP.s:1896   .text:0000000000000420 .L0 
     /tmp/ccMeUcYP.s:1900   .text:0000000000000430 .L0 
GAS LISTING /tmp/ccMeUcYP.s 			page 159


     /tmp/ccMeUcYP.s:1901   .text:0000000000000430 .L0 
     /tmp/ccMeUcYP.s:1907   .text:0000000000000444 .L0 
     /tmp/ccMeUcYP.s:1908   .text:0000000000000444 .L0 
     /tmp/ccMeUcYP.s:1913   .text:0000000000000454 .L0 
     /tmp/ccMeUcYP.s:1914   .text:0000000000000454 .L0 
     /tmp/ccMeUcYP.s:1922   .text:000000000000045c .L0 
     /tmp/ccMeUcYP.s:1923   .text:000000000000045c .L0 
     /tmp/ccMeUcYP.s:1927   .text:000000000000046c .L0 
     /tmp/ccMeUcYP.s:1928   .text:000000000000046c .L0 
     /tmp/ccMeUcYP.s:1931   .text:0000000000000478 .L0 
     /tmp/ccMeUcYP.s:1932   .text:000000000000047c .L0 
     /tmp/ccMeUcYP.s:1934   .text:0000000000000480 .L0 
     /tmp/ccMeUcYP.s:1935   .text:0000000000000480 .L0 
     /tmp/ccMeUcYP.s:1937   .text:0000000000000484 .L0 
     /tmp/ccMeUcYP.s:1939   .text:0000000000000488 .L0 
     /tmp/ccMeUcYP.s:1942   .text:000000000000048c .L0 
     /tmp/ccMeUcYP.s:1944   .text:0000000000000490 .L0 
     /tmp/ccMeUcYP.s:1951   .text._ZN7WorkerA3runEv:0000000000000000 _ZN7WorkerA3runEv
     /tmp/ccMeUcYP.s:1954   .text._ZN7WorkerA3runEv:0000000000000000 .L0 
     /tmp/ccMeUcYP.s:1956   .text._ZN7WorkerA3runEv:0000000000000000 .L0 
     /tmp/ccMeUcYP.s:1957   .text._ZN7WorkerA3runEv:0000000000000004 .L0 
     /tmp/ccMeUcYP.s:1960   .text._ZN7WorkerA3runEv:000000000000000c .L0 
     /tmp/ccMeUcYP.s:1961   .text._ZN7WorkerA3runEv:000000000000000c .L0 
     /tmp/ccMeUcYP.s:1963   .text._ZN7WorkerA3runEv:0000000000000010 .L0 
     /tmp/ccMeUcYP.s:1965   .text._ZN7WorkerA3runEv:0000000000000010 .L0 
     /tmp/ccMeUcYP.s:1966   .text._ZN7WorkerA3runEv:0000000000000010 .L0 
     /tmp/ccMeUcYP.s:1970   .text._ZN7WorkerA3runEv:000000000000001c .L0 
     /tmp/ccMeUcYP.s:1971   .text._ZN7WorkerA3runEv:0000000000000020 .L0 
     /tmp/ccMeUcYP.s:1973   .text._ZN7WorkerA3runEv:0000000000000024 .L0 
     /tmp/ccMeUcYP.s:1974   .text._ZN7WorkerA3runEv:0000000000000024 .L0 
     /tmp/ccMeUcYP.s:1976   .text._ZN7WorkerA3runEv:0000000000000028 .L0 
     /tmp/ccMeUcYP.s:1978   .text._ZN7WorkerA3runEv:000000000000002c .L0 
     /tmp/ccMeUcYP.s:1992   .text:0000000000000490 _ZN7WorkerB11workerBodyBEPv
     /tmp/ccMeUcYP.s:1995   .text:0000000000000490 .L0 
     /tmp/ccMeUcYP.s:1997   .text:0000000000000490 .L0 
     /tmp/ccMeUcYP.s:1998   .text:0000000000000494 .L0 
     /tmp/ccMeUcYP.s:2003   .text:00000000000004a4 .L0 
     /tmp/ccMeUcYP.s:2004   .text:00000000000004a4 .L0 
     /tmp/ccMeUcYP.s:2005   .text:00000000000004a4 .L0 
     /tmp/ccMeUcYP.s:2006   .text:00000000000004a4 .L0 
     /tmp/ccMeUcYP.s:2008   .text:00000000000004a8 .L0 
     /tmp/ccMeUcYP.s:2012   .text:00000000000004a8 .L0 
     /tmp/ccMeUcYP.s:2013   .text:00000000000004a8 .L0 
     /tmp/ccMeUcYP.s:2021   .text:00000000000004b0 .L0 
     /tmp/ccMeUcYP.s:2022   .text:00000000000004b0 .L0 
     /tmp/ccMeUcYP.s:2026   .text:00000000000004b8 .L0 
     /tmp/ccMeUcYP.s:2030   .text:00000000000004bc .L0 
     /tmp/ccMeUcYP.s:2036   .text:00000000000004c8 .L0 
     /tmp/ccMeUcYP.s:2040   .text:00000000000004cc .L0 
     /tmp/ccMeUcYP.s:2044   .text:00000000000004d8 .L0 
     /tmp/ccMeUcYP.s:2054   .text:00000000000004e0 .L0 
     /tmp/ccMeUcYP.s:2058   .text:00000000000004e4 .L0 
     /tmp/ccMeUcYP.s:2062   .text:00000000000004ec .L0 
     /tmp/ccMeUcYP.s:2063   .text:00000000000004ec .L0 
     /tmp/ccMeUcYP.s:2067   .text:00000000000004fc .L0 
     /tmp/ccMeUcYP.s:2068   .text:00000000000004fc .L0 
     /tmp/ccMeUcYP.s:2074   .text:0000000000000510 .L0 
GAS LISTING /tmp/ccMeUcYP.s 			page 160


     /tmp/ccMeUcYP.s:2075   .text:0000000000000510 .L0 
     /tmp/ccMeUcYP.s:2080   .text:0000000000000520 .L0 
     /tmp/ccMeUcYP.s:2081   .text:0000000000000520 .L0 
     /tmp/ccMeUcYP.s:2089   .text:0000000000000528 .L0 
     /tmp/ccMeUcYP.s:2090   .text:0000000000000528 .L0 
     /tmp/ccMeUcYP.s:2094   .text:0000000000000538 .L0 
     /tmp/ccMeUcYP.s:2095   .text:0000000000000538 .L0 
     /tmp/ccMeUcYP.s:2098   .text:0000000000000544 .L0 
     /tmp/ccMeUcYP.s:2099   .text:0000000000000544 .L0 
     /tmp/ccMeUcYP.s:2102   .text:000000000000054c .L0 
     /tmp/ccMeUcYP.s:2103   .text:0000000000000550 .L0 
     /tmp/ccMeUcYP.s:2105   .text:0000000000000554 .L0 
     /tmp/ccMeUcYP.s:2106   .text:0000000000000554 .L0 
     /tmp/ccMeUcYP.s:2108   .text:0000000000000558 .L0 
     /tmp/ccMeUcYP.s:2110   .text:000000000000055c .L0 
     /tmp/ccMeUcYP.s:2113   .text:0000000000000560 .L0 
     /tmp/ccMeUcYP.s:2115   .text:0000000000000564 .L0 
     /tmp/ccMeUcYP.s:2122   .text._ZN7WorkerB3runEv:0000000000000000 _ZN7WorkerB3runEv
     /tmp/ccMeUcYP.s:2125   .text._ZN7WorkerB3runEv:0000000000000000 .L0 
     /tmp/ccMeUcYP.s:2127   .text._ZN7WorkerB3runEv:0000000000000000 .L0 
     /tmp/ccMeUcYP.s:2128   .text._ZN7WorkerB3runEv:0000000000000004 .L0 
     /tmp/ccMeUcYP.s:2131   .text._ZN7WorkerB3runEv:000000000000000c .L0 
     /tmp/ccMeUcYP.s:2132   .text._ZN7WorkerB3runEv:000000000000000c .L0 
     /tmp/ccMeUcYP.s:2134   .text._ZN7WorkerB3runEv:0000000000000010 .L0 
     /tmp/ccMeUcYP.s:2136   .text._ZN7WorkerB3runEv:0000000000000010 .L0 
     /tmp/ccMeUcYP.s:2137   .text._ZN7WorkerB3runEv:0000000000000010 .L0 
     /tmp/ccMeUcYP.s:2141   .text._ZN7WorkerB3runEv:000000000000001c .L0 
     /tmp/ccMeUcYP.s:2142   .text._ZN7WorkerB3runEv:0000000000000020 .L0 
     /tmp/ccMeUcYP.s:2144   .text._ZN7WorkerB3runEv:0000000000000024 .L0 
     /tmp/ccMeUcYP.s:2145   .text._ZN7WorkerB3runEv:0000000000000024 .L0 
     /tmp/ccMeUcYP.s:2147   .text._ZN7WorkerB3runEv:0000000000000028 .L0 
     /tmp/ccMeUcYP.s:2149   .text._ZN7WorkerB3runEv:000000000000002c .L0 
     /tmp/ccMeUcYP.s:2169   .text:0000000000000564 _ZN7WorkerC11workerBodyCEPv
     /tmp/ccMeUcYP.s:2172   .text:0000000000000564 .L0 
     /tmp/ccMeUcYP.s:2174   .text:0000000000000564 .L0 
     /tmp/ccMeUcYP.s:2175   .text:0000000000000568 .L0 
     /tmp/ccMeUcYP.s:2180   .text:0000000000000578 .L0 
     /tmp/ccMeUcYP.s:2181   .text:0000000000000578 .L0 
     /tmp/ccMeUcYP.s:2182   .text:0000000000000578 .L0 
     /tmp/ccMeUcYP.s:2183   .text:0000000000000578 .L0 
     /tmp/ccMeUcYP.s:2185   .text:000000000000057c .L0 
     /tmp/ccMeUcYP.s:2188   .text:000000000000057c .L0 
     /tmp/ccMeUcYP.s:2189   .text:000000000000057c .L0 
     /tmp/ccMeUcYP.s:2194   .text:0000000000000584 .L0 
     /tmp/ccMeUcYP.s:2195   .text:0000000000000584 .L0 
     /tmp/ccMeUcYP.s:2199   .text:0000000000000594 .L0 
     /tmp/ccMeUcYP.s:2200   .text:0000000000000594 .L0 
     /tmp/ccMeUcYP.s:2206   .text:00000000000005a8 .L0 
     /tmp/ccMeUcYP.s:2207   .text:00000000000005a8 .L0 
     /tmp/ccMeUcYP.s:2211   .text:00000000000005b8 .L0 
     /tmp/ccMeUcYP.s:2217   .text:00000000000005c0 .L0 
     /tmp/ccMeUcYP.s:2218   .text:00000000000005c0 .L0 
     /tmp/ccMeUcYP.s:2221   .text:00000000000005c8 .L0 
     /tmp/ccMeUcYP.s:2222   .text:00000000000005c8 .L0 
     /tmp/ccMeUcYP.s:2226   .text:00000000000005d8 .L0 
src/../h/Threads_CPP_API_test.h:91     .text:00000000000005d8 .L0 
     /tmp/ccMeUcYP.s:2232   .text:00000000000005dc .L0 
GAS LISTING /tmp/ccMeUcYP.s 			page 161


     /tmp/ccMeUcYP.s:2234   .text:00000000000005dc .L0 
     /tmp/ccMeUcYP.s:2237   .text:00000000000005e4 .L0 
     /tmp/ccMeUcYP.s:2238   .text:00000000000005e4 .L0 
src/../h/Threads_CPP_API_test.h:95     .text:00000000000005e4 .L0 
     /tmp/ccMeUcYP.s:2245   .text:00000000000005e8 .L0 
     /tmp/ccMeUcYP.s:2247   .text:00000000000005e8 .L0 
     /tmp/ccMeUcYP.s:2251   .text:00000000000005f8 .L0 
     /tmp/ccMeUcYP.s:2252   .text:00000000000005f8 .L0 
     /tmp/ccMeUcYP.s:2258   .text:000000000000060c .L0 
     /tmp/ccMeUcYP.s:2259   .text:000000000000060c .L0 
     /tmp/ccMeUcYP.s:2263   .text:000000000000061c .L0 
     /tmp/ccMeUcYP.s:2264   .text:000000000000061c .L0 
     /tmp/ccMeUcYP.s:2270   .text:000000000000062c .L0 
     /tmp/ccMeUcYP.s:2271   .text:000000000000062c .L0 
     /tmp/ccMeUcYP.s:2276   .text:000000000000063c .L0 
     /tmp/ccMeUcYP.s:2277   .text:000000000000063c .L0 
     /tmp/ccMeUcYP.s:2283   .text:0000000000000650 .L0 
     /tmp/ccMeUcYP.s:2284   .text:0000000000000650 .L0 
     /tmp/ccMeUcYP.s:2290   .text:0000000000000664 .L0 
     /tmp/ccMeUcYP.s:2291   .text:0000000000000664 .L0 
     /tmp/ccMeUcYP.s:2295   .text:0000000000000674 .L0 
     /tmp/ccMeUcYP.s:2296   .text:0000000000000674 .L0 
     /tmp/ccMeUcYP.s:2302   .text:0000000000000688 .L0 
     /tmp/ccMeUcYP.s:2303   .text:0000000000000688 .L0 
     /tmp/ccMeUcYP.s:2307   .text:0000000000000698 .L0 
     /tmp/ccMeUcYP.s:2313   .text:00000000000006a0 .L0 
     /tmp/ccMeUcYP.s:2314   .text:00000000000006a0 .L0 
     /tmp/ccMeUcYP.s:2317   .text:00000000000006a8 .L0 
     /tmp/ccMeUcYP.s:2318   .text:00000000000006a8 .L0 
     /tmp/ccMeUcYP.s:2322   .text:00000000000006b8 .L0 
     /tmp/ccMeUcYP.s:2323   .text:00000000000006b8 .L0 
     /tmp/ccMeUcYP.s:2326   .text:00000000000006c4 .L0 
     /tmp/ccMeUcYP.s:2327   .text:00000000000006c4 .L0 
     /tmp/ccMeUcYP.s:2330   .text:00000000000006cc .L0 
     /tmp/ccMeUcYP.s:2331   .text:00000000000006d0 .L0 
     /tmp/ccMeUcYP.s:2333   .text:00000000000006d4 .L0 
     /tmp/ccMeUcYP.s:2334   .text:00000000000006d4 .L0 
     /tmp/ccMeUcYP.s:2336   .text:00000000000006d8 .L0 
     /tmp/ccMeUcYP.s:2339   .text:00000000000006dc .L0 
     /tmp/ccMeUcYP.s:2342   .text:00000000000006e0 .L0 
     /tmp/ccMeUcYP.s:2344   .text:00000000000006e4 .L0 
     /tmp/ccMeUcYP.s:2351   .text._ZN7WorkerC3runEv:0000000000000000 _ZN7WorkerC3runEv
     /tmp/ccMeUcYP.s:2354   .text._ZN7WorkerC3runEv:0000000000000000 .L0 
     /tmp/ccMeUcYP.s:2356   .text._ZN7WorkerC3runEv:0000000000000000 .L0 
     /tmp/ccMeUcYP.s:2357   .text._ZN7WorkerC3runEv:0000000000000004 .L0 
     /tmp/ccMeUcYP.s:2360   .text._ZN7WorkerC3runEv:000000000000000c .L0 
     /tmp/ccMeUcYP.s:2361   .text._ZN7WorkerC3runEv:000000000000000c .L0 
     /tmp/ccMeUcYP.s:2363   .text._ZN7WorkerC3runEv:0000000000000010 .L0 
     /tmp/ccMeUcYP.s:2365   .text._ZN7WorkerC3runEv:0000000000000010 .L0 
     /tmp/ccMeUcYP.s:2366   .text._ZN7WorkerC3runEv:0000000000000010 .L0 
     /tmp/ccMeUcYP.s:2370   .text._ZN7WorkerC3runEv:000000000000001c .L0 
     /tmp/ccMeUcYP.s:2371   .text._ZN7WorkerC3runEv:0000000000000020 .L0 
     /tmp/ccMeUcYP.s:2373   .text._ZN7WorkerC3runEv:0000000000000024 .L0 
     /tmp/ccMeUcYP.s:2374   .text._ZN7WorkerC3runEv:0000000000000024 .L0 
     /tmp/ccMeUcYP.s:2376   .text._ZN7WorkerC3runEv:0000000000000028 .L0 
     /tmp/ccMeUcYP.s:2378   .text._ZN7WorkerC3runEv:000000000000002c .L0 
     /tmp/ccMeUcYP.s:2398   .text:00000000000006e4 _ZN7WorkerD11workerBodyDEPv
GAS LISTING /tmp/ccMeUcYP.s 			page 162


     /tmp/ccMeUcYP.s:2401   .text:00000000000006e4 .L0 
     /tmp/ccMeUcYP.s:2403   .text:00000000000006e4 .L0 
     /tmp/ccMeUcYP.s:2404   .text:00000000000006e8 .L0 
     /tmp/ccMeUcYP.s:2409   .text:00000000000006f8 .L0 
     /tmp/ccMeUcYP.s:2410   .text:00000000000006f8 .L0 
     /tmp/ccMeUcYP.s:2411   .text:00000000000006f8 .L0 
     /tmp/ccMeUcYP.s:2412   .text:00000000000006f8 .L0 
     /tmp/ccMeUcYP.s:2414   .text:00000000000006fc .L0 
     /tmp/ccMeUcYP.s:2417   .text:00000000000006fc .L0 
     /tmp/ccMeUcYP.s:2418   .text:00000000000006fc .L0 
     /tmp/ccMeUcYP.s:2423   .text:0000000000000704 .L0 
     /tmp/ccMeUcYP.s:2424   .text:0000000000000704 .L0 
     /tmp/ccMeUcYP.s:2428   .text:0000000000000714 .L0 
     /tmp/ccMeUcYP.s:2429   .text:0000000000000714 .L0 
     /tmp/ccMeUcYP.s:2435   .text:0000000000000728 .L0 
     /tmp/ccMeUcYP.s:2436   .text:0000000000000728 .L0 
     /tmp/ccMeUcYP.s:2440   .text:0000000000000738 .L0 
     /tmp/ccMeUcYP.s:2446   .text:0000000000000740 .L0 
     /tmp/ccMeUcYP.s:2447   .text:0000000000000740 .L0 
     /tmp/ccMeUcYP.s:2450   .text:0000000000000748 .L0 
     /tmp/ccMeUcYP.s:2451   .text:0000000000000748 .L0 
     /tmp/ccMeUcYP.s:2455   .text:0000000000000758 .L0 
src/../h/Threads_CPP_API_test.h:118    .text:0000000000000758 .L0 
     /tmp/ccMeUcYP.s:2461   .text:000000000000075c .L0 
     /tmp/ccMeUcYP.s:2463   .text:000000000000075c .L0 
     /tmp/ccMeUcYP.s:2466   .text:0000000000000764 .L0 
     /tmp/ccMeUcYP.s:2467   .text:0000000000000764 .L0 
     /tmp/ccMeUcYP.s:2473   .text:0000000000000774 .L0 
     /tmp/ccMeUcYP.s:2474   .text:0000000000000774 .L0 
     /tmp/ccMeUcYP.s:2479   .text:0000000000000784 .L0 
     /tmp/ccMeUcYP.s:2480   .text:0000000000000784 .L0 
     /tmp/ccMeUcYP.s:2486   .text:0000000000000798 .L0 
     /tmp/ccMeUcYP.s:2487   .text:0000000000000798 .L0 
     /tmp/ccMeUcYP.s:2493   .text:00000000000007ac .L0 
     /tmp/ccMeUcYP.s:2494   .text:00000000000007ac .L0 
     /tmp/ccMeUcYP.s:2498   .text:00000000000007bc .L0 
     /tmp/ccMeUcYP.s:2499   .text:00000000000007bc .L0 
     /tmp/ccMeUcYP.s:2505   .text:00000000000007d0 .L0 
     /tmp/ccMeUcYP.s:2506   .text:00000000000007d0 .L0 
     /tmp/ccMeUcYP.s:2510   .text:00000000000007e0 .L0 
     /tmp/ccMeUcYP.s:2516   .text:00000000000007e8 .L0 
     /tmp/ccMeUcYP.s:2517   .text:00000000000007e8 .L0 
     /tmp/ccMeUcYP.s:2520   .text:00000000000007f0 .L0 
     /tmp/ccMeUcYP.s:2521   .text:00000000000007f0 .L0 
     /tmp/ccMeUcYP.s:2525   .text:0000000000000800 .L0 
     /tmp/ccMeUcYP.s:2526   .text:0000000000000800 .L0 
     /tmp/ccMeUcYP.s:2529   .text:000000000000080c .L0 
     /tmp/ccMeUcYP.s:2530   .text:000000000000080c .L0 
     /tmp/ccMeUcYP.s:2533   .text:0000000000000814 .L0 
     /tmp/ccMeUcYP.s:2534   .text:0000000000000818 .L0 
     /tmp/ccMeUcYP.s:2536   .text:000000000000081c .L0 
     /tmp/ccMeUcYP.s:2537   .text:000000000000081c .L0 
     /tmp/ccMeUcYP.s:2539   .text:0000000000000820 .L0 
     /tmp/ccMeUcYP.s:2542   .text:0000000000000824 .L0 
     /tmp/ccMeUcYP.s:2545   .text:0000000000000828 .L0 
     /tmp/ccMeUcYP.s:2547   .text:000000000000082c .L0 
     /tmp/ccMeUcYP.s:2554   .text._ZN7WorkerD3runEv:0000000000000000 _ZN7WorkerD3runEv
GAS LISTING /tmp/ccMeUcYP.s 			page 163


     /tmp/ccMeUcYP.s:2557   .text._ZN7WorkerD3runEv:0000000000000000 .L0 
     /tmp/ccMeUcYP.s:2559   .text._ZN7WorkerD3runEv:0000000000000000 .L0 
     /tmp/ccMeUcYP.s:2560   .text._ZN7WorkerD3runEv:0000000000000004 .L0 
     /tmp/ccMeUcYP.s:2563   .text._ZN7WorkerD3runEv:000000000000000c .L0 
     /tmp/ccMeUcYP.s:2564   .text._ZN7WorkerD3runEv:000000000000000c .L0 
     /tmp/ccMeUcYP.s:2566   .text._ZN7WorkerD3runEv:0000000000000010 .L0 
     /tmp/ccMeUcYP.s:2568   .text._ZN7WorkerD3runEv:0000000000000010 .L0 
     /tmp/ccMeUcYP.s:2569   .text._ZN7WorkerD3runEv:0000000000000010 .L0 
     /tmp/ccMeUcYP.s:2573   .text._ZN7WorkerD3runEv:000000000000001c .L0 
     /tmp/ccMeUcYP.s:2574   .text._ZN7WorkerD3runEv:0000000000000020 .L0 
     /tmp/ccMeUcYP.s:2576   .text._ZN7WorkerD3runEv:0000000000000024 .L0 
     /tmp/ccMeUcYP.s:2577   .text._ZN7WorkerD3runEv:0000000000000024 .L0 
     /tmp/ccMeUcYP.s:2579   .text._ZN7WorkerD3runEv:0000000000000028 .L0 
     /tmp/ccMeUcYP.s:2581   .text._ZN7WorkerD3runEv:000000000000002c .L0 
     /tmp/ccMeUcYP.s:2601   .text:000000000000082c _Z20Threads_CPP_API_testv
     /tmp/ccMeUcYP.s:2604   .text:000000000000082c .L0 
     /tmp/ccMeUcYP.s:20560  .data.rel.local.DW.ref.__gxx_personality_v0:0000000000000000 DW.ref.__gxx_personality_v0
     /tmp/ccMeUcYP.s:2607   .text:000000000000082c .L0 
     /tmp/ccMeUcYP.s:2608   .text:0000000000000830 .L0 
     /tmp/ccMeUcYP.s:2613   .text:0000000000000840 .L0 
     /tmp/ccMeUcYP.s:2614   .text:0000000000000840 .L0 
     /tmp/ccMeUcYP.s:2615   .text:0000000000000840 .L0 
     /tmp/ccMeUcYP.s:2616   .text:0000000000000840 .L0 
     /tmp/ccMeUcYP.s:2618   .text:0000000000000844 .L0 
     /tmp/ccMeUcYP.s:2620   .text:0000000000000844 .L0 
     /tmp/ccMeUcYP.s:2621   .text:0000000000000844 .L0 
     /tmp/ccMeUcYP.s:2622   .text:0000000000000844 .L0 
     /tmp/ccMeUcYP.s:2633   .text:0000000000000854 .L0 
     /tmp/ccMeUcYP.s:2642   .text:0000000000000868 .L0 
     /tmp/ccMeUcYP.s:2644   .text:000000000000086c .L0 
     /tmp/ccMeUcYP.s:2645   .text:000000000000086c .L0 
     /tmp/ccMeUcYP.s:2650   .text:000000000000087c .L0 
     /tmp/ccMeUcYP.s:2651   .text:000000000000087c .L0 
     /tmp/ccMeUcYP.s:2661   .text:000000000000088c .L0 
     /tmp/ccMeUcYP.s:2670   .text:00000000000008a0 .L0 
     /tmp/ccMeUcYP.s:2672   .text:00000000000008a4 .L0 
     /tmp/ccMeUcYP.s:2673   .text:00000000000008a4 .L0 
     /tmp/ccMeUcYP.s:2678   .text:00000000000008b4 .L0 
     /tmp/ccMeUcYP.s:2679   .text:00000000000008b4 .L0 
     /tmp/ccMeUcYP.s:2689   .text:00000000000008c4 .L0 
     /tmp/ccMeUcYP.s:2698   .text:00000000000008d8 .L0 
     /tmp/ccMeUcYP.s:2700   .text:00000000000008dc .L0 
     /tmp/ccMeUcYP.s:2701   .text:00000000000008dc .L0 
     /tmp/ccMeUcYP.s:2706   .text:00000000000008ec .L0 
     /tmp/ccMeUcYP.s:2707   .text:00000000000008ec .L0 
     /tmp/ccMeUcYP.s:2717   .text:00000000000008fc .L0 
     /tmp/ccMeUcYP.s:2726   .text:0000000000000910 .L0 
     /tmp/ccMeUcYP.s:2728   .text:0000000000000914 .L0 
     /tmp/ccMeUcYP.s:2729   .text:0000000000000914 .L0 
     /tmp/ccMeUcYP.s:2735   .text:0000000000000924 .L0 
     /tmp/ccMeUcYP.s:2739   .text:0000000000000928 .L0 
     /tmp/ccMeUcYP.s:2742   .text:0000000000000930 .L0 
     /tmp/ccMeUcYP.s:2743   .text:0000000000000930 .L0 
     /tmp/ccMeUcYP.s:2747   .text:000000000000093c .L0 
     /tmp/ccMeUcYP.s:2751   .text:0000000000000948 .L0 
     /tmp/ccMeUcYP.s:2758   .text:0000000000000950 .L0 
     /tmp/ccMeUcYP.s:2759   .text:0000000000000950 .L0 
GAS LISTING /tmp/ccMeUcYP.s 			page 164


     /tmp/ccMeUcYP.s:2764   .text:0000000000000958 .L0 
     /tmp/ccMeUcYP.s:2765   .text:0000000000000958 .L0 
     /tmp/ccMeUcYP.s:2768   .text:0000000000000964 .L0 
     /tmp/ccMeUcYP.s:2771   .text:0000000000000970 .L0 
     /tmp/ccMeUcYP.s:2774   .text:000000000000097c .L0 
     /tmp/ccMeUcYP.s:2778   .text:0000000000000988 .L0 
     /tmp/ccMeUcYP.s:2784   .text:0000000000000990 .L0 
     /tmp/ccMeUcYP.s:2788   .text:0000000000000994 .L0 
     /tmp/ccMeUcYP.s:2791   .text:000000000000099c .L0 
     /tmp/ccMeUcYP.s:2794   .text:00000000000009a0 .L0 
     /tmp/ccMeUcYP.s:2795   .text:00000000000009a0 .L0 
     /tmp/ccMeUcYP.s:2797   .text:00000000000009a4 .L0 
     /tmp/ccMeUcYP.s:2807   .text:00000000000009b8 .L0 
     /tmp/ccMeUcYP.s:2818   .text:00000000000009d4 .L0 
     /tmp/ccMeUcYP.s:2829   .text:00000000000009f0 .L0 
     /tmp/ccMeUcYP.s:2840   .text:0000000000000a0c .L0 
     /tmp/ccMeUcYP.s:2850   .text:0000000000000a24 .L0 
     /tmp/ccMeUcYP.s:2851   .text:0000000000000a28 .L0 
     /tmp/ccMeUcYP.s:2853   .text:0000000000000a2c .L0 
     /tmp/ccMeUcYP.s:2854   .text:0000000000000a2c .L0 
     /tmp/ccMeUcYP.s:2856   .text:0000000000000a30 .L0 
     /tmp/ccMeUcYP.s:2859   .text:0000000000000a34 .L0 
     /tmp/ccMeUcYP.s:2861   .text:0000000000000a38 .L0 
     /tmp/ccMeUcYP.s:2863   .text:0000000000000a3c .L0 
     /tmp/ccMeUcYP.s:2929   .text:0000000000000a3c _ZN16ProducerKeyboard16producerKeyboardEPv
     /tmp/ccMeUcYP.s:2932   .text:0000000000000a3c .L0 
     /tmp/ccMeUcYP.s:2934   .text:0000000000000a3c .L0 
     /tmp/ccMeUcYP.s:2935   .text:0000000000000a40 .L0 
     /tmp/ccMeUcYP.s:2941   .text:0000000000000a54 .L0 
     /tmp/ccMeUcYP.s:2942   .text:0000000000000a54 .L0 
     /tmp/ccMeUcYP.s:2943   .text:0000000000000a54 .L0 
     /tmp/ccMeUcYP.s:2944   .text:0000000000000a54 .L0 
     /tmp/ccMeUcYP.s:2945   .text:0000000000000a54 .L0 
     /tmp/ccMeUcYP.s:2947   .text:0000000000000a58 .L0 
     /tmp/ccMeUcYP.s:2952   .text:0000000000000a60 .L0 
     /tmp/ccMeUcYP.s:2953   .text:0000000000000a60 .L0 
     /tmp/ccMeUcYP.s:2954   .text:0000000000000a60 .L0 
     /tmp/ccMeUcYP.s:2955   .text:0000000000000a60 .L0 
     /tmp/ccMeUcYP.s:2960   .text:0000000000000a68 .L0 
     /tmp/ccMeUcYP.s:2961   .text:0000000000000a68 .L0 
     /tmp/ccMeUcYP.s:2965   .text:0000000000000a70 .L0 
     /tmp/ccMeUcYP.s:2966   .text:0000000000000a70 .L0 
     /tmp/ccMeUcYP.s:2967   .text:0000000000000a70 .L0 
     /tmp/ccMeUcYP.s:2970   .text:0000000000000a78 .L0 
     /tmp/ccMeUcYP.s:2973   .text:0000000000000a7c .L0 
     /tmp/ccMeUcYP.s:2976   .text:0000000000000a84 .L0 
     /tmp/ccMeUcYP.s:2977   .text:0000000000000a84 .L0 
     /tmp/ccMeUcYP.s:2981   .text:0000000000000a90 .L0 
     /tmp/ccMeUcYP.s:2982   .text:0000000000000a90 .L0 
     /tmp/ccMeUcYP.s:2986   .text:0000000000000a98 .L0 
     /tmp/ccMeUcYP.s:2987   .text:0000000000000a98 .L0 
     /tmp/ccMeUcYP.s:2989   .text:0000000000000a9c .L0 
     /tmp/ccMeUcYP.s:2993   .text:0000000000000aa8 .L0 
     /tmp/ccMeUcYP.s:2995   .text:0000000000000aac .L0 
     /tmp/ccMeUcYP.s:3000   .text:0000000000000ab4 .L0 
     /tmp/ccMeUcYP.s:3001   .text:0000000000000ab4 .L0 
     /tmp/ccMeUcYP.s:3004   .text:0000000000000ac0 .L0 
GAS LISTING /tmp/ccMeUcYP.s 			page 165


     /tmp/ccMeUcYP.s:3006   .text:0000000000000ac4 .L0 
     /tmp/ccMeUcYP.s:3013   .text:0000000000000ad4 .L0 
     /tmp/ccMeUcYP.s:3014   .text:0000000000000ad4 .L0 
     /tmp/ccMeUcYP.s:3018   .text:0000000000000ae0 .L0 
     /tmp/ccMeUcYP.s:3019   .text:0000000000000ae4 .L0 
     /tmp/ccMeUcYP.s:3021   .text:0000000000000ae8 .L0 
     /tmp/ccMeUcYP.s:3022   .text:0000000000000ae8 .L0 
     /tmp/ccMeUcYP.s:3024   .text:0000000000000aec .L0 
     /tmp/ccMeUcYP.s:3027   .text:0000000000000af0 .L0 
     /tmp/ccMeUcYP.s:3030   .text:0000000000000af4 .L0 
     /tmp/ccMeUcYP.s:3033   .text:0000000000000af8 .L0 
     /tmp/ccMeUcYP.s:3035   .text:0000000000000afc .L0 
     /tmp/ccMeUcYP.s:3042   .text._ZN16ProducerKeyboard3runEv:0000000000000000 _ZN16ProducerKeyboard3runEv
     /tmp/ccMeUcYP.s:3045   .text._ZN16ProducerKeyboard3runEv:0000000000000000 .L0 
     /tmp/ccMeUcYP.s:3047   .text._ZN16ProducerKeyboard3runEv:0000000000000000 .L0 
     /tmp/ccMeUcYP.s:3048   .text._ZN16ProducerKeyboard3runEv:0000000000000004 .L0 
     /tmp/ccMeUcYP.s:3051   .text._ZN16ProducerKeyboard3runEv:000000000000000c .L0 
     /tmp/ccMeUcYP.s:3052   .text._ZN16ProducerKeyboard3runEv:000000000000000c .L0 
     /tmp/ccMeUcYP.s:3054   .text._ZN16ProducerKeyboard3runEv:0000000000000010 .L0 
     /tmp/ccMeUcYP.s:3056   .text._ZN16ProducerKeyboard3runEv:0000000000000010 .L0 
     /tmp/ccMeUcYP.s:3057   .text._ZN16ProducerKeyboard3runEv:0000000000000010 .L0 
     /tmp/ccMeUcYP.s:3061   .text._ZN16ProducerKeyboard3runEv:000000000000001c .L0 
     /tmp/ccMeUcYP.s:3062   .text._ZN16ProducerKeyboard3runEv:0000000000000020 .L0 
     /tmp/ccMeUcYP.s:3064   .text._ZN16ProducerKeyboard3runEv:0000000000000024 .L0 
     /tmp/ccMeUcYP.s:3065   .text._ZN16ProducerKeyboard3runEv:0000000000000024 .L0 
     /tmp/ccMeUcYP.s:3067   .text._ZN16ProducerKeyboard3runEv:0000000000000028 .L0 
     /tmp/ccMeUcYP.s:3069   .text._ZN16ProducerKeyboard3runEv:000000000000002c .L0 
     /tmp/ccMeUcYP.s:3076   .text:0000000000000afc _ZN8Producer8producerEPv
     /tmp/ccMeUcYP.s:3079   .text:0000000000000afc .L0 
     /tmp/ccMeUcYP.s:3081   .text:0000000000000afc .L0 
     /tmp/ccMeUcYP.s:3082   .text:0000000000000b00 .L0 
     /tmp/ccMeUcYP.s:3087   .text:0000000000000b10 .L0 
     /tmp/ccMeUcYP.s:3088   .text:0000000000000b10 .L0 
     /tmp/ccMeUcYP.s:3089   .text:0000000000000b10 .L0 
     /tmp/ccMeUcYP.s:3090   .text:0000000000000b10 .L0 
     /tmp/ccMeUcYP.s:3092   .text:0000000000000b14 .L0 
     /tmp/ccMeUcYP.s:3096   .text:0000000000000b18 .L0 
     /tmp/ccMeUcYP.s:3097   .text:0000000000000b18 .L0 
     /tmp/ccMeUcYP.s:3098   .text:0000000000000b18 .L0 
     /tmp/ccMeUcYP.s:3103   .text:0000000000000b20 .L0 
     /tmp/ccMeUcYP.s:3104   .text:0000000000000b20 .L0 
     /tmp/ccMeUcYP.s:3108   .text:0000000000000b28 .L0 
     /tmp/ccMeUcYP.s:3109   .text:0000000000000b28 .L0 
     /tmp/ccMeUcYP.s:3112   .text:0000000000000b34 .L0 
     /tmp/ccMeUcYP.s:3113   .text:0000000000000b34 .L0 
     /tmp/ccMeUcYP.s:3115   .text:0000000000000b38 .L0 
     /tmp/ccMeUcYP.s:3120   .text:0000000000000b48 .L0 
     /tmp/ccMeUcYP.s:3121   .text:0000000000000b48 .L0 
     /tmp/ccMeUcYP.s:3125   .text:0000000000000b50 .L0 
     /tmp/ccMeUcYP.s:3126   .text:0000000000000b50 .L0 
     /tmp/ccMeUcYP.s:3128   .text:0000000000000b54 .L0 
     /tmp/ccMeUcYP.s:3132   .text:0000000000000b60 .L0 
     /tmp/ccMeUcYP.s:3134   .text:0000000000000b64 .L0 
     /tmp/ccMeUcYP.s:3139   .text:0000000000000b6c .L0 
     /tmp/ccMeUcYP.s:3140   .text:0000000000000b6c .L0 
     /tmp/ccMeUcYP.s:3144   .text:0000000000000b78 .L0 
     /tmp/ccMeUcYP.s:3145   .text:0000000000000b7c .L0 
GAS LISTING /tmp/ccMeUcYP.s 			page 166


     /tmp/ccMeUcYP.s:3147   .text:0000000000000b80 .L0 
     /tmp/ccMeUcYP.s:3148   .text:0000000000000b80 .L0 
     /tmp/ccMeUcYP.s:3150   .text:0000000000000b84 .L0 
     /tmp/ccMeUcYP.s:3153   .text:0000000000000b88 .L0 
     /tmp/ccMeUcYP.s:3156   .text:0000000000000b8c .L0 
     /tmp/ccMeUcYP.s:3158   .text:0000000000000b90 .L0 
     /tmp/ccMeUcYP.s:3165   .text._ZN8Producer3runEv:0000000000000000 _ZN8Producer3runEv
     /tmp/ccMeUcYP.s:3168   .text._ZN8Producer3runEv:0000000000000000 .L0 
     /tmp/ccMeUcYP.s:3170   .text._ZN8Producer3runEv:0000000000000000 .L0 
     /tmp/ccMeUcYP.s:3171   .text._ZN8Producer3runEv:0000000000000004 .L0 
     /tmp/ccMeUcYP.s:3174   .text._ZN8Producer3runEv:000000000000000c .L0 
     /tmp/ccMeUcYP.s:3175   .text._ZN8Producer3runEv:000000000000000c .L0 
     /tmp/ccMeUcYP.s:3177   .text._ZN8Producer3runEv:0000000000000010 .L0 
     /tmp/ccMeUcYP.s:3179   .text._ZN8Producer3runEv:0000000000000010 .L0 
     /tmp/ccMeUcYP.s:3180   .text._ZN8Producer3runEv:0000000000000010 .L0 
     /tmp/ccMeUcYP.s:3184   .text._ZN8Producer3runEv:000000000000001c .L0 
     /tmp/ccMeUcYP.s:3185   .text._ZN8Producer3runEv:0000000000000020 .L0 
     /tmp/ccMeUcYP.s:3187   .text._ZN8Producer3runEv:0000000000000024 .L0 
     /tmp/ccMeUcYP.s:3188   .text._ZN8Producer3runEv:0000000000000024 .L0 
     /tmp/ccMeUcYP.s:3190   .text._ZN8Producer3runEv:0000000000000028 .L0 
     /tmp/ccMeUcYP.s:3192   .text._ZN8Producer3runEv:000000000000002c .L0 
     /tmp/ccMeUcYP.s:3199   .text:0000000000000b90 _ZN8Consumer8consumerEPv
     /tmp/ccMeUcYP.s:3202   .text:0000000000000b90 .L0 
     /tmp/ccMeUcYP.s:3204   .text:0000000000000b90 .L0 
     /tmp/ccMeUcYP.s:3205   .text:0000000000000b94 .L0 
     /tmp/ccMeUcYP.s:3212   .text:0000000000000bac .L0 
     /tmp/ccMeUcYP.s:3213   .text:0000000000000bac .L0 
     /tmp/ccMeUcYP.s:3214   .text:0000000000000bac .L0 
     /tmp/ccMeUcYP.s:3215   .text:0000000000000bac .L0 
     /tmp/ccMeUcYP.s:3216   .text:0000000000000bac .L0 
     /tmp/ccMeUcYP.s:3217   .text:0000000000000bac .L0 
     /tmp/ccMeUcYP.s:3219   .text:0000000000000bb0 .L0 
     /tmp/ccMeUcYP.s:3224   .text:0000000000000bb8 .L0 
     /tmp/ccMeUcYP.s:3225   .text:0000000000000bb8 .L0 
     /tmp/ccMeUcYP.s:3226   .text:0000000000000bb8 .L0 
     /tmp/ccMeUcYP.s:3232   .text:0000000000000bc0 .L0 
     /tmp/ccMeUcYP.s:3233   .text:0000000000000bc0 .L0 
     /tmp/ccMeUcYP.s:3239   .text:0000000000000bcc .L0 
     /tmp/ccMeUcYP.s:3240   .text:0000000000000bcc .L0 
     /tmp/ccMeUcYP.s:3246   .text:0000000000000bd8 .L0 
     /tmp/ccMeUcYP.s:3247   .text:0000000000000bd8 .L0 
     /tmp/ccMeUcYP.s:3251   .text:0000000000000be4 .L0 
     /tmp/ccMeUcYP.s:3252   .text:0000000000000be4 .L0 
     /tmp/ccMeUcYP.s:3256   .text:0000000000000bf0 .L0 
     /tmp/ccMeUcYP.s:3257   .text:0000000000000bf0 .L0 
     /tmp/ccMeUcYP.s:3261   .text:0000000000000bf8 .L0 
     /tmp/ccMeUcYP.s:3262   .text:0000000000000bf8 .L0 
     /tmp/ccMeUcYP.s:3267   .text:0000000000000c04 .L0 
     /tmp/ccMeUcYP.s:3268   .text:0000000000000c04 .L0 
     /tmp/ccMeUcYP.s:3270   .text:0000000000000c08 .L0 
     /tmp/ccMeUcYP.s:3273   .text:0000000000000c10 .L0 
     /tmp/ccMeUcYP.s:3275   .text:0000000000000c14 .L0 
     /tmp/ccMeUcYP.s:3278   .text:0000000000000c18 .L0 
     /tmp/ccMeUcYP.s:3279   .text:0000000000000c18 .L0 
     /tmp/ccMeUcYP.s:3283   .text:0000000000000c20 .L0 
     /tmp/ccMeUcYP.s:3289   .text:0000000000000c28 .L0 
     /tmp/ccMeUcYP.s:3290   .text:0000000000000c28 .L0 
GAS LISTING /tmp/ccMeUcYP.s 			page 167


     /tmp/ccMeUcYP.s:3292   .text:0000000000000c2c .L0 
     /tmp/ccMeUcYP.s:3296   .text:0000000000000c38 .L0 
     /tmp/ccMeUcYP.s:3297   .text:0000000000000c38 .L0 
     /tmp/ccMeUcYP.s:3304   .text:0000000000000c44 .L0 
     /tmp/ccMeUcYP.s:3305   .text:0000000000000c44 .L0 
     /tmp/ccMeUcYP.s:3306   .text:0000000000000c44 .L0 
     /tmp/ccMeUcYP.s:3308   .text:0000000000000c48 .L0 
     /tmp/ccMeUcYP.s:3312   .text:0000000000000c54 .L0 
     /tmp/ccMeUcYP.s:3314   .text:0000000000000c58 .L0 
     /tmp/ccMeUcYP.s:3315   .text:0000000000000c58 .L0 
     /tmp/ccMeUcYP.s:3319   .text:0000000000000c64 .L0 
     /tmp/ccMeUcYP.s:3320   .text:0000000000000c68 .L0 
     /tmp/ccMeUcYP.s:3322   .text:0000000000000c6c .L0 
     /tmp/ccMeUcYP.s:3323   .text:0000000000000c6c .L0 
     /tmp/ccMeUcYP.s:3325   .text:0000000000000c70 .L0 
     /tmp/ccMeUcYP.s:3327   .text:0000000000000c74 .L0 
     /tmp/ccMeUcYP.s:3330   .text:0000000000000c78 .L0 
     /tmp/ccMeUcYP.s:3333   .text:0000000000000c7c .L0 
     /tmp/ccMeUcYP.s:3336   .text:0000000000000c80 .L0 
     /tmp/ccMeUcYP.s:3338   .text:0000000000000c84 .L0 
     /tmp/ccMeUcYP.s:3345   .text._ZN8Consumer3runEv:0000000000000000 _ZN8Consumer3runEv
     /tmp/ccMeUcYP.s:3348   .text._ZN8Consumer3runEv:0000000000000000 .L0 
     /tmp/ccMeUcYP.s:3350   .text._ZN8Consumer3runEv:0000000000000000 .L0 
     /tmp/ccMeUcYP.s:3351   .text._ZN8Consumer3runEv:0000000000000004 .L0 
     /tmp/ccMeUcYP.s:3354   .text._ZN8Consumer3runEv:000000000000000c .L0 
     /tmp/ccMeUcYP.s:3355   .text._ZN8Consumer3runEv:000000000000000c .L0 
     /tmp/ccMeUcYP.s:3357   .text._ZN8Consumer3runEv:0000000000000010 .L0 
     /tmp/ccMeUcYP.s:3359   .text._ZN8Consumer3runEv:0000000000000010 .L0 
     /tmp/ccMeUcYP.s:3360   .text._ZN8Consumer3runEv:0000000000000010 .L0 
     /tmp/ccMeUcYP.s:3364   .text._ZN8Consumer3runEv:000000000000001c .L0 
     /tmp/ccMeUcYP.s:3365   .text._ZN8Consumer3runEv:0000000000000020 .L0 
     /tmp/ccMeUcYP.s:3367   .text._ZN8Consumer3runEv:0000000000000024 .L0 
     /tmp/ccMeUcYP.s:3368   .text._ZN8Consumer3runEv:0000000000000024 .L0 
     /tmp/ccMeUcYP.s:3370   .text._ZN8Consumer3runEv:0000000000000028 .L0 
     /tmp/ccMeUcYP.s:3372   .text._ZN8Consumer3runEv:000000000000002c .L0 
     /tmp/ccMeUcYP.s:3401   .text:0000000000000c84 _Z29producerConsumer_CPP_Sync_APIv
     /tmp/ccMeUcYP.s:3404   .text:0000000000000c84 .L0 
     /tmp/ccMeUcYP.s:3407   .text:0000000000000c84 .L0 
     /tmp/ccMeUcYP.s:3408   .text:0000000000000c88 .L0 
     /tmp/ccMeUcYP.s:3420   .text:0000000000000cb4 .L0 
     /tmp/ccMeUcYP.s:3421   .text:0000000000000cb4 .L0 
     /tmp/ccMeUcYP.s:3422   .text:0000000000000cb4 .L0 
     /tmp/ccMeUcYP.s:3423   .text:0000000000000cb4 .L0 
     /tmp/ccMeUcYP.s:3424   .text:0000000000000cb4 .L0 
     /tmp/ccMeUcYP.s:3425   .text:0000000000000cb4 .L0 
     /tmp/ccMeUcYP.s:3426   .text:0000000000000cb4 .L0 
     /tmp/ccMeUcYP.s:3427   .text:0000000000000cb4 .L0 
     /tmp/ccMeUcYP.s:3428   .text:0000000000000cb4 .L0 
     /tmp/ccMeUcYP.s:3429   .text:0000000000000cb4 .L0 
     /tmp/ccMeUcYP.s:3430   .text:0000000000000cb4 .L0 
     /tmp/ccMeUcYP.s:3432   .text:0000000000000cb8 .L0 
     /tmp/ccMeUcYP.s:3434   .text:0000000000000cb8 .L0 
     /tmp/ccMeUcYP.s:3436   .text:0000000000000cbc .L0 
     /tmp/ccMeUcYP.s:3437   .text:0000000000000cbc .L0 
     /tmp/ccMeUcYP.s:3438   .text:0000000000000cbc .L0 
     /tmp/ccMeUcYP.s:3439   .text:0000000000000cbc .L0 
     /tmp/ccMeUcYP.s:3444   .text:0000000000000ccc .L0 
GAS LISTING /tmp/ccMeUcYP.s 			page 168


     /tmp/ccMeUcYP.s:3445   .text:0000000000000ccc .L0 
     /tmp/ccMeUcYP.s:3451   .text:0000000000000ce0 .L0 
     /tmp/ccMeUcYP.s:3452   .text:0000000000000ce0 .L0 
     /tmp/ccMeUcYP.s:3458   .text:0000000000000cf0 .L0 
     /tmp/ccMeUcYP.s:3459   .text:0000000000000cf0 .L0 
     /tmp/ccMeUcYP.s:3463   .text:0000000000000d00 .L0 
     /tmp/ccMeUcYP.s:3464   .text:0000000000000d00 .L0 
     /tmp/ccMeUcYP.s:3469   .text:0000000000000d10 .L0 
     /tmp/ccMeUcYP.s:3470   .text:0000000000000d10 .L0 
     /tmp/ccMeUcYP.s:3476   .text:0000000000000d20 .L0 
     /tmp/ccMeUcYP.s:3477   .text:0000000000000d20 .L0 
     /tmp/ccMeUcYP.s:3481   .text:0000000000000d30 .L0 
     /tmp/ccMeUcYP.s:3482   .text:0000000000000d30 .L0 
     /tmp/ccMeUcYP.s:3488   .text:0000000000000d44 .L0 
     /tmp/ccMeUcYP.s:3489   .text:0000000000000d44 .L0 
     /tmp/ccMeUcYP.s:3493   .text:0000000000000d54 .L0 
     /tmp/ccMeUcYP.s:3494   .text:0000000000000d54 .L0 
     /tmp/ccMeUcYP.s:3500   .text:0000000000000d68 .L0 
     /tmp/ccMeUcYP.s:3501   .text:0000000000000d68 .L0 
     /tmp/ccMeUcYP.s:3505   .text:0000000000000d78 .L0 
     /tmp/ccMeUcYP.s:3507   .text:0000000000000d7c .L0 
     /tmp/ccMeUcYP.s:3509   .text:0000000000000d80 .L0 
     /tmp/ccMeUcYP.s:3510   .text:0000000000000d80 .L0 
     /tmp/ccMeUcYP.s:3523   .text:0000000000000da0 .L0 
     /tmp/ccMeUcYP.s:3524   .text:0000000000000da0 .L0 
     /tmp/ccMeUcYP.s:3529   .text:0000000000000db0 .L0 
     /tmp/ccMeUcYP.s:3532   .text:0000000000000db4 .L0 
     /tmp/ccMeUcYP.s:3533   .text:0000000000000db4 .L0 
     /tmp/ccMeUcYP.s:3538   .text:0000000000000dc4 .L0 
     /tmp/ccMeUcYP.s:3543   .text:0000000000000dcc .L0 
     /tmp/ccMeUcYP.s:3544   .text:0000000000000dcc .L0 
     /tmp/ccMeUcYP.s:3556   .text:0000000000000de8 .L0 
     /tmp/ccMeUcYP.s:3560   .text:0000000000000df4 .L0 
     /tmp/ccMeUcYP.s:3561   .text:0000000000000df4 .L0 
     /tmp/ccMeUcYP.s:3568   .text:0000000000000e08 .L0 
     /tmp/ccMeUcYP.s:3569   .text:0000000000000e08 .L0 
     /tmp/ccMeUcYP.s:3570   .text:0000000000000e08 .L0 
     /tmp/ccMeUcYP.s:3573   .text:0000000000000e0c .L0 
     /tmp/ccMeUcYP.s:3583   .text:0000000000000e28 .L0 
     /tmp/ccMeUcYP.s:3584   .text:0000000000000e28 .L0 
     /tmp/ccMeUcYP.s:3590   .text:0000000000000e3c .L0 
     /tmp/ccMeUcYP.s:3591   .text:0000000000000e3c .L0 
     /tmp/ccMeUcYP.s:3593   .text:0000000000000e40 .L0 
     /tmp/ccMeUcYP.s:3594   .text:0000000000000e40 .L0 
     /tmp/ccMeUcYP.s:3597   .text:0000000000000e48 .L0 
     /tmp/ccMeUcYP.s:3598   .text:0000000000000e48 .L0 
     /tmp/ccMeUcYP.s:3605   .text:0000000000000e58 .L0 
     /tmp/ccMeUcYP.s:3608   .text:0000000000000e60 .L0 
     /tmp/ccMeUcYP.s:3614   .text:0000000000000e64 .L0 
     /tmp/ccMeUcYP.s:3618   .text:0000000000000e6c .L0 
     /tmp/ccMeUcYP.s:3625   .text:0000000000000e7c .L0 
     /tmp/ccMeUcYP.s:3626   .text:0000000000000e7c .L0 
     /tmp/ccMeUcYP.s:3632   .text:0000000000000e88 .L0 
     /tmp/ccMeUcYP.s:3639   .text:0000000000000e90 .L0 
     /tmp/ccMeUcYP.s:3646   .text:0000000000000ea0 .L0 
     /tmp/ccMeUcYP.s:3651   .text:0000000000000eac .L0 
     /tmp/ccMeUcYP.s:3652   .text:0000000000000eac .L0 
GAS LISTING /tmp/ccMeUcYP.s 			page 169


     /tmp/ccMeUcYP.s:3655   .text:0000000000000eb4 .L0 
     /tmp/ccMeUcYP.s:3659   .text:0000000000000ec0 .L0 
     /tmp/ccMeUcYP.s:3663   .text:0000000000000ec4 .L0 
     /tmp/ccMeUcYP.s:3665   .text:0000000000000ec8 .L0 
     /tmp/ccMeUcYP.s:3666   .text:0000000000000ec8 .L0 
     /tmp/ccMeUcYP.s:3672   .text:0000000000000edc .L0 
     /tmp/ccMeUcYP.s:3673   .text:0000000000000edc .L0 
     /tmp/ccMeUcYP.s:3675   .text:0000000000000ee0 .L0 
     /tmp/ccMeUcYP.s:3676   .text:0000000000000ee0 .L0 
     /tmp/ccMeUcYP.s:3679   .text:0000000000000eec .L0 
     /tmp/ccMeUcYP.s:3681   .text:0000000000000ef0 .L0 
     /tmp/ccMeUcYP.s:3682   .text:0000000000000ef0 .L0 
     /tmp/ccMeUcYP.s:3688   .text:0000000000000f00 .L0 
     /tmp/ccMeUcYP.s:3692   .text:0000000000000f0c .L0 
     /tmp/ccMeUcYP.s:3698   .text:0000000000000f10 .L0 
     /tmp/ccMeUcYP.s:3707   .text:0000000000000f1c .L0 
     /tmp/ccMeUcYP.s:3708   .text:0000000000000f1c .L0 
     /tmp/ccMeUcYP.s:3715   .text:0000000000000f2c .L0 
     /tmp/ccMeUcYP.s:3719   .text:0000000000000f38 .L0 
     /tmp/ccMeUcYP.s:3725   .text:0000000000000f3c .L0 
     /tmp/ccMeUcYP.s:3735   .text:0000000000000f54 .L0 
     /tmp/ccMeUcYP.s:3743   .text:0000000000000f64 .L0 
     /tmp/ccMeUcYP.s:3744   .text:0000000000000f64 .L0 
     /tmp/ccMeUcYP.s:3748   .text:0000000000000f6c .L0 
     /tmp/ccMeUcYP.s:3752   .text:0000000000000f70 .L0 
     /tmp/ccMeUcYP.s:3754   .text:0000000000000f74 .L0 
     /tmp/ccMeUcYP.s:3755   .text:0000000000000f74 .L0 
     /tmp/ccMeUcYP.s:3759   .text:0000000000000f84 .L0 
     /tmp/ccMeUcYP.s:3767   .text:0000000000000f8c .L0 
     /tmp/ccMeUcYP.s:3773   .text:0000000000000f94 .L0 
     /tmp/ccMeUcYP.s:3777   .text:0000000000000f98 .L0 
     /tmp/ccMeUcYP.s:3779   .text:0000000000000f9c .L0 
     /tmp/ccMeUcYP.s:3780   .text:0000000000000f9c .L0 
     /tmp/ccMeUcYP.s:3784   .text:0000000000000fa8 .L0 
     /tmp/ccMeUcYP.s:3786   .text:0000000000000fac .L0 
     /tmp/ccMeUcYP.s:3794   .text:0000000000000fbc .L0 
     /tmp/ccMeUcYP.s:3795   .text:0000000000000fbc .L0 
     /tmp/ccMeUcYP.s:3797   .text:0000000000000fc0 .L0 
     /tmp/ccMeUcYP.s:3804   .text:0000000000000fd0 .L0 
     /tmp/ccMeUcYP.s:3805   .text:0000000000000fd0 .L0 
     /tmp/ccMeUcYP.s:3807   .text:0000000000000fd8 .L0 
     /tmp/ccMeUcYP.s:3809   .text:0000000000000fdc .L0 
     /tmp/ccMeUcYP.s:3815   .text:0000000000000fe8 .L0 
     /tmp/ccMeUcYP.s:3816   .text:0000000000000fe8 .L0 
     /tmp/ccMeUcYP.s:3818   .text:0000000000000fec .L0 
     /tmp/ccMeUcYP.s:3830   .text:0000000000001008 .L0 
     /tmp/ccMeUcYP.s:3831   .text:000000000000100c .L0 
     /tmp/ccMeUcYP.s:3832   .text:000000000000100c .L0 
     /tmp/ccMeUcYP.s:3834   .text:0000000000001010 .L0 
     /tmp/ccMeUcYP.s:3836   .text:0000000000001014 .L0 
     /tmp/ccMeUcYP.s:3838   .text:0000000000001018 .L0 
     /tmp/ccMeUcYP.s:3840   .text:000000000000101c .L0 
     /tmp/ccMeUcYP.s:3843   .text:0000000000001020 .L0 
     /tmp/ccMeUcYP.s:3845   .text:0000000000001024 .L0 
     /tmp/ccMeUcYP.s:3847   .text:0000000000001028 .L0 
     /tmp/ccMeUcYP.s:3849   .text:000000000000102c .L0 
     /tmp/ccMeUcYP.s:3851   .text:0000000000001030 .L0 
GAS LISTING /tmp/ccMeUcYP.s 			page 170


     /tmp/ccMeUcYP.s:3853   .text:0000000000001034 .L0 
     /tmp/ccMeUcYP.s:3855   .text:0000000000001038 .L0 
     /tmp/ccMeUcYP.s:3857   .text:000000000000103c .L0 
     /tmp/ccMeUcYP.s:3861   .text:0000000000001040 .L0 
     /tmp/ccMeUcYP.s:3865   .text:0000000000001044 .L0 
     /tmp/ccMeUcYP.s:3877   .text:0000000000001060 .L0 
     /tmp/ccMeUcYP.s:3889   .text:000000000000107c .L0 
     /tmp/ccMeUcYP.s:3902   .text:0000000000001098 .L0 
     /tmp/ccMeUcYP.s:3914   .text:00000000000010b4 .L0 
     /tmp/ccMeUcYP.s:3923   .text:00000000000010cc .L0 
     /tmp/ccMeUcYP.s:4000   .text:00000000000010cc _Z12testSleepingv
     /tmp/ccMeUcYP.s:4003   .text:00000000000010cc .L0 
     /tmp/ccMeUcYP.s:4004   .text:00000000000010cc .L0 
     /tmp/ccMeUcYP.s:4005   .text:00000000000010d0 .L0 
     /tmp/ccMeUcYP.s:4009   .text:00000000000010dc .L0 
     /tmp/ccMeUcYP.s:4010   .text:00000000000010dc .L0 
     /tmp/ccMeUcYP.s:4011   .text:00000000000010dc .L0 
     /tmp/ccMeUcYP.s:4013   .text:00000000000010e0 .L0 
     /tmp/ccMeUcYP.s:4016   .text:00000000000010e0 .L0 
     /tmp/ccMeUcYP.s:4017   .text:00000000000010e0 .L0 
     /tmp/ccMeUcYP.s:4018   .text:00000000000010e0 .L0 
     /tmp/ccMeUcYP.s:4023   .text:00000000000010f0 .L0 
     /tmp/ccMeUcYP.s:4026   .text:00000000000010f0 .L0 
     /tmp/ccMeUcYP.s:4027   .text:00000000000010f0 .L0 
     /tmp/ccMeUcYP.s:4032   .text:00000000000010f8 .L0 
     /tmp/ccMeUcYP.s:4033   .text:00000000000010f8 .L0 
     /tmp/ccMeUcYP.s:4035   .text:00000000000010fc .L0 
     /tmp/ccMeUcYP.s:4043   .text:000000000000111c .L0 
     /tmp/ccMeUcYP.s:4047   .text:0000000000001120 .L0 
     /tmp/ccMeUcYP.s:4052   .text:0000000000001128 .L0 
     /tmp/ccMeUcYP.s:4053   .text:0000000000001128 .L0 
     /tmp/ccMeUcYP.s:4054   .text:0000000000001128 .L0 
     /tmp/ccMeUcYP.s:4056   .text:0000000000001130 .L0 
     /tmp/ccMeUcYP.s:4058   .text:0000000000001134 .L0 
     /tmp/ccMeUcYP.s:4060   .text:000000000000113c .L0 
     /tmp/ccMeUcYP.s:4062   .text:0000000000001140 .L0 
     /tmp/ccMeUcYP.s:4063   .text:0000000000001144 .L0 
     /tmp/ccMeUcYP.s:4065   .text:0000000000001148 .L0 
     /tmp/ccMeUcYP.s:4066   .text:0000000000001148 .L0 
     /tmp/ccMeUcYP.s:4068   .text:000000000000114c .L0 
     /tmp/ccMeUcYP.s:4071   .text:0000000000001150 .L0 
     /tmp/ccMeUcYP.s:4073   .text:0000000000001154 .L0 
     /tmp/ccMeUcYP.s:4079   .text:0000000000001154 _ZN19ConsumerProducerCPP20testConsumerProducerEv
     /tmp/ccMeUcYP.s:4082   .text:0000000000001154 .L0 
     /tmp/ccMeUcYP.s:4085   .text:0000000000001154 .L0 
     /tmp/ccMeUcYP.s:4086   .text:0000000000001158 .L0 
     /tmp/ccMeUcYP.s:4098   .text:0000000000001184 .L0 
     /tmp/ccMeUcYP.s:4099   .text:0000000000001184 .L0 
     /tmp/ccMeUcYP.s:4100   .text:0000000000001184 .L0 
     /tmp/ccMeUcYP.s:4101   .text:0000000000001184 .L0 
     /tmp/ccMeUcYP.s:4102   .text:0000000000001184 .L0 
     /tmp/ccMeUcYP.s:4103   .text:0000000000001184 .L0 
     /tmp/ccMeUcYP.s:4104   .text:0000000000001184 .L0 
     /tmp/ccMeUcYP.s:4105   .text:0000000000001184 .L0 
     /tmp/ccMeUcYP.s:4106   .text:0000000000001184 .L0 
     /tmp/ccMeUcYP.s:4107   .text:0000000000001184 .L0 
     /tmp/ccMeUcYP.s:4108   .text:0000000000001184 .L0 
GAS LISTING /tmp/ccMeUcYP.s 			page 171


     /tmp/ccMeUcYP.s:4110   .text:0000000000001188 .L0 
     /tmp/ccMeUcYP.s:4112   .text:0000000000001188 .L0 
     /tmp/ccMeUcYP.s:4114   .text:000000000000118c .L0 
     /tmp/ccMeUcYP.s:4115   .text:000000000000118c .L0 
     /tmp/ccMeUcYP.s:4116   .text:000000000000118c .L0 
     /tmp/ccMeUcYP.s:4117   .text:000000000000118c .L0 
     /tmp/ccMeUcYP.s:4122   .text:000000000000119c .L0 
     /tmp/ccMeUcYP.s:4123   .text:000000000000119c .L0 
     /tmp/ccMeUcYP.s:4129   .text:00000000000011b0 .L0 
     /tmp/ccMeUcYP.s:4130   .text:00000000000011b0 .L0 
     /tmp/ccMeUcYP.s:4136   .text:00000000000011c0 .L0 
     /tmp/ccMeUcYP.s:4137   .text:00000000000011c0 .L0 
     /tmp/ccMeUcYP.s:4141   .text:00000000000011d0 .L0 
     /tmp/ccMeUcYP.s:4142   .text:00000000000011d0 .L0 
     /tmp/ccMeUcYP.s:4147   .text:00000000000011e0 .L0 
     /tmp/ccMeUcYP.s:4148   .text:00000000000011e0 .L0 
     /tmp/ccMeUcYP.s:4154   .text:00000000000011f0 .L0 
     /tmp/ccMeUcYP.s:4155   .text:00000000000011f0 .L0 
     /tmp/ccMeUcYP.s:4159   .text:0000000000001200 .L0 
     /tmp/ccMeUcYP.s:4160   .text:0000000000001200 .L0 
     /tmp/ccMeUcYP.s:4166   .text:0000000000001214 .L0 
     /tmp/ccMeUcYP.s:4167   .text:0000000000001214 .L0 
     /tmp/ccMeUcYP.s:4171   .text:0000000000001224 .L0 
     /tmp/ccMeUcYP.s:4172   .text:0000000000001224 .L0 
     /tmp/ccMeUcYP.s:4178   .text:0000000000001238 .L0 
     /tmp/ccMeUcYP.s:4179   .text:0000000000001238 .L0 
     /tmp/ccMeUcYP.s:4183   .text:0000000000001248 .L0 
     /tmp/ccMeUcYP.s:4185   .text:000000000000124c .L0 
     /tmp/ccMeUcYP.s:4187   .text:0000000000001250 .L0 
     /tmp/ccMeUcYP.s:4188   .text:0000000000001250 .L0 
     /tmp/ccMeUcYP.s:4201   .text:0000000000001270 .L0 
     /tmp/ccMeUcYP.s:4202   .text:0000000000001270 .L0 
     /tmp/ccMeUcYP.s:4207   .text:0000000000001280 .L0 
     /tmp/ccMeUcYP.s:4210   .text:0000000000001284 .L0 
     /tmp/ccMeUcYP.s:4211   .text:0000000000001284 .L0 
     /tmp/ccMeUcYP.s:4216   .text:0000000000001294 .L0 
     /tmp/ccMeUcYP.s:4221   .text:000000000000129c .L0 
     /tmp/ccMeUcYP.s:4222   .text:000000000000129c .L0 
     /tmp/ccMeUcYP.s:4234   .text:00000000000012b8 .L0 
     /tmp/ccMeUcYP.s:4238   .text:00000000000012c4 .L0 
     /tmp/ccMeUcYP.s:4239   .text:00000000000012c4 .L0 
     /tmp/ccMeUcYP.s:4246   .text:00000000000012d8 .L0 
     /tmp/ccMeUcYP.s:4247   .text:00000000000012d8 .L0 
     /tmp/ccMeUcYP.s:4250   .text:00000000000012dc .L0 
     /tmp/ccMeUcYP.s:4260   .text:00000000000012f8 .L0 
     /tmp/ccMeUcYP.s:4261   .text:00000000000012f8 .L0 
     /tmp/ccMeUcYP.s:4267   .text:000000000000130c .L0 
     /tmp/ccMeUcYP.s:4268   .text:000000000000130c .L0 
     /tmp/ccMeUcYP.s:4270   .text:0000000000001310 .L0 
     /tmp/ccMeUcYP.s:4271   .text:0000000000001310 .L0 
     /tmp/ccMeUcYP.s:4274   .text:0000000000001318 .L0 
     /tmp/ccMeUcYP.s:4275   .text:0000000000001318 .L0 
     /tmp/ccMeUcYP.s:4286   .text:0000000000001328 .L0 
     /tmp/ccMeUcYP.s:4290   .text:0000000000001330 .L0 
     /tmp/ccMeUcYP.s:4297   .text:0000000000001340 .L0 
     /tmp/ccMeUcYP.s:4298   .text:0000000000001340 .L0 
     /tmp/ccMeUcYP.s:4303   .text:000000000000134c .L0 
GAS LISTING /tmp/ccMeUcYP.s 			page 172


     /tmp/ccMeUcYP.s:4304   .text:000000000000134c .L0 
     /tmp/ccMeUcYP.s:4306   .text:0000000000001350 .L0 
     /tmp/ccMeUcYP.s:4307   .text:0000000000001350 .L0 
     /tmp/ccMeUcYP.s:4309   .text:0000000000001354 .L0 
     /tmp/ccMeUcYP.s:4310   .text:0000000000001354 .L0 
     /tmp/ccMeUcYP.s:4313   .text:0000000000001360 .L0 
     /tmp/ccMeUcYP.s:4314   .text:0000000000001360 .L0 
     /tmp/ccMeUcYP.s:4324   .text:0000000000001370 .L0 
     /tmp/ccMeUcYP.s:4334   .text:0000000000001388 .L0 
     /tmp/ccMeUcYP.s:4336   .text:000000000000138c .L0 
     /tmp/ccMeUcYP.s:4337   .text:000000000000138c .L0 
     /tmp/ccMeUcYP.s:4343   .text:0000000000001398 .L0 
     /tmp/ccMeUcYP.s:4350   .text:00000000000013a0 .L0 
     /tmp/ccMeUcYP.s:4357   .text:00000000000013b0 .L0 
     /tmp/ccMeUcYP.s:4361   .text:00000000000013bc .L0 
     /tmp/ccMeUcYP.s:4362   .text:00000000000013bc .L0 
     /tmp/ccMeUcYP.s:4366   .text:00000000000013c8 .L0 
     /tmp/ccMeUcYP.s:4370   .text:00000000000013cc .L0 
     /tmp/ccMeUcYP.s:4372   .text:00000000000013d0 .L0 
     /tmp/ccMeUcYP.s:4373   .text:00000000000013d0 .L0 
     /tmp/ccMeUcYP.s:4379   .text:00000000000013e4 .L0 
     /tmp/ccMeUcYP.s:4380   .text:00000000000013e4 .L0 
     /tmp/ccMeUcYP.s:4382   .text:00000000000013e8 .L0 
     /tmp/ccMeUcYP.s:4383   .text:00000000000013e8 .L0 
     /tmp/ccMeUcYP.s:4386   .text:00000000000013f4 .L0 
     /tmp/ccMeUcYP.s:4387   .text:00000000000013f4 .L0 
     /tmp/ccMeUcYP.s:4397   .text:0000000000001404 .L0 
     /tmp/ccMeUcYP.s:4408   .text:0000000000001410 .L0 
     /tmp/ccMeUcYP.s:4409   .text:0000000000001410 .L0 
     /tmp/ccMeUcYP.s:4413   .text:0000000000001418 .L0 
     /tmp/ccMeUcYP.s:4417   .text:000000000000141c .L0 
     /tmp/ccMeUcYP.s:4419   .text:0000000000001420 .L0 
     /tmp/ccMeUcYP.s:4420   .text:0000000000001420 .L0 
     /tmp/ccMeUcYP.s:4424   .text:0000000000001430 .L0 
     /tmp/ccMeUcYP.s:4431   .text:0000000000001438 .L0 
     /tmp/ccMeUcYP.s:4432   .text:0000000000001438 .L0 
     /tmp/ccMeUcYP.s:4434   .text:0000000000001440 .L0 
     /tmp/ccMeUcYP.s:4436   .text:0000000000001444 .L0 
     /tmp/ccMeUcYP.s:4443   .text:0000000000001450 .L0 
     /tmp/ccMeUcYP.s:4451   .text:0000000000001458 .L0 
     /tmp/ccMeUcYP.s:4455   .text:000000000000145c .L0 
     /tmp/ccMeUcYP.s:4457   .text:0000000000001460 .L0 
     /tmp/ccMeUcYP.s:4458   .text:0000000000001460 .L0 
     /tmp/ccMeUcYP.s:4462   .text:000000000000146c .L0 
     /tmp/ccMeUcYP.s:4464   .text:0000000000001470 .L0 
     /tmp/ccMeUcYP.s:4472   .text:0000000000001480 .L0 
     /tmp/ccMeUcYP.s:4473   .text:0000000000001480 .L0 
     /tmp/ccMeUcYP.s:4475   .text:0000000000001484 .L0 
     /tmp/ccMeUcYP.s:4482   .text:0000000000001494 .L0 
     /tmp/ccMeUcYP.s:4483   .text:0000000000001494 .L0 
     /tmp/ccMeUcYP.s:4485   .text:0000000000001498 .L0 
     /tmp/ccMeUcYP.s:4497   .text:00000000000014b4 .L0 
     /tmp/ccMeUcYP.s:4498   .text:00000000000014b8 .L0 
     /tmp/ccMeUcYP.s:4499   .text:00000000000014b8 .L0 
     /tmp/ccMeUcYP.s:4501   .text:00000000000014bc .L0 
     /tmp/ccMeUcYP.s:4503   .text:00000000000014c0 .L0 
     /tmp/ccMeUcYP.s:4505   .text:00000000000014c4 .L0 
GAS LISTING /tmp/ccMeUcYP.s 			page 173


     /tmp/ccMeUcYP.s:4507   .text:00000000000014c8 .L0 
     /tmp/ccMeUcYP.s:4509   .text:00000000000014cc .L0 
     /tmp/ccMeUcYP.s:4512   .text:00000000000014d0 .L0 
     /tmp/ccMeUcYP.s:4514   .text:00000000000014d4 .L0 
     /tmp/ccMeUcYP.s:4516   .text:00000000000014d8 .L0 
     /tmp/ccMeUcYP.s:4518   .text:00000000000014dc .L0 
     /tmp/ccMeUcYP.s:4520   .text:00000000000014e0 .L0 
     /tmp/ccMeUcYP.s:4522   .text:00000000000014e4 .L0 
     /tmp/ccMeUcYP.s:4524   .text:00000000000014e8 .L0 
     /tmp/ccMeUcYP.s:4528   .text:00000000000014ec .L0 
     /tmp/ccMeUcYP.s:4532   .text:00000000000014f0 .L0 
     /tmp/ccMeUcYP.s:4543   .text:000000000000150c .L0 
     /tmp/ccMeUcYP.s:4555   .text:0000000000001528 .L0 
     /tmp/ccMeUcYP.s:4566   .text:0000000000001544 .L0 
     /tmp/ccMeUcYP.s:4579   .text:0000000000001560 .L0 
     /tmp/ccMeUcYP.s:4588   .text:0000000000001578 .L0 
     /tmp/ccMeUcYP.s:4665   .text:0000000000001578 _Z13KlasaMemorijav
     /tmp/ccMeUcYP.s:4668   .text:0000000000001578 .L0 
     /tmp/ccMeUcYP.s:4669   .text:0000000000001578 .L0 
     /tmp/ccMeUcYP.s:4670   .text:000000000000157c .L0 
     /tmp/ccMeUcYP.s:4677   .text:0000000000001594 .L0 
     /tmp/ccMeUcYP.s:4678   .text:0000000000001594 .L0 
     /tmp/ccMeUcYP.s:4679   .text:0000000000001594 .L0 
     /tmp/ccMeUcYP.s:4680   .text:0000000000001594 .L0 
     /tmp/ccMeUcYP.s:4681   .text:0000000000001594 .L0 
     /tmp/ccMeUcYP.s:4682   .text:0000000000001594 .L0 
     /tmp/ccMeUcYP.s:4684   .text:0000000000001598 .L0 
     /tmp/ccMeUcYP.s:4686   .text:0000000000001598 .L0 
     /tmp/ccMeUcYP.s:4687   .text:0000000000001598 .L0 
     /tmp/ccMeUcYP.s:4690   .text:00000000000015a0 .L0 
     /tmp/ccMeUcYP.s:4691   .text:00000000000015a0 .L0 
     /tmp/ccMeUcYP.s:4697   .text:00000000000015b0 .L0 
     /tmp/ccMeUcYP.s:4698   .text:00000000000015b0 .L0 
     /tmp/ccMeUcYP.s:4701   .text:00000000000015b8 .L0 
     /tmp/ccMeUcYP.s:4702   .text:00000000000015b8 .L0 
     /tmp/ccMeUcYP.s:4708   .text:00000000000015c8 .L0 
     /tmp/ccMeUcYP.s:4709   .text:00000000000015c8 .L0 
     /tmp/ccMeUcYP.s:4712   .text:00000000000015d0 .L0 
     /tmp/ccMeUcYP.s:4713   .text:00000000000015d0 .L0 
     /tmp/ccMeUcYP.s:4719   .text:00000000000015e0 .L0 
     /tmp/ccMeUcYP.s:4720   .text:00000000000015e0 .L0 
     /tmp/ccMeUcYP.s:4723   .text:00000000000015e8 .L0 
     /tmp/ccMeUcYP.s:4724   .text:00000000000015e8 .L0 
     /tmp/ccMeUcYP.s:4730   .text:00000000000015f8 .L0 
     /tmp/ccMeUcYP.s:4731   .text:00000000000015f8 .L0 
     /tmp/ccMeUcYP.s:4734   .text:0000000000001600 .L0 
     /tmp/ccMeUcYP.s:4735   .text:0000000000001600 .L0 
     /tmp/ccMeUcYP.s:4741   .text:0000000000001614 .L0 
     /tmp/ccMeUcYP.s:4742   .text:0000000000001614 .L0 
     /tmp/ccMeUcYP.s:4745   .text:000000000000161c .L0 
     /tmp/ccMeUcYP.s:4746   .text:000000000000161c .L0 
     /tmp/ccMeUcYP.s:4752   .text:0000000000001630 .L0 
     /tmp/ccMeUcYP.s:4753   .text:0000000000001630 .L0 
     /tmp/ccMeUcYP.s:4756   .text:0000000000001638 .L0 
     /tmp/ccMeUcYP.s:4757   .text:0000000000001638 .L0 
     /tmp/ccMeUcYP.s:4763   .text:000000000000164c .L0 
     /tmp/ccMeUcYP.s:4764   .text:000000000000164c .L0 
GAS LISTING /tmp/ccMeUcYP.s 			page 174


     /tmp/ccMeUcYP.s:4767   .text:0000000000001654 .L0 
     /tmp/ccMeUcYP.s:4768   .text:0000000000001654 .L0 
     /tmp/ccMeUcYP.s:4774   .text:0000000000001668 .L0 
     /tmp/ccMeUcYP.s:4775   .text:0000000000001668 .L0 
     /tmp/ccMeUcYP.s:4778   .text:0000000000001670 .L0 
     /tmp/ccMeUcYP.s:4779   .text:0000000000001670 .L0 
     /tmp/ccMeUcYP.s:4783   .text:000000000000167c .L0 
     /tmp/ccMeUcYP.s:4784   .text:000000000000167c .L0 
     /tmp/ccMeUcYP.s:4788   .text:0000000000001688 .L0 
     /tmp/ccMeUcYP.s:4789   .text:0000000000001688 .L0 
     /tmp/ccMeUcYP.s:4794   .text:000000000000169c .L0 
     /tmp/ccMeUcYP.s:4795   .text:000000000000169c .L0 
     /tmp/ccMeUcYP.s:4799   .text:00000000000016a8 .L0 
     /tmp/ccMeUcYP.s:4800   .text:00000000000016a8 .L0 
     /tmp/ccMeUcYP.s:4804   .text:00000000000016b4 .L0 
     /tmp/ccMeUcYP.s:4805   .text:00000000000016b4 .L0 
     /tmp/ccMeUcYP.s:4809   .text:00000000000016c0 .L0 
     /tmp/ccMeUcYP.s:4810   .text:00000000000016c0 .L0 
     /tmp/ccMeUcYP.s:4814   .text:00000000000016cc .L0 
     /tmp/ccMeUcYP.s:4815   .text:00000000000016cc .L0 
     /tmp/ccMeUcYP.s:4817   .text:00000000000016d4 .L0 
     /tmp/ccMeUcYP.s:4819   .text:00000000000016d8 .L0 
     /tmp/ccMeUcYP.s:4820   .text:00000000000016d8 .L0 
     /tmp/ccMeUcYP.s:4822   .text:00000000000016dc .L0 
     /tmp/ccMeUcYP.s:4825   .text:00000000000016e0 .L0 
     /tmp/ccMeUcYP.s:4828   .text:00000000000016e4 .L0 
     /tmp/ccMeUcYP.s:4831   .text:00000000000016e8 .L0 
     /tmp/ccMeUcYP.s:4834   .text:00000000000016ec .L0 
     /tmp/ccMeUcYP.s:4836   .text:00000000000016f0 .L0 
     /tmp/ccMeUcYP.s:4842   .text:00000000000016f0 _Z16PrekidnaMemorijav
     /tmp/ccMeUcYP.s:4845   .text:00000000000016f0 .L0 
     /tmp/ccMeUcYP.s:4846   .text:00000000000016f0 .L0 
     /tmp/ccMeUcYP.s:4847   .text:00000000000016f4 .L0 
     /tmp/ccMeUcYP.s:4853   .text:0000000000001708 .L0 
     /tmp/ccMeUcYP.s:4854   .text:0000000000001708 .L0 
     /tmp/ccMeUcYP.s:4855   .text:0000000000001708 .L0 
     /tmp/ccMeUcYP.s:4856   .text:0000000000001708 .L0 
     /tmp/ccMeUcYP.s:4857   .text:0000000000001708 .L0 
     /tmp/ccMeUcYP.s:4859   .text:000000000000170c .L0 
     /tmp/ccMeUcYP.s:4861   .text:000000000000170c .L0 
     /tmp/ccMeUcYP.s:4862   .text:000000000000170c .L0 
     /tmp/ccMeUcYP.s:4865   .text:0000000000001714 .L0 
     /tmp/ccMeUcYP.s:4866   .text:0000000000001714 .L0 
     /tmp/ccMeUcYP.s:4870   .text:0000000000001720 .L0 
     /tmp/ccMeUcYP.s:4871   .text:0000000000001720 .L0 
     /tmp/ccMeUcYP.s:4877   .text:0000000000001730 .L0 
     /tmp/ccMeUcYP.s:4878   .text:0000000000001730 .L0 
     /tmp/ccMeUcYP.s:4881   .text:0000000000001738 .L0 
     /tmp/ccMeUcYP.s:4882   .text:0000000000001738 .L0 
     /tmp/ccMeUcYP.s:4888   .text:0000000000001748 .L0 
     /tmp/ccMeUcYP.s:4889   .text:0000000000001748 .L0 
     /tmp/ccMeUcYP.s:4892   .text:0000000000001750 .L0 
     /tmp/ccMeUcYP.s:4893   .text:0000000000001750 .L0 
     /tmp/ccMeUcYP.s:4897   .text:000000000000175c .L0 
     /tmp/ccMeUcYP.s:4898   .text:000000000000175c .L0 
     /tmp/ccMeUcYP.s:4901   .text:0000000000001764 .L0 
     /tmp/ccMeUcYP.s:4902   .text:0000000000001764 .L0 
GAS LISTING /tmp/ccMeUcYP.s 			page 175


     /tmp/ccMeUcYP.s:4906   .text:0000000000001770 .L0 
     /tmp/ccMeUcYP.s:4907   .text:0000000000001770 .L0 
     /tmp/ccMeUcYP.s:4910   .text:0000000000001778 .L0 
     /tmp/ccMeUcYP.s:4911   .text:0000000000001778 .L0 
     /tmp/ccMeUcYP.s:4915   .text:0000000000001784 .L0 
     /tmp/ccMeUcYP.s:4916   .text:0000000000001784 .L0 
     /tmp/ccMeUcYP.s:4919   .text:0000000000001790 .L0 
     /tmp/ccMeUcYP.s:4923   .text:000000000000179c .L0 
     /tmp/ccMeUcYP.s:4924   .text:000000000000179c .L0 
     /tmp/ccMeUcYP.s:4926   .text:00000000000017a0 .L0 
     /tmp/ccMeUcYP.s:4930   .text:00000000000017ac .L0 
     /tmp/ccMeUcYP.s:4931   .text:00000000000017ac .L0 
     /tmp/ccMeUcYP.s:4933   .text:00000000000017b4 .L0 
     /tmp/ccMeUcYP.s:4935   .text:00000000000017b8 .L0 
     /tmp/ccMeUcYP.s:4936   .text:00000000000017b8 .L0 
     /tmp/ccMeUcYP.s:4938   .text:00000000000017bc .L0 
     /tmp/ccMeUcYP.s:4941   .text:00000000000017c0 .L0 
     /tmp/ccMeUcYP.s:4944   .text:00000000000017c4 .L0 
     /tmp/ccMeUcYP.s:4946   .text:00000000000017c8 .L0 
     /tmp/ccMeUcYP.s:4948   .text:00000000000017cc .L0 
     /tmp/ccMeUcYP.s:4954   .text:00000000000017cc _Z13SchedulerTestv
     /tmp/ccMeUcYP.s:4957   .text:00000000000017cc .L0 
     /tmp/ccMeUcYP.s:4958   .text:00000000000017cc .L0 
     /tmp/ccMeUcYP.s:4959   .text:00000000000017d0 .L0 
     /tmp/ccMeUcYP.s:4967   .text:00000000000017ec .L0 
     /tmp/ccMeUcYP.s:4968   .text:00000000000017ec .L0 
     /tmp/ccMeUcYP.s:4969   .text:00000000000017ec .L0 
     /tmp/ccMeUcYP.s:4970   .text:00000000000017ec .L0 
     /tmp/ccMeUcYP.s:4971   .text:00000000000017ec .L0 
     /tmp/ccMeUcYP.s:4972   .text:00000000000017ec .L0 
     /tmp/ccMeUcYP.s:4973   .text:00000000000017ec .L0 
     /tmp/ccMeUcYP.s:4975   .text:00000000000017f0 .L0 
     /tmp/ccMeUcYP.s:4981   .text:00000000000017f0 .L0 
     /tmp/ccMeUcYP.s:4982   .text:00000000000017f0 .L0 
     /tmp/ccMeUcYP.s:4983   .text:00000000000017f0 .L0 
     /tmp/ccMeUcYP.s:4993   .text:0000000000001800 .L0 
     /tmp/ccMeUcYP.s:5006   .text:0000000000001820 .L0 
     /tmp/ccMeUcYP.s:5007   .text:0000000000001820 .L0 
     /tmp/ccMeUcYP.s:5008   .text:0000000000001820 .L0 
     /tmp/ccMeUcYP.s:5019   .text:0000000000001830 .L0 
     /tmp/ccMeUcYP.s:5031   .text:0000000000001848 .L0 
     /tmp/ccMeUcYP.s:5032   .text:0000000000001848 .L0 
     /tmp/ccMeUcYP.s:5033   .text:0000000000001848 .L0 
     /tmp/ccMeUcYP.s:5044   .text:0000000000001858 .L0 
     /tmp/ccMeUcYP.s:5056   .text:0000000000001870 .L0 
     /tmp/ccMeUcYP.s:5057   .text:0000000000001870 .L0 
     /tmp/ccMeUcYP.s:5058   .text:0000000000001870 .L0 
     /tmp/ccMeUcYP.s:5069   .text:0000000000001880 .L0 
     /tmp/ccMeUcYP.s:5079   .text:0000000000001898 .L0 
     /tmp/ccMeUcYP.s:5080   .text:0000000000001898 .L0 
     /tmp/ccMeUcYP.s:5085   .text:00000000000018a4 .L0 
     /tmp/ccMeUcYP.s:5086   .text:00000000000018a4 .L0 
     /tmp/ccMeUcYP.s:5089   .text:00000000000018ac .L0 
     /tmp/ccMeUcYP.s:5090   .text:00000000000018ac .L0 
     /tmp/ccMeUcYP.s:5094   .text:00000000000018b8 .L0 
     /tmp/ccMeUcYP.s:5095   .text:00000000000018b8 .L0 
     /tmp/ccMeUcYP.s:5098   .text:00000000000018c0 .L0 
GAS LISTING /tmp/ccMeUcYP.s 			page 176


     /tmp/ccMeUcYP.s:5099   .text:00000000000018c0 .L0 
     /tmp/ccMeUcYP.s:5103   .text:00000000000018cc .L0 
     /tmp/ccMeUcYP.s:5104   .text:00000000000018cc .L0 
     /tmp/ccMeUcYP.s:5107   .text:00000000000018d4 .L0 
     /tmp/ccMeUcYP.s:5108   .text:00000000000018d4 .L0 
     /tmp/ccMeUcYP.s:5112   .text:00000000000018e0 .L0 
     /tmp/ccMeUcYP.s:5113   .text:00000000000018e0 .L0 
     /tmp/ccMeUcYP.s:5116   .text:00000000000018e8 .L0 
     /tmp/ccMeUcYP.s:5117   .text:00000000000018e8 .L0 
     /tmp/ccMeUcYP.s:5120   .text:00000000000018f0 .L0 
     /tmp/ccMeUcYP.s:5121   .text:00000000000018f0 .L0 
     /tmp/ccMeUcYP.s:5124   .text:00000000000018f8 .L0 
     /tmp/ccMeUcYP.s:5125   .text:00000000000018f8 .L0 
     /tmp/ccMeUcYP.s:5128   .text:0000000000001900 .L0 
     /tmp/ccMeUcYP.s:5129   .text:0000000000001900 .L0 
     /tmp/ccMeUcYP.s:5132   .text:0000000000001908 .L0 
     /tmp/ccMeUcYP.s:5133   .text:0000000000001908 .L0 
     /tmp/ccMeUcYP.s:5136   .text:0000000000001910 .L0 
     /tmp/ccMeUcYP.s:5137   .text:0000000000001910 .L0 
     /tmp/ccMeUcYP.s:5140   .text:0000000000001918 .L0 
     /tmp/ccMeUcYP.s:5141   .text:0000000000001918 .L0 
     /tmp/ccMeUcYP.s:5144   .text:0000000000001920 .L0 
     /tmp/ccMeUcYP.s:5145   .text:0000000000001920 .L0 
     /tmp/ccMeUcYP.s:5148   .text:0000000000001928 .L0 
     /tmp/ccMeUcYP.s:5149   .text:0000000000001928 .L0 
     /tmp/ccMeUcYP.s:5152   .text:0000000000001930 .L0 
     /tmp/ccMeUcYP.s:5153   .text:0000000000001930 .L0 
     /tmp/ccMeUcYP.s:5156   .text:0000000000001938 .L0 
     /tmp/ccMeUcYP.s:5157   .text:0000000000001938 .L0 
     /tmp/ccMeUcYP.s:5161   .text:0000000000001944 .L0 
     /tmp/ccMeUcYP.s:5162   .text:0000000000001944 .L0 
     /tmp/ccMeUcYP.s:5165   .text:000000000000194c .L0 
     /tmp/ccMeUcYP.s:5166   .text:000000000000194c .L0 
     /tmp/ccMeUcYP.s:5169   .text:0000000000001954 .L0 
     /tmp/ccMeUcYP.s:5170   .text:0000000000001954 .L0 
     /tmp/ccMeUcYP.s:5173   .text:000000000000195c .L0 
     /tmp/ccMeUcYP.s:5174   .text:000000000000195c .L0 
     /tmp/ccMeUcYP.s:5176   .text:0000000000001964 .L0 
     /tmp/ccMeUcYP.s:5178   .text:0000000000001968 .L0 
     /tmp/ccMeUcYP.s:5179   .text:0000000000001968 .L0 
     /tmp/ccMeUcYP.s:5181   .text:000000000000196c .L0 
     /tmp/ccMeUcYP.s:5183   .text:0000000000001970 .L0 
     /tmp/ccMeUcYP.s:5186   .text:0000000000001974 .L0 
     /tmp/ccMeUcYP.s:5189   .text:0000000000001978 .L0 
     /tmp/ccMeUcYP.s:5192   .text:000000000000197c .L0 
     /tmp/ccMeUcYP.s:5195   .text:0000000000001980 .L0 
     /tmp/ccMeUcYP.s:5197   .text:0000000000001984 .L0 
     /tmp/ccMeUcYP.s:5203   .text:0000000000001984 _Z7mojtestv
     /tmp/ccMeUcYP.s:5206   .text:0000000000001984 .L0 
     /tmp/ccMeUcYP.s:5207   .text:0000000000001984 .L0 
     /tmp/ccMeUcYP.s:5208   .text:0000000000001988 .L0 
     /tmp/ccMeUcYP.s:5211   .text:0000000000001990 .L0 
     /tmp/ccMeUcYP.s:5212   .text:0000000000001990 .L0 
     /tmp/ccMeUcYP.s:5214   .text:0000000000001994 .L0 
     /tmp/ccMeUcYP.s:5216   .text:0000000000001994 .L0 
     /tmp/ccMeUcYP.s:5217   .text:0000000000001994 .L0 
     /tmp/ccMeUcYP.s:5218   .text:0000000000001994 .L0 
GAS LISTING /tmp/ccMeUcYP.s 			page 177


     /tmp/ccMeUcYP.s:5224   .text:00000000000019ac .L0 
     /tmp/ccMeUcYP.s:5225   .text:00000000000019ac .L0 
     /tmp/ccMeUcYP.s:5231   .text:00000000000019c4 .L0 
     /tmp/ccMeUcYP.s:5232   .text:00000000000019c4 .L0 
     /tmp/ccMeUcYP.s:5238   .text:00000000000019dc .L0 
     /tmp/ccMeUcYP.s:5239   .text:00000000000019dc .L0 
     /tmp/ccMeUcYP.s:5242   .text:00000000000019e4 .L0 
     /tmp/ccMeUcYP.s:5243   .text:00000000000019e4 .L0 
     /tmp/ccMeUcYP.s:5249   .text:00000000000019f8 .L0 
     /tmp/ccMeUcYP.s:5250   .text:00000000000019f8 .L0 
     /tmp/ccMeUcYP.s:5254   .text:0000000000001a04 .L0 
     /tmp/ccMeUcYP.s:5255   .text:0000000000001a08 .L0 
     /tmp/ccMeUcYP.s:5257   .text:0000000000001a0c .L0 
     /tmp/ccMeUcYP.s:5258   .text:0000000000001a0c .L0 
     /tmp/ccMeUcYP.s:5260   .text:0000000000001a10 .L0 
     /tmp/ccMeUcYP.s:5262   .text:0000000000001a14 .L0 
     /tmp/ccMeUcYP.s:5268   .text:0000000000001a14 _Z9testbaferv
     /tmp/ccMeUcYP.s:5271   .text:0000000000001a14 .L0 
     /tmp/ccMeUcYP.s:5274   .text:0000000000001a14 .L0 
     /tmp/ccMeUcYP.s:5275   .text:0000000000001a18 .L0 
     /tmp/ccMeUcYP.s:5279   .text:0000000000001a24 .L0 
     /tmp/ccMeUcYP.s:5280   .text:0000000000001a24 .L0 
     /tmp/ccMeUcYP.s:5281   .text:0000000000001a24 .L0 
     /tmp/ccMeUcYP.s:5283   .text:0000000000001a28 .L0 
     /tmp/ccMeUcYP.s:5285   .text:0000000000001a28 .L0 
     /tmp/ccMeUcYP.s:5286   .text:0000000000001a28 .L0 
     /tmp/ccMeUcYP.s:5291   .text:0000000000001a34 .L0 
     /tmp/ccMeUcYP.s:5292   .text:0000000000001a34 .L0 
     /tmp/ccMeUcYP.s:5299   .text:0000000000001a48 .L0 
     /tmp/ccMeUcYP.s:5300   .text:0000000000001a48 .L0 
     /tmp/ccMeUcYP.s:5301   .text:0000000000001a48 .L0 
     /tmp/ccMeUcYP.s:5308   .text:0000000000001a60 .L0 
     /tmp/ccMeUcYP.s:5309   .text:0000000000001a60 .L0 
     /tmp/ccMeUcYP.s:5315   .text:0000000000001a78 .L0 
     /tmp/ccMeUcYP.s:5316   .text:0000000000001a78 .L0 
     /tmp/ccMeUcYP.s:5321   .text:0000000000001a84 .L0 
     /tmp/ccMeUcYP.s:5324   .text:0000000000001a88 .L0 
     /tmp/ccMeUcYP.s:5325   .text:0000000000001a88 .L0 
     /tmp/ccMeUcYP.s:5331   .text:0000000000001a94 .L0 
     /tmp/ccMeUcYP.s:5335   .text:0000000000001aa0 .L0 
     /tmp/ccMeUcYP.s:5336   .text:0000000000001aa4 .L0 
     /tmp/ccMeUcYP.s:5337   .text:0000000000001aa4 .L0 
     /tmp/ccMeUcYP.s:5339   .text:0000000000001aa8 .L0 
     /tmp/ccMeUcYP.s:5340   .text:0000000000001aa8 .L0 
     /tmp/ccMeUcYP.s:5342   .text:0000000000001aac .L0 
     /tmp/ccMeUcYP.s:5344   .text:0000000000001ab0 .L0 
     /tmp/ccMeUcYP.s:5347   .text:0000000000001ab4 .L0 
     /tmp/ccMeUcYP.s:5350   .text:0000000000001ab8 .L0 
     /tmp/ccMeUcYP.s:5358   .text:0000000000001ad0 .L0 
     /tmp/ccMeUcYP.s:5383   .text:0000000000001ad0 _Z3alov
     /tmp/ccMeUcYP.s:5386   .text:0000000000001ad0 .L0 
     /tmp/ccMeUcYP.s:5387   .text:0000000000001ad0 .L0 
     /tmp/ccMeUcYP.s:5388   .text:0000000000001ad4 .L0 
     /tmp/ccMeUcYP.s:5391   .text:0000000000001adc .L0 
     /tmp/ccMeUcYP.s:5392   .text:0000000000001adc .L0 
     /tmp/ccMeUcYP.s:5394   .text:0000000000001ae0 .L0 
     /tmp/ccMeUcYP.s:5396   .text:0000000000001ae0 .L0 
GAS LISTING /tmp/ccMeUcYP.s 			page 178


     /tmp/ccMeUcYP.s:5397   .text:0000000000001ae0 .L0 
     /tmp/ccMeUcYP.s:5403   .text:0000000000001af4 .L0 
     /tmp/ccMeUcYP.s:5404   .text:0000000000001af8 .L0 
     /tmp/ccMeUcYP.s:5406   .text:0000000000001afc .L0 
     /tmp/ccMeUcYP.s:5407   .text:0000000000001afc .L0 
     /tmp/ccMeUcYP.s:5409   .text:0000000000001b00 .L0 
     /tmp/ccMeUcYP.s:5411   .text:0000000000001b04 .L0 
     /tmp/ccMeUcYP.s:5418   .text._ZN3AAA18periodicActivationEv:0000000000000000 _ZN3AAA18periodicActivationEv
     /tmp/ccMeUcYP.s:5421   .text._ZN3AAA18periodicActivationEv:0000000000000000 .L0 
     /tmp/ccMeUcYP.s:5423   .text._ZN3AAA18periodicActivationEv:0000000000000000 .L0 
     /tmp/ccMeUcYP.s:5424   .text._ZN3AAA18periodicActivationEv:0000000000000004 .L0 
     /tmp/ccMeUcYP.s:5427   .text._ZN3AAA18periodicActivationEv:000000000000000c .L0 
     /tmp/ccMeUcYP.s:5428   .text._ZN3AAA18periodicActivationEv:000000000000000c .L0 
     /tmp/ccMeUcYP.s:5430   .text._ZN3AAA18periodicActivationEv:0000000000000010 .L0 
     /tmp/ccMeUcYP.s:5432   .text._ZN3AAA18periodicActivationEv:0000000000000010 .L0 
     /tmp/ccMeUcYP.s:5433   .text._ZN3AAA18periodicActivationEv:0000000000000010 .L0 
     /tmp/ccMeUcYP.s:5436   .text._ZN3AAA18periodicActivationEv:0000000000000018 .L0 
     /tmp/ccMeUcYP.s:5437   .text._ZN3AAA18periodicActivationEv:000000000000001c .L0 
     /tmp/ccMeUcYP.s:5439   .text._ZN3AAA18periodicActivationEv:0000000000000020 .L0 
     /tmp/ccMeUcYP.s:5440   .text._ZN3AAA18periodicActivationEv:0000000000000020 .L0 
     /tmp/ccMeUcYP.s:5442   .text._ZN3AAA18periodicActivationEv:0000000000000024 .L0 
     /tmp/ccMeUcYP.s:5444   .text._ZN3AAA18periodicActivationEv:0000000000000028 .L0 
     /tmp/ccMeUcYP.s:5461   .text:0000000000001b04 _Z8userMainv
     /tmp/ccMeUcYP.s:5464   .text:0000000000001b04 .L0 
     /tmp/ccMeUcYP.s:5467   .text:0000000000001b04 .L0 
     /tmp/ccMeUcYP.s:5468   .text:0000000000001b08 .L0 
     /tmp/ccMeUcYP.s:5474   .text:0000000000001b1c .L0 
     /tmp/ccMeUcYP.s:5475   .text:0000000000001b1c .L0 
     /tmp/ccMeUcYP.s:5476   .text:0000000000001b1c .L0 
     /tmp/ccMeUcYP.s:5477   .text:0000000000001b1c .L0 
     /tmp/ccMeUcYP.s:5478   .text:0000000000001b1c .L0 
     /tmp/ccMeUcYP.s:5480   .text:0000000000001b20 .L0 
     /tmp/ccMeUcYP.s:5483   .text:0000000000001b20 .L0 
     /tmp/ccMeUcYP.s:5484   .text:0000000000001b20 .L0 
     /tmp/ccMeUcYP.s:5487   .text:0000000000001b28 .L0 
     /tmp/ccMeUcYP.s:5488   .text:0000000000001b28 .L0 
     /tmp/ccMeUcYP.s:5489   .text:0000000000001b28 .L0 
     /tmp/ccMeUcYP.s:5495   .text:0000000000001b38 .L0 
     /tmp/ccMeUcYP.s:5496   .text:0000000000001b38 .L0 
     /tmp/ccMeUcYP.s:5499   .text:0000000000001b40 .L0 
     /tmp/ccMeUcYP.s:5500   .text:0000000000001b40 .L0 
     /tmp/ccMeUcYP.s:5506   .text:0000000000001b50 .L0 
     /tmp/ccMeUcYP.s:5507   .text:0000000000001b50 .L0 
     /tmp/ccMeUcYP.s:5513   .text:0000000000001b54 .L0 
     /tmp/ccMeUcYP.s:5514   .text:0000000000001b54 .L0 
     /tmp/ccMeUcYP.s:5523   .text:0000000000001b64 .L0 
     /tmp/ccMeUcYP.s:5529   .text:0000000000001b6c .L0 
     /tmp/ccMeUcYP.s:5534   .text:0000000000001b70 .L0 
     /tmp/ccMeUcYP.s:5535   .text:0000000000001b70 .L0 
     /tmp/ccMeUcYP.s:5542   .text:0000000000001b7c .L0 
     /tmp/ccMeUcYP.s:5543   .text:0000000000001b7c .L0 
     /tmp/ccMeUcYP.s:5550   .text:0000000000001b88 .L0 
     /tmp/ccMeUcYP.s:5556   .text:0000000000001b90 .L0 
     /tmp/ccMeUcYP.s:5558   .text:0000000000001b94 .L0 
     /tmp/ccMeUcYP.s:5560   .text:0000000000001b98 .L0 
     /tmp/ccMeUcYP.s:5566   .text:0000000000001b9c .L0 
     /tmp/ccMeUcYP.s:5567   .text:0000000000001b9c .L0 
GAS LISTING /tmp/ccMeUcYP.s 			page 179


     /tmp/ccMeUcYP.s:5574   .text:0000000000001ba8 .L0 
     /tmp/ccMeUcYP.s:5575   .text:0000000000001ba8 .L0 
     /tmp/ccMeUcYP.s:5582   .text:0000000000001bb4 .L0 
     /tmp/ccMeUcYP.s:5588   .text:0000000000001bbc .L0 
     /tmp/ccMeUcYP.s:5590   .text:0000000000001bc0 .L0 
     /tmp/ccMeUcYP.s:5592   .text:0000000000001bc4 .L0 
     /tmp/ccMeUcYP.s:5594   .text:0000000000001bc8 .L0 
     /tmp/ccMeUcYP.s:5600   .text:0000000000001bcc .L0 
     /tmp/ccMeUcYP.s:5601   .text:0000000000001bcc .L0 
     /tmp/ccMeUcYP.s:5608   .text:0000000000001bd8 .L0 
     /tmp/ccMeUcYP.s:5609   .text:0000000000001bd8 .L0 
     /tmp/ccMeUcYP.s:5616   .text:0000000000001be4 .L0 
     /tmp/ccMeUcYP.s:5622   .text:0000000000001bec .L0 
     /tmp/ccMeUcYP.s:5624   .text:0000000000001bf0 .L0 
     /tmp/ccMeUcYP.s:5626   .text:0000000000001bf4 .L0 
     /tmp/ccMeUcYP.s:5628   .text:0000000000001bf8 .L0 
     /tmp/ccMeUcYP.s:5634   .text:0000000000001bfc .L0 
     /tmp/ccMeUcYP.s:5635   .text:0000000000001bfc .L0 
     /tmp/ccMeUcYP.s:5642   .text:0000000000001c08 .L0 
     /tmp/ccMeUcYP.s:5643   .text:0000000000001c08 .L0 
     /tmp/ccMeUcYP.s:5645   .text:0000000000001c0c .L0 
     /tmp/ccMeUcYP.s:5647   .text:0000000000001c10 .L0 
     /tmp/ccMeUcYP.s:5653   .text:0000000000001c14 .L0 
     /tmp/ccMeUcYP.s:5662   .text:0000000000001c28 .L0 
     /tmp/ccMeUcYP.s:5663   .text:0000000000001c28 .L0 
     /tmp/ccMeUcYP.s:5665   .text:0000000000001c2c .L0 
     /tmp/ccMeUcYP.s:5667   .text:0000000000001c30 .L0 
     /tmp/ccMeUcYP.s:5673   .text:0000000000001c34 .L0 
     /tmp/ccMeUcYP.s:5679   .text:0000000000001c48 .L0 
     /tmp/ccMeUcYP.s:5680   .text:0000000000001c48 .L0 
     /tmp/ccMeUcYP.s:5684   .text:0000000000001c58 .L0 
     /tmp/ccMeUcYP.s:5685   .text:0000000000001c58 .L0 
     /tmp/ccMeUcYP.s:5686   .text:0000000000001c58 .L0 
     /tmp/ccMeUcYP.s:5690   .text:0000000000001c68 .L0 
     /tmp/ccMeUcYP.s:5691   .text:0000000000001c68 .L0 
     /tmp/ccMeUcYP.s:5695   .text:0000000000001c78 .L0 
     /tmp/ccMeUcYP.s:5696   .text:0000000000001c78 .L0 
     /tmp/ccMeUcYP.s:5702   .text:0000000000001c8c .L0 
     /tmp/ccMeUcYP.s:5703   .text:0000000000001c8c .L0 
     /tmp/ccMeUcYP.s:5712   .text:0000000000001c9c .L0 
     /tmp/ccMeUcYP.s:5725   .text:0000000000001cac .L0 
     /tmp/ccMeUcYP.s:5966   .data.rel.ro._ZTV3AAA:0000000000000000 _ZTV3AAA
     /tmp/ccMeUcYP.s:5755   .text:0000000000001cd0 .L0 
     /tmp/ccMeUcYP.s:5763   .text:0000000000001ce4 .L0 
     /tmp/ccMeUcYP.s:5764   .text:0000000000001ce4 .L0 
     /tmp/ccMeUcYP.s:5770   .text:0000000000001cf0 .L0 
     /tmp/ccMeUcYP.s:5774   .text:0000000000001cf4 .L0 
     /tmp/ccMeUcYP.s:5778   .text:0000000000001d00 .L0 
     /tmp/ccMeUcYP.s:5785   .text:0000000000001d08 .L0 
     /tmp/ccMeUcYP.s:5786   .text:0000000000001d08 .L0 
     /tmp/ccMeUcYP.s:5791   .text:0000000000001d14 .L0 
     /tmp/ccMeUcYP.s:5792   .text:0000000000001d18 .L0 
     /tmp/ccMeUcYP.s:5793   .text:0000000000001d18 .L0 
     /tmp/ccMeUcYP.s:5795   .text:0000000000001d1c .L0 
     /tmp/ccMeUcYP.s:5796   .text:0000000000001d1c .L0 
     /tmp/ccMeUcYP.s:5799   .text:0000000000001d20 .L0 
     /tmp/ccMeUcYP.s:5802   .text:0000000000001d24 .L0 
GAS LISTING /tmp/ccMeUcYP.s 			page 180


     /tmp/ccMeUcYP.s:5805   .text:0000000000001d28 .L0 
     /tmp/ccMeUcYP.s:5808   .text:0000000000001d2c .L0 
     /tmp/ccMeUcYP.s:5813   .text:0000000000001d30 .L0 
     /tmp/ccMeUcYP.s:5817   .text:0000000000001d34 .L0 
     /tmp/ccMeUcYP.s:5825   .text:0000000000001d4c .L0 
     /tmp/ccMeUcYP.s:5998   .bss:0000000000000010 s
     /tmp/ccMeUcYP.s:5988   .bss:0000000000000000 _ZN19ConsumerProducerCPP9threadEndE
     /tmp/ccMeUcYP.s:6026   .bss:0000000000000028 _ZN19ConsumerProducerCPP10waitForAllE
     /tmp/ccMeUcYP.s:5993   .bss:0000000000000008 finished
     /tmp/ccMeUcYP.s:6018   .bss:000000000000001c threadEnd
     /tmp/ccMeUcYP.s:6022   .bss:0000000000000020 waitForAll
     /tmp/ccMeUcYP.s:6014   .bss:000000000000001b finishedD
     /tmp/ccMeUcYP.s:6010   .bss:000000000000001a finishedC
     /tmp/ccMeUcYP.s:6006   .bss:0000000000000019 finishedB
     /tmp/ccMeUcYP.s:6002   .bss:0000000000000018 finishedA
     /tmp/ccMeUcYP.s:5985   .bss:0000000000000000 .LANCHOR0
     /tmp/ccMeUcYP.s:44     .text._ZN7WorkerAD2Ev:0000000000000034 .L0 
     /tmp/ccMeUcYP.s:91     .text._ZN7WorkerAD0Ev:000000000000004c .L0 
     /tmp/ccMeUcYP.s:128    .text._ZN7WorkerBD2Ev:0000000000000034 .L0 
     /tmp/ccMeUcYP.s:175    .text._ZN7WorkerBD0Ev:000000000000004c .L0 
     /tmp/ccMeUcYP.s:212    .text._ZN7WorkerCD2Ev:0000000000000034 .L0 
     /tmp/ccMeUcYP.s:259    .text._ZN7WorkerCD0Ev:000000000000004c .L0 
     /tmp/ccMeUcYP.s:296    .text._ZN7WorkerDD2Ev:0000000000000034 .L0 
     /tmp/ccMeUcYP.s:343    .text._ZN7WorkerDD0Ev:000000000000004c .L0 
     /tmp/ccMeUcYP.s:381    .text._ZN8ConsumerD2Ev:0000000000000034 .L0 
     /tmp/ccMeUcYP.s:428    .text._ZN8ConsumerD0Ev:000000000000004c .L0 
     /tmp/ccMeUcYP.s:465    .text._ZN8ProducerD2Ev:0000000000000034 .L0 
     /tmp/ccMeUcYP.s:512    .text._ZN8ProducerD0Ev:000000000000004c .L0 
     /tmp/ccMeUcYP.s:549    .text._ZN16ProducerKeyboardD2Ev:0000000000000034 .L0 
     /tmp/ccMeUcYP.s:596    .text._ZN16ProducerKeyboardD0Ev:000000000000004c .L0 
     /tmp/ccMeUcYP.s:634    .text._ZN19ConsumerProducerCPP8ConsumerD2Ev:0000000000000034 .L0 
     /tmp/ccMeUcYP.s:681    .text._ZN19ConsumerProducerCPP8ConsumerD0Ev:000000000000004c .L0 
     /tmp/ccMeUcYP.s:718    .text._ZN19ConsumerProducerCPP16ProducerKeyboradD2Ev:0000000000000034 .L0 
     /tmp/ccMeUcYP.s:765    .text._ZN19ConsumerProducerCPP16ProducerKeyboradD0Ev:000000000000004c .L0 
     /tmp/ccMeUcYP.s:802    .text._ZN19ConsumerProducerCPP8ProducerD2Ev:0000000000000034 .L0 
     /tmp/ccMeUcYP.s:849    .text._ZN19ConsumerProducerCPP8ProducerD0Ev:000000000000004c .L0 
     /tmp/ccMeUcYP.s:893    .text._ZN3AAAD2Ev:0000000000000038 .L0 
     /tmp/ccMeUcYP.s:944    .text._ZN3AAAD0Ev:0000000000000050 .L0 
     /tmp/ccMeUcYP.s:1024   .text._ZN19ConsumerProducerCPP16ProducerKeyborad3runEv:0000000000000084 .L0 
     /tmp/ccMeUcYP.s:1148   .text._ZN19ConsumerProducerCPP8Consumer3runEv:00000000000000d0 .L0 
     /tmp/ccMeUcYP.s:6040   .text:0000000000001d4c .L0 
     /tmp/ccMeUcYP.s:1393   .text._ZN19ConsumerProducerCPP8Producer3runEv:0000000000000094 .L0 
     /tmp/ccMeUcYP.s:1981   .text._ZN7WorkerA3runEv:000000000000002c .L0 
     /tmp/ccMeUcYP.s:2152   .text._ZN7WorkerB3runEv:000000000000002c .L0 
     /tmp/ccMeUcYP.s:2381   .text._ZN7WorkerC3runEv:000000000000002c .L0 
     /tmp/ccMeUcYP.s:2584   .text._ZN7WorkerD3runEv:000000000000002c .L0 
     /tmp/ccMeUcYP.s:3072   .text._ZN16ProducerKeyboard3runEv:000000000000002c .L0 
     /tmp/ccMeUcYP.s:3195   .text._ZN8Producer3runEv:000000000000002c .L0 
     /tmp/ccMeUcYP.s:3375   .text._ZN8Consumer3runEv:000000000000002c .L0 
     /tmp/ccMeUcYP.s:5447   .text._ZN3AAA18periodicActivationEv:0000000000000028 .L0 
     /tmp/ccMeUcYP.s:1150   .rodata.str1.8:0000000000000000 .LC0
     /tmp/ccMeUcYP.s:1193   .text:0000000000000028 .L0 
     /tmp/ccMeUcYP.s:1153   .rodata.str1.8:0000000000000008 .LC1
     /tmp/ccMeUcYP.s:1205   .text:000000000000004c .L0 
     /tmp/ccMeUcYP.s:1224   .text:0000000000000078 .L0 
     /tmp/ccMeUcYP.s:1462   .rodata.str1.8:0000000000000010 .LC2
     /tmp/ccMeUcYP.s:1495   .text:0000000000000170 .L0 
GAS LISTING /tmp/ccMeUcYP.s 			page 181


     /tmp/ccMeUcYP.s:1465   .rodata.str1.8:0000000000000020 .LC3
     /tmp/ccMeUcYP.s:1505   .text:0000000000000188 .L0 
     /tmp/ccMeUcYP.s:1510   .text:0000000000000198 .L0 
     /tmp/ccMeUcYP.s:1468   .rodata.str1.8:0000000000000030 .LC4
     /tmp/ccMeUcYP.s:1519   .text:00000000000001b0 .L0 
     /tmp/ccMeUcYP.s:1471   .rodata.str1.8:0000000000000040 .LC5
     /tmp/ccMeUcYP.s:1528   .text:00000000000001c8 .L0 
     /tmp/ccMeUcYP.s:1474   .rodata.str1.8:0000000000000050 .LC6
     /tmp/ccMeUcYP.s:1537   .text:00000000000001e0 .L0 
     /tmp/ccMeUcYP.s:1554   .rodata.str1.8:0000000000000060 .LC7
     /tmp/ccMeUcYP.s:1587   .text:0000000000000210 .L0 
     /tmp/ccMeUcYP.s:1597   .text:0000000000000228 .L0 
     /tmp/ccMeUcYP.s:1557   .rodata.str1.8:0000000000000070 .LC8
     /tmp/ccMeUcYP.s:1604   .text:0000000000000240 .L0 
     /tmp/ccMeUcYP.s:1560   .rodata.str1.8:0000000000000080 .LC9
     /tmp/ccMeUcYP.s:1613   .text:0000000000000258 .L0 
     /tmp/ccMeUcYP.s:1563   .rodata.str1.8:0000000000000090 .LC10
     /tmp/ccMeUcYP.s:1622   .text:0000000000000270 .L0 
     /tmp/ccMeUcYP.s:1566   .rodata.str1.8:00000000000000a0 .LC11
     /tmp/ccMeUcYP.s:1631   .text:0000000000000288 .L0 
     /tmp/ccMeUcYP.s:1648   .rodata.str1.8:00000000000000b0 .LC12
     /tmp/ccMeUcYP.s:1681   .text:00000000000002b8 .L0 
     /tmp/ccMeUcYP.s:1651   .rodata.str1.8:00000000000000c0 .LC13
     /tmp/ccMeUcYP.s:1691   .text:00000000000002d0 .L0 
     /tmp/ccMeUcYP.s:1654   .rodata.str1.8:00000000000000d0 .LC14
     /tmp/ccMeUcYP.s:1700   .text:00000000000002e8 .L0 
     /tmp/ccMeUcYP.s:1657   .rodata.str1.8:00000000000000e0 .LC15
     /tmp/ccMeUcYP.s:1709   .text:0000000000000300 .L0 
     /tmp/ccMeUcYP.s:1660   .rodata.str1.8:00000000000000f0 .LC16
     /tmp/ccMeUcYP.s:1718   .text:0000000000000318 .L0 
     /tmp/ccMeUcYP.s:1723   .text:0000000000000328 .L0 
     /tmp/ccMeUcYP.s:1813   .rodata.str1.8:0000000000000100 .LC17
     /tmp/ccMeUcYP.s:1896   .text:0000000000000420 .L0 
     /tmp/ccMeUcYP.s:1816   .rodata.str1.8:0000000000000108 .LC18
     /tmp/ccMeUcYP.s:1908   .text:0000000000000444 .L0 
     /tmp/ccMeUcYP.s:1819   .rodata.str1.8:0000000000000110 .LC19
     /tmp/ccMeUcYP.s:1923   .text:000000000000045c .L0 
     /tmp/ccMeUcYP.s:1929   .text:0000000000000470 .L0 
     /tmp/ccMeUcYP.s:1983   .rodata.str1.8:0000000000000120 .LC20
     /tmp/ccMeUcYP.s:2063   .text:00000000000004ec .L0 
     /tmp/ccMeUcYP.s:2075   .text:0000000000000510 .L0 
     /tmp/ccMeUcYP.s:1986   .rodata.str1.8:0000000000000128 .LC21
     /tmp/ccMeUcYP.s:2090   .text:0000000000000528 .L0 
     /tmp/ccMeUcYP.s:2096   .text:000000000000053c .L0 
     /tmp/ccMeUcYP.s:2154   .rodata.str1.8:0000000000000138 .LC22
     /tmp/ccMeUcYP.s:2195   .text:0000000000000584 .L0 
     /tmp/ccMeUcYP.s:2207   .text:00000000000005a8 .L0 
     /tmp/ccMeUcYP.s:2157   .rodata.str1.8:0000000000000140 .LC23
     /tmp/ccMeUcYP.s:2222   .text:00000000000005c8 .L0 
     /tmp/ccMeUcYP.s:2160   .rodata.str1.8:0000000000000150 .LC24
     /tmp/ccMeUcYP.s:2247   .text:00000000000005e8 .L0 
     /tmp/ccMeUcYP.s:2259   .text:000000000000060c .L0 
     /tmp/ccMeUcYP.s:2163   .rodata.str1.8:0000000000000158 .LC25
     /tmp/ccMeUcYP.s:2271   .text:000000000000062c .L0 
     /tmp/ccMeUcYP.s:2284   .text:0000000000000650 .L0 
     /tmp/ccMeUcYP.s:2291   .text:0000000000000664 .L0 
     /tmp/ccMeUcYP.s:2303   .text:0000000000000688 .L0 
GAS LISTING /tmp/ccMeUcYP.s 			page 182


     /tmp/ccMeUcYP.s:2318   .text:00000000000006a8 .L0 
     /tmp/ccMeUcYP.s:2324   .text:00000000000006bc .L0 
     /tmp/ccMeUcYP.s:2383   .rodata.str1.8:0000000000000168 .LC26
     /tmp/ccMeUcYP.s:2424   .text:0000000000000704 .L0 
     /tmp/ccMeUcYP.s:2436   .text:0000000000000728 .L0 
     /tmp/ccMeUcYP.s:2386   .rodata.str1.8:0000000000000170 .LC27
     /tmp/ccMeUcYP.s:2451   .text:0000000000000748 .L0 
     /tmp/ccMeUcYP.s:2389   .rodata.str1.8:0000000000000180 .LC28
     /tmp/ccMeUcYP.s:2474   .text:0000000000000774 .L0 
     /tmp/ccMeUcYP.s:2487   .text:0000000000000798 .L0 
     /tmp/ccMeUcYP.s:2494   .text:00000000000007ac .L0 
     /tmp/ccMeUcYP.s:2506   .text:00000000000007d0 .L0 
     /tmp/ccMeUcYP.s:2392   .rodata.str1.8:0000000000000190 .LC29
     /tmp/ccMeUcYP.s:2521   .text:00000000000007f0 .L0 
     /tmp/ccMeUcYP.s:2527   .text:0000000000000804 .L0 
     /tmp/ccMeUcYP.s:2636   .text:000000000000085c .L0 
     /tmp/ccMeUcYP.s:2586   .rodata.str1.8:00000000000001a0 .LC30
     /tmp/ccMeUcYP.s:2645   .text:000000000000086c .L0 
     /tmp/ccMeUcYP.s:2664   .text:0000000000000894 .L0 
     /tmp/ccMeUcYP.s:2589   .rodata.str1.8:00000000000001b8 .LC31
     /tmp/ccMeUcYP.s:2673   .text:00000000000008a4 .L0 
     /tmp/ccMeUcYP.s:2692   .text:00000000000008cc .L0 
     /tmp/ccMeUcYP.s:2592   .rodata.str1.8:00000000000001d0 .LC32
     /tmp/ccMeUcYP.s:2701   .text:00000000000008dc .L0 
     /tmp/ccMeUcYP.s:2720   .text:0000000000000904 .L0 
     /tmp/ccMeUcYP.s:2595   .rodata.str1.8:00000000000001e8 .LC33
     /tmp/ccMeUcYP.s:2729   .text:0000000000000914 .L0 
     /tmp/ccMeUcYP.s:2765   .text:0000000000000958 .L0 
     /tmp/ccMeUcYP.s:2768   .text:0000000000000964 .L0 
     /tmp/ccMeUcYP.s:2771   .text:0000000000000970 .L0 
     /tmp/ccMeUcYP.s:2774   .text:000000000000097c .L0 
     /tmp/ccMeUcYP.s:3002   .text:0000000000000ab8 .L0 
     /tmp/ccMeUcYP.s:3109   .text:0000000000000b28 .L0 
     /tmp/ccMeUcYP.s:3247   .text:0000000000000bd8 .L0 
     /tmp/ccMeUcYP.s:3377   .rodata.str1.8:0000000000000200 .LC34
     /tmp/ccMeUcYP.s:3439   .text:0000000000000cbc .L0 
     /tmp/ccMeUcYP.s:3380   .rodata.str1.8:0000000000000220 .LC35
     /tmp/ccMeUcYP.s:3459   .text:0000000000000cf0 .L0 
     /tmp/ccMeUcYP.s:3383   .rodata.str1.8:0000000000000240 .LC36
     /tmp/ccMeUcYP.s:3477   .text:0000000000000d20 .L0 
     /tmp/ccMeUcYP.s:3386   .rodata.str1.8:0000000000000258 .LC37
     /tmp/ccMeUcYP.s:3489   .text:0000000000000d44 .L0 
     /tmp/ccMeUcYP.s:3389   .rodata.str1.8:0000000000000270 .LC38
     /tmp/ccMeUcYP.s:3501   .text:0000000000000d68 .L0 
     /tmp/ccMeUcYP.s:3392   .rodata.str1.8:0000000000000278 .LC39
     /tmp/ccMeUcYP.s:3524   .text:0000000000000da0 .L0 
     /tmp/ccMeUcYP.s:3395   .rodata.str1.8:00000000000002b8 .LC40
     /tmp/ccMeUcYP.s:3533   .text:0000000000000db4 .L0 
     /tmp/ccMeUcYP.s:3556   .text:0000000000000de8 .L0 
     /tmp/ccMeUcYP.s:3618   .text:0000000000000e6c .L0 
     /tmp/ccMeUcYP.s:3639   .text:0000000000000e90 .L0 
     /tmp/ccMeUcYP.s:3676   .text:0000000000000ee0 .L0 
     /tmp/ccMeUcYP.s:3728   .text:0000000000000f44 .L0 
     /tmp/ccMeUcYP.s:3755   .text:0000000000000f74 .L0 
     /tmp/ccMeUcYP.s:3805   .text:0000000000000fd0 .L0 
     /tmp/ccMeUcYP.s:4037   .text:0000000000001104 .L0 
     /tmp/ccMeUcYP.s:4054   .text:0000000000001128 .L0 
GAS LISTING /tmp/ccMeUcYP.s 			page 183


     /tmp/ccMeUcYP.s:4058   .text:0000000000001134 .L0 
     /tmp/ccMeUcYP.s:4117   .text:000000000000118c .L0 
     /tmp/ccMeUcYP.s:4137   .text:00000000000011c0 .L0 
     /tmp/ccMeUcYP.s:4155   .text:00000000000011f0 .L0 
     /tmp/ccMeUcYP.s:4167   .text:0000000000001214 .L0 
     /tmp/ccMeUcYP.s:4179   .text:0000000000001238 .L0 
     /tmp/ccMeUcYP.s:4202   .text:0000000000001270 .L0 
     /tmp/ccMeUcYP.s:4211   .text:0000000000001284 .L0 
     /tmp/ccMeUcYP.s:4234   .text:00000000000012b8 .L0 
     /tmp/ccMeUcYP.s:4290   .text:0000000000001330 .L0 
     /tmp/ccMeUcYP.s:4310   .text:0000000000001354 .L0 
     /tmp/ccMeUcYP.s:4327   .text:0000000000001378 .L0 
     /tmp/ccMeUcYP.s:4350   .text:00000000000013a0 .L0 
     /tmp/ccMeUcYP.s:4383   .text:00000000000013e8 .L0 
     /tmp/ccMeUcYP.s:4420   .text:0000000000001420 .L0 
     /tmp/ccMeUcYP.s:4432   .text:0000000000001438 .L0 
     /tmp/ccMeUcYP.s:4789   .text:0000000000001688 .L0 
     /tmp/ccMeUcYP.s:4916   .text:0000000000001784 .L0 
     /tmp/ccMeUcYP.s:4994   .text:0000000000001804 .L0 
     /tmp/ccMeUcYP.s:5219   .text:0000000000001998 .L0 
     /tmp/ccMeUcYP.s:5226   .text:00000000000019b0 .L0 
     /tmp/ccMeUcYP.s:5233   .text:00000000000019c8 .L0 
     /tmp/ccMeUcYP.s:5244   .text:00000000000019e8 .L0 
     /tmp/ccMeUcYP.s:5302   .text:0000000000001a4c .L0 
     /tmp/ccMeUcYP.s:5310   .text:0000000000001a64 .L0 
     /tmp/ccMeUcYP.s:5449   .rodata.str1.8:00000000000002e8 .LC41
     /tmp/ccMeUcYP.s:5680   .text:0000000000001c48 .L0 
     /tmp/ccMeUcYP.s:5452   .rodata.str1.8:00000000000002f0 .LC42
     /tmp/ccMeUcYP.s:5686   .text:0000000000001c58 .L0 
     /tmp/ccMeUcYP.s:5455   .rodata.str1.8:00000000000002f8 .LC43
     /tmp/ccMeUcYP.s:5691   .text:0000000000001c68 .L0 
     /tmp/ccMeUcYP.s:5755   .text:0000000000001cd0 .L0 
     /tmp/ccMeUcYP.s:1215   .text:000000000000006c .L58
     /tmp/ccMeUcYP.s:1185   .text:0000000000000020 .L59
     /tmp/ccMeUcYP.s:1288   .text:00000000000000e8 .L63
     /tmp/ccMeUcYP.s:1269   .text:00000000000000c0 .L65
     /tmp/ccMeUcYP.s:1440   .text:0000000000000144 .L72
     /tmp/ccMeUcYP.s:1419   .text:0000000000000120 .L74
     /tmp/ccMeUcYP.s:1784   .text:00000000000003a0 .L81
     /tmp/ccMeUcYP.s:1801   .text:00000000000003b8 .L86
     /tmp/ccMeUcYP.s:1771   .text:0000000000000380 .L83
     /tmp/ccMeUcYP.s:1889   .text:0000000000000418 .L93
     /tmp/ccMeUcYP.s:1881   .text:0000000000000414 .L89
     /tmp/ccMeUcYP.s:1849   .text:00000000000003e4 .L90
     /tmp/ccMeUcYP.s:1870   .text:0000000000000400 .L91
     /tmp/ccMeUcYP.s:1917   .text:000000000000045c .L88
     /tmp/ccMeUcYP.s:1861   .text:00000000000003f0 .L92
     /tmp/ccMeUcYP.s:2056   .text:00000000000004e4 .L103
     /tmp/ccMeUcYP.s:2048   .text:00000000000004e0 .L99
     /tmp/ccMeUcYP.s:2016   .text:00000000000004b0 .L100
     /tmp/ccMeUcYP.s:2037   .text:00000000000004cc .L101
     /tmp/ccMeUcYP.s:2084   .text:0000000000000528 .L98
     /tmp/ccMeUcYP.s:2028   .text:00000000000004bc .L102
     /tmp/ccMeUcYP.s:2215   .text:00000000000005c0 .L109
     /tmp/ccMeUcYP.s:2192   .text:0000000000000584 .L113
     /tmp/ccMeUcYP.s:2311   .text:00000000000006a0 .L111
     /tmp/ccMeUcYP.s:2288   .text:0000000000000664 .L114
GAS LISTING /tmp/ccMeUcYP.s 			page 184


     /tmp/ccMeUcYP.s:2444   .text:0000000000000740 .L119
     /tmp/ccMeUcYP.s:2421   .text:0000000000000704 .L123
     /tmp/ccMeUcYP.s:2514   .text:00000000000007e8 .L121
     /tmp/ccMeUcYP.s:2491   .text:00000000000007ac .L124
     /tmp/ccMeUcYP.s:2762   .text:0000000000000958 .L128
     /tmp/ccMeUcYP.s:2736   .text:0000000000000928 .L129
     /tmp/ccMeUcYP.s:2755   .text:0000000000000950 .L130
     /tmp/ccMeUcYP.s:2786   .text:0000000000000994 .L131
     /tmp/ccMeUcYP.s:2848   .text:0000000000000a24 .L127
     /tmp/ccMeUcYP.s:2782   .text:0000000000000990 .L133
     /tmp/ccMeUcYP.s:2963   .text:0000000000000a70 .L145
     /tmp/ccMeUcYP.s:2998   .text:0000000000000ab4 .L146
     /tmp/ccMeUcYP.s:2958   .text:0000000000000a68 .L149
     /tmp/ccMeUcYP.s:3106   .text:0000000000000b28 .L153
     /tmp/ccMeUcYP.s:3137   .text:0000000000000b6c .L154
     /tmp/ccMeUcYP.s:3101   .text:0000000000000b20 .L157
     /tmp/ccMeUcYP.s:3243   .text:0000000000000bd8 .L161
     /tmp/ccMeUcYP.s:3276   .text:0000000000000c18 .L163
     /tmp/ccMeUcYP.s:3301   .text:0000000000000c44 .L162
     /tmp/ccMeUcYP.s:3229   .text:0000000000000bc0 .L167
     /tmp/ccMeUcYP.s:3237   .text:0000000000000bcc .L168
     /tmp/ccMeUcYP.s:3285   .text:0000000000000c28 .L169
     /tmp/ccMeUcYP.s:3521   .text:0000000000000da0 .L200
     /tmp/ccMeUcYP.s:3530   .text:0000000000000db4 .L201
     /tmp/ccMeUcYP.s:3540   .text:0000000000000dcc .L202
     /tmp/ccMeUcYP.s:3537   .text:0000000000000dc4 .L174
     /tmp/ccMeUcYP.s:3828   .text:0000000000001008 .L172
     /tmp/ccMeUcYP.s:3661   .text:0000000000000ec4 .L179
     /tmp/ccMeUcYP.s:3739   .text:0000000000000f64 .L176
     /tmp/ccMeUcYP.s:3703   .text:0000000000000f1c .L177
     /tmp/ccMeUcYP.s:3635   .text:0000000000000e90 .L203
     /tmp/ccMeUcYP.s:3649   .text:0000000000000eac .L178
     /tmp/ccMeUcYP.s:3763   .text:0000000000000f8c .L193
     /tmp/ccMeUcYP.s:3750   .text:0000000000000f70 .L181
     /tmp/ccMeUcYP.s:3775   .text:0000000000000f98 .L180
     /tmp/ccMeUcYP.s:3791   .text:0000000000000fbc .L182
     /tmp/ccMeUcYP.s:3771   .text:0000000000000f94 .L183
     /tmp/ccMeUcYP.s:3802   .text:0000000000000fd0 .L184
     /tmp/ccMeUcYP.s:3813   .text:0000000000000fe8 .L185
     /tmp/ccMeUcYP.s:3825   .text:0000000000001004 .L186
     /tmp/ccMeUcYP.s:4045   .text:0000000000001120 .L206
     /tmp/ccMeUcYP.s:4030   .text:00000000000010f8 .L209
     /tmp/ccMeUcYP.s:4049   .text:0000000000001128 .L207
     /tmp/ccMeUcYP.s:4199   .text:0000000000001270 .L236
     /tmp/ccMeUcYP.s:4208   .text:0000000000001284 .L237
     /tmp/ccMeUcYP.s:4218   .text:000000000000129c .L238
     /tmp/ccMeUcYP.s:4215   .text:0000000000001294 .L212
     /tmp/ccMeUcYP.s:4495   .text:00000000000014b4 .L210
     /tmp/ccMeUcYP.s:4368   .text:00000000000013cc .L215
     /tmp/ccMeUcYP.s:4402   .text:0000000000001410 .L214
     /tmp/ccMeUcYP.s:4346   .text:00000000000013a0 .L239
     /tmp/ccMeUcYP.s:4428   .text:0000000000001438 .L216
     /tmp/ccMeUcYP.s:4414   .text:000000000000141c .L217
     /tmp/ccMeUcYP.s:4440   .text:0000000000001450 .L218
     /tmp/ccMeUcYP.s:4453   .text:000000000000145c .L221
     /tmp/ccMeUcYP.s:4469   .text:0000000000001480 .L219
     /tmp/ccMeUcYP.s:4447   .text:0000000000001458 .L220
GAS LISTING /tmp/ccMeUcYP.s 			page 185


     /tmp/ccMeUcYP.s:4480   .text:0000000000001494 .L222
     /tmp/ccMeUcYP.s:4492   .text:00000000000014b0 .L223
     /tmp/ccMeUcYP.s:5247   .text:00000000000019f8 .L247
     /tmp/ccMeUcYP.s:5322   .text:0000000000001a88 .L250
     /tmp/ccMeUcYP.s:5329   .text:0000000000001a94 .L255
     /tmp/ccMeUcYP.s:5319   .text:0000000000001a84 .L256
     /tmp/ccMeUcYP.s:5719   .text:0000000000001cac .L262
     /tmp/ccMeUcYP.s:5729   .text:0000000000001cb8 .L264
     /tmp/ccMeUcYP.s:5739   .text:0000000000001cc4 .L266
     /tmp/ccMeUcYP.s:5648   .text:0000000000001c14 .L268
     /tmp/ccMeUcYP.s:5668   .text:0000000000001c34 .L269
     /tmp/ccMeUcYP.s:5749   .text:0000000000001cd0 .L276
     /tmp/ccMeUcYP.s:5561   .text:0000000000001b9c .L263
     /tmp/ccMeUcYP.s:5596   .text:0000000000001bcc .L265
     /tmp/ccMeUcYP.s:5630   .text:0000000000001bfc .L267
     /tmp/ccMeUcYP.s:5782   .text:0000000000001d08 .L270
     /tmp/ccMeUcYP.s:5771   .text:0000000000001cf4 .L271
     /tmp/ccMeUcYP.s:26     .text._ZN7WorkerAD2Ev:0000000000000010 .L0 
     /tmp/ccMeUcYP.s:68     .text._ZN7WorkerAD0Ev:0000000000000018 .L0 
     /tmp/ccMeUcYP.s:110    .text._ZN7WorkerBD2Ev:0000000000000010 .L0 
     /tmp/ccMeUcYP.s:152    .text._ZN7WorkerBD0Ev:0000000000000018 .L0 
     /tmp/ccMeUcYP.s:194    .text._ZN7WorkerCD2Ev:0000000000000010 .L0 
     /tmp/ccMeUcYP.s:236    .text._ZN7WorkerCD0Ev:0000000000000018 .L0 
     /tmp/ccMeUcYP.s:278    .text._ZN7WorkerDD2Ev:0000000000000010 .L0 
     /tmp/ccMeUcYP.s:320    .text._ZN7WorkerDD0Ev:0000000000000018 .L0 
     /tmp/ccMeUcYP.s:363    .text._ZN8ConsumerD2Ev:0000000000000010 .L0 
     /tmp/ccMeUcYP.s:405    .text._ZN8ConsumerD0Ev:0000000000000018 .L0 
     /tmp/ccMeUcYP.s:447    .text._ZN8ProducerD2Ev:0000000000000010 .L0 
     /tmp/ccMeUcYP.s:489    .text._ZN8ProducerD0Ev:0000000000000018 .L0 
     /tmp/ccMeUcYP.s:531    .text._ZN16ProducerKeyboardD2Ev:0000000000000010 .L0 
     /tmp/ccMeUcYP.s:573    .text._ZN16ProducerKeyboardD0Ev:0000000000000018 .L0 
     /tmp/ccMeUcYP.s:616    .text._ZN19ConsumerProducerCPP8ConsumerD2Ev:0000000000000010 .L0 
     /tmp/ccMeUcYP.s:658    .text._ZN19ConsumerProducerCPP8ConsumerD0Ev:0000000000000018 .L0 
     /tmp/ccMeUcYP.s:700    .text._ZN19ConsumerProducerCPP16ProducerKeyboradD2Ev:0000000000000010 .L0 
     /tmp/ccMeUcYP.s:742    .text._ZN19ConsumerProducerCPP16ProducerKeyboradD0Ev:0000000000000018 .L0 
     /tmp/ccMeUcYP.s:784    .text._ZN19ConsumerProducerCPP8ProducerD2Ev:0000000000000010 .L0 
     /tmp/ccMeUcYP.s:826    .text._ZN19ConsumerProducerCPP8ProducerD0Ev:0000000000000018 .L0 
     /tmp/ccMeUcYP.s:872    .text._ZN3AAAD2Ev:0000000000000010 .L0 
     /tmp/ccMeUcYP.s:918    .text._ZN3AAAD0Ev:0000000000000018 .L0 
     /tmp/ccMeUcYP.s:993    .text._ZN19ConsumerProducerCPP16ProducerKeyborad3runEv:0000000000000044 .L0 
     /tmp/ccMeUcYP.s:989    .text._ZN19ConsumerProducerCPP16ProducerKeyborad3runEv:0000000000000040 .L46
     /tmp/ccMeUcYP.s:967    .text._ZN19ConsumerProducerCPP16ProducerKeyborad3runEv:0000000000000018 .L47
     /tmp/ccMeUcYP.s:1065   .text._ZN19ConsumerProducerCPP8Consumer3runEv:0000000000000034 .L0 
     /tmp/ccMeUcYP.s:1061   .text._ZN19ConsumerProducerCPP8Consumer3runEv:0000000000000034 .L50
     /tmp/ccMeUcYP.s:1110   .text._ZN19ConsumerProducerCPP8Consumer3runEv:0000000000000090 .L51
     /tmp/ccMeUcYP.s:1054   .text._ZN19ConsumerProducerCPP8Consumer3runEv:0000000000000028 .L55
     /tmp/ccMeUcYP.s:1094   .text._ZN19ConsumerProducerCPP8Consumer3runEv:0000000000000074 .L56
     /tmp/ccMeUcYP.s:1338   .text._ZN19ConsumerProducerCPP8Producer3runEv:0000000000000020 .L0 
     /tmp/ccMeUcYP.s:1368   .text._ZN19ConsumerProducerCPP8Producer3runEv:000000000000006c .L67
     /tmp/ccMeUcYP.s:1335   .text._ZN19ConsumerProducerCPP8Producer3runEv:0000000000000020 .L68
     /tmp/ccMeUcYP.s:2623   .text:0000000000000848 .LEHB0
     /tmp/ccMeUcYP.s:2602   .text:000000000000082c .LFB23
     /tmp/ccMeUcYP.s:2626   .text:0000000000000850 .LEHE0
     /tmp/ccMeUcYP.s:2629   .text:0000000000000854 .LEHB1
     /tmp/ccMeUcYP.s:2635   .text:000000000000085c .LEHE1
     /tmp/ccMeUcYP.s:2803   .text:00000000000009b4 .L139
     /tmp/ccMeUcYP.s:2646   .text:0000000000000874 .LEHB2
GAS LISTING /tmp/ccMeUcYP.s 			page 186


     /tmp/ccMeUcYP.s:2654   .text:0000000000000888 .LEHE2
     /tmp/ccMeUcYP.s:2657   .text:000000000000088c .LEHB3
     /tmp/ccMeUcYP.s:2663   .text:0000000000000894 .LEHE3
     /tmp/ccMeUcYP.s:2815   .text:00000000000009d0 .L140
     /tmp/ccMeUcYP.s:2674   .text:00000000000008ac .LEHB4
     /tmp/ccMeUcYP.s:2682   .text:00000000000008c0 .LEHE4
     /tmp/ccMeUcYP.s:2685   .text:00000000000008c4 .LEHB5
     /tmp/ccMeUcYP.s:2691   .text:00000000000008cc .LEHE5
     /tmp/ccMeUcYP.s:2826   .text:00000000000009ec .L141
     /tmp/ccMeUcYP.s:2702   .text:00000000000008e4 .LEHB6
     /tmp/ccMeUcYP.s:2710   .text:00000000000008f8 .LEHE6
     /tmp/ccMeUcYP.s:2713   .text:00000000000008fc .LEHB7
     /tmp/ccMeUcYP.s:2719   .text:0000000000000904 .LEHE7
     /tmp/ccMeUcYP.s:2837   .text:0000000000000a08 .L142
     /tmp/ccMeUcYP.s:2730   .text:000000000000091c .LEHB8
     /tmp/ccMeUcYP.s:2761   .text:0000000000000958 .LEHE8
     /tmp/ccMeUcYP.s:2811   .text:00000000000009c8 .LEHB9
     /tmp/ccMeUcYP.s:2814   .text:00000000000009d0 .LEHE9
     /tmp/ccMeUcYP.s:2822   .text:00000000000009e4 .LEHB10
     /tmp/ccMeUcYP.s:2825   .text:00000000000009ec .LEHE10
     /tmp/ccMeUcYP.s:2833   .text:0000000000000a00 .LEHB11
     /tmp/ccMeUcYP.s:2836   .text:0000000000000a08 .LEHE11
     /tmp/ccMeUcYP.s:2844   .text:0000000000000a1c .LEHB12
     /tmp/ccMeUcYP.s:2847   .text:0000000000000a24 .LEHE12
     /tmp/ccMeUcYP.s:3440   .text:0000000000000cc4 .LEHB13
     /tmp/ccMeUcYP.s:3402   .text:0000000000000c84 .LFB39
     /tmp/ccMeUcYP.s:3513   .text:0000000000000d8c .LEHE13
     /tmp/ccMeUcYP.s:3516   .text:0000000000000d94 .LEHB14
     /tmp/ccMeUcYP.s:3519   .text:0000000000000d9c .LEHE14
     /tmp/ccMeUcYP.s:3860   .text:0000000000001040 .L194
     /tmp/ccMeUcYP.s:3525   .text:0000000000000da8 .LEHB15
     /tmp/ccMeUcYP.s:3547   .text:0000000000000dd8 .LEHE15
     /tmp/ccMeUcYP.s:3551   .text:0000000000000de0 .LEHB16
     /tmp/ccMeUcYP.s:3554   .text:0000000000000de8 .LEHE16
     /tmp/ccMeUcYP.s:3873   .text:000000000000105c .L195
     /tmp/ccMeUcYP.s:3599   .text:0000000000000e4c .LEHB17
     /tmp/ccMeUcYP.s:3602   .text:0000000000000e54 .LEHE17
     /tmp/ccMeUcYP.s:3610   .text:0000000000000e64 .LEHB18
     /tmp/ccMeUcYP.s:3616   .text:0000000000000e6c .LEHE18
     /tmp/ccMeUcYP.s:3885   .text:0000000000001078 .L196
     /tmp/ccMeUcYP.s:3627   .text:0000000000000e80 .LEHB19
     /tmp/ccMeUcYP.s:3685   .text:0000000000000efc .LEHE19
     /tmp/ccMeUcYP.s:3694   .text:0000000000000f10 .LEHB20
     /tmp/ccMeUcYP.s:3700   .text:0000000000000f18 .LEHE20
     /tmp/ccMeUcYP.s:3897   .text:0000000000001094 .L197
     /tmp/ccMeUcYP.s:3709   .text:0000000000000f20 .LEHB21
     /tmp/ccMeUcYP.s:3712   .text:0000000000000f28 .LEHE21
     /tmp/ccMeUcYP.s:3721   .text:0000000000000f3c .LEHB22
     /tmp/ccMeUcYP.s:3727   .text:0000000000000f44 .LEHE22
     /tmp/ccMeUcYP.s:3910   .text:00000000000010b0 .L198
     /tmp/ccMeUcYP.s:3742   .text:0000000000000f64 .LEHB23
     /tmp/ccMeUcYP.s:3824   .text:0000000000001004 .LEHE23
     /tmp/ccMeUcYP.s:3869   .text:0000000000001054 .LEHB24
     /tmp/ccMeUcYP.s:3872   .text:000000000000105c .LEHE24
     /tmp/ccMeUcYP.s:3881   .text:0000000000001070 .LEHB25
     /tmp/ccMeUcYP.s:3884   .text:0000000000001078 .LEHE25
     /tmp/ccMeUcYP.s:3893   .text:000000000000108c .LEHB26
GAS LISTING /tmp/ccMeUcYP.s 			page 187


     /tmp/ccMeUcYP.s:3896   .text:0000000000001094 .LEHE26
     /tmp/ccMeUcYP.s:3906   .text:00000000000010a8 .LEHB27
     /tmp/ccMeUcYP.s:3909   .text:00000000000010b0 .LEHE27
     /tmp/ccMeUcYP.s:3918   .text:00000000000010c4 .LEHB28
     /tmp/ccMeUcYP.s:3921   .text:00000000000010cc .LEHE28
     /tmp/ccMeUcYP.s:4118   .text:0000000000001194 .LEHB29
     /tmp/ccMeUcYP.s:4080   .text:0000000000001154 .LFB54
     /tmp/ccMeUcYP.s:4191   .text:000000000000125c .LEHE29
     /tmp/ccMeUcYP.s:4194   .text:0000000000001264 .LEHB30
     /tmp/ccMeUcYP.s:4197   .text:000000000000126c .LEHE30
     /tmp/ccMeUcYP.s:4527   .text:00000000000014ec .L230
     /tmp/ccMeUcYP.s:4203   .text:0000000000001278 .LEHB31
     /tmp/ccMeUcYP.s:4225   .text:00000000000012a8 .LEHE31
     /tmp/ccMeUcYP.s:4229   .text:00000000000012b0 .LEHB32
     /tmp/ccMeUcYP.s:4232   .text:00000000000012b8 .LEHE32
     /tmp/ccMeUcYP.s:4540   .text:0000000000001508 .L231
     /tmp/ccMeUcYP.s:4276   .text:000000000000131c .LEHB33
     /tmp/ccMeUcYP.s:4279   .text:0000000000001324 .LEHE33
     /tmp/ccMeUcYP.s:4282   .text:0000000000001328 .LEHB34
     /tmp/ccMeUcYP.s:4288   .text:0000000000001330 .LEHE34
     /tmp/ccMeUcYP.s:4551   .text:0000000000001524 .L232
     /tmp/ccMeUcYP.s:4299   .text:0000000000001344 .LEHB35
     /tmp/ccMeUcYP.s:4317   .text:000000000000136c .LEHE35
     /tmp/ccMeUcYP.s:4320   .text:0000000000001370 .LEHB36
     /tmp/ccMeUcYP.s:4326   .text:0000000000001378 .LEHE36
     /tmp/ccMeUcYP.s:4563   .text:0000000000001540 .L233
     /tmp/ccMeUcYP.s:4338   .text:0000000000001390 .LEHB37
     /tmp/ccMeUcYP.s:4390   .text:0000000000001400 .LEHE37
     /tmp/ccMeUcYP.s:4393   .text:0000000000001404 .LEHB38
     /tmp/ccMeUcYP.s:4399   .text:000000000000140c .LEHE38
     /tmp/ccMeUcYP.s:4574   .text:000000000000155c .L234
     /tmp/ccMeUcYP.s:4407   .text:0000000000001410 .LEHB39
     /tmp/ccMeUcYP.s:4491   .text:00000000000014b0 .LEHE39
     /tmp/ccMeUcYP.s:4536   .text:0000000000001500 .LEHB40
     /tmp/ccMeUcYP.s:4539   .text:0000000000001508 .LEHE40
     /tmp/ccMeUcYP.s:4547   .text:000000000000151c .LEHB41
     /tmp/ccMeUcYP.s:4550   .text:0000000000001524 .LEHE41
     /tmp/ccMeUcYP.s:4559   .text:0000000000001538 .LEHB42
     /tmp/ccMeUcYP.s:4562   .text:0000000000001540 .LEHE42
     /tmp/ccMeUcYP.s:4570   .text:0000000000001554 .LEHB43
     /tmp/ccMeUcYP.s:4573   .text:000000000000155c .LEHE43
     /tmp/ccMeUcYP.s:4583   .text:0000000000001570 .LEHB44
     /tmp/ccMeUcYP.s:4586   .text:0000000000001578 .LEHE44
     /tmp/ccMeUcYP.s:5287   .text:0000000000001a2c .LEHB45
     /tmp/ccMeUcYP.s:5269   .text:0000000000001a14 .LFB92
     /tmp/ccMeUcYP.s:5297   .text:0000000000001a48 .LEHE45
     /tmp/ccMeUcYP.s:5304   .text:0000000000001a58 .LEHB46
     /tmp/ccMeUcYP.s:5327   .text:0000000000001a90 .LEHE46
     /tmp/ccMeUcYP.s:5346   .text:0000000000001ab4 .L252
     /tmp/ccMeUcYP.s:5354   .text:0000000000001ac8 .LEHB47
     /tmp/ccMeUcYP.s:5357   .text:0000000000001ad0 .LEHE47
     /tmp/ccMeUcYP.s:5482   .text:0000000000001b20 .LEHB48
     /tmp/ccMeUcYP.s:5462   .text:0000000000001b04 .LFB102
     /tmp/ccMeUcYP.s:5706   .text:0000000000001c98 .LEHE48
     /tmp/ccMeUcYP.s:5713   .text:0000000000001ca0 .LEHB49
     /tmp/ccMeUcYP.s:5716   .text:0000000000001ca8 .LEHE49
     /tmp/ccMeUcYP.s:5812   .text:0000000000001d30 .L273
GAS LISTING /tmp/ccMeUcYP.s 			page 188


     /tmp/ccMeUcYP.s:5765   .text:0000000000001ce8 .LEHB50
     /tmp/ccMeUcYP.s:5789   .text:0000000000001d14 .LEHE50
     /tmp/ccMeUcYP.s:5821   .text:0000000000001d44 .LEHB51
     /tmp/ccMeUcYP.s:5824   .text:0000000000001d4c .LEHE51
     /tmp/ccMeUcYP.s:15043  .debug_abbrev:0000000000000000 .Ldebug_abbrev0
     /tmp/ccMeUcYP.s:20420  .debug_str:000000000000145f .LASF372
     /tmp/ccMeUcYP.s:20310  .debug_str:00000000000010c9 .LASF373
     /tmp/ccMeUcYP.s:19920  .debug_str:000000000000045e .LASF374
     /tmp/ccMeUcYP.s:19636  .debug_ranges:0000000000000000 .Ldebug_ranges0
     /tmp/ccMeUcYP.s:19786  .debug_line:0000000000000000 .Ldebug_line0
     /tmp/ccMeUcYP.s:19840  .debug_str:0000000000000196 .LASF0
     /tmp/ccMeUcYP.s:20498  .debug_str:000000000000187f .LASF1
     /tmp/ccMeUcYP.s:20424  .debug_str:0000000000001537 .LASF2
     /tmp/ccMeUcYP.s:20522  .debug_str:000000000000194d .LASF3
     /tmp/ccMeUcYP.s:20360  .debug_str:000000000000127d .LASF4
     /tmp/ccMeUcYP.s:20384  .debug_str:000000000000137f .LASF5
     /tmp/ccMeUcYP.s:20034  .debug_str:0000000000000842 .LASF6
     /tmp/ccMeUcYP.s:20128  .debug_str:0000000000000b14 .LASF7
     /tmp/ccMeUcYP.s:20104  .debug_str:0000000000000a64 .LASF8
     /tmp/ccMeUcYP.s:20292  .debug_str:000000000000103e .LASF9
     /tmp/ccMeUcYP.s:19872  .debug_str:00000000000002a2 .LASF10
     /tmp/ccMeUcYP.s:20480  .debug_str:00000000000017a6 .LASF11
     /tmp/ccMeUcYP.s:20036  .debug_str:0000000000000849 .LASF12
     /tmp/ccMeUcYP.s:19932  .debug_str:00000000000004c3 .LASF13
     /tmp/ccMeUcYP.s:20130  .debug_str:0000000000000b1b .LASF14
     /tmp/ccMeUcYP.s:20044  .debug_str:0000000000000870 .LASF15
     /tmp/ccMeUcYP.s:20338  .debug_str:00000000000011b3 .LASF16
     /tmp/ccMeUcYP.s:20054  .debug_str:00000000000008ae .LASF17
     /tmp/ccMeUcYP.s:19994  .debug_str:00000000000006ae .LASF18
     /tmp/ccMeUcYP.s:20020  .debug_str:00000000000007dd .LASF19
     /tmp/ccMeUcYP.s:19912  .debug_str:00000000000003fc .LASF91
     /tmp/ccMeUcYP.s:19990  .debug_str:0000000000000691 .LASF21
     /tmp/ccMeUcYP.s:19846  .debug_str:00000000000001b6 .LASF20
     /tmp/ccMeUcYP.s:20012  .debug_str:0000000000000759 .LASF60
     /tmp/ccMeUcYP.s:20028  .debug_str:0000000000000816 .LASF62
     /tmp/ccMeUcYP.s:20042  .debug_str:0000000000000869 .LASF22
     /tmp/ccMeUcYP.s:19914  .debug_str:0000000000000406 .LASF24
     /tmp/ccMeUcYP.s:20504  .debug_str:00000000000018b4 .LASF23
     /tmp/ccMeUcYP.s:19804  .debug_str:0000000000000078 .LASF25
     /tmp/ccMeUcYP.s:20408  .debug_str:0000000000001432 .LASF375
     /tmp/ccMeUcYP.s:20138  .debug_str:0000000000000b67 .LASF26
     /tmp/ccMeUcYP.s:20470  .debug_str:000000000000174e .LASF28
     /tmp/ccMeUcYP.s:20368  .debug_str:00000000000012c3 .LASF27
     /tmp/ccMeUcYP.s:20450  .debug_str:000000000000167d .LASF29
     /tmp/ccMeUcYP.s:20046  .debug_str:0000000000000880 .LASF30
     /tmp/ccMeUcYP.s:20528  .debug_str:0000000000001973 .LASF31
     /tmp/ccMeUcYP.s:19924  .debug_str:0000000000000491 .LASF84
     /tmp/ccMeUcYP.s:20246  .debug_str:0000000000000e8d .LASF32
     /tmp/ccMeUcYP.s:20206  .debug_str:0000000000000d81 .LASF33
     /tmp/ccMeUcYP.s:19794  .debug_str:0000000000000030 .LASF34
     /tmp/ccMeUcYP.s:20428  .debug_str:0000000000001555 .LASF35
     /tmp/ccMeUcYP.s:20242  .debug_str:0000000000000e71 .LASF36
     /tmp/ccMeUcYP.s:20098  .debug_str:0000000000000a20 .LASF38
     /tmp/ccMeUcYP.s:19986  .debug_str:000000000000066e .LASF37
     /tmp/ccMeUcYP.s:19832  .debug_str:0000000000000158 .LASF39
     /tmp/ccMeUcYP.s:20160  .debug_str:0000000000000bd8 .LASF40
     /tmp/ccMeUcYP.s:20122  .debug_str:0000000000000ae2 .LASF376
GAS LISTING /tmp/ccMeUcYP.s 			page 189


     /tmp/ccMeUcYP.s:20212  .debug_str:0000000000000dab .LASF41
     /tmp/ccMeUcYP.s:20390  .debug_str:00000000000013b6 .LASF43
     /tmp/ccMeUcYP.s:19928  .debug_str:00000000000004ae .LASF42
     /tmp/ccMeUcYP.s:19818  .debug_str:0000000000000103 .LASF44
     /tmp/ccMeUcYP.s:20456  .debug_str:00000000000016b5 .LASF45
     /tmp/ccMeUcYP.s:20482  .debug_str:00000000000017b4 .LASF46
     /tmp/ccMeUcYP.s:20194  .debug_str:0000000000000d13 .LASF47
     /tmp/ccMeUcYP.s:20396  .debug_str:00000000000013d6 .LASF48
     /tmp/ccMeUcYP.s:20322  .debug_str:0000000000001140 .LASF49
     /tmp/ccMeUcYP.s:19842  .debug_str:00000000000001a3 .LASF50
     /tmp/ccMeUcYP.s:20442  .debug_str:00000000000015fd .LASF51
     /tmp/ccMeUcYP.s:19852  .debug_str:00000000000001dd .LASF52
     /tmp/ccMeUcYP.s:20412  .debug_str:000000000000143f .LASF53
     /tmp/ccMeUcYP.s:20002  .debug_str:00000000000006f8 .LASF54
     /tmp/ccMeUcYP.s:20096  .debug_str:0000000000000a10 .LASF55
     /tmp/ccMeUcYP.s:20236  .debug_str:0000000000000e41 .LASF56
     /tmp/ccMeUcYP.s:20190  .debug_str:0000000000000cf1 .LASF57
     /tmp/ccMeUcYP.s:19926  .debug_str:000000000000049d .LASF58
     /tmp/ccMeUcYP.s:20514  .debug_str:0000000000001904 .LASF59
     /tmp/ccMeUcYP.s:20234  .debug_str:0000000000000e3c .LASF61
     /tmp/ccMeUcYP.s:20238  .debug_str:0000000000000e51 .LASF63
     /tmp/ccMeUcYP.s:19826  .debug_str:000000000000013a .LASF64
     /tmp/ccMeUcYP.s:20444  .debug_str:0000000000001602 .LASF65
     /tmp/ccMeUcYP.s:20112  .debug_str:0000000000000aa4 .LASF66
     /tmp/ccMeUcYP.s:20512  .debug_str:00000000000018f0 .LASF67
     /tmp/ccMeUcYP.s:19974  .debug_str:0000000000000611 .LASF68
     /tmp/ccMeUcYP.s:20352  .debug_str:0000000000001238 .LASF141
     /tmp/ccMeUcYP.s:19824  .debug_str:0000000000000127 .LASF148
     /tmp/ccMeUcYP.s:20010  .debug_str:0000000000000754 .LASF96
     /tmp/ccMeUcYP.s:20468  .debug_str:000000000000173b .LASF158
     /tmp/ccMeUcYP.s:19810  .debug_str:00000000000000c1 .LASF69
     /tmp/ccMeUcYP.s:20494  .debug_str:000000000000186b .LASF70
     /tmp/ccMeUcYP.s:20178  .debug_str:0000000000000c6b .LASF71
     /tmp/ccMeUcYP.s:20496  .debug_str:0000000000001875 .LASF72
     /tmp/ccMeUcYP.s:19868  .debug_str:0000000000000261 .LASF73
     /tmp/ccMeUcYP.s:20500  .debug_str:0000000000001892 .LASF74
     /tmp/ccMeUcYP.s:20176  .debug_str:0000000000000c61 .LASF75
     /tmp/ccMeUcYP.s:19830  .debug_str:0000000000000151 .LASF76
     /tmp/ccMeUcYP.s:20550  .debug_str:0000000000001a71 .LASF77
     /tmp/ccMeUcYP.s:20374  .debug_str:000000000000130f .LASF78
     /tmp/ccMeUcYP.s:20474  .debug_str:0000000000001770 .LASF79
     /tmp/ccMeUcYP.s:20350  .debug_str:000000000000122e .LASF80
     /tmp/ccMeUcYP.s:20182  .debug_str:0000000000000c8c .LASF81
     /tmp/ccMeUcYP.s:20222  .debug_str:0000000000000deb .LASF82
     /tmp/ccMeUcYP.s:19866  .debug_str:000000000000024f .LASF83
     /tmp/ccMeUcYP.s:19950  .debug_str:000000000000055b .LASF85
     /tmp/ccMeUcYP.s:19888  .debug_str:000000000000034b .LASF135
     /tmp/ccMeUcYP.s:20170  .debug_str:0000000000000c4a .LASF86
     /tmp/ccMeUcYP.s:20452  .debug_str:000000000000168d .LASF87
     /tmp/ccMeUcYP.s:20214  .debug_str:0000000000000db1 .LASF181
     /tmp/ccMeUcYP.s:19790  .debug_str:0000000000000008 .LASF88
     /tmp/ccMeUcYP.s:20476  .debug_str:000000000000177a .LASF89
     /tmp/ccMeUcYP.s:20154  .debug_str:0000000000000bbb .LASF90
     /tmp/ccMeUcYP.s:20296  .debug_str:000000000000105a .LASF92
     /tmp/ccMeUcYP.s:20040  .debug_str:000000000000085f .LASF93
     /tmp/ccMeUcYP.s:20422  .debug_str:0000000000001523 .LASF377
     /tmp/ccMeUcYP.s:20448  .debug_str:0000000000001657 .LASF94
GAS LISTING /tmp/ccMeUcYP.s 			page 190


     /tmp/ccMeUcYP.s:19982  .debug_str:0000000000000637 .LASF95
     /tmp/ccMeUcYP.s:20288  .debug_str:0000000000001023 .LASF97
     /tmp/ccMeUcYP.s:20348  .debug_str:0000000000001205 .LASF98
     /tmp/ccMeUcYP.s:19918  .debug_str:0000000000000434 .LASF99
     /tmp/ccMeUcYP.s:20490  .debug_str:000000000000180a .LASF100
     /tmp/ccMeUcYP.s:20272  .debug_str:0000000000000f83 .LASF106
     /tmp/ccMeUcYP.s:20094  .debug_str:0000000000000a06 .LASF101
     /tmp/ccMeUcYP.s:20014  .debug_str:0000000000000762 .LASF109
     /tmp/ccMeUcYP.s:20518  .debug_str:0000000000001926 .LASF102
     /tmp/ccMeUcYP.s:20436  .debug_str:00000000000015b1 .LASF103
     /tmp/ccMeUcYP.s:20488  .debug_str:00000000000017e0 .LASF104
     /tmp/ccMeUcYP.s:19870  .debug_str:000000000000026b .LASF105
     /tmp/ccMeUcYP.s:20382  .debug_str:0000000000001357 .LASF107
     /tmp/ccMeUcYP.s:20282  .debug_str:0000000000000ffa .LASF108
     /tmp/ccMeUcYP.s:20342  .debug_str:00000000000011cf .LASF110
     /tmp/ccMeUcYP.s:20284  .debug_str:0000000000001004 .LASF111
     /tmp/ccMeUcYP.s:20198  .debug_str:0000000000000d34 .LASF112
     /tmp/ccMeUcYP.s:19862  .debug_str:0000000000000214 .LASF113
     /tmp/ccMeUcYP.s:20446  .debug_str:0000000000001617 .LASF114
     /tmp/ccMeUcYP.s:20268  .debug_str:0000000000000f4c .LASF115
     /tmp/ccMeUcYP.s:20516  .debug_str:0000000000001914 .LASF116
     /tmp/ccMeUcYP.s:20372  .debug_str:00000000000012e0 .LASF117
     /tmp/ccMeUcYP.s:20276  .debug_str:0000000000000fd6 .LASF118
     /tmp/ccMeUcYP.s:20430  .debug_str:0000000000001561 .LASF119
     /tmp/ccMeUcYP.s:19878  .debug_str:00000000000002dc .LASF120
     /tmp/ccMeUcYP.s:19884  .debug_str:0000000000000306 .LASF121
     /tmp/ccMeUcYP.s:20202  .debug_str:0000000000000d70 .LASF122
     /tmp/ccMeUcYP.s:20218  .debug_str:0000000000000dcb .LASF123
     /tmp/ccMeUcYP.s:20018  .debug_str:00000000000007bf .LASF124
     /tmp/ccMeUcYP.s:20336  .debug_str:00000000000011a9 .LASF125
     /tmp/ccMeUcYP.s:20484  .debug_str:00000000000017bd .LASF126
     /tmp/ccMeUcYP.s:20462  .debug_str:00000000000016fc .LASF127
     /tmp/ccMeUcYP.s:20228  .debug_str:0000000000000e12 .LASF128
     /tmp/ccMeUcYP.s:20264  .debug_str:0000000000000f27 .LASF129
     /tmp/ccMeUcYP.s:19858  .debug_str:00000000000001f8 .LASF130
     /tmp/ccMeUcYP.s:20052  .debug_str:00000000000008a0 .LASF131
     /tmp/ccMeUcYP.s:20552  .debug_str:0000000000001a80 .LASF132
     /tmp/ccMeUcYP.s:20510  .debug_str:00000000000018e2 .LASF133
     /tmp/ccMeUcYP.s:19834  .debug_str:0000000000000165 .LASF134
     /tmp/ccMeUcYP.s:20524  .debug_str:0000000000001953 .LASF136
     /tmp/ccMeUcYP.s:20332  .debug_str:000000000000117b .LASF137
     /tmp/ccMeUcYP.s:19980  .debug_str:0000000000000624 .LASF138
     /tmp/ccMeUcYP.s:19938  .debug_str:00000000000004f2 .LASF139
     /tmp/ccMeUcYP.s:20546  .debug_str:0000000000001a4c .LASF140
     /tmp/ccMeUcYP.s:20086  .debug_str:00000000000009b6 .LASF378
     /tmp/ccMeUcYP.s:20388  .debug_str:00000000000013a8 .LASF142
     /tmp/ccMeUcYP.s:20106  .debug_str:0000000000000a77 .LASF143
     /tmp/ccMeUcYP.s:20084  .debug_str:00000000000009aa .LASF144
     /tmp/ccMeUcYP.s:20102  .debug_str:0000000000000a47 .LASF145
     /tmp/ccMeUcYP.s:19948  .debug_str:0000000000000545 .LASF146
     /tmp/ccMeUcYP.s:19788  .debug_str:0000000000000000 .LASF147
     /tmp/ccMeUcYP.s:20024  .debug_str:00000000000007f8 .LASF149
     /tmp/ccMeUcYP.s:19906  .debug_str:00000000000003ce .LASF150
     /tmp/ccMeUcYP.s:20000  .debug_str:00000000000006e0 .LASF151
     /tmp/ccMeUcYP.s:20266  .debug_str:0000000000000f46 .LASF152
     /tmp/ccMeUcYP.s:20270  .debug_str:0000000000000f7d .LASF153
     /tmp/ccMeUcYP.s:20070  .debug_str:0000000000000946 .LASF154
GAS LISTING /tmp/ccMeUcYP.s 			page 191


     /tmp/ccMeUcYP.s:20058  .debug_str:00000000000008d5 .LASF155
     /tmp/ccMeUcYP.s:20392  .debug_str:00000000000013c6 .LASF156
     /tmp/ccMeUcYP.s:20118  .debug_str:0000000000000acd .LASF157
     /tmp/ccMeUcYP.s:20402  .debug_str:00000000000013f5 .LASF159
     /tmp/ccMeUcYP.s:20328  .debug_str:0000000000001163 .LASF160
     /tmp/ccMeUcYP.s:20248  .debug_str:0000000000000e9a .LASF161
     /tmp/ccMeUcYP.s:20258  .debug_str:0000000000000edd .LASF162
     /tmp/ccMeUcYP.s:20200  .debug_str:0000000000000d66 .LASF297
     /tmp/ccMeUcYP.s:20440  .debug_str:00000000000015e9 .LASF299
     /tmp/ccMeUcYP.s:19796  .debug_str:0000000000000040 .LASF163
     /tmp/ccMeUcYP.s:20354  .debug_str:000000000000123d .LASF164
     /tmp/ccMeUcYP.s:20156  .debug_str:0000000000000bc6 .LASF165
     /tmp/ccMeUcYP.s:20164  .debug_str:0000000000000bfd .LASF166
     /tmp/ccMeUcYP.s:20244  .debug_str:0000000000000e81 .LASF167
     /tmp/ccMeUcYP.s:20364  .debug_str:0000000000001290 .LASF168
     /tmp/ccMeUcYP.s:19822  .debug_str:000000000000011d .LASF169
     /tmp/ccMeUcYP.s:20314  .debug_str:00000000000010ea .LASF170
     /tmp/ccMeUcYP.s:19808  .debug_str:00000000000000b6 .LASF171
     /tmp/ccMeUcYP.s:20100  .debug_str:0000000000000a2d .LASF172
     /tmp/ccMeUcYP.s:19966  .debug_str:00000000000005de .LASF173
     /tmp/ccMeUcYP.s:20370  .debug_str:00000000000012c9 .LASF174
     /tmp/ccMeUcYP.s:19930  .debug_str:00000000000004b5 .LASF175
     /tmp/ccMeUcYP.s:20438  .debug_str:00000000000015da .LASF176
     /tmp/ccMeUcYP.s:20204  .debug_str:0000000000000d75 .LASF177
     /tmp/ccMeUcYP.s:19838  .debug_str:0000000000000183 .LASF178
     /tmp/ccMeUcYP.s:19806  .debug_str:0000000000000098 .LASF184
     /tmp/ccMeUcYP.s:19976  .debug_str:0000000000000619 .LASF179
     /tmp/ccMeUcYP.s:19890  .debug_str:000000000000035f .LASF180
     /tmp/ccMeUcYP.s:20472  .debug_str:0000000000001761 .LASF182
     /tmp/ccMeUcYP.s:19848  .debug_str:00000000000001bd .LASF183
     /tmp/ccMeUcYP.s:20366  .debug_str:00000000000012ab .LASF379
     /tmp/ccMeUcYP.s:20492  .debug_str:0000000000001841 .LASF185
     /tmp/ccMeUcYP.s:20378  .debug_str:0000000000001325 .LASF186
     /tmp/ccMeUcYP.s:20400  .debug_str:00000000000013ec .LASF187
     /tmp/ccMeUcYP.s:20114  .debug_str:0000000000000aaa .LASF188
     /tmp/ccMeUcYP.s:20330  .debug_str:0000000000001168 .LASF189
     /tmp/ccMeUcYP.s:20344  .debug_str:00000000000011f5 .LASF190
     /tmp/ccMeUcYP.s:19992  .debug_str:0000000000000698 .LASF191
     /tmp/ccMeUcYP.s:19880  .debug_str:00000000000002e5 .LASF192
     /tmp/ccMeUcYP.s:19978  .debug_str:000000000000061e .LASF193
     /tmp/ccMeUcYP.s:20124  .debug_str:0000000000000af6 .LASF194
     /tmp/ccMeUcYP.s:20134  .debug_str:0000000000000b49 .LASF195
     /tmp/ccMeUcYP.s:19970  .debug_str:00000000000005f5 .LASF196
     /tmp/ccMeUcYP.s:19874  .debug_str:00000000000002b2 .LASF197
     /tmp/ccMeUcYP.s:20520  .debug_str:000000000000192f .LASF198
     /tmp/ccMeUcYP.s:19958  .debug_str:000000000000059a .LASF199
     /tmp/ccMeUcYP.s:19876  .debug_str:00000000000002cb .LASF200
     /tmp/ccMeUcYP.s:20380  .debug_str:0000000000001344 .LASF201
     /tmp/ccMeUcYP.s:20542  .debug_str:0000000000001a20 .LASF202
     /tmp/ccMeUcYP.s:20174  .debug_str:0000000000000c58 .LASF203
     /tmp/ccMeUcYP.s:19908  .debug_str:00000000000003d6 .LASF204
     /tmp/ccMeUcYP.s:20358  .debug_str:000000000000125f .LASF205
     /tmp/ccMeUcYP.s:20220  .debug_str:0000000000000dd8 .LASF206
     /tmp/ccMeUcYP.s:20142  .debug_str:0000000000000b7c .LASF207
     /tmp/ccMeUcYP.s:19816  .debug_str:00000000000000f2 .LASF208
     /tmp/ccMeUcYP.s:20334  .debug_str:000000000000118d .LASF209
     /tmp/ccMeUcYP.s:19916  .debug_str:0000000000000417 .LASF210
GAS LISTING /tmp/ccMeUcYP.s 			page 192


     /tmp/ccMeUcYP.s:20454  .debug_str:00000000000016a4 .LASF211
     /tmp/ccMeUcYP.s:20274  .debug_str:0000000000000fab .LASF212
     /tmp/ccMeUcYP.s:20460  .debug_str:00000000000016d5 .LASF213
     /tmp/ccMeUcYP.s:20180  .debug_str:0000000000000c70 .LASF214
     /tmp/ccMeUcYP.s:20022  .debug_str:00000000000007e6 .LASF215
     /tmp/ccMeUcYP.s:20006  .debug_str:000000000000072a .LASF216
     /tmp/ccMeUcYP.s:20416  .debug_str:000000000000144d .LASF217
     /tmp/ccMeUcYP.s:19892  .debug_str:000000000000036b .LASF218
     /tmp/ccMeUcYP.s:20080  .debug_str:000000000000098b .LASF219
     /tmp/ccMeUcYP.s:19904  .debug_str:00000000000003c2 .LASF220
     /tmp/ccMeUcYP.s:20196  .debug_str:0000000000000d18 .LASF221
     /tmp/ccMeUcYP.s:19800  .debug_str:000000000000005f .LASF222
     /tmp/ccMeUcYP.s:20508  .debug_str:00000000000018d0 .LASF223
     /tmp/ccMeUcYP.s:20150  .debug_str:0000000000000ba8 .LASF224
     /tmp/ccMeUcYP.s:19850  .debug_str:00000000000001cd .LASF225
     /tmp/ccMeUcYP.s:20414  .debug_str:0000000000001445 .LASF226
     /tmp/ccMeUcYP.s:20230  .debug_str:0000000000000e21 .LASF227
     /tmp/ccMeUcYP.s:19792  .debug_str:000000000000001d .LASF228
     /tmp/ccMeUcYP.s:19902  .debug_str:00000000000003b6 .LASF229
     /tmp/ccMeUcYP.s:20186  .debug_str:0000000000000cc1 .LASF230
     /tmp/ccMeUcYP.s:20030  .debug_str:0000000000000829 .LASF231
     /tmp/ccMeUcYP.s:20076  .debug_str:0000000000000969 .LASF232
     /tmp/ccMeUcYP.s:20148  .debug_str:0000000000000b9f .LASF233
     /tmp/ccMeUcYP.s:20526  .debug_str:0000000000001963 .LASF234
     /tmp/ccMeUcYP.s:20376  .debug_str:000000000000131d .LASF235
     /tmp/ccMeUcYP.s:20210  .debug_str:0000000000000d99 .LASF236
     /tmp/ccMeUcYP.s:20254  .debug_str:0000000000000ec5 .LASF237
     /tmp/ccMeUcYP.s:19900  .debug_str:00000000000003aa .LASF238
     /tmp/ccMeUcYP.s:19946  .debug_str:0000000000000529 .LASF239
     /tmp/ccMeUcYP.s:20320  .debug_str:0000000000001130 .LASF240
     /tmp/ccMeUcYP.s:20404  .debug_str:000000000000140f .LASF241
     /tmp/ccMeUcYP.s:20146  .debug_str:0000000000000b96 .LASF242
     /tmp/ccMeUcYP.s:20008  .debug_str:0000000000000744 .LASF243
     /tmp/ccMeUcYP.s:20410  .debug_str:0000000000001437 .LASF244
     /tmp/ccMeUcYP.s:19894  .debug_str:000000000000037d .LASF245
     /tmp/ccMeUcYP.s:19972  .debug_str:00000000000005fe .LASF246
     /tmp/ccMeUcYP.s:19898  .debug_str:000000000000039e .LASF247
     /tmp/ccMeUcYP.s:20116  .debug_str:0000000000000ab1 .LASF248
     /tmp/ccMeUcYP.s:19956  .debug_str:000000000000058a .LASF249
     /tmp/ccMeUcYP.s:19960  .debug_str:00000000000005ad .LASF250
     /tmp/ccMeUcYP.s:20144  .debug_str:0000000000000b8d .LASF251
     /tmp/ccMeUcYP.s:20262  .debug_str:0000000000000f17 .LASF252
     /tmp/ccMeUcYP.s:20256  .debug_str:0000000000000ed8 .LASF253
     /tmp/ccMeUcYP.s:20356  .debug_str:0000000000001255 .LASF254
     /tmp/ccMeUcYP.s:19828  .debug_str:0000000000000141 .LASF255
     /tmp/ccMeUcYP.s:49     .text._ZN7WorkerAD0Ev:0000000000000000 .LFB155
     /tmp/ccMeUcYP.s:89     .text._ZN7WorkerAD0Ev:000000000000004c .LFE155
     /tmp/ccMeUcYP.s:16976  .debug_loc:0000000000000000 .LLST1
     /tmp/ccMeUcYP.s:65     .text._ZN7WorkerAD0Ev:0000000000000018 .LBB137
     /tmp/ccMeUcYP.s:73     .text._ZN7WorkerAD0Ev:000000000000002c .LBE137
     /tmp/ccMeUcYP.s:16994  .debug_loc:000000000000004c .LLST2
     /tmp/ccMeUcYP.s:71     .text._ZN7WorkerAD0Ev:000000000000002c .LVL4
     /tmp/ccMeUcYP.s:76     .text._ZN7WorkerAD0Ev:0000000000000038 .LVL5
     /tmp/ccMeUcYP.s:20068  .debug_str:0000000000000936 .LASF256
     /tmp/ccMeUcYP.s:11     .text._ZN7WorkerAD2Ev:0000000000000000 .LFB153
     /tmp/ccMeUcYP.s:40     .text._ZN7WorkerAD2Ev:0000000000000034 .LFE153
     /tmp/ccMeUcYP.s:17005  .debug_loc:0000000000000082 .LLST0
GAS LISTING /tmp/ccMeUcYP.s 			page 193


     /tmp/ccMeUcYP.s:29     .text._ZN7WorkerAD2Ev:0000000000000024 .LVL1
     /tmp/ccMeUcYP.s:20312  .debug_str:00000000000010da .LASF257
     /tmp/ccMeUcYP.s:133    .text._ZN7WorkerBD0Ev:0000000000000000 .LFB151
     /tmp/ccMeUcYP.s:173    .text._ZN7WorkerBD0Ev:000000000000004c .LFE151
     /tmp/ccMeUcYP.s:17019  .debug_loc:00000000000000bb .LLST4
     /tmp/ccMeUcYP.s:149    .text._ZN7WorkerBD0Ev:0000000000000018 .LBB140
     /tmp/ccMeUcYP.s:157    .text._ZN7WorkerBD0Ev:000000000000002c .LBE140
     /tmp/ccMeUcYP.s:17037  .debug_loc:0000000000000107 .LLST5
     /tmp/ccMeUcYP.s:155    .text._ZN7WorkerBD0Ev:000000000000002c .LVL11
     /tmp/ccMeUcYP.s:160    .text._ZN7WorkerBD0Ev:0000000000000038 .LVL12
     /tmp/ccMeUcYP.s:20166  .debug_str:0000000000000c14 .LASF258
     /tmp/ccMeUcYP.s:96     .text._ZN7WorkerBD2Ev:0000000000000000 .LFB149
     /tmp/ccMeUcYP.s:124    .text._ZN7WorkerBD2Ev:0000000000000034 .LFE149
     /tmp/ccMeUcYP.s:17048  .debug_loc:000000000000013d .LLST3
     /tmp/ccMeUcYP.s:113    .text._ZN7WorkerBD2Ev:0000000000000024 .LVL8
     /tmp/ccMeUcYP.s:20434  .debug_str:00000000000015a1 .LASF259
     /tmp/ccMeUcYP.s:217    .text._ZN7WorkerCD0Ev:0000000000000000 .LFB147
     /tmp/ccMeUcYP.s:257    .text._ZN7WorkerCD0Ev:000000000000004c .LFE147
     /tmp/ccMeUcYP.s:17062  .debug_loc:0000000000000176 .LLST7
     /tmp/ccMeUcYP.s:233    .text._ZN7WorkerCD0Ev:0000000000000018 .LBB143
     /tmp/ccMeUcYP.s:241    .text._ZN7WorkerCD0Ev:000000000000002c .LBE143
     /tmp/ccMeUcYP.s:17080  .debug_loc:00000000000001c2 .LLST8
     /tmp/ccMeUcYP.s:239    .text._ZN7WorkerCD0Ev:000000000000002c .LVL18
     /tmp/ccMeUcYP.s:244    .text._ZN7WorkerCD0Ev:0000000000000038 .LVL19
     /tmp/ccMeUcYP.s:20120  .debug_str:0000000000000ad2 .LASF260
     /tmp/ccMeUcYP.s:180    .text._ZN7WorkerCD2Ev:0000000000000000 .LFB145
     /tmp/ccMeUcYP.s:208    .text._ZN7WorkerCD2Ev:0000000000000034 .LFE145
     /tmp/ccMeUcYP.s:17091  .debug_loc:00000000000001f8 .LLST6
     /tmp/ccMeUcYP.s:197    .text._ZN7WorkerCD2Ev:0000000000000024 .LVL15
     /tmp/ccMeUcYP.s:20464  .debug_str:0000000000001711 .LASF261
     /tmp/ccMeUcYP.s:301    .text._ZN7WorkerDD0Ev:0000000000000000 .LFB143
     /tmp/ccMeUcYP.s:341    .text._ZN7WorkerDD0Ev:000000000000004c .LFE143
     /tmp/ccMeUcYP.s:17105  .debug_loc:0000000000000231 .LLST10
     /tmp/ccMeUcYP.s:317    .text._ZN7WorkerDD0Ev:0000000000000018 .LBB146
     /tmp/ccMeUcYP.s:325    .text._ZN7WorkerDD0Ev:000000000000002c .LBE146
     /tmp/ccMeUcYP.s:17123  .debug_loc:000000000000027d .LLST11
     /tmp/ccMeUcYP.s:323    .text._ZN7WorkerDD0Ev:000000000000002c .LVL25
     /tmp/ccMeUcYP.s:328    .text._ZN7WorkerDD0Ev:0000000000000038 .LVL26
     /tmp/ccMeUcYP.s:20398  .debug_str:00000000000013dc .LASF262
     /tmp/ccMeUcYP.s:264    .text._ZN7WorkerDD2Ev:0000000000000000 .LFB141
     /tmp/ccMeUcYP.s:292    .text._ZN7WorkerDD2Ev:0000000000000034 .LFE141
     /tmp/ccMeUcYP.s:17134  .debug_loc:00000000000002b3 .LLST9
     /tmp/ccMeUcYP.s:281    .text._ZN7WorkerDD2Ev:0000000000000024 .LVL22
     /tmp/ccMeUcYP.s:20308  .debug_str:00000000000010af .LASF263
     /tmp/ccMeUcYP.s:554    .text._ZN16ProducerKeyboardD0Ev:0000000000000000 .LFB139
     /tmp/ccMeUcYP.s:594    .text._ZN16ProducerKeyboardD0Ev:000000000000004c .LFE139
     /tmp/ccMeUcYP.s:17148  .debug_loc:00000000000002ec .LLST19
     /tmp/ccMeUcYP.s:570    .text._ZN16ProducerKeyboardD0Ev:0000000000000018 .LBB155
     /tmp/ccMeUcYP.s:578    .text._ZN16ProducerKeyboardD0Ev:000000000000002c .LBE155
     /tmp/ccMeUcYP.s:17166  .debug_loc:0000000000000338 .LLST20
     /tmp/ccMeUcYP.s:576    .text._ZN16ProducerKeyboardD0Ev:000000000000002c .LVL46
     /tmp/ccMeUcYP.s:581    .text._ZN16ProducerKeyboardD0Ev:0000000000000038 .LVL47
     /tmp/ccMeUcYP.s:20162  .debug_str:0000000000000be3 .LASF264
     /tmp/ccMeUcYP.s:517    .text._ZN16ProducerKeyboardD2Ev:0000000000000000 .LFB137
     /tmp/ccMeUcYP.s:545    .text._ZN16ProducerKeyboardD2Ev:0000000000000034 .LFE137
     /tmp/ccMeUcYP.s:17177  .debug_loc:000000000000036e .LLST18
     /tmp/ccMeUcYP.s:534    .text._ZN16ProducerKeyboardD2Ev:0000000000000024 .LVL43
GAS LISTING /tmp/ccMeUcYP.s 			page 194


     /tmp/ccMeUcYP.s:20302  .debug_str:000000000000108a .LASF265
     /tmp/ccMeUcYP.s:470    .text._ZN8ProducerD0Ev:0000000000000000 .LFB135
     /tmp/ccMeUcYP.s:510    .text._ZN8ProducerD0Ev:000000000000004c .LFE135
     /tmp/ccMeUcYP.s:17191  .debug_loc:00000000000003a7 .LLST16
     /tmp/ccMeUcYP.s:486    .text._ZN8ProducerD0Ev:0000000000000018 .LBB152
     /tmp/ccMeUcYP.s:494    .text._ZN8ProducerD0Ev:000000000000002c .LBE152
     /tmp/ccMeUcYP.s:17209  .debug_loc:00000000000003f3 .LLST17
     /tmp/ccMeUcYP.s:492    .text._ZN8ProducerD0Ev:000000000000002c .LVL39
     /tmp/ccMeUcYP.s:497    .text._ZN8ProducerD0Ev:0000000000000038 .LVL40
     /tmp/ccMeUcYP.s:20298  .debug_str:0000000000001066 .LASF266
     /tmp/ccMeUcYP.s:433    .text._ZN8ProducerD2Ev:0000000000000000 .LFB133
     /tmp/ccMeUcYP.s:461    .text._ZN8ProducerD2Ev:0000000000000034 .LFE133
     /tmp/ccMeUcYP.s:17220  .debug_loc:0000000000000429 .LLST15
     /tmp/ccMeUcYP.s:450    .text._ZN8ProducerD2Ev:0000000000000024 .LVL36
     /tmp/ccMeUcYP.s:20192  .debug_str:0000000000000d02 .LASF267
     /tmp/ccMeUcYP.s:386    .text._ZN8ConsumerD0Ev:0000000000000000 .LFB131
     /tmp/ccMeUcYP.s:426    .text._ZN8ConsumerD0Ev:000000000000004c .LFE131
     /tmp/ccMeUcYP.s:17234  .debug_loc:0000000000000462 .LLST13
     /tmp/ccMeUcYP.s:402    .text._ZN8ConsumerD0Ev:0000000000000018 .LBB149
     /tmp/ccMeUcYP.s:410    .text._ZN8ConsumerD0Ev:000000000000002c .LBE149
     /tmp/ccMeUcYP.s:17252  .debug_loc:00000000000004ae .LLST14
     /tmp/ccMeUcYP.s:408    .text._ZN8ConsumerD0Ev:000000000000002c .LVL32
     /tmp/ccMeUcYP.s:413    .text._ZN8ConsumerD0Ev:0000000000000038 .LVL33
     /tmp/ccMeUcYP.s:20056  .debug_str:00000000000008c4 .LASF268
     /tmp/ccMeUcYP.s:348    .text._ZN8ConsumerD2Ev:0000000000000000 .LFB129
     /tmp/ccMeUcYP.s:377    .text._ZN8ConsumerD2Ev:0000000000000034 .LFE129
     /tmp/ccMeUcYP.s:17263  .debug_loc:00000000000004e4 .LLST12
     /tmp/ccMeUcYP.s:366    .text._ZN8ConsumerD2Ev:0000000000000024 .LVL29
     /tmp/ccMeUcYP.s:20538  .debug_str:00000000000019e3 .LASF269
     /tmp/ccMeUcYP.s:723    .text._ZN19ConsumerProducerCPP16ProducerKeyboradD0Ev:0000000000000000 .LFB127
     /tmp/ccMeUcYP.s:763    .text._ZN19ConsumerProducerCPP16ProducerKeyboradD0Ev:000000000000004c .LFE127
     /tmp/ccMeUcYP.s:17277  .debug_loc:000000000000051d .LLST25
     /tmp/ccMeUcYP.s:739    .text._ZN19ConsumerProducerCPP16ProducerKeyboradD0Ev:0000000000000018 .LBB161
     /tmp/ccMeUcYP.s:747    .text._ZN19ConsumerProducerCPP16ProducerKeyboradD0Ev:000000000000002c .LBE161
     /tmp/ccMeUcYP.s:17295  .debug_loc:0000000000000569 .LLST26
     /tmp/ccMeUcYP.s:745    .text._ZN19ConsumerProducerCPP16ProducerKeyboradD0Ev:000000000000002c .LVL60
     /tmp/ccMeUcYP.s:750    .text._ZN19ConsumerProducerCPP16ProducerKeyboradD0Ev:0000000000000038 .LVL61
     /tmp/ccMeUcYP.s:20534  .debug_str:00000000000019a1 .LASF270
     /tmp/ccMeUcYP.s:686    .text._ZN19ConsumerProducerCPP16ProducerKeyboradD2Ev:0000000000000000 .LFB125
     /tmp/ccMeUcYP.s:714    .text._ZN19ConsumerProducerCPP16ProducerKeyboradD2Ev:0000000000000034 .LFE125
     /tmp/ccMeUcYP.s:17306  .debug_loc:000000000000059f .LLST24
     /tmp/ccMeUcYP.s:703    .text._ZN19ConsumerProducerCPP16ProducerKeyboradD2Ev:0000000000000024 .LVL57
     /tmp/ccMeUcYP.s:19814  .debug_str:00000000000000cc .LASF271
     /tmp/ccMeUcYP.s:807    .text._ZN19ConsumerProducerCPP8ProducerD0Ev:0000000000000000 .LFB123
     /tmp/ccMeUcYP.s:847    .text._ZN19ConsumerProducerCPP8ProducerD0Ev:000000000000004c .LFE123
     /tmp/ccMeUcYP.s:17320  .debug_loc:00000000000005d8 .LLST28
     /tmp/ccMeUcYP.s:823    .text._ZN19ConsumerProducerCPP8ProducerD0Ev:0000000000000018 .LBB164
     /tmp/ccMeUcYP.s:831    .text._ZN19ConsumerProducerCPP8ProducerD0Ev:000000000000002c .LBE164
     /tmp/ccMeUcYP.s:17338  .debug_loc:0000000000000624 .LLST29
     /tmp/ccMeUcYP.s:829    .text._ZN19ConsumerProducerCPP8ProducerD0Ev:000000000000002c .LVL67
     /tmp/ccMeUcYP.s:834    .text._ZN19ConsumerProducerCPP8ProducerD0Ev:0000000000000038 .LVL68
     /tmp/ccMeUcYP.s:20260  .debug_str:0000000000000ef1 .LASF272
     /tmp/ccMeUcYP.s:770    .text._ZN19ConsumerProducerCPP8ProducerD2Ev:0000000000000000 .LFB121
     /tmp/ccMeUcYP.s:798    .text._ZN19ConsumerProducerCPP8ProducerD2Ev:0000000000000034 .LFE121
     /tmp/ccMeUcYP.s:17349  .debug_loc:000000000000065a .LLST27
     /tmp/ccMeUcYP.s:787    .text._ZN19ConsumerProducerCPP8ProducerD2Ev:0000000000000024 .LVL64
     /tmp/ccMeUcYP.s:20318  .debug_str:000000000000110a .LASF273
GAS LISTING /tmp/ccMeUcYP.s 			page 195


     /tmp/ccMeUcYP.s:639    .text._ZN19ConsumerProducerCPP8ConsumerD0Ev:0000000000000000 .LFB119
     /tmp/ccMeUcYP.s:679    .text._ZN19ConsumerProducerCPP8ConsumerD0Ev:000000000000004c .LFE119
     /tmp/ccMeUcYP.s:17363  .debug_loc:0000000000000693 .LLST22
     /tmp/ccMeUcYP.s:655    .text._ZN19ConsumerProducerCPP8ConsumerD0Ev:0000000000000018 .LBB158
     /tmp/ccMeUcYP.s:663    .text._ZN19ConsumerProducerCPP8ConsumerD0Ev:000000000000002c .LBE158
     /tmp/ccMeUcYP.s:17381  .debug_loc:00000000000006df .LLST23
     /tmp/ccMeUcYP.s:661    .text._ZN19ConsumerProducerCPP8ConsumerD0Ev:000000000000002c .LVL53
     /tmp/ccMeUcYP.s:666    .text._ZN19ConsumerProducerCPP8ConsumerD0Ev:0000000000000038 .LVL54
     /tmp/ccMeUcYP.s:20168  .debug_str:0000000000000c24 .LASF274
     /tmp/ccMeUcYP.s:601    .text._ZN19ConsumerProducerCPP8ConsumerD2Ev:0000000000000000 .LFB117
     /tmp/ccMeUcYP.s:630    .text._ZN19ConsumerProducerCPP8ConsumerD2Ev:0000000000000034 .LFE117
     /tmp/ccMeUcYP.s:17392  .debug_loc:0000000000000715 .LLST21
     /tmp/ccMeUcYP.s:619    .text._ZN19ConsumerProducerCPP8ConsumerD2Ev:0000000000000024 .LVL50
     /tmp/ccMeUcYP.s:20208  .debug_str:0000000000000d8d .LASF275
     /tmp/ccMeUcYP.s:898    .text._ZN3AAAD0Ev:0000000000000000 .LFB115
     /tmp/ccMeUcYP.s:942    .text._ZN3AAAD0Ev:0000000000000050 .LFE115
     /tmp/ccMeUcYP.s:17406  .debug_loc:000000000000074e .LLST32
     /tmp/ccMeUcYP.s:914    .text._ZN3AAAD0Ev:0000000000000018 .LBB168
     /tmp/ccMeUcYP.s:925    .text._ZN3AAAD0Ev:0000000000000030 .LBE168
     /tmp/ccMeUcYP.s:17424  .debug_loc:000000000000079a .LLST33
     /tmp/ccMeUcYP.s:915    .text._ZN3AAAD0Ev:0000000000000018 .LBB169
     /tmp/ccMeUcYP.s:924    .text._ZN3AAAD0Ev:0000000000000030 .LBE169
     /tmp/ccMeUcYP.s:922    .text._ZN3AAAD0Ev:0000000000000030 .LVL75
     /tmp/ccMeUcYP.s:929    .text._ZN3AAAD0Ev:000000000000003c .LVL76
     /tmp/ccMeUcYP.s:20060  .debug_str:00000000000008df .LASF276
     /tmp/ccMeUcYP.s:854    .text._ZN3AAAD2Ev:0000000000000000 .LFB113
     /tmp/ccMeUcYP.s:889    .text._ZN3AAAD2Ev:0000000000000038 .LFE113
     /tmp/ccMeUcYP.s:17435  .debug_loc:00000000000007d0 .LLST30
     /tmp/ccMeUcYP.s:868    .text._ZN3AAAD2Ev:0000000000000010 .LBB166
     /tmp/ccMeUcYP.s:878    .text._ZN3AAAD2Ev:0000000000000028 .LBE166
     /tmp/ccMeUcYP.s:17449  .debug_loc:0000000000000809 .LLST31
     /tmp/ccMeUcYP.s:876    .text._ZN3AAAD2Ev:0000000000000028 .LVL72
     /tmp/ccMeUcYP.s:20466  .debug_str:0000000000001721 .LASF277
     /tmp/ccMeUcYP.s:19944  .debug_str:0000000000000524 .LASF312
     /tmp/ccMeUcYP.s:20426  .debug_str:0000000000001545 .LASF278
     /tmp/ccMeUcYP.s:20090  .debug_str:00000000000009d6 .LASF279
     /tmp/ccMeUcYP.s:20548  .debug_str:0000000000001a64 .LASF280
     /tmp/ccMeUcYP.s:5826   .text:0000000000001d4c .LFE102
     /tmp/ccMeUcYP.s:19936  .debug_str:00000000000004ec .LASF281
     /tmp/ccMeUcYP.s:17463  .debug_loc:0000000000000842 .LLST161
     /tmp/ccMeUcYP.s:17474  .debug_loc:0000000000000878 .LLST162
     /tmp/ccMeUcYP.s:17489  .debug_loc:00000000000008c1 .LLST163
     /tmp/ccMeUcYP.s:17502  .debug_loc:00000000000008f9 .LLST164
     /tmp/ccMeUcYP.s:5768   .text:0000000000001cf0 .LBB278
     /tmp/ccMeUcYP.s:5783   .text:0000000000001d08 .LBE278
     /tmp/ccMeUcYP.s:17509  .debug_loc:000000000000091c .LLST193
     /tmp/ccMeUcYP.s:5510   .text:0000000000001b54 .LBB248
     /tmp/ccMeUcYP.s:5532   .text:0000000000001b70 .LBE248
     /tmp/ccMeUcYP.s:17520  .debug_loc:0000000000000952 .LLST165
     /tmp/ccMeUcYP.s:17531  .debug_loc:0000000000000988 .LLST166
     /tmp/ccMeUcYP.s:17538  .debug_loc:00000000000009ab .LLST167
     /tmp/ccMeUcYP.s:5520   .text:0000000000001b64 .LBB250
     /tmp/ccMeUcYP.s:5527   .text:0000000000001b6c .LBE250
     /tmp/ccMeUcYP.s:17553  .debug_loc:00000000000009f4 .LLST168
     /tmp/ccMeUcYP.s:17561  .debug_loc:0000000000000a18 .LLST169
     /tmp/ccMeUcYP.s:17568  .debug_loc:0000000000000a3b .LLST170
     /tmp/ccMeUcYP.s:5517   .text:0000000000001b60 .LVL641
GAS LISTING /tmp/ccMeUcYP.s 			page 196


     /tmp/ccMeUcYP.s:5540   .text:0000000000001b7c .LBB252
     /tmp/ccMeUcYP.s:17575  .debug_loc:0000000000000a5e .LLST171
     /tmp/ccMeUcYP.s:17586  .debug_loc:0000000000000a94 .LLST172
     /tmp/ccMeUcYP.s:17597  .debug_loc:0000000000000aca .LLST173
     /tmp/ccMeUcYP.s:5547   .text:0000000000001b88 .LBB254
     /tmp/ccMeUcYP.s:5554   .text:0000000000001b90 .LBE254
     /tmp/ccMeUcYP.s:17618  .debug_loc:0000000000000b28 .LLST174
     /tmp/ccMeUcYP.s:17626  .debug_loc:0000000000000b4c .LLST175
     /tmp/ccMeUcYP.s:17633  .debug_loc:0000000000000b6f .LLST176
     /tmp/ccMeUcYP.s:5546   .text:0000000000001b88 .LVL647
     /tmp/ccMeUcYP.s:5572   .text:0000000000001ba8 .LBB257
     /tmp/ccMeUcYP.s:17640  .debug_loc:0000000000000b92 .LLST177
     /tmp/ccMeUcYP.s:17651  .debug_loc:0000000000000bc8 .LLST178
     /tmp/ccMeUcYP.s:17662  .debug_loc:0000000000000bfe .LLST179
     /tmp/ccMeUcYP.s:5579   .text:0000000000001bb4 .LBB259
     /tmp/ccMeUcYP.s:5586   .text:0000000000001bbc .LBE259
     /tmp/ccMeUcYP.s:17683  .debug_loc:0000000000000c5c .LLST180
     /tmp/ccMeUcYP.s:17691  .debug_loc:0000000000000c80 .LLST181
     /tmp/ccMeUcYP.s:17698  .debug_loc:0000000000000ca3 .LLST182
     /tmp/ccMeUcYP.s:5578   .text:0000000000001bb4 .LVL652
     /tmp/ccMeUcYP.s:5606   .text:0000000000001bd8 .LBB262
     /tmp/ccMeUcYP.s:17705  .debug_loc:0000000000000cc6 .LLST183
     /tmp/ccMeUcYP.s:17716  .debug_loc:0000000000000cfc .LLST184
     /tmp/ccMeUcYP.s:17727  .debug_loc:0000000000000d32 .LLST185
     /tmp/ccMeUcYP.s:5613   .text:0000000000001be4 .LBB264
     /tmp/ccMeUcYP.s:5620   .text:0000000000001bec .LBE264
     /tmp/ccMeUcYP.s:17763  .debug_loc:0000000000000dcc .LLST186
     /tmp/ccMeUcYP.s:17771  .debug_loc:0000000000000df0 .LLST187
     /tmp/ccMeUcYP.s:17778  .debug_loc:0000000000000e13 .LLST188
     /tmp/ccMeUcYP.s:5612   .text:0000000000001be4 .LVL657
     /tmp/ccMeUcYP.s:5640   .text:0000000000001c08 .LBB267
     /tmp/ccMeUcYP.s:5651   .text:0000000000001c14 .LBE267
     /tmp/ccMeUcYP.s:17785  .debug_loc:0000000000000e36 .LLST189
     /tmp/ccMeUcYP.s:5660   .text:0000000000001c28 .LBB269
     /tmp/ccMeUcYP.s:5671   .text:0000000000001c34 .LBE269
     /tmp/ccMeUcYP.s:17792  .debug_loc:0000000000000e59 .LLST190
     /tmp/ccMeUcYP.s:5709   .text:0000000000001c9c .LBB271
     /tmp/ccMeUcYP.s:17799  .debug_loc:0000000000000e7c .LLST191
     /tmp/ccMeUcYP.s:17817  .debug_loc:0000000000000ec8 .LLST192
     /tmp/ccMeUcYP.s:5715   .text:0000000000001ca8 .LVL672
     /tmp/ccMeUcYP.s:5485   .text:0000000000001b28 .LVL634
     /tmp/ccMeUcYP.s:5491   .text:0000000000001b34 .LVL635
     /tmp/ccMeUcYP.s:5502   .text:0000000000001b4c .LVL637
     /tmp/ccMeUcYP.s:5658   .text:0000000000001c28 .LVL663
     /tmp/ccMeUcYP.s:5677   .text:0000000000001c48 .LVL665
     /tmp/ccMeUcYP.s:5682   .text:0000000000001c58 .LVL666
     /tmp/ccMeUcYP.s:5688   .text:0000000000001c68 .LVL667
     /tmp/ccMeUcYP.s:5693   .text:0000000000001c78 .LVL668
     /tmp/ccMeUcYP.s:5700   .text:0000000000001c8c .LVL669
     /tmp/ccMeUcYP.s:5705   .text:0000000000001c98 .LVL670
     /tmp/ccMeUcYP.s:5767   .text:0000000000001cf0 .LVL680
     /tmp/ccMeUcYP.s:5788   .text:0000000000001d14 .LVL684
     /tmp/ccMeUcYP.s:5819   .text:0000000000001d40 .LVL692
     /tmp/ccMeUcYP.s:5823   .text:0000000000001d4c .LVL693
     /tmp/ccMeUcYP.s:5419   .text._ZN3AAA18periodicActivationEv:0000000000000000 .LFB101
     /tmp/ccMeUcYP.s:5445   .text._ZN3AAA18periodicActivationEv:0000000000000028 .LFE101
     /tmp/ccMeUcYP.s:17832  .debug_loc:0000000000000f11 .LLST160
GAS LISTING /tmp/ccMeUcYP.s 			page 197


     /tmp/ccMeUcYP.s:5434   .text._ZN3AAA18periodicActivationEv:0000000000000018 .LVL633
     /tmp/ccMeUcYP.s:20362  .debug_str:0000000000001284 .LASF282
     /tmp/ccMeUcYP.s:19922  .debug_str:0000000000000479 .LASF283
     /tmp/ccMeUcYP.s:20544  .debug_str:0000000000001a34 .LASF284
     /tmp/ccMeUcYP.s:20326  .debug_str:000000000000115b .LASF285
     /tmp/ccMeUcYP.s:5384   .text:0000000000001ad0 .LFB93
     /tmp/ccMeUcYP.s:5412   .text:0000000000001b04 .LFE93
     /tmp/ccMeUcYP.s:5401   .text:0000000000001af4 .LVL631
     /tmp/ccMeUcYP.s:20062  .debug_str:00000000000008eb .LASF286
     /tmp/ccMeUcYP.s:20540  .debug_str:0000000000001a12 .LASF287
     /tmp/ccMeUcYP.s:5359   .text:0000000000001ad0 .LFE92
     /tmp/ccMeUcYP.s:5289   .text:0000000000001a34 .LVL622
     /tmp/ccMeUcYP.s:5296   .text:0000000000001a48 .LVL623
     /tmp/ccMeUcYP.s:5306   .text:0000000000001a60 .LVL624
     /tmp/ccMeUcYP.s:5313   .text:0000000000001a78 .LVL625
     /tmp/ccMeUcYP.s:5317   .text:0000000000001a80 .LVL626
     /tmp/ccMeUcYP.s:5326   .text:0000000000001a90 .LVL627
     /tmp/ccMeUcYP.s:5333   .text:0000000000001aa0 .LVL628
     /tmp/ccMeUcYP.s:5352   .text:0000000000001ac4 .LVL629
     /tmp/ccMeUcYP.s:5356   .text:0000000000001ad0 .LVL630
     /tmp/ccMeUcYP.s:20110  .debug_str:0000000000000a9d .LASF288
     /tmp/ccMeUcYP.s:20074  .debug_str:000000000000095d .LASF289
     /tmp/ccMeUcYP.s:1398   .text:0000000000000104 .LFB91
     /tmp/ccMeUcYP.s:1458   .text:0000000000000160 .LFE91
     /tmp/ccMeUcYP.s:17846  .debug_loc:0000000000000f4a .LLST48
     /tmp/ccMeUcYP.s:1414   .text:0000000000000118 .LBB175
     /tmp/ccMeUcYP.s:1444   .text:000000000000014c .LBE175
     /tmp/ccMeUcYP.s:17860  .debug_loc:0000000000000f83 .LLST49
     /tmp/ccMeUcYP.s:1420   .text:0000000000000120 .LBB176
     /tmp/ccMeUcYP.s:1436   .text:0000000000000140 .LBE176
     /tmp/ccMeUcYP.s:17872  .debug_loc:0000000000000fba .LLST50
     /tmp/ccMeUcYP.s:1424   .text:0000000000000128 .LVL133
     /tmp/ccMeUcYP.s:1430   .text:0000000000000134 .LVL134
     /tmp/ccMeUcYP.s:1435   .text:0000000000000140 .LVL135
     /tmp/ccMeUcYP.s:20108  .debug_str:0000000000000a96 .LASF290
     /tmp/ccMeUcYP.s:20224  .debug_str:0000000000000df6 .LASF291
     /tmp/ccMeUcYP.s:1248   .text:00000000000000a4 .LFB90
     /tmp/ccMeUcYP.s:1306   .text:0000000000000104 .LFE90
     /tmp/ccMeUcYP.s:17879  .debug_loc:0000000000000fdd .LLST44
     /tmp/ccMeUcYP.s:1264   .text:00000000000000b8 .LBB174
     /tmp/ccMeUcYP.s:1292   .text:00000000000000f0 .LBE174
     /tmp/ccMeUcYP.s:17893  .debug_loc:0000000000001016 .LLST45
     /tmp/ccMeUcYP.s:1275   .text:00000000000000d0 .LVL117
     /tmp/ccMeUcYP.s:1286   .text:00000000000000e8 .LVL119
     /tmp/ccMeUcYP.s:19864  .debug_str:0000000000000247 .LASF292
     /tmp/ccMeUcYP.s:20048  .debug_str:0000000000000889 .LASF293
     /tmp/ccMeUcYP.s:5204   .text:0000000000001984 .LFB89
     /tmp/ccMeUcYP.s:5263   .text:0000000000001a14 .LFE89
     /tmp/ccMeUcYP.s:5222   .text:00000000000019ac .LVL616
     /tmp/ccMeUcYP.s:5229   .text:00000000000019c4 .LVL617
     /tmp/ccMeUcYP.s:5236   .text:00000000000019dc .LVL618
     /tmp/ccMeUcYP.s:5240   .text:00000000000019e4 .LVL619
     /tmp/ccMeUcYP.s:5246   .text:00000000000019f8 .LVL620
     /tmp/ccMeUcYP.s:5251   .text:0000000000001a00 .LVL621
     /tmp/ccMeUcYP.s:20316  .debug_str:0000000000001102 .LASF294
     /tmp/ccMeUcYP.s:1573   .text:0000000000000200 .LFB88
     /tmp/ccMeUcYP.s:1644   .text:00000000000002a8 .LFE88
GAS LISTING /tmp/ccMeUcYP.s 			page 198


     /tmp/ccMeUcYP.s:17921  .debug_loc:000000000000108a .LLST52
     /tmp/ccMeUcYP.s:1590   .text:0000000000000220 .LVL152
     /tmp/ccMeUcYP.s:1594   .text:0000000000000228 .LVL153
     /tmp/ccMeUcYP.s:1599   .text:0000000000000238 .LVL154
     /tmp/ccMeUcYP.s:1601   .text:0000000000000240 .LVL155
     /tmp/ccMeUcYP.s:1606   .text:0000000000000250 .LVL156
     /tmp/ccMeUcYP.s:1610   .text:0000000000000258 .LVL157
     /tmp/ccMeUcYP.s:1615   .text:0000000000000268 .LVL158
     /tmp/ccMeUcYP.s:1619   .text:0000000000000270 .LVL159
     /tmp/ccMeUcYP.s:1624   .text:0000000000000280 .LVL160
     /tmp/ccMeUcYP.s:1628   .text:0000000000000288 .LVL161
     /tmp/ccMeUcYP.s:1633   .text:0000000000000298 .LVL162
     /tmp/ccMeUcYP.s:19856  .debug_str:00000000000001f0 .LASF295
     /tmp/ccMeUcYP.s:1667   .text:00000000000002a8 .LFB87
     /tmp/ccMeUcYP.s:1738   .text:0000000000000350 .LFE87
     /tmp/ccMeUcYP.s:17935  .debug_loc:00000000000010c3 .LLST53
     /tmp/ccMeUcYP.s:1684   .text:00000000000002c8 .LVL165
     /tmp/ccMeUcYP.s:1688   .text:00000000000002d0 .LVL166
     /tmp/ccMeUcYP.s:1693   .text:00000000000002e0 .LVL167
     /tmp/ccMeUcYP.s:1697   .text:00000000000002e8 .LVL168
     /tmp/ccMeUcYP.s:1702   .text:00000000000002f8 .LVL169
     /tmp/ccMeUcYP.s:1706   .text:0000000000000300 .LVL170
     /tmp/ccMeUcYP.s:1711   .text:0000000000000310 .LVL171
     /tmp/ccMeUcYP.s:1715   .text:0000000000000318 .LVL172
     /tmp/ccMeUcYP.s:1720   .text:0000000000000328 .LVL173
     /tmp/ccMeUcYP.s:1725   .text:0000000000000338 .LVL174
     /tmp/ccMeUcYP.s:1727   .text:0000000000000340 .LVL175
     /tmp/ccMeUcYP.s:20530  .debug_str:000000000000197b .LASF296
     /tmp/ccMeUcYP.s:1481   .text:0000000000000160 .LFB86
     /tmp/ccMeUcYP.s:1550   .text:0000000000000200 .LFE86
     /tmp/ccMeUcYP.s:17949  .debug_loc:00000000000010fc .LLST51
     /tmp/ccMeUcYP.s:1498   .text:0000000000000180 .LVL140
     /tmp/ccMeUcYP.s:1502   .text:0000000000000188 .LVL141
     /tmp/ccMeUcYP.s:1507   .text:0000000000000198 .LVL142
     /tmp/ccMeUcYP.s:1512   .text:00000000000001a8 .LVL143
     /tmp/ccMeUcYP.s:1516   .text:00000000000001b0 .LVL144
     /tmp/ccMeUcYP.s:1521   .text:00000000000001c0 .LVL145
     /tmp/ccMeUcYP.s:1525   .text:00000000000001c8 .LVL146
     /tmp/ccMeUcYP.s:1530   .text:00000000000001d8 .LVL147
     /tmp/ccMeUcYP.s:1534   .text:00000000000001e0 .LVL148
     /tmp/ccMeUcYP.s:1539   .text:00000000000001f0 .LVL149
     /tmp/ccMeUcYP.s:19854  .debug_str:00000000000001e2 .LASF298
     /tmp/ccMeUcYP.s:20300  .debug_str:0000000000001077 .LASF300
     /tmp/ccMeUcYP.s:4955   .text:00000000000017cc .LFB85
     /tmp/ccMeUcYP.s:5198   .text:0000000000001984 .LFE85
     /tmp/ccMeUcYP.s:17963  .debug_loc:0000000000001135 .LLST148
     /tmp/ccMeUcYP.s:17974  .debug_loc:000000000000116b .LLST149
     /tmp/ccMeUcYP.s:17985  .debug_loc:00000000000011a1 .LLST150
     /tmp/ccMeUcYP.s:17996  .debug_loc:00000000000011d7 .LLST151
     /tmp/ccMeUcYP.s:4978   .text:00000000000017f0 .LBB232
     /tmp/ccMeUcYP.s:4989   .text:0000000000001800 .LBE232
     /tmp/ccMeUcYP.s:18007  .debug_loc:000000000000120d .LLST152
     /tmp/ccMeUcYP.s:4985   .text:00000000000017fc .LVL574
     /tmp/ccMeUcYP.s:4990   .text:0000000000001800 .LBB234
     /tmp/ccMeUcYP.s:5002   .text:0000000000001820 .LBE234
     /tmp/ccMeUcYP.s:18016  .debug_loc:0000000000001232 .LLST153
     /tmp/ccMeUcYP.s:5004   .text:0000000000001820 .LBB236
GAS LISTING /tmp/ccMeUcYP.s 			page 199


     /tmp/ccMeUcYP.s:5015   .text:0000000000001830 .LBE236
     /tmp/ccMeUcYP.s:18023  .debug_loc:0000000000001255 .LLST154
     /tmp/ccMeUcYP.s:5011   .text:000000000000182c .LVL578
     /tmp/ccMeUcYP.s:5016   .text:0000000000001830 .LBB238
     /tmp/ccMeUcYP.s:5027   .text:0000000000001848 .LBE238
     /tmp/ccMeUcYP.s:18032  .debug_loc:000000000000127a .LLST155
     /tmp/ccMeUcYP.s:5029   .text:0000000000001848 .LBB240
     /tmp/ccMeUcYP.s:5040   .text:0000000000001858 .LBE240
     /tmp/ccMeUcYP.s:18039  .debug_loc:000000000000129d .LLST156
     /tmp/ccMeUcYP.s:5036   .text:0000000000001854 .LVL582
     /tmp/ccMeUcYP.s:5041   .text:0000000000001858 .LBB242
     /tmp/ccMeUcYP.s:5052   .text:0000000000001870 .LBE242
     /tmp/ccMeUcYP.s:18048  .debug_loc:00000000000012c2 .LLST157
     /tmp/ccMeUcYP.s:5054   .text:0000000000001870 .LBB244
     /tmp/ccMeUcYP.s:5065   .text:0000000000001880 .LBE244
     /tmp/ccMeUcYP.s:18055  .debug_loc:00000000000012e5 .LLST158
     /tmp/ccMeUcYP.s:5061   .text:000000000000187c .LVL586
     /tmp/ccMeUcYP.s:5066   .text:0000000000001880 .LBB246
     /tmp/ccMeUcYP.s:5077   .text:0000000000001898 .LBE246
     /tmp/ccMeUcYP.s:18064  .debug_loc:000000000000130a .LLST159
     /tmp/ccMeUcYP.s:5083   .text:00000000000018a4 .LVL590
     /tmp/ccMeUcYP.s:5087   .text:00000000000018ac .LVL591
     /tmp/ccMeUcYP.s:5092   .text:00000000000018b8 .LVL592
     /tmp/ccMeUcYP.s:5096   .text:00000000000018c0 .LVL593
     /tmp/ccMeUcYP.s:5101   .text:00000000000018cc .LVL594
     /tmp/ccMeUcYP.s:5105   .text:00000000000018d4 .LVL595
     /tmp/ccMeUcYP.s:5110   .text:00000000000018e0 .LVL596
     /tmp/ccMeUcYP.s:5114   .text:00000000000018e8 .LVL597
     /tmp/ccMeUcYP.s:5118   .text:00000000000018f0 .LVL598
     /tmp/ccMeUcYP.s:5122   .text:00000000000018f8 .LVL599
     /tmp/ccMeUcYP.s:5126   .text:0000000000001900 .LVL600
     /tmp/ccMeUcYP.s:5130   .text:0000000000001908 .LVL601
     /tmp/ccMeUcYP.s:5134   .text:0000000000001910 .LVL602
     /tmp/ccMeUcYP.s:5138   .text:0000000000001918 .LVL603
     /tmp/ccMeUcYP.s:5142   .text:0000000000001920 .LVL604
     /tmp/ccMeUcYP.s:5146   .text:0000000000001928 .LVL605
     /tmp/ccMeUcYP.s:5150   .text:0000000000001930 .LVL606
     /tmp/ccMeUcYP.s:5154   .text:0000000000001938 .LVL607
     /tmp/ccMeUcYP.s:5159   .text:0000000000001944 .LVL608
     /tmp/ccMeUcYP.s:5163   .text:000000000000194c .LVL609
     /tmp/ccMeUcYP.s:5167   .text:0000000000001954 .LVL610
     /tmp/ccMeUcYP.s:5171   .text:000000000000195c .LVL611
     /tmp/ccMeUcYP.s:20406  .debug_str:0000000000001421 .LASF301
     /tmp/ccMeUcYP.s:19860  .debug_str:00000000000001fe .LASF302
     /tmp/ccMeUcYP.s:4843   .text:00000000000016f0 .LFB84
     /tmp/ccMeUcYP.s:4949   .text:00000000000017cc .LFE84
     /tmp/ccMeUcYP.s:18071  .debug_loc:000000000000132d .LLST146
     /tmp/ccMeUcYP.s:18082  .debug_loc:0000000000001363 .LLST147
     /tmp/ccMeUcYP.s:4863   .text:0000000000001714 .LVL556
     /tmp/ccMeUcYP.s:4868   .text:0000000000001720 .LVL557
     /tmp/ccMeUcYP.s:4873   .text:000000000000172c .LVL558
     /tmp/ccMeUcYP.s:4879   .text:0000000000001738 .LVL560
     /tmp/ccMeUcYP.s:4884   .text:0000000000001744 .LVL561
     /tmp/ccMeUcYP.s:4890   .text:0000000000001750 .LVL563
     /tmp/ccMeUcYP.s:4895   .text:000000000000175c .LVL564
     /tmp/ccMeUcYP.s:4899   .text:0000000000001764 .LVL565
     /tmp/ccMeUcYP.s:4904   .text:0000000000001770 .LVL566
GAS LISTING /tmp/ccMeUcYP.s 			page 200


     /tmp/ccMeUcYP.s:4908   .text:0000000000001778 .LVL567
     /tmp/ccMeUcYP.s:4913   .text:0000000000001784 .LVL568
     /tmp/ccMeUcYP.s:4921   .text:000000000000179c .LVL569
     /tmp/ccMeUcYP.s:4928   .text:00000000000017ac .LVL570
     /tmp/ccMeUcYP.s:20286  .debug_str:0000000000001015 .LASF303
     /tmp/ccMeUcYP.s:19984  .debug_str:000000000000065b .LASF304
     /tmp/ccMeUcYP.s:4666   .text:0000000000001578 .LFB83
     /tmp/ccMeUcYP.s:4837   .text:00000000000016f0 .LFE83
     /tmp/ccMeUcYP.s:18089  .debug_loc:0000000000001386 .LLST142
     /tmp/ccMeUcYP.s:18100  .debug_loc:00000000000013bc .LLST143
     /tmp/ccMeUcYP.s:18111  .debug_loc:00000000000013f2 .LLST144
     /tmp/ccMeUcYP.s:18122  .debug_loc:0000000000001428 .LLST145
     /tmp/ccMeUcYP.s:4688   .text:00000000000015a0 .LVL520
     /tmp/ccMeUcYP.s:4693   .text:00000000000015ac .LVL521
     /tmp/ccMeUcYP.s:4699   .text:00000000000015b8 .LVL523
     /tmp/ccMeUcYP.s:4704   .text:00000000000015c4 .LVL524
     /tmp/ccMeUcYP.s:4710   .text:00000000000015d0 .LVL526
     /tmp/ccMeUcYP.s:4715   .text:00000000000015dc .LVL527
     /tmp/ccMeUcYP.s:4721   .text:00000000000015e8 .LVL529
     /tmp/ccMeUcYP.s:4726   .text:00000000000015f4 .LVL530
     /tmp/ccMeUcYP.s:4732   .text:0000000000001600 .LVL532
     /tmp/ccMeUcYP.s:4737   .text:000000000000160c .LVL533
     /tmp/ccMeUcYP.s:4739   .text:0000000000001614 .LVL534
     /tmp/ccMeUcYP.s:4743   .text:000000000000161c .LVL535
     /tmp/ccMeUcYP.s:4748   .text:0000000000001628 .LVL536
     /tmp/ccMeUcYP.s:4750   .text:0000000000001630 .LVL537
     /tmp/ccMeUcYP.s:4754   .text:0000000000001638 .LVL538
     /tmp/ccMeUcYP.s:4759   .text:0000000000001644 .LVL539
     /tmp/ccMeUcYP.s:4761   .text:000000000000164c .LVL540
     /tmp/ccMeUcYP.s:4765   .text:0000000000001654 .LVL541
     /tmp/ccMeUcYP.s:4770   .text:0000000000001660 .LVL542
     /tmp/ccMeUcYP.s:4772   .text:0000000000001668 .LVL543
     /tmp/ccMeUcYP.s:4776   .text:0000000000001670 .LVL544
     /tmp/ccMeUcYP.s:4781   .text:000000000000167c .LVL545
     /tmp/ccMeUcYP.s:4786   .text:0000000000001688 .LVL546
     /tmp/ccMeUcYP.s:4792   .text:000000000000169c .LVL547
     /tmp/ccMeUcYP.s:4797   .text:00000000000016a8 .LVL548
     /tmp/ccMeUcYP.s:4802   .text:00000000000016b4 .LVL549
     /tmp/ccMeUcYP.s:4807   .text:00000000000016c0 .LVL550
     /tmp/ccMeUcYP.s:4812   .text:00000000000016cc .LVL551
     /tmp/ccMeUcYP.s:20088  .debug_str:00000000000009ca .LASF305
     /tmp/ccMeUcYP.s:4589   .text:0000000000001578 .LFE54
     /tmp/ccMeUcYP.s:19812  .debug_str:00000000000000c6 .LASF306
     /tmp/ccMeUcYP.s:18129  .debug_loc:000000000000144b .LLST127
     /tmp/ccMeUcYP.s:20072  .debug_str:0000000000000953 .LASF307
     /tmp/ccMeUcYP.s:18140  .debug_loc:0000000000001481 .LLST128
     /tmp/ccMeUcYP.s:18151  .debug_loc:00000000000014b7 .LLST129
     /tmp/ccMeUcYP.s:20418  .debug_str:0000000000001455 .LASF308
     /tmp/ccMeUcYP.s:18162  .debug_loc:00000000000014ed .LLST130
     /tmp/ccMeUcYP.s:20394  .debug_str:00000000000013cb .LASF309
     /tmp/ccMeUcYP.s:18180  .debug_loc:0000000000001539 .LLST131
     /tmp/ccMeUcYP.s:18193  .debug_loc:0000000000001571 .LLST132
     /tmp/ccMeUcYP.s:18204  .debug_loc:00000000000015a7 .LLST137
     /tmp/ccMeUcYP.s:4347   .text:00000000000013a0 .LBB224
     /tmp/ccMeUcYP.s:18215  .debug_loc:00000000000015dd .LLST138
     /tmp/ccMeUcYP.s:18246  .debug_loc:0000000000001645 .LLST139
     /tmp/ccMeUcYP.s:4398   .text:000000000000140c .LVL489
GAS LISTING /tmp/ccMeUcYP.s 			page 201


     /tmp/ccMeUcYP.s:4364   .text:00000000000013c8 .LVL485
     /tmp/ccMeUcYP.s:4389   .text:0000000000001400 .LVL487
     /tmp/ccMeUcYP.s:4581   .text:000000000000156c .LVL518
     /tmp/ccMeUcYP.s:18265  .debug_loc:00000000000016a1 .LLST140
     /tmp/ccMeUcYP.s:4422   .text:0000000000001430 .LVL493
     /tmp/ccMeUcYP.s:4449   .text:0000000000001458 .LBB230
     /tmp/ccMeUcYP.s:4470   .text:0000000000001480 .LBE230
     /tmp/ccMeUcYP.s:18276  .debug_loc:00000000000016d7 .LLST141
     /tmp/ccMeUcYP.s:18283  .debug_loc:00000000000016fa .LLST124
     /tmp/ccMeUcYP.s:18314  .debug_loc:0000000000001744 .LLST126
     /tmp/ccMeUcYP.s:4283   .text:0000000000001328 .LBB219
     /tmp/ccMeUcYP.s:4295   .text:0000000000001340 .LBE219
     /tmp/ccMeUcYP.s:18345  .debug_loc:000000000000178e .LLST133
     /tmp/ccMeUcYP.s:18372  .debug_loc:00000000000017e3 .LLST134
     /tmp/ccMeUcYP.s:4287   .text:0000000000001330 .LVL475
     /tmp/ccMeUcYP.s:4321   .text:0000000000001370 .LBB221
     /tmp/ccMeUcYP.s:4332   .text:0000000000001388 .LBE221
     /tmp/ccMeUcYP.s:18387  .debug_loc:000000000000182c .LLST135
     /tmp/ccMeUcYP.s:18398  .debug_loc:0000000000001862 .LLST136
     /tmp/ccMeUcYP.s:4325   .text:0000000000001378 .LVL480
     /tmp/ccMeUcYP.s:4120   .text:000000000000119c .LVL447
     /tmp/ccMeUcYP.s:4127   .text:00000000000011b0 .LVL448
     /tmp/ccMeUcYP.s:4132   .text:00000000000011bc .LVL449
     /tmp/ccMeUcYP.s:4139   .text:00000000000011d0 .LVL451
     /tmp/ccMeUcYP.s:4145   .text:00000000000011e0 .LVL452
     /tmp/ccMeUcYP.s:4150   .text:00000000000011ec .LVL453
     /tmp/ccMeUcYP.s:4157   .text:0000000000001200 .LVL455
     /tmp/ccMeUcYP.s:4164   .text:0000000000001214 .LVL456
     /tmp/ccMeUcYP.s:4169   .text:0000000000001224 .LVL457
     /tmp/ccMeUcYP.s:4176   .text:0000000000001238 .LVL458
     /tmp/ccMeUcYP.s:4181   .text:0000000000001248 .LVL459
     /tmp/ccMeUcYP.s:4190   .text:000000000000125c .LVL460
     /tmp/ccMeUcYP.s:4196   .text:000000000000126c .LVL461
     /tmp/ccMeUcYP.s:4205   .text:0000000000001280 .LVL462
     /tmp/ccMeUcYP.s:4213   .text:0000000000001294 .LVL463
     /tmp/ccMeUcYP.s:4224   .text:00000000000012a8 .LVL465
     /tmp/ccMeUcYP.s:4231   .text:00000000000012b8 .LVL467
     /tmp/ccMeUcYP.s:4278   .text:0000000000001324 .LVL473
     /tmp/ccMeUcYP.s:4301   .text:000000000000134c .LVL477
     /tmp/ccMeUcYP.s:4316   .text:000000000000136c .LVL478
     /tmp/ccMeUcYP.s:4340   .text:0000000000001398 .LVL482
     /tmp/ccMeUcYP.s:4410   .text:0000000000001418 .LVL491
     /tmp/ccMeUcYP.s:4479   .text:0000000000001494 .LVL501
     /tmp/ccMeUcYP.s:4487   .text:00000000000014a4 .LVL502
     /tmp/ccMeUcYP.s:4490   .text:00000000000014b0 .LVL503
     /tmp/ccMeUcYP.s:4534   .text:00000000000014fc .LVL508
     /tmp/ccMeUcYP.s:4538   .text:0000000000001508 .LVL509
     /tmp/ccMeUcYP.s:4545   .text:0000000000001518 .LVL510
     /tmp/ccMeUcYP.s:4549   .text:0000000000001524 .LVL511
     /tmp/ccMeUcYP.s:4557   .text:0000000000001534 .LVL513
     /tmp/ccMeUcYP.s:4561   .text:0000000000001540 .LVL514
     /tmp/ccMeUcYP.s:4568   .text:0000000000001550 .LVL515
     /tmp/ccMeUcYP.s:4572   .text:000000000000155c .LVL516
     /tmp/ccMeUcYP.s:4585   .text:0000000000001578 .LVL519
     /tmp/ccMeUcYP.s:1029   .text._ZN19ConsumerProducerCPP8Consumer3runEv:0000000000000000 .LFB53
     /tmp/ccMeUcYP.s:1146   .text._ZN19ConsumerProducerCPP8Consumer3runEv:00000000000000d0 .LFE53
     /tmp/ccMeUcYP.s:18409  .debug_loc:0000000000001898 .LLST37
GAS LISTING /tmp/ccMeUcYP.s 			page 202


     /tmp/ccMeUcYP.s:18427  .debug_loc:00000000000018e4 .LLST38
     /tmp/ccMeUcYP.s:18447  .debug_loc:0000000000001941 .LLST39
     /tmp/ccMeUcYP.s:1060   .text._ZN19ConsumerProducerCPP8Consumer3runEv:0000000000000034 .LVL92
     /tmp/ccMeUcYP.s:1074   .text._ZN19ConsumerProducerCPP8Consumer3runEv:0000000000000050 .LVL93
     /tmp/ccMeUcYP.s:1085   .text._ZN19ConsumerProducerCPP8Consumer3runEv:0000000000000064 .LVL96
     /tmp/ccMeUcYP.s:1096   .text._ZN19ConsumerProducerCPP8Consumer3runEv:0000000000000074 .LBB173
     /tmp/ccMeUcYP.s:1111   .text._ZN19ConsumerProducerCPP8Consumer3runEv:0000000000000090 .LBE173
     /tmp/ccMeUcYP.s:18454  .debug_loc:0000000000001964 .LLST40
     /tmp/ccMeUcYP.s:1103   .text._ZN19ConsumerProducerCPP8Consumer3runEv:0000000000000084 .LVL98
     /tmp/ccMeUcYP.s:1109   .text._ZN19ConsumerProducerCPP8Consumer3runEv:0000000000000090 .LVL100
     /tmp/ccMeUcYP.s:1119   .text._ZN19ConsumerProducerCPP8Consumer3runEv:00000000000000a0 .LVL101
     /tmp/ccMeUcYP.s:1127   .text._ZN19ConsumerProducerCPP8Consumer3runEv:00000000000000b4 .LVL102
     /tmp/ccMeUcYP.s:20016  .debug_str:0000000000000788 .LASF310
     /tmp/ccMeUcYP.s:1313   .text._ZN19ConsumerProducerCPP8Producer3runEv:0000000000000000 .LFB49
     /tmp/ccMeUcYP.s:1391   .text._ZN19ConsumerProducerCPP8Producer3runEv:0000000000000094 .LFE49
     /tmp/ccMeUcYP.s:18461  .debug_loc:0000000000001987 .LLST46
     /tmp/ccMeUcYP.s:18479  .debug_loc:00000000000019d3 .LLST47
     /tmp/ccMeUcYP.s:1348   .text._ZN19ConsumerProducerCPP8Producer3runEv:0000000000000044 .LVL124
     /tmp/ccMeUcYP.s:1365   .text._ZN19ConsumerProducerCPP8Producer3runEv:0000000000000068 .LVL126
     /tmp/ccMeUcYP.s:1374   .text._ZN19ConsumerProducerCPP8Producer3runEv:000000000000007c .LVL127
     /tmp/ccMeUcYP.s:20064  .debug_str:00000000000008f5 .LASF311
     /tmp/ccMeUcYP.s:949    .text._ZN19ConsumerProducerCPP16ProducerKeyborad3runEv:0000000000000000 .LFB45
     /tmp/ccMeUcYP.s:1022   .text._ZN19ConsumerProducerCPP16ProducerKeyborad3runEv:0000000000000084 .LFE45
     /tmp/ccMeUcYP.s:18499  .debug_loc:0000000000001a30 .LLST35
     /tmp/ccMeUcYP.s:18517  .debug_loc:0000000000001a7c .LLST36
     /tmp/ccMeUcYP.s:972    .text._ZN19ConsumerProducerCPP16ProducerKeyborad3runEv:0000000000000020 .LVL80
     /tmp/ccMeUcYP.s:984    .text._ZN19ConsumerProducerCPP16ProducerKeyborad3runEv:000000000000003c .LVL82
     /tmp/ccMeUcYP.s:1002   .text._ZN19ConsumerProducerCPP16ProducerKeyborad3runEv:0000000000000060 .LVL86
     /tmp/ccMeUcYP.s:1008   .text._ZN19ConsumerProducerCPP16ProducerKeyborad3runEv:0000000000000070 .LVL87
     /tmp/ccMeUcYP.s:19886  .debug_str:000000000000030b .LASF313
     /tmp/ccMeUcYP.s:19910  .debug_str:00000000000003ef .LASF314
     /tmp/ccMeUcYP.s:20290  .debug_str:000000000000102c .LASF315
     /tmp/ccMeUcYP.s:4001   .text:00000000000010cc .LFB41
     /tmp/ccMeUcYP.s:4074   .text:0000000000001154 .LFE41
     /tmp/ccMeUcYP.s:20188  .debug_str:0000000000000cdd .LASF316
     /tmp/ccMeUcYP.s:19998  .debug_str:00000000000006d4 .LASF317
     /tmp/ccMeUcYP.s:20240  .debug_str:0000000000000e64 .LASF318
     /tmp/ccMeUcYP.s:4025   .text:00000000000010f0 .LBB218
     /tmp/ccMeUcYP.s:4050   .text:0000000000001128 .LBE218
     /tmp/ccMeUcYP.s:18532  .debug_loc:0000000000001ac5 .LLST122
     /tmp/ccMeUcYP.s:4041   .text:000000000000111c .LVL444
     /tmp/ccMeUcYP.s:20486  .debug_str:00000000000017d6 .LASF319
     /tmp/ccMeUcYP.s:19896  .debug_str:000000000000038f .LASF320
     /tmp/ccMeUcYP.s:1160   .text:0000000000000000 .LFB40
     /tmp/ccMeUcYP.s:1242   .text:00000000000000a4 .LFE40
     /tmp/ccMeUcYP.s:18544  .debug_loc:0000000000001afc .LLST41
     /tmp/ccMeUcYP.s:20126  .debug_str:0000000000000b09 .LASF321
     /tmp/ccMeUcYP.s:18558  .debug_loc:0000000000001b35 .LLST42
     /tmp/ccMeUcYP.s:18565  .debug_loc:0000000000001b58 .LLST43
     /tmp/ccMeUcYP.s:1195   .text:0000000000000038 .LVL109
     /tmp/ccMeUcYP.s:1202   .text:000000000000004c .LVL110
     /tmp/ccMeUcYP.s:1207   .text:000000000000005c .LVL111
     /tmp/ccMeUcYP.s:1212   .text:0000000000000068 .LVL112
     /tmp/ccMeUcYP.s:20532  .debug_str:0000000000001983 .LASF322
     /tmp/ccMeUcYP.s:20184  .debug_str:0000000000000c9e .LASF323
     /tmp/ccMeUcYP.s:3924   .text:00000000000010cc .LFE39
     /tmp/ccMeUcYP.s:18577  .debug_loc:0000000000001b8f .LLST107
GAS LISTING /tmp/ccMeUcYP.s 			page 203


     /tmp/ccMeUcYP.s:18588  .debug_loc:0000000000001bc5 .LLST108
     /tmp/ccMeUcYP.s:18603  .debug_loc:0000000000001c0e .LLST109
     /tmp/ccMeUcYP.s:20306  .debug_str:00000000000010a7 .LASF324
     /tmp/ccMeUcYP.s:18614  .debug_loc:0000000000001c44 .LLST110
     /tmp/ccMeUcYP.s:19954  .debug_str:000000000000057b .LASF325
     /tmp/ccMeUcYP.s:18632  .debug_loc:0000000000001c90 .LLST111
     /tmp/ccMeUcYP.s:18643  .debug_loc:0000000000001cc6 .LLST112
     /tmp/ccMeUcYP.s:18656  .debug_loc:0000000000001cfe .LLST115
     /tmp/ccMeUcYP.s:3636   .text:0000000000000e90 .LBB209
     /tmp/ccMeUcYP.s:18671  .debug_loc:0000000000001d47 .LLST116
     /tmp/ccMeUcYP.s:18686  .debug_loc:0000000000001d90 .LLST117
     /tmp/ccMeUcYP.s:3699   .text:0000000000000f18 .LVL404
     /tmp/ccMeUcYP.s:3722   .text:0000000000000f3c .LBB213
     /tmp/ccMeUcYP.s:3733   .text:0000000000000f54 .LBE213
     /tmp/ccMeUcYP.s:18705  .debug_loc:0000000000001dec .LLST118
     /tmp/ccMeUcYP.s:18716  .debug_loc:0000000000001e22 .LLST119
     /tmp/ccMeUcYP.s:3726   .text:0000000000000f44 .LVL408
     /tmp/ccMeUcYP.s:3657   .text:0000000000000ec0 .LVL400
     /tmp/ccMeUcYP.s:3684   .text:0000000000000efc .LVL402
     /tmp/ccMeUcYP.s:3711   .text:0000000000000f28 .LVL406
     /tmp/ccMeUcYP.s:3904   .text:00000000000010a4 .LVL436
     /tmp/ccMeUcYP.s:3916   .text:00000000000010c0 .LVL439
     /tmp/ccMeUcYP.s:3746   .text:0000000000000f6c .LBB215
     /tmp/ccMeUcYP.s:3764   .text:0000000000000f8c .LBE215
     /tmp/ccMeUcYP.s:18731  .debug_loc:0000000000001e6b .LLST120
     /tmp/ccMeUcYP.s:3757   .text:0000000000000f84 .LVL412
     /tmp/ccMeUcYP.s:3765   .text:0000000000000f8c .LBB216
     /tmp/ccMeUcYP.s:3792   .text:0000000000000fbc .LBE216
     /tmp/ccMeUcYP.s:18742  .debug_loc:0000000000001ea1 .LLST121
     /tmp/ccMeUcYP.s:18749  .debug_loc:0000000000001ec4 .LLST104
     /tmp/ccMeUcYP.s:18780  .debug_loc:0000000000001f0e .LLST106
     /tmp/ccMeUcYP.s:3611   .text:0000000000000e64 .LBB206
     /tmp/ccMeUcYP.s:3623   .text:0000000000000e7c .LBE206
     /tmp/ccMeUcYP.s:18811  .debug_loc:0000000000001f58 .LLST113
     /tmp/ccMeUcYP.s:18838  .debug_loc:0000000000001fad .LLST114
     /tmp/ccMeUcYP.s:3615   .text:0000000000000e6c .LVL395
     /tmp/ccMeUcYP.s:3442   .text:0000000000000ccc .LVL367
     /tmp/ccMeUcYP.s:3449   .text:0000000000000ce0 .LVL368
     /tmp/ccMeUcYP.s:3454   .text:0000000000000cec .LVL369
     /tmp/ccMeUcYP.s:3461   .text:0000000000000d00 .LVL371
     /tmp/ccMeUcYP.s:3467   .text:0000000000000d10 .LVL372
     /tmp/ccMeUcYP.s:3472   .text:0000000000000d1c .LVL373
     /tmp/ccMeUcYP.s:3479   .text:0000000000000d30 .LVL375
     /tmp/ccMeUcYP.s:3486   .text:0000000000000d44 .LVL376
     /tmp/ccMeUcYP.s:3491   .text:0000000000000d54 .LVL377
     /tmp/ccMeUcYP.s:3498   .text:0000000000000d68 .LVL378
     /tmp/ccMeUcYP.s:3503   .text:0000000000000d78 .LVL379
     /tmp/ccMeUcYP.s:3512   .text:0000000000000d8c .LVL380
     /tmp/ccMeUcYP.s:3518   .text:0000000000000d9c .LVL381
     /tmp/ccMeUcYP.s:3527   .text:0000000000000db0 .LVL382
     /tmp/ccMeUcYP.s:3535   .text:0000000000000dc4 .LVL383
     /tmp/ccMeUcYP.s:3546   .text:0000000000000dd8 .LVL385
     /tmp/ccMeUcYP.s:3553   .text:0000000000000de8 .LVL387
     /tmp/ccMeUcYP.s:3601   .text:0000000000000e54 .LVL393
     /tmp/ccMeUcYP.s:3629   .text:0000000000000e88 .LVL397
     /tmp/ccMeUcYP.s:3745   .text:0000000000000f6c .LVL410
     /tmp/ccMeUcYP.s:3801   .text:0000000000000fd0 .LVL419
GAS LISTING /tmp/ccMeUcYP.s 			page 204


     /tmp/ccMeUcYP.s:3820   .text:0000000000000ff8 .LVL421
     /tmp/ccMeUcYP.s:3823   .text:0000000000001004 .LVL422
     /tmp/ccMeUcYP.s:3867   .text:0000000000001050 .LVL427
     /tmp/ccMeUcYP.s:3871   .text:000000000000105c .LVL428
     /tmp/ccMeUcYP.s:3879   .text:000000000000106c .LVL430
     /tmp/ccMeUcYP.s:3883   .text:0000000000001078 .LVL431
     /tmp/ccMeUcYP.s:3891   .text:0000000000001088 .LVL433
     /tmp/ccMeUcYP.s:3895   .text:0000000000001094 .LVL434
     /tmp/ccMeUcYP.s:3908   .text:00000000000010b0 .LVL437
     /tmp/ccMeUcYP.s:3920   .text:00000000000010cc .LVL440
     /tmp/ccMeUcYP.s:3200   .text:0000000000000b90 .LFB38
     /tmp/ccMeUcYP.s:3339   .text:0000000000000c84 .LFE38
     /tmp/ccMeUcYP.s:18853  .debug_loc:0000000000001ff6 .LLST96
     /tmp/ccMeUcYP.s:18871  .debug_loc:0000000000002042 .LLST97
     /tmp/ccMeUcYP.s:18889  .debug_loc:000000000000208e .LLST98
     /tmp/ccMeUcYP.s:18907  .debug_loc:00000000000020da .LLST99
     /tmp/ccMeUcYP.s:18931  .debug_loc:000000000000214a .LLST100
     /tmp/ccMeUcYP.s:3234   .text:0000000000000bc8 .LVL349
     /tmp/ccMeUcYP.s:3242   .text:0000000000000bd8 .LVL351
     /tmp/ccMeUcYP.s:3254   .text:0000000000000bf0 .LVL352
     /tmp/ccMeUcYP.s:3265   .text:0000000000000c04 .LVL355
     /tmp/ccMeUcYP.s:3287   .text:0000000000000c28 .LBB205
     /tmp/ccMeUcYP.s:3302   .text:0000000000000c44 .LBE205
     /tmp/ccMeUcYP.s:18938  .debug_loc:000000000000216d .LLST101
     /tmp/ccMeUcYP.s:3294   .text:0000000000000c38 .LVL357
     /tmp/ccMeUcYP.s:3300   .text:0000000000000c44 .LVL359
     /tmp/ccMeUcYP.s:3310   .text:0000000000000c54 .LVL360
     /tmp/ccMeUcYP.s:3317   .text:0000000000000c64 .LVL361
     /tmp/ccMeUcYP.s:3346   .text._ZN8Consumer3runEv:0000000000000000 .LFB37
     /tmp/ccMeUcYP.s:3373   .text._ZN8Consumer3runEv:000000000000002c .LFE37
     /tmp/ccMeUcYP.s:18945  .debug_loc:0000000000002190 .LLST102
     /tmp/ccMeUcYP.s:3362   .text._ZN8Consumer3runEv:000000000000001c .LVL366
     /tmp/ccMeUcYP.s:20132  .debug_str:0000000000000b2b .LASF326
     /tmp/ccMeUcYP.s:3077   .text:0000000000000afc .LFB33
     /tmp/ccMeUcYP.s:3159   .text:0000000000000b90 .LFE33
     /tmp/ccMeUcYP.s:18959  .debug_loc:00000000000021c9 .LLST91
     /tmp/ccMeUcYP.s:18973  .debug_loc:0000000000002202 .LLST92
     /tmp/ccMeUcYP.s:18991  .debug_loc:000000000000224e .LLST93
     /tmp/ccMeUcYP.s:19009  .debug_loc:000000000000229a .LLST94
     /tmp/ccMeUcYP.s:3105   .text:0000000000000b28 .LVL337
     /tmp/ccMeUcYP.s:3118   .text:0000000000000b48 .LVL338
     /tmp/ccMeUcYP.s:3142   .text:0000000000000b78 .LVL341
     /tmp/ccMeUcYP.s:3166   .text._ZN8Producer3runEv:0000000000000000 .LFB32
     /tmp/ccMeUcYP.s:3193   .text._ZN8Producer3runEv:000000000000002c .LFE32
     /tmp/ccMeUcYP.s:19033  .debug_loc:000000000000230a .LLST95
     /tmp/ccMeUcYP.s:3182   .text._ZN8Producer3runEv:000000000000001c .LVL345
     /tmp/ccMeUcYP.s:20004  .debug_str:000000000000070c .LASF327
     /tmp/ccMeUcYP.s:2930   .text:0000000000000a3c .LFB28
     /tmp/ccMeUcYP.s:3036   .text:0000000000000afc .LFE28
     /tmp/ccMeUcYP.s:19047  .debug_loc:0000000000002343 .LLST85
     /tmp/ccMeUcYP.s:19065  .debug_loc:000000000000238f .LLST86
     /tmp/ccMeUcYP.s:19083  .debug_loc:00000000000023db .LLST87
     /tmp/ccMeUcYP.s:19101  .debug_loc:0000000000002427 .LLST88
     /tmp/ccMeUcYP.s:19116  .debug_loc:0000000000002470 .LLST89
     /tmp/ccMeUcYP.s:2962   .text:0000000000000a70 .LVL319
     /tmp/ccMeUcYP.s:2968   .text:0000000000000a78 .LVL320
     /tmp/ccMeUcYP.s:2979   .text:0000000000000a90 .LVL322
GAS LISTING /tmp/ccMeUcYP.s 			page 205


     /tmp/ccMeUcYP.s:3011   .text:0000000000000ad4 .LVL327
     /tmp/ccMeUcYP.s:3016   .text:0000000000000ae0 .LVL328
     /tmp/ccMeUcYP.s:3043   .text._ZN16ProducerKeyboard3runEv:0000000000000000 .LFB27
     /tmp/ccMeUcYP.s:3070   .text._ZN16ProducerKeyboard3runEv:000000000000002c .LFE27
     /tmp/ccMeUcYP.s:19140  .debug_loc:00000000000024e0 .LLST90
     /tmp/ccMeUcYP.s:3059   .text._ZN16ProducerKeyboard3runEv:000000000000001c .LVL333
     /tmp/ccMeUcYP.s:20092  .debug_str:00000000000009df .LASF328
     /tmp/ccMeUcYP.s:20478  .debug_str:0000000000001791 .LASF329
     /tmp/ccMeUcYP.s:19934  .debug_str:00000000000004d2 .LASF330
     /tmp/ccMeUcYP.s:2864   .text:0000000000000a3c .LFE23
     /tmp/ccMeUcYP.s:2733   .text:0000000000000924 .LBB201
     /tmp/ccMeUcYP.s:2756   .text:0000000000000950 .LBE201
     /tmp/ccMeUcYP.s:19154  .debug_loc:0000000000002519 .LLST82
     /tmp/ccMeUcYP.s:2749   .text:0000000000000948 .LVL297
     /tmp/ccMeUcYP.s:2776   .text:0000000000000988 .LBB202
     /tmp/ccMeUcYP.s:2805   .text:00000000000009b8 .LBE202
     /tmp/ccMeUcYP.s:20038  .debug_str:0000000000000858 .LASF331
     /tmp/ccMeUcYP.s:19165  .debug_loc:000000000000254f .LLST83
     /tmp/ccMeUcYP.s:19952  .debug_str:000000000000056f .LASF332
     /tmp/ccMeUcYP.s:20140  .debug_str:0000000000000b70 .LASF380
     /tmp/ccMeUcYP.s:19172  .debug_loc:0000000000002572 .LLST84
     /tmp/ccMeUcYP.s:19964  .debug_str:00000000000005d4 .LASF333
     /tmp/ccMeUcYP.s:2630   .text:0000000000000854 .LBB193
     /tmp/ccMeUcYP.s:2640   .text:0000000000000868 .LBE193
     /tmp/ccMeUcYP.s:19183  .debug_loc:00000000000025a8 .LLST78
     /tmp/ccMeUcYP.s:2634   .text:000000000000085c .LVL278
     /tmp/ccMeUcYP.s:2658   .text:000000000000088c .LBB195
     /tmp/ccMeUcYP.s:2668   .text:00000000000008a0 .LBE195
     /tmp/ccMeUcYP.s:19194  .debug_loc:00000000000025de .LLST79
     /tmp/ccMeUcYP.s:2662   .text:0000000000000894 .LVL283
     /tmp/ccMeUcYP.s:2686   .text:00000000000008c4 .LBB197
     /tmp/ccMeUcYP.s:2696   .text:00000000000008d8 .LBE197
     /tmp/ccMeUcYP.s:19205  .debug_loc:0000000000002614 .LLST80
     /tmp/ccMeUcYP.s:2690   .text:00000000000008cc .LVL288
     /tmp/ccMeUcYP.s:2714   .text:00000000000008fc .LBB199
     /tmp/ccMeUcYP.s:2724   .text:0000000000000910 .LBE199
     /tmp/ccMeUcYP.s:19216  .debug_loc:000000000000264a .LLST81
     /tmp/ccMeUcYP.s:2718   .text:0000000000000904 .LVL293
     /tmp/ccMeUcYP.s:2625   .text:0000000000000850 .LVL276
     /tmp/ccMeUcYP.s:2648   .text:000000000000087c .LVL280
     /tmp/ccMeUcYP.s:2653   .text:0000000000000888 .LVL281
     /tmp/ccMeUcYP.s:2676   .text:00000000000008b4 .LVL285
     /tmp/ccMeUcYP.s:2681   .text:00000000000008c0 .LVL286
     /tmp/ccMeUcYP.s:2704   .text:00000000000008ec .LVL290
     /tmp/ccMeUcYP.s:2709   .text:00000000000008f8 .LVL291
     /tmp/ccMeUcYP.s:2732   .text:0000000000000924 .LVL295
     /tmp/ccMeUcYP.s:2760   .text:0000000000000958 .LVL300
     /tmp/ccMeUcYP.s:2809   .text:00000000000009c4 .LVL307
     /tmp/ccMeUcYP.s:2813   .text:00000000000009d0 .LVL308
     /tmp/ccMeUcYP.s:2820   .text:00000000000009e0 .LVL309
     /tmp/ccMeUcYP.s:2824   .text:00000000000009ec .LVL310
     /tmp/ccMeUcYP.s:2831   .text:00000000000009fc .LVL311
     /tmp/ccMeUcYP.s:2835   .text:0000000000000a08 .LVL312
     /tmp/ccMeUcYP.s:2842   .text:0000000000000a18 .LVL313
     /tmp/ccMeUcYP.s:2846   .text:0000000000000a24 .LVL314
     /tmp/ccMeUcYP.s:2399   .text:00000000000006e4 .LFB22
     /tmp/ccMeUcYP.s:2548   .text:000000000000082c .LFE22
GAS LISTING /tmp/ccMeUcYP.s 			page 206


     /tmp/ccMeUcYP.s:19227  .debug_loc:0000000000002680 .LLST73
     /tmp/ccMeUcYP.s:19241  .debug_loc:00000000000026b9 .LLST74
     /tmp/ccMeUcYP.s:19255  .debug_loc:00000000000026f2 .LLST75
     /tmp/ccMeUcYP.s:19942  .debug_str:000000000000051d .LASF334
     /tmp/ccMeUcYP.s:19275  .debug_loc:000000000000274f .LLST76
     /tmp/ccMeUcYP.s:2426   .text:0000000000000714 .LVL252
     /tmp/ccMeUcYP.s:2433   .text:0000000000000728 .LVL253
     /tmp/ccMeUcYP.s:2438   .text:0000000000000738 .LVL254
     /tmp/ccMeUcYP.s:2453   .text:0000000000000758 .LVL257
     /tmp/ccMeUcYP.s:2464   .text:0000000000000764 .LVL258
     /tmp/ccMeUcYP.s:2469   .text:0000000000000770 .LVL259
     /tmp/ccMeUcYP.s:2477   .text:0000000000000784 .LVL262
     /tmp/ccMeUcYP.s:2484   .text:0000000000000798 .LVL263
     /tmp/ccMeUcYP.s:2489   .text:00000000000007a8 .LVL264
     /tmp/ccMeUcYP.s:2496   .text:00000000000007bc .LVL265
     /tmp/ccMeUcYP.s:2503   .text:00000000000007d0 .LVL266
     /tmp/ccMeUcYP.s:2508   .text:00000000000007e0 .LVL267
     /tmp/ccMeUcYP.s:2523   .text:0000000000000800 .LVL270
     /tmp/ccMeUcYP.s:2531   .text:0000000000000814 .LVL271
     /tmp/ccMeUcYP.s:2170   .text:0000000000000564 .LFB21
     /tmp/ccMeUcYP.s:2345   .text:00000000000006e4 .LFE21
     /tmp/ccMeUcYP.s:19286  .debug_loc:0000000000002785 .LLST67
     /tmp/ccMeUcYP.s:19300  .debug_loc:00000000000027be .LLST68
     /tmp/ccMeUcYP.s:19314  .debug_loc:00000000000027f7 .LLST69
     /tmp/ccMeUcYP.s:19334  .debug_loc:0000000000002854 .LLST70
     /tmp/ccMeUcYP.s:19342  .debug_loc:0000000000002878 .LLST71
     /tmp/ccMeUcYP.s:2197   .text:0000000000000594 .LVL221
     /tmp/ccMeUcYP.s:2204   .text:00000000000005a8 .LVL222
     /tmp/ccMeUcYP.s:2209   .text:00000000000005b8 .LVL223
     /tmp/ccMeUcYP.s:2224   .text:00000000000005d8 .LVL226
     /tmp/ccMeUcYP.s:2235   .text:00000000000005e4 .LVL227
     /tmp/ccMeUcYP.s:2249   .text:00000000000005f8 .LVL229
     /tmp/ccMeUcYP.s:2256   .text:000000000000060c .LVL230
     /tmp/ccMeUcYP.s:2261   .text:000000000000061c .LVL231
     /tmp/ccMeUcYP.s:2266   .text:0000000000000628 .LVL232
     /tmp/ccMeUcYP.s:2274   .text:000000000000063c .LVL235
     /tmp/ccMeUcYP.s:2281   .text:0000000000000650 .LVL236
     /tmp/ccMeUcYP.s:2286   .text:0000000000000660 .LVL237
     /tmp/ccMeUcYP.s:2293   .text:0000000000000674 .LVL238
     /tmp/ccMeUcYP.s:2300   .text:0000000000000688 .LVL239
     /tmp/ccMeUcYP.s:2305   .text:0000000000000698 .LVL240
     /tmp/ccMeUcYP.s:2320   .text:00000000000006b8 .LVL243
     /tmp/ccMeUcYP.s:2328   .text:00000000000006cc .LVL244
     /tmp/ccMeUcYP.s:1993   .text:0000000000000490 .LFB20
     /tmp/ccMeUcYP.s:2116   .text:0000000000000564 .LFE20
     /tmp/ccMeUcYP.s:19353  .debug_loc:00000000000028ae .LLST61
     /tmp/ccMeUcYP.s:19367  .debug_loc:00000000000028e7 .LLST62
     /tmp/ccMeUcYP.s:2011   .text:00000000000004a8 .LBB185
     /tmp/ccMeUcYP.s:2087   .text:0000000000000528 .LBE185
     /tmp/ccMeUcYP.s:19381  .debug_loc:0000000000002920 .LLST63
     /tmp/ccMeUcYP.s:19393  .debug_loc:0000000000002957 .LLST64
     /tmp/ccMeUcYP.s:2034   .text:00000000000004c8 .LBB189
     /tmp/ccMeUcYP.s:2049   .text:00000000000004e0 .LBE189
     /tmp/ccMeUcYP.s:19405  .debug_loc:000000000000298e .LLST65
     /tmp/ccMeUcYP.s:2023   .text:00000000000004b8 .LVL203
     /tmp/ccMeUcYP.s:2065   .text:00000000000004fc .LVL209
     /tmp/ccMeUcYP.s:2072   .text:0000000000000510 .LVL210
GAS LISTING /tmp/ccMeUcYP.s 			page 207


     /tmp/ccMeUcYP.s:2077   .text:0000000000000520 .LVL211
     /tmp/ccMeUcYP.s:2092   .text:0000000000000538 .LVL213
     /tmp/ccMeUcYP.s:2100   .text:000000000000054c .LVL214
     /tmp/ccMeUcYP.s:1826   .text:00000000000003c4 .LFB19
     /tmp/ccMeUcYP.s:1945   .text:0000000000000490 .LFE19
     /tmp/ccMeUcYP.s:19416  .debug_loc:00000000000029c4 .LLST55
     /tmp/ccMeUcYP.s:19430  .debug_loc:00000000000029fd .LLST56
     /tmp/ccMeUcYP.s:1844   .text:00000000000003dc .LBB177
     /tmp/ccMeUcYP.s:1920   .text:000000000000045c .LBE177
     /tmp/ccMeUcYP.s:19444  .debug_loc:0000000000002a36 .LLST57
     /tmp/ccMeUcYP.s:19456  .debug_loc:0000000000002a6d .LLST58
     /tmp/ccMeUcYP.s:1867   .text:00000000000003fc .LBB181
     /tmp/ccMeUcYP.s:1882   .text:0000000000000414 .LBE181
     /tmp/ccMeUcYP.s:19468  .debug_loc:0000000000002aa4 .LLST59
     /tmp/ccMeUcYP.s:1856   .text:00000000000003ec .LVL186
     /tmp/ccMeUcYP.s:1898   .text:0000000000000430 .LVL192
     /tmp/ccMeUcYP.s:1905   .text:0000000000000444 .LVL193
     /tmp/ccMeUcYP.s:1910   .text:0000000000000454 .LVL194
     /tmp/ccMeUcYP.s:1925   .text:000000000000046c .LVL196
     /tmp/ccMeUcYP.s:2555   .text._ZN7WorkerD3runEv:0000000000000000 .LFB18
     /tmp/ccMeUcYP.s:2582   .text._ZN7WorkerD3runEv:000000000000002c .LFE18
     /tmp/ccMeUcYP.s:19479  .debug_loc:0000000000002ada .LLST77
     /tmp/ccMeUcYP.s:2571   .text._ZN7WorkerD3runEv:000000000000001c .LVL275
     /tmp/ccMeUcYP.s:20340  .debug_str:00000000000011bf .LASF335
     /tmp/ccMeUcYP.s:2352   .text._ZN7WorkerC3runEv:0000000000000000 .LFB14
     /tmp/ccMeUcYP.s:2379   .text._ZN7WorkerC3runEv:000000000000002c .LFE14
     /tmp/ccMeUcYP.s:19493  .debug_loc:0000000000002b13 .LLST72
     /tmp/ccMeUcYP.s:2368   .text._ZN7WorkerC3runEv:000000000000001c .LVL248
     /tmp/ccMeUcYP.s:20216  .debug_str:0000000000000dbb .LASF336
     /tmp/ccMeUcYP.s:2123   .text._ZN7WorkerB3runEv:0000000000000000 .LFB10
     /tmp/ccMeUcYP.s:2150   .text._ZN7WorkerB3runEv:000000000000002c .LFE10
     /tmp/ccMeUcYP.s:19507  .debug_loc:0000000000002b4c .LLST66
     /tmp/ccMeUcYP.s:2139   .text._ZN7WorkerB3runEv:000000000000001c .LVL217
     /tmp/ccMeUcYP.s:20506  .debug_str:00000000000018c0 .LASF337
     /tmp/ccMeUcYP.s:1952   .text._ZN7WorkerA3runEv:0000000000000000 .LFB6
     /tmp/ccMeUcYP.s:1979   .text._ZN7WorkerA3runEv:000000000000002c .LFE6
     /tmp/ccMeUcYP.s:19521  .debug_loc:0000000000002b85 .LLST60
     /tmp/ccMeUcYP.s:1968   .text._ZN7WorkerA3runEv:000000000000001c .LVL199
     /tmp/ccMeUcYP.s:19988  .debug_str:0000000000000681 .LASF338
     /tmp/ccMeUcYP.s:20346  .debug_str:00000000000011fb .LASF339
     /tmp/ccMeUcYP.s:19836  .debug_str:0000000000000175 .LASF340
     /tmp/ccMeUcYP.s:1744   .text:0000000000000350 .LFB2
     /tmp/ccMeUcYP.s:1809   .text:00000000000003c4 .LFE2
     /tmp/ccMeUcYP.s:19535  .debug_loc:0000000000002bbe .LLST54
     /tmp/ccMeUcYP.s:1776   .text:000000000000038c .LVL178
     /tmp/ccMeUcYP.s:1781   .text:000000000000039c .LVL179
     /tmp/ccMeUcYP.s:1806   .text:00000000000003c0 .LVL182
     /tmp/ccMeUcYP.s:20172  .debug_str:0000000000000c51 .LASF341
     /tmp/ccMeUcYP.s:20026  .debug_str:0000000000000810 .LASF342
     /tmp/ccMeUcYP.s:19882  .debug_str:00000000000002f8 .LASF343
     /tmp/ccMeUcYP.s:20066  .debug_str:000000000000092c .LASF344
     /tmp/ccMeUcYP.s:20252  .debug_str:0000000000000eb6 .LASF345
     /tmp/ccMeUcYP.s:20032  .debug_str:0000000000000839 .LASF346
     /tmp/ccMeUcYP.s:20324  .debug_str:0000000000001148 .LASF347
     /tmp/ccMeUcYP.s:20304  .debug_str:000000000000109b .LASF348
     /tmp/ccMeUcYP.s:20432  .debug_str:0000000000001592 .LASF381
     /tmp/ccMeUcYP.s:20502  .debug_str:000000000000189c .LASF382
GAS LISTING /tmp/ccMeUcYP.s 			page 208


     /tmp/ccMeUcYP.s:20280  .debug_str:0000000000000ff1 .LASF349
     /tmp/ccMeUcYP.s:19940  .debug_str:00000000000004fc .LASF350
     /tmp/ccMeUcYP.s:19844  .debug_str:00000000000001a8 .LASF351
     /tmp/ccMeUcYP.s:20232  .debug_str:0000000000000e33 .LASF352
     /tmp/ccMeUcYP.s:20158  .debug_str:0000000000000bce .LASF353
     /tmp/ccMeUcYP.s:20278  .debug_str:0000000000000feb .LASF354
     /tmp/ccMeUcYP.s:20078  .debug_str:000000000000097b .LASF355
     /tmp/ccMeUcYP.s:20050  .debug_str:0000000000000895 .LASF356
     /tmp/ccMeUcYP.s:20386  .debug_str:0000000000001391 .LASF357
     /tmp/ccMeUcYP.s:20294  .debug_str:0000000000001051 .LASF358
     /tmp/ccMeUcYP.s:20250  .debug_str:0000000000000eaa .LASF359
     /tmp/ccMeUcYP.s:20458  .debug_str:00000000000016c0 .LASF360
     /tmp/ccMeUcYP.s:19820  .debug_str:0000000000000114 .LASF361
     /tmp/ccMeUcYP.s:19798  .debug_str:0000000000000049 .LASF362
     /tmp/ccMeUcYP.s:20152  .debug_str:0000000000000bb1 .LASF363
     /tmp/ccMeUcYP.s:19968  .debug_str:00000000000005e7 .LASF364
     /tmp/ccMeUcYP.s:19802  .debug_str:000000000000006f .LASF365
     /tmp/ccMeUcYP.s:20226  .debug_str:0000000000000e02 .LASF366
     /tmp/ccMeUcYP.s:20136  .debug_str:0000000000000b5d .LASF367
     /tmp/ccMeUcYP.s:20536  .debug_str:00000000000019d0 .LASF368
     /tmp/ccMeUcYP.s:20082  .debug_str:000000000000099e .LASF369
     /tmp/ccMeUcYP.s:19962  .debug_str:00000000000005bf .LASF370
     /tmp/ccMeUcYP.s:19996  .debug_str:00000000000006c4 .LASF371
     /tmp/ccMeUcYP.s:52     .text._ZN7WorkerAD0Ev:0000000000000000 .LVL2
     /tmp/ccMeUcYP.s:84     .text._ZN7WorkerAD0Ev:0000000000000044 .LVL6
     /tmp/ccMeUcYP.s:64     .text._ZN7WorkerAD0Ev:0000000000000018 .LVL3
     /tmp/ccMeUcYP.s:15     .text._ZN7WorkerAD2Ev:0000000000000000 .LVL0
     /tmp/ccMeUcYP.s:136    .text._ZN7WorkerBD0Ev:0000000000000000 .LVL9
     /tmp/ccMeUcYP.s:168    .text._ZN7WorkerBD0Ev:0000000000000044 .LVL13
     /tmp/ccMeUcYP.s:148    .text._ZN7WorkerBD0Ev:0000000000000018 .LVL10
     /tmp/ccMeUcYP.s:99     .text._ZN7WorkerBD2Ev:0000000000000000 .LVL7
     /tmp/ccMeUcYP.s:220    .text._ZN7WorkerCD0Ev:0000000000000000 .LVL16
     /tmp/ccMeUcYP.s:252    .text._ZN7WorkerCD0Ev:0000000000000044 .LVL20
     /tmp/ccMeUcYP.s:232    .text._ZN7WorkerCD0Ev:0000000000000018 .LVL17
     /tmp/ccMeUcYP.s:183    .text._ZN7WorkerCD2Ev:0000000000000000 .LVL14
     /tmp/ccMeUcYP.s:304    .text._ZN7WorkerDD0Ev:0000000000000000 .LVL23
     /tmp/ccMeUcYP.s:336    .text._ZN7WorkerDD0Ev:0000000000000044 .LVL27
     /tmp/ccMeUcYP.s:316    .text._ZN7WorkerDD0Ev:0000000000000018 .LVL24
     /tmp/ccMeUcYP.s:267    .text._ZN7WorkerDD2Ev:0000000000000000 .LVL21
     /tmp/ccMeUcYP.s:557    .text._ZN16ProducerKeyboardD0Ev:0000000000000000 .LVL44
     /tmp/ccMeUcYP.s:589    .text._ZN16ProducerKeyboardD0Ev:0000000000000044 .LVL48
     /tmp/ccMeUcYP.s:569    .text._ZN16ProducerKeyboardD0Ev:0000000000000018 .LVL45
     /tmp/ccMeUcYP.s:520    .text._ZN16ProducerKeyboardD2Ev:0000000000000000 .LVL42
     /tmp/ccMeUcYP.s:473    .text._ZN8ProducerD0Ev:0000000000000000 .LVL37
     /tmp/ccMeUcYP.s:505    .text._ZN8ProducerD0Ev:0000000000000044 .LVL41
     /tmp/ccMeUcYP.s:485    .text._ZN8ProducerD0Ev:0000000000000018 .LVL38
     /tmp/ccMeUcYP.s:436    .text._ZN8ProducerD2Ev:0000000000000000 .LVL35
     /tmp/ccMeUcYP.s:389    .text._ZN8ConsumerD0Ev:0000000000000000 .LVL30
     /tmp/ccMeUcYP.s:421    .text._ZN8ConsumerD0Ev:0000000000000044 .LVL34
     /tmp/ccMeUcYP.s:401    .text._ZN8ConsumerD0Ev:0000000000000018 .LVL31
     /tmp/ccMeUcYP.s:352    .text._ZN8ConsumerD2Ev:0000000000000000 .LVL28
     /tmp/ccMeUcYP.s:726    .text._ZN19ConsumerProducerCPP16ProducerKeyboradD0Ev:0000000000000000 .LVL58
     /tmp/ccMeUcYP.s:758    .text._ZN19ConsumerProducerCPP16ProducerKeyboradD0Ev:0000000000000044 .LVL62
     /tmp/ccMeUcYP.s:738    .text._ZN19ConsumerProducerCPP16ProducerKeyboradD0Ev:0000000000000018 .LVL59
     /tmp/ccMeUcYP.s:689    .text._ZN19ConsumerProducerCPP16ProducerKeyboradD2Ev:0000000000000000 .LVL56
     /tmp/ccMeUcYP.s:810    .text._ZN19ConsumerProducerCPP8ProducerD0Ev:0000000000000000 .LVL65
     /tmp/ccMeUcYP.s:842    .text._ZN19ConsumerProducerCPP8ProducerD0Ev:0000000000000044 .LVL69
GAS LISTING /tmp/ccMeUcYP.s 			page 209


     /tmp/ccMeUcYP.s:822    .text._ZN19ConsumerProducerCPP8ProducerD0Ev:0000000000000018 .LVL66
     /tmp/ccMeUcYP.s:773    .text._ZN19ConsumerProducerCPP8ProducerD2Ev:0000000000000000 .LVL63
     /tmp/ccMeUcYP.s:642    .text._ZN19ConsumerProducerCPP8ConsumerD0Ev:0000000000000000 .LVL51
     /tmp/ccMeUcYP.s:674    .text._ZN19ConsumerProducerCPP8ConsumerD0Ev:0000000000000044 .LVL55
     /tmp/ccMeUcYP.s:654    .text._ZN19ConsumerProducerCPP8ConsumerD0Ev:0000000000000018 .LVL52
     /tmp/ccMeUcYP.s:605    .text._ZN19ConsumerProducerCPP8ConsumerD2Ev:0000000000000000 .LVL49
     /tmp/ccMeUcYP.s:901    .text._ZN3AAAD0Ev:0000000000000000 .LVL73
     /tmp/ccMeUcYP.s:937    .text._ZN3AAAD0Ev:0000000000000048 .LVL77
     /tmp/ccMeUcYP.s:913    .text._ZN3AAAD0Ev:0000000000000018 .LVL74
     /tmp/ccMeUcYP.s:858    .text._ZN3AAAD2Ev:0000000000000000 .LVL70
     /tmp/ccMeUcYP.s:867    .text._ZN3AAAD2Ev:0000000000000010 .LVL71
     /tmp/ccMeUcYP.s:5493   .text:0000000000001b38 .LVL636
     /tmp/ccMeUcYP.s:5708   .text:0000000000001c9c .LVL671
     /tmp/ccMeUcYP.s:5718   .text:0000000000001cac .LVL673
     /tmp/ccMeUcYP.s:5748   .text:0000000000001cd0 .LVL678
     /tmp/ccMeUcYP.s:5504   .text:0000000000001b50 .LVL638
     /tmp/ccMeUcYP.s:5515   .text:0000000000001b58 .LVL640
     /tmp/ccMeUcYP.s:5806   .text:0000000000001d28 .LVL688
     /tmp/ccMeUcYP.s:5811   .text:0000000000001d30 .LVL690
     /tmp/ccMeUcYP.s:5759   .text:0000000000001ce4 .LVL679
     /tmp/ccMeUcYP.s:5800   .text:0000000000001d20 .LVL686
     /tmp/ccMeUcYP.s:5772   .text:0000000000001cf4 .LVL681
     /tmp/ccMeUcYP.s:5779   .text:0000000000001d04 .LVL682
     /tmp/ccMeUcYP.s:5781   .text:0000000000001d08 .LVL683
     /tmp/ccMeUcYP.s:5509   .text:0000000000001b54 .LVL639
     /tmp/ccMeUcYP.s:5530   .text:0000000000001b70 .LVL644
     /tmp/ccMeUcYP.s:5525   .text:0000000000001b6c .LVL643
     /tmp/ccMeUcYP.s:5544   .text:0000000000001b80 .LVL646
     /tmp/ccMeUcYP.s:5803   .text:0000000000001d24 .LVL687
     /tmp/ccMeUcYP.s:5815   .text:0000000000001d34 .LVL691
     /tmp/ccMeUcYP.s:5519   .text:0000000000001b64 .LVL642
     /tmp/ccMeUcYP.s:5539   .text:0000000000001b7c .LVL645
     /tmp/ccMeUcYP.s:5562   .text:0000000000001b9c .LVL649
     /tmp/ccMeUcYP.s:5728   .text:0000000000001cb8 .LVL674
     /tmp/ccMeUcYP.s:5552   .text:0000000000001b90 .LVL648
     /tmp/ccMeUcYP.s:5576   .text:0000000000001bac .LVL651
     /tmp/ccMeUcYP.s:5595   .text:0000000000001bcc .LVL654
     /tmp/ccMeUcYP.s:5735   .text:0000000000001cbc .LVL675
     /tmp/ccMeUcYP.s:5571   .text:0000000000001ba8 .LVL650
     /tmp/ccMeUcYP.s:5738   .text:0000000000001cc4 .LVL676
     /tmp/ccMeUcYP.s:5584   .text:0000000000001bbc .LVL653
     /tmp/ccMeUcYP.s:5610   .text:0000000000001bdc .LVL656
     /tmp/ccMeUcYP.s:5629   .text:0000000000001bfc .LVL659
     /tmp/ccMeUcYP.s:5745   .text:0000000000001cc8 .LVL677
     /tmp/ccMeUcYP.s:5605   .text:0000000000001bd8 .LVL655
     /tmp/ccMeUcYP.s:5618   .text:0000000000001bec .LVL658
     /tmp/ccMeUcYP.s:5656   .text:0000000000001c20 .LVL662
     /tmp/ccMeUcYP.s:5797   .text:0000000000001d1c .LVL685
     /tmp/ccMeUcYP.s:5809   .text:0000000000001d2c .LVL689
     /tmp/ccMeUcYP.s:5639   .text:0000000000001c08 .LVL660
     /tmp/ccMeUcYP.s:5649   .text:0000000000001c14 .LVL661
     /tmp/ccMeUcYP.s:5669   .text:0000000000001c34 .LVL664
     /tmp/ccMeUcYP.s:5422   .text._ZN3AAA18periodicActivationEv:0000000000000000 .LVL632
     /tmp/ccMeUcYP.s:1401   .text:0000000000000104 .LVL130
     /tmp/ccMeUcYP.s:1418   .text:0000000000000120 .LVL132
     /tmp/ccMeUcYP.s:1413   .text:0000000000000118 .LVL131
     /tmp/ccMeUcYP.s:1453   .text:0000000000000158 .LVL137
GAS LISTING /tmp/ccMeUcYP.s 			page 210


     /tmp/ccMeUcYP.s:1251   .text:00000000000000a4 .LVL114
     /tmp/ccMeUcYP.s:1268   .text:00000000000000c0 .LVL116
     /tmp/ccMeUcYP.s:1263   .text:00000000000000b8 .LVL115
     /tmp/ccMeUcYP.s:1280   .text:00000000000000d8 .LVL118
     /tmp/ccMeUcYP.s:1301   .text:00000000000000fc .LVL120
     /tmp/ccMeUcYP.s:1576   .text:0000000000000200 .LVL150
     /tmp/ccMeUcYP.s:1588   .text:0000000000000218 .LVL151
     /tmp/ccMeUcYP.s:1670   .text:00000000000002a8 .LVL163
     /tmp/ccMeUcYP.s:1682   .text:00000000000002c0 .LVL164
     /tmp/ccMeUcYP.s:1484   .text:0000000000000160 .LVL138
     /tmp/ccMeUcYP.s:1496   .text:0000000000000178 .LVL139
     /tmp/ccMeUcYP.s:5000   .text:0000000000001820 .LVL576
     /tmp/ccMeUcYP.s:5009   .text:0000000000001824 .LVL577
     /tmp/ccMeUcYP.s:5184   .text:0000000000001970 .LVL612
     /tmp/ccMeUcYP.s:5025   .text:0000000000001848 .LVL580
     /tmp/ccMeUcYP.s:5034   .text:000000000000184c .LVL581
     /tmp/ccMeUcYP.s:5193   .text:000000000000197c .LVL615
     /tmp/ccMeUcYP.s:5050   .text:0000000000001870 .LVL584
     /tmp/ccMeUcYP.s:5059   .text:0000000000001874 .LVL585
     /tmp/ccMeUcYP.s:5190   .text:0000000000001978 .LVL614
     /tmp/ccMeUcYP.s:5075   .text:0000000000001898 .LVL588
     /tmp/ccMeUcYP.s:5081   .text:000000000000189c .LVL589
     /tmp/ccMeUcYP.s:5187   .text:0000000000001974 .LVL613
     /tmp/ccMeUcYP.s:4977   .text:00000000000017f0 .LVL573
     /tmp/ccMeUcYP.s:4987   .text:0000000000001800 .LVL575
     /tmp/ccMeUcYP.s:5013   .text:0000000000001830 .LVL579
     /tmp/ccMeUcYP.s:5038   .text:0000000000001858 .LVL583
     /tmp/ccMeUcYP.s:5063   .text:0000000000001880 .LVL587
     /tmp/ccMeUcYP.s:4875   .text:0000000000001730 .LVL559
     /tmp/ccMeUcYP.s:4942   .text:00000000000017c0 .LVL572
     /tmp/ccMeUcYP.s:4886   .text:0000000000001748 .LVL562
     /tmp/ccMeUcYP.s:4939   .text:00000000000017bc .LVL571
     /tmp/ccMeUcYP.s:4695   .text:00000000000015b0 .LVL522
     /tmp/ccMeUcYP.s:4832   .text:00000000000016e8 .LVL555
     /tmp/ccMeUcYP.s:4706   .text:00000000000015c8 .LVL525
     /tmp/ccMeUcYP.s:4829   .text:00000000000016e4 .LVL554
     /tmp/ccMeUcYP.s:4717   .text:00000000000015e0 .LVL528
     /tmp/ccMeUcYP.s:4826   .text:00000000000016e0 .LVL553
     /tmp/ccMeUcYP.s:4728   .text:00000000000015f8 .LVL531
     /tmp/ccMeUcYP.s:4823   .text:00000000000016dc .LVL552
     /tmp/ccMeUcYP.s:4152   .text:00000000000011f0 .LVL454
     /tmp/ccMeUcYP.s:4227   .text:00000000000012ac .LVL466
     /tmp/ccMeUcYP.s:4526   .text:00000000000014ec .LVL506
     /tmp/ccMeUcYP.s:4530   .text:00000000000014f0 .LVL507
     /tmp/ccMeUcYP.s:4134   .text:00000000000011c0 .LVL450
     /tmp/ccMeUcYP.s:4510   .text:00000000000014cc .LVL505
     /tmp/ccMeUcYP.s:4219   .text:000000000000129c .LVL464
     /tmp/ccMeUcYP.s:4494   .text:00000000000014b4 .LVL504
     /tmp/ccMeUcYP.s:4244   .text:00000000000012d8 .LVL469
     /tmp/ccMeUcYP.s:4256   .text:00000000000012f4 .LVL471
     /tmp/ccMeUcYP.s:4258   .text:00000000000012f8 .LVL472
     /tmp/ccMeUcYP.s:4293   .text:0000000000001340 .LVL476
     /tmp/ccMeUcYP.s:4345   .text:00000000000013a0 .LVL483
     /tmp/ccMeUcYP.s:4353   .text:00000000000013b0 .LVL484
     /tmp/ccMeUcYP.s:4392   .text:0000000000001404 .LVL488
     /tmp/ccMeUcYP.s:4401   .text:0000000000001410 .LVL490
     /tmp/ccMeUcYP.s:4576   .text:0000000000001560 .LVL517
GAS LISTING /tmp/ccMeUcYP.s 			page 211


     /tmp/ccMeUcYP.s:4415   .text:000000000000141c .LVL492
     /tmp/ccMeUcYP.s:4425   .text:0000000000001434 .LVL494
     /tmp/ccMeUcYP.s:4427   .text:0000000000001438 .LVL495
     /tmp/ccMeUcYP.s:4444   .text:0000000000001454 .LVL497
     /tmp/ccMeUcYP.s:4446   .text:0000000000001458 .LVL498
     /tmp/ccMeUcYP.s:4237   .text:00000000000012c4 .LVL468
     /tmp/ccMeUcYP.s:4248   .text:00000000000012dc .LVL470
     /tmp/ccMeUcYP.s:4281   .text:0000000000001328 .LVL474
     /tmp/ccMeUcYP.s:4553   .text:0000000000001528 .LVL512
     /tmp/ccMeUcYP.s:4319   .text:0000000000001370 .LVL479
     /tmp/ccMeUcYP.s:4330   .text:0000000000001388 .LVL481
     /tmp/ccMeUcYP.s:1032   .text._ZN19ConsumerProducerCPP8Consumer3runEv:0000000000000000 .LVL89
     /tmp/ccMeUcYP.s:1053   .text._ZN19ConsumerProducerCPP8Consumer3runEv:0000000000000028 .LVL91
     /tmp/ccMeUcYP.s:1138   .text._ZN19ConsumerProducerCPP8Consumer3runEv:00000000000000c4 .LVL103
     /tmp/ccMeUcYP.s:1049   .text._ZN19ConsumerProducerCPP8Consumer3runEv:0000000000000020 .LVL90
     /tmp/ccMeUcYP.s:1079   .text._ZN19ConsumerProducerCPP8Consumer3runEv:0000000000000058 .LVL94
     /tmp/ccMeUcYP.s:1090   .text._ZN19ConsumerProducerCPP8Consumer3runEv:000000000000006c .LVL97
     /tmp/ccMeUcYP.s:1141   .text._ZN19ConsumerProducerCPP8Consumer3runEv:00000000000000c8 .LVL104
     /tmp/ccMeUcYP.s:1083   .text._ZN19ConsumerProducerCPP8Consumer3runEv:000000000000005c .LVL95
     /tmp/ccMeUcYP.s:1107   .text._ZN19ConsumerProducerCPP8Consumer3runEv:0000000000000088 .LVL99
     /tmp/ccMeUcYP.s:1316   .text._ZN19ConsumerProducerCPP8Producer3runEv:0000000000000000 .LVL121
     /tmp/ccMeUcYP.s:1334   .text._ZN19ConsumerProducerCPP8Producer3runEv:0000000000000020 .LVL123
     /tmp/ccMeUcYP.s:1383   .text._ZN19ConsumerProducerCPP8Producer3runEv:0000000000000088 .LVL128
     /tmp/ccMeUcYP.s:1331   .text._ZN19ConsumerProducerCPP8Producer3runEv:000000000000001c .LVL122
     /tmp/ccMeUcYP.s:1353   .text._ZN19ConsumerProducerCPP8Producer3runEv:000000000000004c .LVL125
     /tmp/ccMeUcYP.s:1386   .text._ZN19ConsumerProducerCPP8Producer3runEv:000000000000008c .LVL129
     /tmp/ccMeUcYP.s:952    .text._ZN19ConsumerProducerCPP16ProducerKeyborad3runEv:0000000000000000 .LVL78
     /tmp/ccMeUcYP.s:966    .text._ZN19ConsumerProducerCPP16ProducerKeyborad3runEv:0000000000000018 .LVL79
     /tmp/ccMeUcYP.s:1017   .text._ZN19ConsumerProducerCPP16ProducerKeyborad3runEv:000000000000007c .LVL88
     /tmp/ccMeUcYP.s:975    .text._ZN19ConsumerProducerCPP16ProducerKeyborad3runEv:0000000000000024 .LVL81
     /tmp/ccMeUcYP.s:988    .text._ZN19ConsumerProducerCPP16ProducerKeyborad3runEv:0000000000000040 .LVL83
     /tmp/ccMeUcYP.s:998    .text._ZN19ConsumerProducerCPP16ProducerKeyborad3runEv:0000000000000054 .LVL84
     /tmp/ccMeUcYP.s:1000   .text._ZN19ConsumerProducerCPP16ProducerKeyborad3runEv:0000000000000058 .LVL85
     /tmp/ccMeUcYP.s:4024   .text:00000000000010f0 .LVL442
     /tmp/ccMeUcYP.s:4029   .text:00000000000010f8 .LVL443
     /tmp/ccMeUcYP.s:4069   .text:000000000000114c .LVL446
     /tmp/ccMeUcYP.s:1164   .text:0000000000000000 .LVL105
     /tmp/ccMeUcYP.s:1184   .text:0000000000000020 .LVL107
     /tmp/ccMeUcYP.s:1180   .text:000000000000001c .LVL106
     /tmp/ccMeUcYP.s:1220   .text:0000000000000074 .LVL113
     /tmp/ccMeUcYP.s:1189   .text:0000000000000024 .LVL108
     /tmp/ccMeUcYP.s:3474   .text:0000000000000d20 .LVL374
     /tmp/ccMeUcYP.s:3549   .text:0000000000000ddc .LVL386
     /tmp/ccMeUcYP.s:3859   .text:0000000000001040 .LVL425
     /tmp/ccMeUcYP.s:3863   .text:0000000000001044 .LVL426
     /tmp/ccMeUcYP.s:3456   .text:0000000000000cf0 .LVL370
     /tmp/ccMeUcYP.s:3841   .text:000000000000101c .LVL424
     /tmp/ccMeUcYP.s:3875   .text:0000000000001060 .LVL429
     /tmp/ccMeUcYP.s:3541   .text:0000000000000dcc .LVL384
     /tmp/ccMeUcYP.s:3827   .text:0000000000001008 .LVL423
     /tmp/ccMeUcYP.s:3566   .text:0000000000000e08 .LVL389
     /tmp/ccMeUcYP.s:3579   .text:0000000000000e24 .LVL391
     /tmp/ccMeUcYP.s:3621   .text:0000000000000e7c .LVL396
     /tmp/ccMeUcYP.s:3581   .text:0000000000000e28 .LVL392
     /tmp/ccMeUcYP.s:3634   .text:0000000000000e90 .LVL398
     /tmp/ccMeUcYP.s:3749   .text:0000000000000f70 .LVL411
     /tmp/ccMeUcYP.s:3899   .text:0000000000001098 .LVL435
GAS LISTING /tmp/ccMeUcYP.s 			page 212


     /tmp/ccMeUcYP.s:3912   .text:00000000000010b4 .LVL438
     /tmp/ccMeUcYP.s:3642   .text:0000000000000ea0 .LVL399
     /tmp/ccMeUcYP.s:3693   .text:0000000000000f10 .LVL403
     /tmp/ccMeUcYP.s:3702   .text:0000000000000f1c .LVL405
     /tmp/ccMeUcYP.s:3720   .text:0000000000000f3c .LVL407
     /tmp/ccMeUcYP.s:3731   .text:0000000000000f54 .LVL409
     /tmp/ccMeUcYP.s:3760   .text:0000000000000f88 .LVL413
     /tmp/ccMeUcYP.s:3762   .text:0000000000000f8c .LVL414
     /tmp/ccMeUcYP.s:3768   .text:0000000000000f90 .LVL415
     /tmp/ccMeUcYP.s:3770   .text:0000000000000f94 .LVL416
     /tmp/ccMeUcYP.s:3559   .text:0000000000000df4 .LVL388
     /tmp/ccMeUcYP.s:3571   .text:0000000000000e0c .LVL390
     /tmp/ccMeUcYP.s:3609   .text:0000000000000e64 .LVL394
     /tmp/ccMeUcYP.s:3887   .text:000000000000107c .LVL432
     /tmp/ccMeUcYP.s:3203   .text:0000000000000b90 .LVL346
     /tmp/ccMeUcYP.s:3228   .text:0000000000000bc0 .LVL348
     /tmp/ccMeUcYP.s:3331   .text:0000000000000c78 .LVL363
     /tmp/ccMeUcYP.s:3328   .text:0000000000000c74 .LVL362
     /tmp/ccMeUcYP.s:3223   .text:0000000000000bb8 .LVL347
     /tmp/ccMeUcYP.s:3236   .text:0000000000000bcc .LVL350
     /tmp/ccMeUcYP.s:3259   .text:0000000000000bf8 .LVL353
     /tmp/ccMeUcYP.s:3281   .text:0000000000000c20 .LVL356
     /tmp/ccMeUcYP.s:3334   .text:0000000000000c7c .LVL364
     /tmp/ccMeUcYP.s:3263   .text:0000000000000bfc .LVL354
     /tmp/ccMeUcYP.s:3298   .text:0000000000000c3c .LVL358
     /tmp/ccMeUcYP.s:3349   .text._ZN8Consumer3runEv:0000000000000000 .LVL365
     /tmp/ccMeUcYP.s:3080   .text:0000000000000afc .LVL334
     /tmp/ccMeUcYP.s:3100   .text:0000000000000b20 .LVL336
     /tmp/ccMeUcYP.s:3151   .text:0000000000000b84 .LVL342
     /tmp/ccMeUcYP.s:3095   .text:0000000000000b18 .LVL335
     /tmp/ccMeUcYP.s:3123   .text:0000000000000b50 .LVL339
     /tmp/ccMeUcYP.s:3136   .text:0000000000000b6c .LVL340
     /tmp/ccMeUcYP.s:3154   .text:0000000000000b88 .LVL343
     /tmp/ccMeUcYP.s:3169   .text._ZN8Producer3runEv:0000000000000000 .LVL344
     /tmp/ccMeUcYP.s:2933   .text:0000000000000a3c .LVL316
     /tmp/ccMeUcYP.s:2957   .text:0000000000000a68 .LVL318
     /tmp/ccMeUcYP.s:3031   .text:0000000000000af4 .LVL331
     /tmp/ccMeUcYP.s:3025   .text:0000000000000aec .LVL329
     /tmp/ccMeUcYP.s:2951   .text:0000000000000a60 .LVL317
     /tmp/ccMeUcYP.s:2971   .text:0000000000000a7c .LVL321
     /tmp/ccMeUcYP.s:2997   .text:0000000000000ab4 .LVL324
     /tmp/ccMeUcYP.s:3007   .text:0000000000000ac8 .LVL325
     /tmp/ccMeUcYP.s:3009   .text:0000000000000acc .LVL326
     /tmp/ccMeUcYP.s:2984   .text:0000000000000a98 .LVL323
     /tmp/ccMeUcYP.s:3028   .text:0000000000000af0 .LVL330
     /tmp/ccMeUcYP.s:3046   .text._ZN16ProducerKeyboard3runEv:0000000000000000 .LVL332
     /tmp/ccMeUcYP.s:2737   .text:0000000000000928 .LVL296
     /tmp/ccMeUcYP.s:2752   .text:000000000000094c .LVL298
     /tmp/ccMeUcYP.s:2754   .text:0000000000000950 .LVL299
     /tmp/ccMeUcYP.s:2779   .text:000000000000098c .LVL301
     /tmp/ccMeUcYP.s:2792   .text:00000000000009a0 .LVL304
     /tmp/ccMeUcYP.s:2800   .text:00000000000009b0 .LVL305
     /tmp/ccMeUcYP.s:2781   .text:0000000000000990 .LVL302
     /tmp/ccMeUcYP.s:2802   .text:00000000000009b4 .LVL306
     /tmp/ccMeUcYP.s:2857   .text:0000000000000a30 .LVL315
     /tmp/ccMeUcYP.s:2628   .text:0000000000000854 .LVL277
     /tmp/ccMeUcYP.s:2638   .text:0000000000000868 .LVL279
GAS LISTING /tmp/ccMeUcYP.s 			page 213


     /tmp/ccMeUcYP.s:2656   .text:000000000000088c .LVL282
     /tmp/ccMeUcYP.s:2666   .text:00000000000008a0 .LVL284
     /tmp/ccMeUcYP.s:2684   .text:00000000000008c4 .LVL287
     /tmp/ccMeUcYP.s:2694   .text:00000000000008d8 .LVL289
     /tmp/ccMeUcYP.s:2712   .text:00000000000008fc .LVL292
     /tmp/ccMeUcYP.s:2722   .text:0000000000000910 .LVL294
     /tmp/ccMeUcYP.s:2402   .text:00000000000006e4 .LVL249
     /tmp/ccMeUcYP.s:2420   .text:0000000000000704 .LVL251
     /tmp/ccMeUcYP.s:2416   .text:00000000000006fc .LVL250
     /tmp/ccMeUcYP.s:2441   .text:000000000000073c .LVL255
     /tmp/ccMeUcYP.s:2443   .text:0000000000000740 .LVL256
     /tmp/ccMeUcYP.s:2511   .text:00000000000007e4 .LVL268
     /tmp/ccMeUcYP.s:2513   .text:00000000000007e8 .LVL269
     /tmp/ccMeUcYP.s:2540   .text:0000000000000820 .LVL272
     /tmp/ccMeUcYP.s:2471   .text:0000000000000774 .LVL260
     /tmp/ccMeUcYP.s:2475   .text:000000000000077c .LVL261
     /tmp/ccMeUcYP.s:2543   .text:0000000000000824 .LVL273
     /tmp/ccMeUcYP.s:2173   .text:0000000000000564 .LVL218
     /tmp/ccMeUcYP.s:2191   .text:0000000000000584 .LVL220
     /tmp/ccMeUcYP.s:2187   .text:000000000000057c .LVL219
     /tmp/ccMeUcYP.s:2212   .text:00000000000005bc .LVL224
     /tmp/ccMeUcYP.s:2214   .text:00000000000005c0 .LVL225
     /tmp/ccMeUcYP.s:2308   .text:000000000000069c .LVL241
     /tmp/ccMeUcYP.s:2310   .text:00000000000006a0 .LVL242
     /tmp/ccMeUcYP.s:2337   .text:00000000000006d8 .LVL245
     /tmp/ccMeUcYP.s:2243   .text:00000000000005e8 .LVL228
     /tmp/ccMeUcYP.s:2268   .text:000000000000062c .LVL233
     /tmp/ccMeUcYP.s:2272   .text:0000000000000634 .LVL234
     /tmp/ccMeUcYP.s:2340   .text:00000000000006dc .LVL246
     /tmp/ccMeUcYP.s:1996   .text:0000000000000490 .LVL200
     /tmp/ccMeUcYP.s:2015   .text:00000000000004b0 .LVL202
     /tmp/ccMeUcYP.s:2010   .text:00000000000004a8 .LVL201
     /tmp/ccMeUcYP.s:2111   .text:000000000000055c .LVL215
     /tmp/ccMeUcYP.s:2055   .text:00000000000004e4 .LVL208
     /tmp/ccMeUcYP.s:2083   .text:0000000000000528 .LVL212
     /tmp/ccMeUcYP.s:2038   .text:00000000000004cc .LVL205
     /tmp/ccMeUcYP.s:2047   .text:00000000000004e0 .LVL207
     /tmp/ccMeUcYP.s:1829   .text:00000000000003c4 .LVL183
     /tmp/ccMeUcYP.s:1848   .text:00000000000003e4 .LVL185
     /tmp/ccMeUcYP.s:1843   .text:00000000000003dc .LVL184
     /tmp/ccMeUcYP.s:1940   .text:0000000000000488 .LVL197
     /tmp/ccMeUcYP.s:1888   .text:0000000000000418 .LVL191
     /tmp/ccMeUcYP.s:1916   .text:000000000000045c .LVL195
     /tmp/ccMeUcYP.s:1871   .text:0000000000000400 .LVL188
     /tmp/ccMeUcYP.s:1880   .text:0000000000000414 .LVL190
     /tmp/ccMeUcYP.s:2558   .text._ZN7WorkerD3runEv:0000000000000000 .LVL274
     /tmp/ccMeUcYP.s:2355   .text._ZN7WorkerC3runEv:0000000000000000 .LVL247
     /tmp/ccMeUcYP.s:2126   .text._ZN7WorkerB3runEv:0000000000000000 .LVL216
     /tmp/ccMeUcYP.s:1955   .text._ZN7WorkerA3runEv:0000000000000000 .LVL198
     /tmp/ccMeUcYP.s:1747   .text:0000000000000350 .LVL176
     /tmp/ccMeUcYP.s:1770   .text:0000000000000380 .LVL177
     /tmp/ccMeUcYP.s:1794   .text:00000000000003ac .LVL180
     /tmp/ccMeUcYP.s:1800   .text:00000000000003b8 .LVL181
     /tmp/ccMeUcYP.s:6041   .debug_info:0000000000000000 .Ldebug_info0
     /tmp/ccMeUcYP.s:5      .text:0000000000000000 .Ltext0
     /tmp/ccMeUcYP.s:6029   .text:0000000000001d4c .Letext0
     /tmp/ccMeUcYP.s:1055   .text._ZN19ConsumerProducerCPP8Consumer3runEv:0000000000000028 .LBB171
GAS LISTING /tmp/ccMeUcYP.s 			page 214


     /tmp/ccMeUcYP.s:1062   .text._ZN19ConsumerProducerCPP8Consumer3runEv:0000000000000034 .LBE171
     /tmp/ccMeUcYP.s:1067   .text._ZN19ConsumerProducerCPP8Consumer3runEv:0000000000000040 .LBB172
     /tmp/ccMeUcYP.s:1095   .text._ZN19ConsumerProducerCPP8Consumer3runEv:0000000000000074 .LBE172
     /tmp/ccMeUcYP.s:1851   .text:00000000000003e4 .LBB179
     /tmp/ccMeUcYP.s:1884   .text:0000000000000414 .LBE179
     /tmp/ccMeUcYP.s:1912   .text:0000000000000454 .LBB183
     /tmp/ccMeUcYP.s:1918   .text:000000000000045c .LBE183
     /tmp/ccMeUcYP.s:2018   .text:00000000000004b0 .LBB187
     /tmp/ccMeUcYP.s:2051   .text:00000000000004e0 .LBE187
     /tmp/ccMeUcYP.s:2079   .text:0000000000000520 .LBB191
     /tmp/ccMeUcYP.s:2085   .text:0000000000000528 .LBE191
     /tmp/ccMeUcYP.s:3230   .text:0000000000000bc0 .LBB203
     /tmp/ccMeUcYP.s:3244   .text:0000000000000bd8 .LBE203
     /tmp/ccMeUcYP.s:3249   .text:0000000000000be4 .LBB204
     /tmp/ccMeUcYP.s:3286   .text:0000000000000c28 .LBE204
     /tmp/ccMeUcYP.s:3630   .text:0000000000000e88 .LBB208
     /tmp/ccMeUcYP.s:3740   .text:0000000000000f64 .LBE208
     /tmp/ccMeUcYP.s:3900   .text:0000000000001098 .LBB217
     /tmp/ccMeUcYP.s:3922   .text:00000000000010cc .LBE217
     /tmp/ccMeUcYP.s:3644   .text:0000000000000ea0 .LBE209
     /tmp/ccMeUcYP.s:3695   .text:0000000000000f10 .LBB212
     /tmp/ccMeUcYP.s:3705   .text:0000000000000f1c .LBE212
     /tmp/ccMeUcYP.s:4341   .text:0000000000001398 .LBB223
     /tmp/ccMeUcYP.s:4405   .text:0000000000001410 .LBE223
     /tmp/ccMeUcYP.s:4577   .text:0000000000001560 .LBB231
     /tmp/ccMeUcYP.s:4587   .text:0000000000001578 .LBE231
     /tmp/ccMeUcYP.s:4355   .text:00000000000013b0 .LBE224
     /tmp/ccMeUcYP.s:4394   .text:0000000000001404 .LBB227
     /tmp/ccMeUcYP.s:4404   .text:0000000000001410 .LBE227
     /tmp/ccMeUcYP.s:4411   .text:0000000000001418 .LBB228
     /tmp/ccMeUcYP.s:4429   .text:0000000000001438 .LBE228
     /tmp/ccMeUcYP.s:4441   .text:0000000000001450 .LBB229
     /tmp/ccMeUcYP.s:4448   .text:0000000000001458 .LBE229
     /tmp/ccMeUcYP.s:5564   .text:0000000000001b9c .LBE252
     /tmp/ccMeUcYP.s:5722   .text:0000000000001cac .LBB274
     /tmp/ccMeUcYP.s:5731   .text:0000000000001cb8 .LBE274
     /tmp/ccMeUcYP.s:5598   .text:0000000000001bcc .LBE257
     /tmp/ccMeUcYP.s:5732   .text:0000000000001cb8 .LBB275
     /tmp/ccMeUcYP.s:5741   .text:0000000000001cc4 .LBE275
     /tmp/ccMeUcYP.s:5632   .text:0000000000001bfc .LBE262
     /tmp/ccMeUcYP.s:5742   .text:0000000000001cc4 .LBB276
     /tmp/ccMeUcYP.s:5751   .text:0000000000001cd0 .LBE276
     /tmp/ccMeUcYP.s:5721   .text:0000000000001cac .LBE271
     /tmp/ccMeUcYP.s:5752   .text:0000000000001cd0 .LBB277
     /tmp/ccMeUcYP.s:5761   .text:0000000000001ce4 .LBE277
     /tmp/ccMeUcYP.s:2867   .gcc_except_table:0000000000000000 .LLSDA23
     /tmp/ccMeUcYP.s:3926   .gcc_except_table:00000000000000ae .LLSDA39
     /tmp/ccMeUcYP.s:4591   .gcc_except_table:0000000000000183 .LLSDA54
     /tmp/ccMeUcYP.s:5361   .gcc_except_table:0000000000000258 .LLSDA92
     /tmp/ccMeUcYP.s:5828   .gcc_except_table:0000000000000283 .LLSDA102
                           .group:0000000000000000 _ZN7WorkerAD5Ev
                           .group:0000000000000000 _ZN7WorkerBD5Ev
                           .group:0000000000000000 _ZN7WorkerCD5Ev
                           .group:0000000000000000 _ZN7WorkerDD5Ev
                           .group:0000000000000000 _ZN8ConsumerD5Ev
                           .group:0000000000000000 _ZN8ProducerD5Ev
                           .group:0000000000000000 _ZN16ProducerKeyboardD5Ev
GAS LISTING /tmp/ccMeUcYP.s 			page 215


                           .group:0000000000000000 _ZN19ConsumerProducerCPP8ConsumerD5Ev
                           .group:0000000000000000 _ZN19ConsumerProducerCPP16ProducerKeyboradD5Ev
                           .group:0000000000000000 _ZN19ConsumerProducerCPP8ProducerD5Ev
                           .group:0000000000000000 _ZN3AAAD5Ev

UNDEFINED SYMBOLS
_ZN6ThreadD2Ev
_ZdlPv
_ZTV14PeriodicThread
_Z4getcv
_ZN9BufferCPP3putEi
_ZN9Semaphore6signalEv
_ZN7Console4putcEc
_ZN9BufferCPP3getEv
_ZN9BufferCPP6getCntEv
_Z11printStringPKc
_Z8printIntiii
_Z10time_sleepm
_Z4putcc
_ZN6Thread5sleepEm
_Z5printi
_Z5printPKc
_ZN3Nit5yeildEv
_Z8sem_waitP7Semafor
_Z9sem_closeP7Semafor
_Z15thread_dispatchv
_Znwm
_ZN6ThreadC2Ev
_ZN6Thread5startEv
_ZN6Thread8dispatchEv
_Unwind_Resume
__gxx_personality_v0
_Z9getStringPci
_Z11stringToIntPKc
_ZN9BufferCPPC1Ei
_ZN9SemaphoreC1Ej
_ZN9Semaphore4waitEv
_ZN9BufferCPPD1Ev
_Z13thread_createPP3NitPFvPvES2_
_ZN8Memorija5PrintEv
_ZN8Memorija9alokacijaEm
_ZN8Memorija12oslobadjanjeEPv
HEAP_START_ADDR
_Z9mem_allocm
_Z8mem_freePv
_ZN3Nit3IDDE
_ZN9Scheduler3putEP3Nit
_ZN9Scheduler5PrintEv
_ZN9Scheduler3getEv
_Z8sem_openPP7Semaforj
_ZN9Scheduler7imanitiEv
_ZN5BaferC1Ei
_ZN5BaferD1Ev
_ZN14PeriodicThreadC2Em
_ZN14PeriodicThread8zaustaviEv
_ZN14PeriodicThread3runEv
